                                      1 ;--------------------------------------------------------
                                      2 ; File Created by SDCC : free open source ANSI-C Compiler
                                      3 ; Version 4.2.0 #13081 (MINGW64)
                                      4 ;--------------------------------------------------------
                                      5 	.module soccerlg_s6_b3
                                      6 	.optsdcc -mz80
                                      7 	
                                      8 ;--------------------------------------------------------
                                      9 ; Public variables in this module
                                     10 ;--------------------------------------------------------
                                     11 	.globl _SetPlayerTarget
                                     12 	.globl _GetBestPassTarget
                                     13 	.globl _PerformShot
                                     14 	.globl _GetNoMovingPlayerPatternId
                                     15 	.globl _PeopleMoving
                                     16 	.globl _PutPonPonGirlSprite
                                     17 	.globl _PutPlayerSprite
                                     18 	.globl _PerformPass
                                     19 	.globl _PutBallOnPlayerFeet
                                     20 	.globl _GetClosestPlayerToBall
                                     21 	.globl _IsTeamJoystickTriggerPressed
                                     22 	.globl _PlayAyFx
                                     23 	.globl _V9990_ClearTextFromLayerA
                                     24 	.globl _CallFnc_U8_P1
                                     25 	.globl _CallFnc_U8_P2
                                     26 	.globl _CallFnc_VOID_16_P2
                                     27 	.globl _CallFnc_U8
                                     28 	.globl _CallFnc_VOID_P1
                                     29 	.globl _V9990_LoadP1LayerA
                                     30 	.globl _V9_SetPaletteEntry
                                     31 	.globl _V9_SetScreenMode
                                     32 	.globl _V9_WriteVRAM_CurrentAddr
                                     33 	.globl _V9_SetWriteAddress
                                     34 	.globl _V9_GetRegister
                                     35 	.globl _V9_SetRegister
                                     36 	.globl _g_SLTSL
                                     37 	.globl _g_GRPACY
                                     38 	.globl _g_GRPACX
                                     39 	.globl _g_LOGOPR
                                     40 	.globl _g_CMASK
                                     41 	.globl _g_CLOC
                                     42 	.globl _g_FNKSTR
                                     43 	.globl _g_ATRBYT
                                     44 	.globl _g_BDRCLR
                                     45 	.globl _g_BAKCLR
                                     46 	.globl _g_FORCLR
                                     47 	.globl _g_CSRX
                                     48 	.globl _g_CSRY
                                     49 	.globl _g_CLIKSW
                                     50 	.globl _g_MLTPAT
                                     51 	.globl _g_MLTATR
                                     52 	.globl _g_MLTCGP
                                     53 	.globl _g_MLTCOL
                                     54 	.globl _g_MLTNAM
                                     55 	.globl _g_GRPPAT
                                     56 	.globl _g_GRPATR
                                     57 	.globl _g_GRPCGP
                                     58 	.globl _g_GRPCOL
                                     59 	.globl _g_GRPNAM
                                     60 	.globl _g_T32PAT
                                     61 	.globl _g_T32ATR
                                     62 	.globl _g_T32CGP
                                     63 	.globl _g_T32COL
                                     64 	.globl _g_T32NAM
                                     65 	.globl _g_TXTPAT
                                     66 	.globl _g_TXTATR
                                     67 	.globl _g_TXTCGP
                                     68 	.globl _g_TXTCOL
                                     69 	.globl _g_TXTNAM
                                     70 	.globl _g_CLMLST
                                     71 	.globl _g_CRTCNT
                                     72 	.globl _g_LINLEN
                                     73 	.globl _g_LINL32
                                     74 	.globl _g_LINL40
                                     75 	.globl _g_Data_Palette_LayerB_Standard
                                     76 	.globl _g_Data_Palette_LayerA_Standard
                                     77 	.globl _g_PonPonGirlsPos
                                     78 	.globl _g_GirlPatterns
                                     79 	.globl _g_BDOS
                                     80 	.globl _g_MASTER
                                     81 	.globl _g_RAMAD3
                                     82 	.globl _g_RAMAD2
                                     83 	.globl _g_RAMAD1
                                     84 	.globl _g_RAMAD0
                                     85 	.globl _g_BREAKV
                                     86 	.globl _g_DISKVE
                                     87 	.globl _g_KANJTABLE
                                     88 	.globl _g_STRSRC
                                     89 	.globl _g_SUBRID
                                     90 	.globl _g_CHAR_16
                                     91 	.globl _g_MSXMID
                                     92 	.globl _g_MSXVER
                                     93 	.globl _g_ROMVersion
                                     94 	.globl _g_BASRVN
                                     95 	.globl _g_VDP_DW
                                     96 	.globl _g_VDP_DR
                                     97 	.globl _g_CGTABL
                                     98 	.globl _g_SVFFFD
                                     99 	.globl _g_RG27SAV
                                    100 	.globl _g_RG26SAV
                                    101 	.globl _g_RG25SAV
                                    102 	.globl _g_SVFFF8
                                    103 	.globl _g_MINROM
                                    104 	.globl _g_RG23SAV
                                    105 	.globl _g_RG22SAV
                                    106 	.globl _g_RG21SAV
                                    107 	.globl _g_RG20SAV
                                    108 	.globl _g_RG19SAV
                                    109 	.globl _g_RG18SAV
                                    110 	.globl _g_RG17SAV
                                    111 	.globl _g_RG16SAV
                                    112 	.globl _g_RG15SAV
                                    113 	.globl _g_RG14SAV
                                    114 	.globl _g_RG13SAV
                                    115 	.globl _g_RG12SAV
                                    116 	.globl _g_RG11SAV
                                    117 	.globl _g_RG10SAV
                                    118 	.globl _g_RG09SAV
                                    119 	.globl _g_RG08SAV
                                    120 	.globl _g_PROCNM
                                    121 	.globl _g_SLTWRK
                                    122 	.globl _g_SLTATR
                                    123 	.globl _g_SLTTBL
                                    124 	.globl _g_EXPTBL
                                    125 	.globl _g_MNROM
                                    126 	.globl _g_DRWANG
                                    127 	.globl _g_DRWSCL
                                    128 	.globl _g_DRWFLG
                                    129 	.globl _g_GYPOS
                                    130 	.globl _g_GXPOS
                                    131 	.globl _g_BRDATR
                                    132 	.globl _g_CASPRV
                                    133 	.globl _g_OLDSCR
                                    134 	.globl _g_SCRMOD
                                    135 	.globl _g_FLBMEM
                                    136 	.globl _g_KANAMD
                                    137 	.globl _g_KANAST
                                    138 	.globl _g_CAPST
                                    139 	.globl _g_CSTYLE
                                    140 	.globl _g_CSRSW
                                    141 	.globl _g_INSFLG
                                    142 	.globl _g_ESCCNT
                                    143 	.globl _g_GRPHED
                                    144 	.globl _g_WINWID
                                    145 	.globl _g_LOWLIM
                                    146 	.globl _g_INTCNT
                                    147 	.globl _g_INTVAL
                                    148 	.globl _g_JIFFY
                                    149 	.globl _g_PADX
                                    150 	.globl _g_PADY
                                    151 	.globl _g_INTFLG
                                    152 	.globl _g_RTYCNT
                                    153 	.globl _g_TRPTBL
                                    154 	.globl _g_HIMEM
                                    155 	.globl _g_BOTTOM
                                    156 	.globl _g_PATWRK
                                    157 	.globl _g_LINWRK
                                    158 	.globl _g_KEYBUF
                                    159 	.globl _g_NEWKEY
                                    160 	.globl _g_OLDKEY
                                    161 	.globl _g_CLIKFL
                                    162 	.globl _g_ONGSBF
                                    163 	.globl _g_FNKFLG
                                    164 	.globl _g_FNKSWI
                                    165 	.globl _g_CODSAV
                                    166 	.globl _g_FSTPOS
                                    167 	.globl _g_LINTTB
                                    168 	.globl _g_BASROM
                                    169 	.globl _g_ENSTOP
                                    170 	.globl _g_VCBC
                                    171 	.globl _g_VCBB
                                    172 	.globl _g_VCBA
                                    173 	.globl _g_PLYCNT
                                    174 	.globl _g_MUSICF
                                    175 	.globl _g_QUEUEN
                                    176 	.globl _g_MCLPTR
                                    177 	.globl _g_MCLLEN
                                    178 	.globl _g_SAVVOL
                                    179 	.globl _g_VOICEN
                                    180 	.globl _g_SAVSP
                                    181 	.globl _g_PRSCNT
                                    182 	.globl _g_LSTMOD
                                    183 	.globl _g_LSTCOM
                                    184 	.globl _g_COMMSK
                                    185 	.globl _g_ESTBLS
                                    186 	.globl _g_FLAGS
                                    187 	.globl _g_ERRORS
                                    188 	.globl _g_DATCNT
                                    189 	.globl _g_DEVNUM
                                    190 	.globl _g_OLDINT
                                    191 	.globl _g_OLDSTT
                                    192 	.globl _g_MEXBIh
                                    193 	.globl _g_RSIQLN
                                    194 	.globl _g_RSFCB
                                    195 	.globl _g_TOCNT
                                    196 	.globl _g_RSTMP
                                    197 	.globl _g_YSAVE
                                    198 	.globl _g_XSAVE
                                    199 	.globl _g_NORUSE
                                    200 	.globl _g_MODE
                                    201 	.globl _g_ROMA
                                    202 	.globl _g_CHRCNT
                                    203 	.globl _g_EXBRSA
                                    204 	.globl _g_AVCSAV
                                    205 	.globl _g_ACPAGE
                                    206 	.globl _g_DPPAGE
                                    207 	.globl _g_RS2IQ
                                    208 	.globl _g_VOICCQ
                                    209 	.globl _g_VOICBQ
                                    210 	.globl _g_VOICAQ
                                    211 	.globl _g_QUEBAK
                                    212 	.globl _g_QUETAB
                                    213 	.globl _g_ASPCT2
                                    214 	.globl _g_ASPCT1
                                    215 	.globl _g_HEADER
                                    216 	.globl _g_HIGH
                                    217 	.globl _g_LOW
                                    218 	.globl _g_CS240
                                    219 	.globl _g_CS120
                                    220 	.globl _g_GETPNT
                                    221 	.globl _g_PUTPNT
                                    222 	.globl _g_REPCNT
                                    223 	.globl _g_SCNCNT
                                    224 	.globl _g_FRCNEW
                                    225 	.globl _g_QUEUES
                                    226 	.globl _g_MINUPD
                                    227 	.globl _g_MAXUPD
                                    228 	.globl _g_TRGFLG
                                    229 	.globl _g_STATFL
                                    230 	.globl _g_RG7SAV
                                    231 	.globl _g_RG6SAV
                                    232 	.globl _g_RG5SAV
                                    233 	.globl _g_RG4SAV
                                    234 	.globl _g_RG3SAV
                                    235 	.globl _g_RG2SAV
                                    236 	.globl _g_RG1SAV
                                    237 	.globl _g_RG0SAV
                                    238 	.globl _g_CNSDFG
                                    239 	.globl _g_USRTAB
                                    240 	.globl _g_CLPRIM
                                    241 	.globl _g_WRPRIM
                                    242 	.globl _g_RDPRIM
                                    243 	.globl _V9990_InitPalette
                                    244 	.globl _V9990_InitMenuLayers
                                    245 	.globl _InitPonPonGirls
                                    246 	.globl _TickGoalCelebration
                                    247 	.globl _UpdateSpritesPositions
                                    248 	.globl _PutBallSprite
                                    249 	.globl _TickPonPonGirlsAnimation
                                    250 	.globl _TickTeamJoystick
                                    251 ;--------------------------------------------------------
                                    252 ; special function registers
                                    253 ;--------------------------------------------------------
                         000000A8   254 _g_PortPrimarySlot	=	0x00a8
                         000000A9   255 _g_PortReadKeyboard	=	0x00a9
                         000000AA   256 _g_PortAccessKeyboard	=	0x00aa
                         000000AB   257 _g_PortControl	=	0x00ab
                         00000098   258 _g_VDP_DataPort	=	0x0098
                         00000099   259 _g_VDP_RegPort	=	0x0099
                         00000099   260 _g_VDP_AddrPort	=	0x0099
                         00000099   261 _g_VDP_StatPort	=	0x0099
                         000000A0   262 _g_PSG_RegPort	=	0x00a0
                         000000A1   263 _g_PSG_DataPort	=	0x00a1
                         000000A2   264 _g_PSG_StatPort	=	0x00a2
                         00000010   265 _g_PSG_Ext_RegPort	=	0x0010
                         00000011   266 _g_PSG_Ext_DataPort	=	0x0011
                         00000012   267 _g_PSG_Ext_StatPort	=	0x0012
                         0000007C   268 _g_MSXMusic_IndexPort	=	0x007c
                         0000007D   269 _g_MSXMusic_DataPort	=	0x007d
                         000000C0   270 _g_MSXAudio_IndexPort	=	0x00c0
                         000000C1   271 _g_MSXAudio_DataPort	=	0x00c1
                         000000C2   272 _g_MSXAudio_IndexPort2	=	0x00c2
                         000000C3   273 _g_MSXAudio_DataPort2	=	0x00c3
                         000000B4   274 _g_RTC_AddrPort	=	0x00b4
                         000000B5   275 _g_RTC_DataPort	=	0x00b5
                         00000060   276 _g_V9_VRAMPort	=	0x0060
                         00000061   277 _g_V9_PalettePort	=	0x0061
                         00000062   278 _g_V9_CmdDataPort	=	0x0062
                         00000063   279 _g_V9_RegDataPort	=	0x0063
                         00000064   280 _g_V9_RegSelectPort	=	0x0064
                         00000065   281 _g_V9_SatusPort	=	0x0065
                         00000066   282 _g_V9_IntFlagPort	=	0x0066
                         00000067   283 _g_V9_SysCtrlPort	=	0x0067
                         00000068   284 _g_V9_KanjiAddrLPort	=	0x0068
                         00000069   285 _g_V9_KanjiAddrHPort	=	0x0069
                         00000069   286 _g_V9_KanjiDataPort	=	0x0069
                         0000006A   287 _g_V9_Kanji2AddrLPort	=	0x006a
                         0000006B   288 _g_V9_Kanji2AddrHPort	=	0x006b
                         0000006B   289 _g_V9_Kanji2DataPort	=	0x006b
                         0000006F   290 _g_V9_OutputCtrPort	=	0x006f
                                    291 ;--------------------------------------------------------
                                    292 ; ram data
                                    293 ;--------------------------------------------------------
                                    294 	.area _DATA
                         0000F3AE   295 _g_LINL40	=	0xf3ae
                         0000F3AF   296 _g_LINL32	=	0xf3af
                         0000F3B0   297 _g_LINLEN	=	0xf3b0
                         0000F3B1   298 _g_CRTCNT	=	0xf3b1
                         0000F3B2   299 _g_CLMLST	=	0xf3b2
                         0000F3B3   300 _g_TXTNAM	=	0xf3b3
                         0000F3B5   301 _g_TXTCOL	=	0xf3b5
                         0000F3B7   302 _g_TXTCGP	=	0xf3b7
                         0000F3B9   303 _g_TXTATR	=	0xf3b9
                         0000F3BB   304 _g_TXTPAT	=	0xf3bb
                         0000F3BD   305 _g_T32NAM	=	0xf3bd
                         0000F3BF   306 _g_T32COL	=	0xf3bf
                         0000F3C1   307 _g_T32CGP	=	0xf3c1
                         0000F3C3   308 _g_T32ATR	=	0xf3c3
                         0000F3C5   309 _g_T32PAT	=	0xf3c5
                         0000F3C7   310 _g_GRPNAM	=	0xf3c7
                         0000F3C9   311 _g_GRPCOL	=	0xf3c9
                         0000F3CB   312 _g_GRPCGP	=	0xf3cb
                         0000F3CD   313 _g_GRPATR	=	0xf3cd
                         0000F3CF   314 _g_GRPPAT	=	0xf3cf
                         0000F3D1   315 _g_MLTNAM	=	0xf3d1
                         0000F3D3   316 _g_MLTCOL	=	0xf3d3
                         0000F3D5   317 _g_MLTCGP	=	0xf3d5
                         0000F3D7   318 _g_MLTATR	=	0xf3d7
                         0000F3D9   319 _g_MLTPAT	=	0xf3d9
                         0000F3DB   320 _g_CLIKSW	=	0xf3db
                         0000F3DC   321 _g_CSRY	=	0xf3dc
                         0000F3DD   322 _g_CSRX	=	0xf3dd
                         0000F3E9   323 _g_FORCLR	=	0xf3e9
                         0000F3EA   324 _g_BAKCLR	=	0xf3ea
                         0000F3EB   325 _g_BDRCLR	=	0xf3eb
                         0000F3F2   326 _g_ATRBYT	=	0xf3f2
                         0000F87F   327 _g_FNKSTR	=	0xf87f
                         0000F92A   328 _g_CLOC	=	0xf92a
                         0000F92C   329 _g_CMASK	=	0xf92c
                         0000FB02   330 _g_LOGOPR	=	0xfb02
                         0000FCB7   331 _g_GRPACX	=	0xfcb7
                         0000FCB9   332 _g_GRPACY	=	0xfcb9
                         0000FFFF   333 _g_SLTSL	=	0xffff
    00000000                        334 _PutBallSprite_s_StopCooldown_65538_1234:
    00000000                        335 	.ds 1
                                    336 ;--------------------------------------------------------
                                    337 ; ram data
                                    338 ;--------------------------------------------------------
                                    339 	.area _INITIALIZED
                                    340 ;--------------------------------------------------------
                                    341 ; absolute external ram data
                                    342 ;--------------------------------------------------------
                                    343 	.area _DABS (ABS)
                                    344 ;--------------------------------------------------------
                                    345 ; global & static initialisations
                                    346 ;--------------------------------------------------------
                                    347 	.area _HOME
                                    348 	.area _GSINIT
                                    349 	.area _GSFINAL
                                    350 	.area _GSINIT
                                    351 ;E:\Dropbox\FAUSTO\SVILUPPI\MSX\CODE\C\MSXgl\projects\soccerlgSCC/soccerlg_s6_b3.c:231: static u8 s_StopCooldown = 0;
    00000000 FD 21r00r00      [14]  352 	ld	iy, #_PutBallSprite_s_StopCooldown_65538_1234
    00000004 FD 36 00 00      [19]  353 	ld	0 (iy), #0x00
                                    354 ;--------------------------------------------------------
                                    355 ; Home
                                    356 ;--------------------------------------------------------
                                    357 	.area _HOME
                                    358 	.area _HOME
                                    359 ;--------------------------------------------------------
                                    360 ; code
                                    361 ;--------------------------------------------------------
                                    362 	.area _SEG6
                                    363 ;E:\Dropbox\FAUSTO\SVILUPPI\MSX\CODE\C\MSXgl\projects\soccerlgSCC/soccerlg_s6_b3.c:74: void V9990_InitPalette(){
                                    364 ;	---------------------------------
                                    365 ; Function V9990_InitPalette
                                    366 ; ---------------------------------
    00000000                        367 _V9990_InitPalette::
                                    368 ;E:\Dropbox\FAUSTO\SVILUPPI\MSX\CODE\C\MSXgl\projects\soccerlgSCC/soccerlg_s6_b3.c:75: V9_SetPalette(0, 16, g_Data_Palette_LayerA_Standard);
    00000000 21r74r00         [10]  369 	ld	hl, #_g_Data_Palette_LayerA_Standard+0
                                    370 ;E:\Dropbox\FAUSTO\SVILUPPI\MSX\CODE\C\MSXgl\projects\soccerlgSCC/soccerlg_s6_b3.c:1028: ERROR: no line number 1028 in file E:\Dropbox\FAUSTO\SVILUPPI\MSX\CODE\C\MSXgl\projects\soccerlgSCC/soccerlg_s6_b3.c
    00000003 01 00 00         [10]  371 	ld	bc, #0x0
    00000006                        372 00107$:
    00000006 78               [ 4]  373 	ld	a, b
    00000007 D6 10            [ 7]  374 	sub	a, #0x10
    00000009 30 1F            [12]  375 	jr	NC, 00102$
    0000000B FD E5            [15]  376 	push	iy
    0000000D E3               [19]  377 	ex	(sp), hl
    0000000E 69               [ 4]  378 	ld	l, c
                                    379 ;	spillPairReg hl
                                    380 ;	spillPairReg hl
    0000000F E3               [19]  381 	ex	(sp), hl
    00000010 FD E1            [14]  382 	pop	iy
    00000012 0C               [ 4]  383 	inc	c
    00000013 E5               [11]  384 	push	hl
    00000014 C5               [11]  385 	push	bc
    00000015 5D               [ 4]  386 	ld	e, l
    00000016 54               [ 4]  387 	ld	d, h
    00000017 FD E5            [15]  388 	push	iy
    00000019 E3               [19]  389 	ex	(sp), hl
    0000001A 7D               [ 4]  390 	ld	a, l
    0000001B E3               [19]  391 	ex	(sp), hl
    0000001C FD E1            [14]  392 	pop	iy
    0000001E CDr00r00         [17]  393 	call	_V9_SetPaletteEntry
    00000021 C1               [10]  394 	pop	bc
    00000022 E1               [10]  395 	pop	hl
    00000023 23               [ 6]  396 	inc	hl
    00000024 23               [ 6]  397 	inc	hl
    00000025 23               [ 6]  398 	inc	hl
    00000026 04               [ 4]  399 	inc	b
    00000027 C3r06r00         [10]  400 	jp	00107$
                                    401 ;E:\Dropbox\FAUSTO\SVILUPPI\MSX\CODE\C\MSXgl\projects\soccerlgSCC/soccerlg_s6_b3.c:75: V9_SetPalette(0, 16, g_Data_Palette_LayerA_Standard);
    0000002A                        402 00102$:
                                    403 ;E:\Dropbox\FAUSTO\SVILUPPI\MSX\CODE\C\MSXgl\projects\soccerlgSCC/soccerlg_s6_b3.c:76: V9_SetPalette(16, 16, g_Data_Palette_LayerB_Standard);
    0000002A 21rA4r00         [10]  404 	ld	hl, #_g_Data_Palette_LayerB_Standard+0
                                    405 ;E:\Dropbox\FAUSTO\SVILUPPI\MSX\CODE\C\MSXgl\projects\soccerlgSCC/soccerlg_s6_b3.c:1028: ERROR: no line number 1028 in file E:\Dropbox\FAUSTO\SVILUPPI\MSX\CODE\C\MSXgl\projects\soccerlgSCC/soccerlg_s6_b3.c
    0000002D 01 10 00         [10]  406 	ld	bc, #0x10
    00000030                        407 00110$:
    00000030 78               [ 4]  408 	ld	a, b
    00000031 D6 10            [ 7]  409 	sub	a, #0x10
    00000033 30 1F            [12]  410 	jr	NC, 00104$
    00000035 FD E5            [15]  411 	push	iy
    00000037 E3               [19]  412 	ex	(sp), hl
    00000038 69               [ 4]  413 	ld	l, c
                                    414 ;	spillPairReg hl
                                    415 ;	spillPairReg hl
    00000039 E3               [19]  416 	ex	(sp), hl
    0000003A FD E1            [14]  417 	pop	iy
    0000003C 0C               [ 4]  418 	inc	c
    0000003D E5               [11]  419 	push	hl
    0000003E C5               [11]  420 	push	bc
    0000003F 5D               [ 4]  421 	ld	e, l
    00000040 54               [ 4]  422 	ld	d, h
    00000041 FD E5            [15]  423 	push	iy
    00000043 E3               [19]  424 	ex	(sp), hl
    00000044 7D               [ 4]  425 	ld	a, l
    00000045 E3               [19]  426 	ex	(sp), hl
    00000046 FD E1            [14]  427 	pop	iy
    00000048 CDr00r00         [17]  428 	call	_V9_SetPaletteEntry
    0000004B C1               [10]  429 	pop	bc
    0000004C E1               [10]  430 	pop	hl
    0000004D 23               [ 6]  431 	inc	hl
    0000004E 23               [ 6]  432 	inc	hl
    0000004F 23               [ 6]  433 	inc	hl
    00000050 04               [ 4]  434 	inc	b
    00000051 C3r30r00         [10]  435 	jp	00110$
                                    436 ;E:\Dropbox\FAUSTO\SVILUPPI\MSX\CODE\C\MSXgl\projects\soccerlgSCC/soccerlg_s6_b3.c:76: V9_SetPalette(16, 16, g_Data_Palette_LayerB_Standard);
    00000054                        437 00104$:
                                    438 ;E:/Dropbox/FAUSTO/SVILUPPI/MSX/CODE/C/MSXgl/engine/src/v9990.h:1047: inline void V9_SelectPaletteP1(u8 a, u8 b) { V9_SetRegister(13, ((b & 0x3) << 2) + (a & 0x3)); }
    00000054 3E 01            [ 7]  439 	ld	a, #0x01
    00000056 E6 03            [ 7]  440 	and	a, #0x03
    00000058 87               [ 4]  441 	add	a, a
    00000059 87               [ 4]  442 	add	a, a
    0000005A 4F               [ 4]  443 	ld	c, a
    0000005B AF               [ 4]  444 	xor	a, a
    0000005C E6 03            [ 7]  445 	and	a, #0x03
    0000005E 81               [ 4]  446 	add	a, c
    0000005F 6F               [ 4]  447 	ld	l, a
                                    448 ;	spillPairReg hl
                                    449 ;	spillPairReg hl
    00000060 3E 0D            [ 7]  450 	ld	a, #0x0d
                                    451 ;E:\Dropbox\FAUSTO\SVILUPPI\MSX\CODE\C\MSXgl\projects\soccerlgSCC/soccerlg_s6_b3.c:77: V9_SelectPaletteP1(0,1);
                                    452 ;E:\Dropbox\FAUSTO\SVILUPPI\MSX\CODE\C\MSXgl\projects\soccerlgSCC/soccerlg_s6_b3.c:78: }
    00000062 C3r00r00         [10]  453 	jp	_V9_SetRegister
                         0000F380   454 _g_RDPRIM	=	0xf380
                         0000F385   455 _g_WRPRIM	=	0xf385
                         0000F38C   456 _g_CLPRIM	=	0xf38c
                         0000F39A   457 _g_USRTAB	=	0xf39a
                         0000F3DE   458 _g_CNSDFG	=	0xf3de
                         0000F3DF   459 _g_RG0SAV	=	0xf3df
                         0000F3E0   460 _g_RG1SAV	=	0xf3e0
                         0000F3E1   461 _g_RG2SAV	=	0xf3e1
                         0000F3E2   462 _g_RG3SAV	=	0xf3e2
                         0000F3E3   463 _g_RG4SAV	=	0xf3e3
                         0000F3E4   464 _g_RG5SAV	=	0xf3e4
                         0000F3E5   465 _g_RG6SAV	=	0xf3e5
                         0000F3E6   466 _g_RG7SAV	=	0xf3e6
                         0000F3E7   467 _g_STATFL	=	0xf3e7
                         0000F3E8   468 _g_TRGFLG	=	0xf3e8
                         0000F3EC   469 _g_MAXUPD	=	0xf3ec
                         0000F3EF   470 _g_MINUPD	=	0xf3ef
                         0000F3F3   471 _g_QUEUES	=	0xf3f3
                         0000F3F5   472 _g_FRCNEW	=	0xf3f5
                         0000F3F6   473 _g_SCNCNT	=	0xf3f6
                         0000F3F7   474 _g_REPCNT	=	0xf3f7
                         0000F3F8   475 _g_PUTPNT	=	0xf3f8
                         0000F3FA   476 _g_GETPNT	=	0xf3fa
                         0000F3FC   477 _g_CS120	=	0xf3fc
                         0000F401   478 _g_CS240	=	0xf401
                         0000F406   479 _g_LOW	=	0xf406
                         0000F408   480 _g_HIGH	=	0xf408
                         0000F40A   481 _g_HEADER	=	0xf40a
                         0000F40B   482 _g_ASPCT1	=	0xf40b
                         0000F40D   483 _g_ASPCT2	=	0xf40d
                         0000F959   484 _g_QUETAB	=	0xf959
                         0000F971   485 _g_QUEBAK	=	0xf971
                         0000F975   486 _g_VOICAQ	=	0xf975
                         0000F9F5   487 _g_VOICBQ	=	0xf9f5
                         0000FA75   488 _g_VOICCQ	=	0xfa75
                         0000FAF5   489 _g_RS2IQ	=	0xfaf5
                         0000FAF5   490 _g_DPPAGE	=	0xfaf5
                         0000FAF6   491 _g_ACPAGE	=	0xfaf6
                         0000FAF7   492 _g_AVCSAV	=	0xfaf7
                         0000FAF8   493 _g_EXBRSA	=	0xfaf8
                         0000FAF9   494 _g_CHRCNT	=	0xfaf9
                         0000FAFA   495 _g_ROMA	=	0xfafa
                         0000FAFC   496 _g_MODE	=	0xfafc
                         0000FAFD   497 _g_NORUSE	=	0xfafd
                         0000FAFE   498 _g_XSAVE	=	0xfafe
                         0000FB00   499 _g_YSAVE	=	0xfb00
                         0000FB03   500 _g_RSTMP	=	0xfb03
                         0000FB03   501 _g_TOCNT	=	0xfb03
                         0000FB04   502 _g_RSFCB	=	0xfb04
                         0000FB06   503 _g_RSIQLN	=	0xfb06
                         0000FB07   504 _g_MEXBIh	=	0xfb07
                         0000FB0C   505 _g_OLDSTT	=	0xfb0c
                         0000FB0C   506 _g_OLDINT	=	0xfb0c
                         0000FB16   507 _g_DEVNUM	=	0xfb16
                         0000FB17   508 _g_DATCNT	=	0xfb17
                         0000FB1A   509 _g_ERRORS	=	0xfb1a
                         0000FB1B   510 _g_FLAGS	=	0xfb1b
                         0000FB1C   511 _g_ESTBLS	=	0xfb1c
                         0000FB1D   512 _g_COMMSK	=	0xfb1d
                         0000FB1E   513 _g_LSTCOM	=	0xfb1e
                         0000FB1F   514 _g_LSTMOD	=	0xfb1f
                         0000FB35   515 _g_PRSCNT	=	0xfb35
                         0000FB36   516 _g_SAVSP	=	0xfb36
                         0000FB38   517 _g_VOICEN	=	0xfb38
                         0000FB39   518 _g_SAVVOL	=	0xfb39
                         0000FB3B   519 _g_MCLLEN	=	0xfb3b
                         0000FB3C   520 _g_MCLPTR	=	0xfb3c
                         0000FB3E   521 _g_QUEUEN	=	0xfb3e
                         0000FB3F   522 _g_MUSICF	=	0xfb3f
                         0000FB40   523 _g_PLYCNT	=	0xfb40
                         0000FB41   524 _g_VCBA	=	0xfb41
                         0000FB66   525 _g_VCBB	=	0xfb66
                         0000FB8B   526 _g_VCBC	=	0xfb8b
                         0000FBB0   527 _g_ENSTOP	=	0xfbb0
                         0000FBB1   528 _g_BASROM	=	0xfbb1
                         0000FBB2   529 _g_LINTTB	=	0xfbb2
                         0000FBCA   530 _g_FSTPOS	=	0xfbca
                         0000FBCC   531 _g_CODSAV	=	0xfbcc
                         0000FBCD   532 _g_FNKSWI	=	0xfbcd
                         0000FBCE   533 _g_FNKFLG	=	0xfbce
                         0000FBD8   534 _g_ONGSBF	=	0xfbd8
                         0000FBD9   535 _g_CLIKFL	=	0xfbd9
                         0000FBDA   536 _g_OLDKEY	=	0xfbda
                         0000FBE5   537 _g_NEWKEY	=	0xfbe5
                         0000FBF0   538 _g_KEYBUF	=	0xfbf0
                         0000FC18   539 _g_LINWRK	=	0xfc18
                         0000FC40   540 _g_PATWRK	=	0xfc40
                         0000FC48   541 _g_BOTTOM	=	0xfc48
                         0000FC4A   542 _g_HIMEM	=	0xfc4a
                         0000FC4C   543 _g_TRPTBL	=	0xfc4c
                         0000FC9A   544 _g_RTYCNT	=	0xfc9a
                         0000FC9B   545 _g_INTFLG	=	0xfc9b
                         0000FC9C   546 _g_PADY	=	0xfc9c
                         0000FC9D   547 _g_PADX	=	0xfc9d
                         0000FC9E   548 _g_JIFFY	=	0xfc9e
                         0000FCA0   549 _g_INTVAL	=	0xfca0
                         0000FCA2   550 _g_INTCNT	=	0xfca2
                         0000FCA4   551 _g_LOWLIM	=	0xfca4
                         0000FCA5   552 _g_WINWID	=	0xfca5
                         0000FCA6   553 _g_GRPHED	=	0xfca6
                         0000FCA7   554 _g_ESCCNT	=	0xfca7
                         0000FCA8   555 _g_INSFLG	=	0xfca8
                         0000FCA9   556 _g_CSRSW	=	0xfca9
                         0000FCAA   557 _g_CSTYLE	=	0xfcaa
                         0000FCAB   558 _g_CAPST	=	0xfcab
                         0000FCAC   559 _g_KANAST	=	0xfcac
                         0000FCAD   560 _g_KANAMD	=	0xfcad
                         0000FCAE   561 _g_FLBMEM	=	0xfcae
                         0000FCAF   562 _g_SCRMOD	=	0xfcaf
                         0000FCB0   563 _g_OLDSCR	=	0xfcb0
                         0000FCB1   564 _g_CASPRV	=	0xfcb1
                         0000FCB2   565 _g_BRDATR	=	0xfcb2
                         0000FCB3   566 _g_GXPOS	=	0xfcb3
                         0000FCB5   567 _g_GYPOS	=	0xfcb5
                         0000FCBB   568 _g_DRWFLG	=	0xfcbb
                         0000FCBC   569 _g_DRWSCL	=	0xfcbc
                         0000FCBD   570 _g_DRWANG	=	0xfcbd
                         0000FCC1   571 _g_MNROM	=	0xfcc1
                         0000FCC1   572 _g_EXPTBL	=	0xfcc1
                         0000FCC5   573 _g_SLTTBL	=	0xfcc5
                         0000FCC9   574 _g_SLTATR	=	0xfcc9
                         0000FD09   575 _g_SLTWRK	=	0xfd09
                         0000FD89   576 _g_PROCNM	=	0xfd89
                         0000FFE7   577 _g_RG08SAV	=	0xffe7
                         0000FFE8   578 _g_RG09SAV	=	0xffe8
                         0000FFE9   579 _g_RG10SAV	=	0xffe9
                         0000FFEA   580 _g_RG11SAV	=	0xffea
                         0000FFEB   581 _g_RG12SAV	=	0xffeb
                         0000FFEC   582 _g_RG13SAV	=	0xffec
                         0000FFED   583 _g_RG14SAV	=	0xffed
                         0000FFEE   584 _g_RG15SAV	=	0xffee
                         0000FFEF   585 _g_RG16SAV	=	0xffef
                         0000FFF0   586 _g_RG17SAV	=	0xfff0
                         0000FFF1   587 _g_RG18SAV	=	0xfff1
                         0000FFF2   588 _g_RG19SAV	=	0xfff2
                         0000FFF3   589 _g_RG20SAV	=	0xfff3
                         0000FFF4   590 _g_RG21SAV	=	0xfff4
                         0000FFF5   591 _g_RG22SAV	=	0xfff5
                         0000FFF6   592 _g_RG23SAV	=	0xfff6
                         0000FFF7   593 _g_MINROM	=	0xfff7
                         0000FFF8   594 _g_SVFFF8	=	0xfff8
                         0000FFFA   595 _g_RG25SAV	=	0xfffa
                         0000FFFB   596 _g_RG26SAV	=	0xfffb
                         0000FFFC   597 _g_RG27SAV	=	0xfffc
                         0000FFFD   598 _g_SVFFFD	=	0xfffd
                         00000004   599 _g_CGTABL	=	0x0004
                         00000006   600 _g_VDP_DR	=	0x0006
                         00000007   601 _g_VDP_DW	=	0x0007
                         0000002B   602 _g_BASRVN	=	0x002b
                         0000002B   603 _g_ROMVersion	=	0x002b
                         0000002D   604 _g_MSXVER	=	0x002d
                         0000002E   605 _g_MSXMID	=	0x002e
                         00000034   606 _g_CHAR_16	=	0x0034
                         00000000   607 _g_SUBRID	=	0x0000
                         00000002   608 _g_STRSRC	=	0x0002
                         0000F30F   609 _g_KANJTABLE	=	0xf30f
                         0000F323   610 _g_DISKVE	=	0xf323
                         0000F325   611 _g_BREAKV	=	0xf325
                         0000F341   612 _g_RAMAD0	=	0xf341
                         0000F342   613 _g_RAMAD1	=	0xf342
                         0000F343   614 _g_RAMAD2	=	0xf343
                         0000F344   615 _g_RAMAD3	=	0xf344
                         0000F348   616 _g_MASTER	=	0xf348
                         0000F37D   617 _g_BDOS	=	0xf37d
    00000065                        618 _g_GirlPatterns:
    00000065 7A                     619 	.db #0x7a	; 122	'z'
    00000066 7B                     620 	.db #0x7b	; 123
    00000067 7C                     621 	.db #0x7c	; 124
    00000068 7D                     622 	.db #0x7d	; 125
    00000069 7E                     623 	.db #0x7e	; 126
    0000006A 7F                     624 	.db #0x7f	; 127
    0000006B F0                     625 	.db #0xf0	; 240
    0000006C F1                     626 	.db #0xf1	; 241
    0000006D F2                     627 	.db #0xf2	; 242
    0000006E                        628 _g_PonPonGirlsPos:
    0000006E 1E                     629 	.db #0x1e	; 30
    0000006F 32                     630 	.db #0x32	; 50	'2'
    00000070 46                     631 	.db #0x46	; 70	'F'
    00000071 AF                     632 	.db #0xaf	; 175
    00000072 C3                     633 	.db #0xc3	; 195
    00000073 D7                     634 	.db #0xd7	; 215
    00000074                        635 _g_Data_Palette_LayerA_Standard:
    00000074 00                     636 	.db #0x00	; 0
    00000075 00                     637 	.db #0x00	; 0
    00000076 00                     638 	.db #0x00	; 0
    00000077 01                     639 	.db #0x01	; 1
    00000078 01                     640 	.db #0x01	; 1
    00000079 01                     641 	.db #0x01	; 1
    0000007A 01                     642 	.db #0x01	; 1
    0000007B 01                     643 	.db #0x01	; 1
    0000007C 01                     644 	.db #0x01	; 1
    0000007D 01                     645 	.db #0x01	; 1
    0000007E 01                     646 	.db #0x01	; 1
    0000007F 01                     647 	.db #0x01	; 1
    00000080 FF                     648 	.db #0xff	; 255
    00000081 FF                     649 	.db #0xff	; 255
    00000082 FF                     650 	.db #0xff	; 255
    00000083 1E                     651 	.db #0x1e	; 30
    00000084 1A                     652 	.db #0x1a	; 26
    00000085 08                     653 	.db #0x08	; 8
    00000086 01                     654 	.db #0x01	; 1
    00000087 01                     655 	.db #0x01	; 1
    00000088 01                     656 	.db #0x01	; 1
    00000089 14                     657 	.db #0x14	; 20
    0000008A 09                     658 	.db #0x09	; 9
    0000008B 14                     659 	.db #0x14	; 20
    0000008C 1B                     660 	.db #0x1b	; 27
    0000008D 13                     661 	.db #0x13	; 19
    0000008E 09                     662 	.db #0x09	; 9
    0000008F 01                     663 	.db #0x01	; 1
    00000090 01                     664 	.db #0x01	; 1
    00000091 01                     665 	.db #0x01	; 1
    00000092 01                     666 	.db #0x01	; 1
    00000093 01                     667 	.db #0x01	; 1
    00000094 01                     668 	.db #0x01	; 1
    00000095 01                     669 	.db #0x01	; 1
    00000096 01                     670 	.db #0x01	; 1
    00000097 01                     671 	.db #0x01	; 1
    00000098 01                     672 	.db #0x01	; 1
    00000099 01                     673 	.db #0x01	; 1
    0000009A 01                     674 	.db #0x01	; 1
    0000009B 01                     675 	.db #0x01	; 1
    0000009C 01                     676 	.db #0x01	; 1
    0000009D 01                     677 	.db #0x01	; 1
    0000009E 01                     678 	.db #0x01	; 1
    0000009F 01                     679 	.db #0x01	; 1
    000000A0 01                     680 	.db #0x01	; 1
    000000A1 FF                     681 	.db #0xff	; 255
    000000A2 FF                     682 	.db #0xff	; 255
    000000A3 FF                     683 	.db #0xff	; 255
    000000A4                        684 _g_Data_Palette_LayerB_Standard:
    000000A4 00                     685 	.db #0x00	; 0
    000000A5 00                     686 	.db #0x00	; 0
    000000A6 00                     687 	.db #0x00	; 0
    000000A7 08                     688 	.db #0x08	; 8
    000000A8 17                     689 	.db #0x17	; 23
    000000A9 1B                     690 	.db #0x1b	; 27
    000000AA 01                     691 	.db #0x01	; 1
    000000AB 01                     692 	.db #0x01	; 1
    000000AC 01                     693 	.db #0x01	; 1
    000000AD 01                     694 	.db #0x01	; 1
    000000AE 01                     695 	.db #0x01	; 1
    000000AF 01                     696 	.db #0x01	; 1
    000000B0 01                     697 	.db #0x01	; 1
    000000B1 01                     698 	.db #0x01	; 1
    000000B2 01                     699 	.db #0x01	; 1
    000000B3 1E                     700 	.db #0x1e	; 30
    000000B4 1A                     701 	.db #0x1a	; 26
    000000B5 08                     702 	.db #0x08	; 8
    000000B6 01                     703 	.db #0x01	; 1
    000000B7 01                     704 	.db #0x01	; 1
    000000B8 01                     705 	.db #0x01	; 1
    000000B9 01                     706 	.db #0x01	; 1
    000000BA 01                     707 	.db #0x01	; 1
    000000BB 01                     708 	.db #0x01	; 1
    000000BC 01                     709 	.db #0x01	; 1
    000000BD 01                     710 	.db #0x01	; 1
    000000BE 01                     711 	.db #0x01	; 1
    000000BF 1F                     712 	.db #0x1f	; 31
    000000C0 00                     713 	.db #0x00	; 0
    000000C1 00                     714 	.db #0x00	; 0
    000000C2 1B                     715 	.db #0x1b	; 27
    000000C3 1B                     716 	.db #0x1b	; 27
    000000C4 1B                     717 	.db #0x1b	; 27
    000000C5 04                     718 	.db #0x04	; 4
    000000C6 04                     719 	.db #0x04	; 4
    000000C7 1B                     720 	.db #0x1b	; 27
    000000C8 00                     721 	.db #0x00	; 0
    000000C9 00                     722 	.db #0x00	; 0
    000000CA 00                     723 	.db #0x00	; 0
    000000CB 1B                     724 	.db #0x1b	; 27
    000000CC 1B                     725 	.db #0x1b	; 27
    000000CD 1B                     726 	.db #0x1b	; 27
    000000CE 00                     727 	.db #0x00	; 0
    000000CF 17                     728 	.db #0x17	; 23
    000000D0 00                     729 	.db #0x00	; 0
    000000D1 1B                     730 	.db #0x1b	; 27
    000000D2 13                     731 	.db #0x13	; 19
    000000D3 09                     732 	.db #0x09	; 9
                                    733 ;E:\Dropbox\FAUSTO\SVILUPPI\MSX\CODE\C\MSXgl\projects\soccerlgSCC/soccerlg_s6_b3.c:80: void V9990_InitMenuLayers(){   
                                    734 ;	---------------------------------
                                    735 ; Function V9990_InitMenuLayers
                                    736 ; ---------------------------------
    000000D4                        737 _V9990_InitMenuLayers::
                                    738 ;E:\Dropbox\FAUSTO\SVILUPPI\MSX\CODE\C\MSXgl\projects\soccerlgSCC/soccerlg_s6_b3.c:81: V9990_InitPalette();
    000000D4 CDr00r00         [17]  739 	call	_V9990_InitPalette
                                    740 ;E:\Dropbox\FAUSTO\SVILUPPI\MSX\CODE\C\MSXgl\projects\soccerlgSCC/soccerlg_s6_b3.c:82: V9_SetScreenMode(V9_MODE_P1);
    000000D7 AF               [ 4]  741 	xor	a, a
    000000D8 CDr00r00         [17]  742 	call	_V9_SetScreenMode
                                    743 ;E:/Dropbox/FAUSTO/SVILUPPI/MSX/CODE/C/MSXgl/engine/src/v9990.h:480: inline void V9_SetBackgroundColor(u8 color) { V9_SetRegister(15, color); }
    000000DB 2E 01            [ 7]  744 	ld	l, #0x01
                                    745 ;	spillPairReg hl
                                    746 ;	spillPairReg hl
    000000DD 3E 0F            [ 7]  747 	ld	a, #0x0f
    000000DF CDr00r00         [17]  748 	call	_V9_SetRegister
                                    749 ;E:/Dropbox/FAUSTO/SVILUPPI/MSX/CODE/C/MSXgl/engine/src/v9990.h:258: inline void V9_SetFlag(u8 reg, u8 mask, u8 flag) { V9_SetRegister(reg, V9_GetRegister(reg) & (~mask) | flag); }
    000000E2 3E 08            [ 7]  750 	ld	a, #0x08
    000000E4 CDr00r00         [17]  751 	call	_V9_GetRegister
    000000E7 6F               [ 4]  752 	ld	l, a
                                    753 ;	spillPairReg hl
                                    754 ;	spillPairReg hl
    000000E8 CB BD            [ 8]  755 	res	7, l
    000000EA 3E 08            [ 7]  756 	ld	a, #0x08
    000000EC CDr00r00         [17]  757 	call	_V9_SetRegister
                                    758 ;E:\Dropbox\FAUSTO\SVILUPPI\MSX\CODE\C\MSXgl\projects\soccerlgSCC/soccerlg_s6_b3.c:85: V9990_LoadP1LayerA();
                                    759 ;E:\Dropbox\FAUSTO\SVILUPPI\MSX\CODE\C\MSXgl\projects\soccerlgSCC/soccerlg_s6_b3.c:86: }
    000000EF C3r00r00         [10]  760 	jp	_V9990_LoadP1LayerA
                                    761 ;E:\Dropbox\FAUSTO\SVILUPPI\MSX\CODE\C\MSXgl\projects\soccerlgSCC/soccerlg_s6_b3.c:87: void InitPonPonGirls(){
                                    762 ;	---------------------------------
                                    763 ; Function InitPonPonGirls
                                    764 ; ---------------------------------
    000000F2                        765 _InitPonPonGirls::
    000000F2 DD E5            [15]  766 	push	ix
    000000F4 DD 21 00 00      [14]  767 	ld	ix,#0
    000000F8 DD 39            [15]  768 	add	ix,sp
    000000FA 3B               [ 6]  769 	dec	sp
                                    770 ;E:\Dropbox\FAUSTO\SVILUPPI\MSX\CODE\C\MSXgl\projects\soccerlgSCC/soccerlg_s6_b3.c:88: g_ponPonPatternIndex=0;
    000000FB 21r00r00         [10]  771 	ld	hl, #_g_ponPonPatternIndex
    000000FE 36 00            [10]  772 	ld	(hl), #0x00
                                    773 ;E:\Dropbox\FAUSTO\SVILUPPI\MSX\CODE\C\MSXgl\projects\soccerlgSCC/soccerlg_s6_b3.c:90: for(u8 i=0;i<6;i++){
    00000100 DD 36 FF 00      [19]  774 	ld	-1 (ix), #0x00
    00000104                        775 00103$:
    00000104 DD 7E FF         [19]  776 	ld	a, -1 (ix)
    00000107 D6 06            [ 7]  777 	sub	a, #0x06
    00000109 30 44            [12]  778 	jr	NC, 00105$
                                    779 ;E:\Dropbox\FAUSTO\SVILUPPI\MSX\CODE\C\MSXgl\projects\soccerlgSCC/soccerlg_s6_b3.c:91: g_PonPonGirls[i].X=g_PonPonGirlsPos[i];
    0000010B DD 4E FF         [19]  780 	ld	c, -1 (ix)
    0000010E 06 00            [ 7]  781 	ld	b, #0x00
    00000110 69               [ 4]  782 	ld	l, c
    00000111 60               [ 4]  783 	ld	h, b
    00000112 29               [11]  784 	add	hl, hl
    00000113 29               [11]  785 	add	hl, hl
    00000114 09               [11]  786 	add	hl, bc
    00000115 11r00r00         [10]  787 	ld	de, #_g_PonPonGirls
    00000118 19               [11]  788 	add	hl, de
                                    789 ;	spillPairReg hl
                                    790 ;	spillPairReg hl
    00000119 5D               [ 4]  791 	ld	e, l
    0000011A 54               [ 4]  792 	ld	d, h
                                    793 ;	spillPairReg hl
                                    794 ;	spillPairReg hl
    0000011B 23               [ 6]  795 	inc	hl
    0000011C 23               [ 6]  796 	inc	hl
    0000011D 3Er6E            [ 7]  797 	ld	a, #<(_g_PonPonGirlsPos)
    0000011F DD 86 FF         [19]  798 	add	a, -1 (ix)
    00000122 4F               [ 4]  799 	ld	c, a
    00000123 3Es00            [ 7]  800 	ld	a, #>(_g_PonPonGirlsPos)
    00000125 CE 00            [ 7]  801 	adc	a, #0x00
    00000127 47               [ 4]  802 	ld	b, a
    00000128 0A               [ 7]  803 	ld	a, (bc)
    00000129 4F               [ 4]  804 	ld	c, a
    0000012A 06 00            [ 7]  805 	ld	b, #0x00
    0000012C 71               [ 7]  806 	ld	(hl), c
    0000012D 23               [ 6]  807 	inc	hl
    0000012E 70               [ 7]  808 	ld	(hl), b
                                    809 ;E:\Dropbox\FAUSTO\SVILUPPI\MSX\CODE\C\MSXgl\projects\soccerlgSCC/soccerlg_s6_b3.c:92: g_PonPonGirls[i].Y=42;
    0000012F 6B               [ 4]  810 	ld	l, e
    00000130 62               [ 4]  811 	ld	h, d
    00000131 36 2A            [10]  812 	ld	(hl), #0x2a
    00000133 23               [ 6]  813 	inc	hl
    00000134 36 00            [10]  814 	ld	(hl), #0x00
                                    815 ;E:\Dropbox\FAUSTO\SVILUPPI\MSX\CODE\C\MSXgl\projects\soccerlgSCC/soccerlg_s6_b3.c:93: g_PonPonGirls[i].PatternId=SPRITE_GIRL_1;
    00000136 21 04 00         [10]  816 	ld	hl, #0x0004
    00000139 19               [11]  817 	add	hl, de
    0000013A 36 7A            [10]  818 	ld	(hl), #0x7a
                                    819 ;E:\Dropbox\FAUSTO\SVILUPPI\MSX\CODE\C\MSXgl\projects\soccerlgSCC/soccerlg_s6_b3.c:94: CallFnc_VOID_P1(7,PutPonPonGirlSprite,i);
    0000013C DD 7E FF         [19]  820 	ld	a, -1 (ix)
    0000013F F5               [11]  821 	push	af
    00000140 33               [ 6]  822 	inc	sp
    00000141 11r00r00         [10]  823 	ld	de, #_PutPonPonGirlSprite
    00000144 3E 07            [ 7]  824 	ld	a, #0x07
    00000146 CDr00r00         [17]  825 	call	_CallFnc_VOID_P1
                                    826 ;E:\Dropbox\FAUSTO\SVILUPPI\MSX\CODE\C\MSXgl\projects\soccerlgSCC/soccerlg_s6_b3.c:90: for(u8 i=0;i<6;i++){
    00000149 DD 34 FF         [23]  827 	inc	-1 (ix)
    0000014C C3r04r01         [10]  828 	jp	00103$
    0000014F                        829 00105$:
                                    830 ;E:\Dropbox\FAUSTO\SVILUPPI\MSX\CODE\C\MSXgl\projects\soccerlgSCC/soccerlg_s6_b3.c:97: }
    0000014F 33               [ 6]  831 	inc	sp
    00000150 DD E1            [14]  832 	pop	ix
    00000152 C9               [10]  833 	ret
                                    834 ;E:\Dropbox\FAUSTO\SVILUPPI\MSX\CODE\C\MSXgl\projects\soccerlgSCC/soccerlg_s6_b3.c:99: void TickGoalCelebration(){
                                    835 ;	---------------------------------
                                    836 ; Function TickGoalCelebration
                                    837 ; ---------------------------------
    00000153                        838 _TickGoalCelebration::
    00000153 DD E5            [15]  839 	push	ix
    00000155 DD 21 00 00      [14]  840 	ld	ix,#0
    00000159 DD 39            [15]  841 	add	ix,sp
    0000015B 21 F3 FF         [10]  842 	ld	hl, #-13
    0000015E 39               [11]  843 	add	hl, sp
    0000015F F9               [ 6]  844 	ld	sp, hl
                                    845 ;E:\Dropbox\FAUSTO\SVILUPPI\MSX\CODE\C\MSXgl\projects\soccerlgSCC/soccerlg_s6_b3.c:100: if(g_MatchStatus!=MATCH_AFTER_IN_GOAL) return;
    00000160 3Ar00r00         [13]  846 	ld	a, (_g_MatchStatus+0)
    00000163 D6 06            [ 7]  847 	sub	a, #0x06
    00000165 C2r1Fr05         [10]  848 	jp	NZ,00158$
                                    849 ;E:\Dropbox\FAUSTO\SVILUPPI\MSX\CODE\C\MSXgl\projects\soccerlgSCC/soccerlg_s6_b3.c:104: g_Timer++;
    00000168 21r00r00         [10]  850 	ld	hl, #_g_Timer
    0000016B 34               [11]  851 	inc	(hl)
                                    852 ;E:\Dropbox\FAUSTO\SVILUPPI\MSX\CODE\C\MSXgl\projects\soccerlgSCC/soccerlg_s6_b3.c:106: if((g_Timer % 10) < 5){
    0000016C 3Ar00r00         [13]  853 	ld	a, (_g_Timer+0)
    0000016F 6F               [ 4]  854 	ld	l, a
                                    855 ;	spillPairReg hl
                                    856 ;	spillPairReg hl
    00000170 26 00            [ 7]  857 	ld	h, #0x00
                                    858 ;	spillPairReg hl
                                    859 ;	spillPairReg hl
    00000172 11 0A 00         [10]  860 	ld	de, #0x000a
    00000175 CDr00r00         [17]  861 	call	__modsint
    00000178 7B               [ 4]  862 	ld	a, e
    00000179 D6 05            [ 7]  863 	sub	a, #0x05
    0000017B 7A               [ 4]  864 	ld	a, d
    0000017C 17               [ 4]  865 	rla
    0000017D 3F               [ 4]  866 	ccf
    0000017E 1F               [ 4]  867 	rra
    0000017F DE 80            [ 7]  868 	sbc	a, #0x80
    00000181 30 0A            [12]  869 	jr	NC, 00104$
                                    870 ;E:/Dropbox/FAUSTO/SVILUPPI/MSX/CODE/C/MSXgl/engine/src/v9990.h:480: inline void V9_SetBackgroundColor(u8 color) { V9_SetRegister(15, color); }
    00000183 2E 08            [ 7]  871 	ld	l, #0x08
                                    872 ;	spillPairReg hl
                                    873 ;	spillPairReg hl
    00000185 3E 0F            [ 7]  874 	ld	a, #0x0f
    00000187 CDr00r00         [17]  875 	call	_V9_SetRegister
                                    876 ;E:\Dropbox\FAUSTO\SVILUPPI\MSX\CODE\C\MSXgl\projects\soccerlgSCC/soccerlg_s6_b3.c:107: V9_SetBackgroundColor(8); // Cyan/Flash
    0000018A C3r94r01         [10]  877 	jp	00105$
    0000018D                        878 00104$:
                                    879 ;E:/Dropbox/FAUSTO/SVILUPPI/MSX/CODE/C/MSXgl/engine/src/v9990.h:480: inline void V9_SetBackgroundColor(u8 color) { V9_SetRegister(15, color); }
    0000018D 2E 01            [ 7]  880 	ld	l, #0x01
                                    881 ;	spillPairReg hl
                                    882 ;	spillPairReg hl
    0000018F 3E 0F            [ 7]  883 	ld	a, #0x0f
    00000191 CDr00r00         [17]  884 	call	_V9_SetRegister
                                    885 ;E:\Dropbox\FAUSTO\SVILUPPI\MSX\CODE\C\MSXgl\projects\soccerlgSCC/soccerlg_s6_b3.c:109: V9_SetBackgroundColor(1); // Default Blue
    00000194                        886 00105$:
                                    887 ;E:\Dropbox\FAUSTO\SVILUPPI\MSX\CODE\C\MSXgl\projects\soccerlgSCC/soccerlg_s6_b3.c:115: if (g_Timer < 120) {
    00000194 3Ar00r00         [13]  888 	ld	a, (_g_Timer+0)
    00000197 D6 78            [ 7]  889 	sub	a, #0x78
    00000199 D2rF8r03         [10]  890 	jp	NC, 00136$
                                    891 ;E:\Dropbox\FAUSTO\SVILUPPI\MSX\CODE\C\MSXgl\projects\soccerlgSCC/soccerlg_s6_b3.c:116: u8 scoringTeamId = (g_RestartKickTeamId == TEAM_1) ? TEAM_2 : TEAM_1;
    0000019C 3Ar00r00         [13]  892 	ld	a, (_g_RestartKickTeamId+0)
    0000019F 3D               [ 4]  893 	dec	a
    000001A0 20 06            [12]  894 	jr	NZ, 00160$
    000001A2 01 02 00         [10]  895 	ld	bc, #0x0002
    000001A5 C3rABr01         [10]  896 	jp	00161$
    000001A8                        897 00160$:
    000001A8 01 01 00         [10]  898 	ld	bc, #0x0001
    000001AB                        899 00161$:
    000001AB DD 71 F5         [19]  900 	ld	-11 (ix), c
                                    901 ;E:\Dropbox\FAUSTO\SVILUPPI\MSX\CODE\C\MSXgl\projects\soccerlgSCC/soccerlg_s6_b3.c:119: u16 limitY_Top = FIELD_BOUND_Y_TOP;
    000001AE DD 36 F6 32      [19]  902 	ld	-10 (ix), #0x32
    000001B2 DD 36 F7 00      [19]  903 	ld	-9 (ix), #0
                                    904 ;E:\Dropbox\FAUSTO\SVILUPPI\MSX\CODE\C\MSXgl\projects\soccerlgSCC/soccerlg_s6_b3.c:120: u16 limitY_Bottom = FIELD_BOUND_Y_BOTTOM;
    000001B6 DD 36 F8 B3      [19]  905 	ld	-8 (ix), #0xb3
    000001BA DD 36 F9 01      [19]  906 	ld	-7 (ix), #0x01
                                    907 ;E:\Dropbox\FAUSTO\SVILUPPI\MSX\CODE\C\MSXgl\projects\soccerlgSCC/soccerlg_s6_b3.c:122: if (g_Ball.Y < FIELD_CENTRAL_Y) { // Top Goal
    000001BE 21r00r00         [10]  908 	ld	hl, #_g_Ball
    000001C1 7E               [ 7]  909 	ld	a, (hl)
    000001C2 DD 77 FE         [19]  910 	ld	-2 (ix), a
    000001C5 23               [ 6]  911 	inc	hl
    000001C6 7E               [ 7]  912 	ld	a, (hl)
    000001C7 DD 77 FF         [19]  913 	ld	-1 (ix), a
    000001CA DD 7E FE         [19]  914 	ld	a, -2 (ix)
    000001CD D6 89            [ 7]  915 	sub	a, #0x89
    000001CF DD 7E FF         [19]  916 	ld	a, -1 (ix)
    000001D2 DE 00            [ 7]  917 	sbc	a, #0x00
    000001D4 30 0B            [12]  918 	jr	NC, 00107$
                                    919 ;E:\Dropbox\FAUSTO\SVILUPPI\MSX\CODE\C\MSXgl\projects\soccerlgSCC/soccerlg_s6_b3.c:123: limitY_Bottom = FIELD_BOUND_Y_TOP + 160; 
    000001D6 DD 36 F8 D2      [19]  920 	ld	-8 (ix), #0xd2
    000001DA DD 36 F9 00      [19]  921 	ld	-7 (ix), #0
    000001DE C3rE9r01         [10]  922 	jp	00200$
    000001E1                        923 00107$:
                                    924 ;E:\Dropbox\FAUSTO\SVILUPPI\MSX\CODE\C\MSXgl\projects\soccerlgSCC/soccerlg_s6_b3.c:125: limitY_Top = FIELD_BOUND_Y_BOTTOM - 160;
    000001E1 DD 36 F6 13      [19]  925 	ld	-10 (ix), #0x13
    000001E5 DD 36 F7 01      [19]  926 	ld	-9 (ix), #0x01
                                    927 ;E:\Dropbox\FAUSTO\SVILUPPI\MSX\CODE\C\MSXgl\projects\soccerlgSCC/soccerlg_s6_b3.c:133: for(u8 i=0; i<15; i++){
    000001E9                        928 00200$:
    000001E9 DD 36 FF 00      [19]  929 	ld	-1 (ix), #0x00
    000001ED                        930 00154$:
    000001ED DD 7E FF         [19]  931 	ld	a, -1 (ix)
    000001F0 D6 0F            [ 7]  932 	sub	a, #0x0f
    000001F2 D2rF8r03         [10]  933 	jp	NC, 00136$
                                    934 ;E:\Dropbox\FAUSTO\SVILUPPI\MSX\CODE\C\MSXgl\projects\soccerlgSCC/soccerlg_s6_b3.c:134: if(i == REFEREE) continue;
    000001F5 DD 7E FF         [19]  935 	ld	a, -1 (ix)
    000001F8 D6 0E            [ 7]  936 	sub	a, #0x0e
    000001FA CArF2r03         [10]  937 	jp	Z,00133$
                                    938 ;E:\Dropbox\FAUSTO\SVILUPPI\MSX\CODE\C\MSXgl\projects\soccerlgSCC/soccerlg_s6_b3.c:135: u8 dir = g_Players[i].Direction;
    000001FD DD 4E FF         [19]  939 	ld	c, -1 (ix)
    00000200 06 00            [ 7]  940 	ld	b, #0x00
    00000202 69               [ 4]  941 	ld	l, c
    00000203 60               [ 4]  942 	ld	h, b
    00000204 29               [11]  943 	add	hl, hl
    00000205 29               [11]  944 	add	hl, hl
    00000206 09               [11]  945 	add	hl, bc
    00000207 29               [11]  946 	add	hl, hl
    00000208 29               [11]  947 	add	hl, hl
    00000209 09               [11]  948 	add	hl, bc
    0000020A 11r00r00         [10]  949 	ld	de, #_g_Players
    0000020D 19               [11]  950 	add	hl, de
    0000020E E3               [19]  951 	ex	(sp), hl
    0000020F DD 7E F3         [19]  952 	ld	a, -13 (ix)
    00000212 C6 0A            [ 7]  953 	add	a, #0x0a
    00000214 4F               [ 4]  954 	ld	c, a
    00000215 DD 7E F4         [19]  955 	ld	a, -12 (ix)
    00000218 CE 00            [ 7]  956 	adc	a, #0x00
    0000021A 47               [ 4]  957 	ld	b, a
    0000021B 0A               [ 7]  958 	ld	a, (bc)
    0000021C DD 77 FE         [19]  959 	ld	-2 (ix), a
                                    960 ;E:\Dropbox\FAUSTO\SVILUPPI\MSX\CODE\C\MSXgl\projects\soccerlgSCC/soccerlg_s6_b3.c:138: if (g_Players[i].TeamId == scoringTeamId) {
    0000021F D1               [10]  961 	pop	de
    00000220 D5               [11]  962 	push	de
    00000221 21 09 00         [10]  963 	ld	hl, #9
    00000224 19               [11]  964 	add	hl, de
    00000225 5E               [ 7]  965 	ld	e, (hl)
                                    966 ;E:\Dropbox\FAUSTO\SVILUPPI\MSX\CODE\C\MSXgl\projects\soccerlgSCC/soccerlg_s6_b3.c:162: if (isBack) g_Players[i].PatternId = (animFrame1) ? PLAYER_POSE_CELEBRATION_BACK_1 : PLAYER_POSE_CELEBRATION_BACK_2;
    00000226 DD 7E F3         [19]  967 	ld	a, -13 (ix)
    00000229 C6 08            [ 7]  968 	add	a, #0x08
    0000022B DD 77 FA         [19]  969 	ld	-6 (ix), a
    0000022E DD 7E F4         [19]  970 	ld	a, -12 (ix)
    00000231 CE 00            [ 7]  971 	adc	a, #0x00
    00000233 DD 77 FB         [19]  972 	ld	-5 (ix), a
                                    973 ;E:\Dropbox\FAUSTO\SVILUPPI\MSX\CODE\C\MSXgl\projects\soccerlgSCC/soccerlg_s6_b3.c:138: if (g_Players[i].TeamId == scoringTeamId) {
    00000236 DD 7E F5         [19]  974 	ld	a, -11 (ix)
    00000239 93               [ 4]  975 	sub	a, e
    0000023A C2rB2r03         [10]  976 	jp	NZ,00131$
                                    977 ;E:\Dropbox\FAUSTO\SVILUPPI\MSX\CODE\C\MSXgl\projects\soccerlgSCC/soccerlg_s6_b3.c:142: if ((g_Timer % 19) == 0) {
    0000023D 3Ar00r00         [13]  978 	ld	a, (_g_Timer+0)
    00000240 6F               [ 4]  979 	ld	l, a
                                    980 ;	spillPairReg hl
                                    981 ;	spillPairReg hl
    00000241 26 00            [ 7]  982 	ld	h, #0x00
                                    983 ;	spillPairReg hl
                                    984 ;	spillPairReg hl
    00000243 C5               [11]  985 	push	bc
    00000244 11 13 00         [10]  986 	ld	de, #0x0013
    00000247 CDr00r00         [17]  987 	call	__modsint
    0000024A C1               [10]  988 	pop	bc
    0000024B 7A               [ 4]  989 	ld	a, d
    0000024C B3               [ 4]  990 	or	a, e
    0000024D 20 1C            [12]  991 	jr	NZ, 00112$
                                    992 ;E:\Dropbox\FAUSTO\SVILUPPI\MSX\CODE\C\MSXgl\projects\soccerlgSCC/soccerlg_s6_b3.c:144: u8 rnd = (g_Timer * 3) + (i * 37); 
    0000024F 3Ar00r00         [13]  993 	ld	a, (_g_Timer+0)
    00000252 5F               [ 4]  994 	ld	e, a
    00000253 87               [ 4]  995 	add	a, a
    00000254 83               [ 4]  996 	add	a, e
    00000255 5F               [ 4]  997 	ld	e, a
    00000256 DD 7E FF         [19]  998 	ld	a, -1 (ix)
    00000259 D5               [11]  999 	push	de
    0000025A 5F               [ 4] 1000 	ld	e, a
    0000025B 87               [ 4] 1001 	add	a, a
    0000025C 87               [ 4] 1002 	add	a, a
    0000025D 87               [ 4] 1003 	add	a, a
    0000025E 83               [ 4] 1004 	add	a, e
    0000025F 87               [ 4] 1005 	add	a, a
    00000260 87               [ 4] 1006 	add	a, a
    00000261 83               [ 4] 1007 	add	a, e
    00000262 D1               [10] 1008 	pop	de
    00000263 83               [ 4] 1009 	add	a, e
                                   1010 ;E:\Dropbox\FAUSTO\SVILUPPI\MSX\CODE\C\MSXgl\projects\soccerlgSCC/soccerlg_s6_b3.c:145: dir = (rnd % 8) + 1; 
    00000264 E6 07            [ 7] 1011 	and	a, #0x07
    00000266 3C               [ 4] 1012 	inc	a
                                   1013 ;E:\Dropbox\FAUSTO\SVILUPPI\MSX\CODE\C\MSXgl\projects\soccerlgSCC/soccerlg_s6_b3.c:146: g_Players[i].Direction = dir;
    00000267 DD 77 FE         [19] 1014 	ld	-2 (ix), a
    0000026A 02               [ 7] 1015 	ld	(bc), a
    0000026B                       1016 00112$:
                                   1017 ;E:\Dropbox\FAUSTO\SVILUPPI\MSX\CODE\C\MSXgl\projects\soccerlgSCC/soccerlg_s6_b3.c:149: i8 dy = k_CelebDY[dir];
    0000026B 3Er2D            [ 7] 1018 	ld	a, #<(_TickGoalCelebration_k_CelebDY_131073_1206)
    0000026D DD 86 FE         [19] 1019 	add	a, -2 (ix)
    00000270 6F               [ 4] 1020 	ld	l, a
                                   1021 ;	spillPairReg hl
                                   1022 ;	spillPairReg hl
    00000271 3Es05            [ 7] 1023 	ld	a, #>(_TickGoalCelebration_k_CelebDY_131073_1206)
    00000273 CE 00            [ 7] 1024 	adc	a, #0x00
    00000275 67               [ 4] 1025 	ld	h, a
    00000276 4E               [ 7] 1026 	ld	c, (hl)
                                   1027 ;E:\Dropbox\FAUSTO\SVILUPPI\MSX\CODE\C\MSXgl\projects\soccerlgSCC/soccerlg_s6_b3.c:150: i8 dx = k_CelebDX[dir];
    00000277 3Er24            [ 7] 1028 	ld	a, #<(_TickGoalCelebration_k_CelebDX_131073_1206)
    00000279 DD 86 FE         [19] 1029 	add	a, -2 (ix)
    0000027C 6F               [ 4] 1030 	ld	l, a
                                   1031 ;	spillPairReg hl
                                   1032 ;	spillPairReg hl
    0000027D 3Es05            [ 7] 1033 	ld	a, #>(_TickGoalCelebration_k_CelebDX_131073_1206)
    0000027F CE 00            [ 7] 1034 	adc	a, #0x00
    00000281 67               [ 4] 1035 	ld	h, a
    00000282 46               [ 7] 1036 	ld	b, (hl)
                                   1037 ;E:\Dropbox\FAUSTO\SVILUPPI\MSX\CODE\C\MSXgl\projects\soccerlgSCC/soccerlg_s6_b3.c:152: if (dy < 0 && g_Players[i].Y > limitY_Top) g_Players[i].Y--;
    00000283 79               [ 4] 1038 	ld	a, c
    00000284 07               [ 4] 1039 	rlca
    00000285 E6 01            [ 7] 1040 	and	a,#0x01
    00000287 DD 77 FC         [19] 1041 	ld	-4 (ix), a
    0000028A B7               [ 4] 1042 	or	a, a
    0000028B 28 18            [12] 1043 	jr	Z, 00117$
    0000028D E1               [10] 1044 	pop	hl
    0000028E E5               [11] 1045 	push	hl
    0000028F 5E               [ 7] 1046 	ld	e, (hl)
    00000290 23               [ 6] 1047 	inc	hl
    00000291 56               [ 7] 1048 	ld	d, (hl)
    00000292 DD 7E F6         [19] 1049 	ld	a, -10 (ix)
    00000295 93               [ 4] 1050 	sub	a, e
    00000296 DD 7E F7         [19] 1051 	ld	a, -9 (ix)
    00000299 9A               [ 4] 1052 	sbc	a, d
    0000029A 30 09            [12] 1053 	jr	NC, 00117$
    0000029C 1B               [ 6] 1054 	dec	de
    0000029D E1               [10] 1055 	pop	hl
    0000029E E5               [11] 1056 	push	hl
    0000029F 73               [ 7] 1057 	ld	(hl), e
    000002A0 23               [ 6] 1058 	inc	hl
    000002A1 72               [ 7] 1059 	ld	(hl), d
    000002A2 C3rC4r02         [10] 1060 	jp	00118$
    000002A5                       1061 00117$:
                                   1062 ;E:\Dropbox\FAUSTO\SVILUPPI\MSX\CODE\C\MSXgl\projects\soccerlgSCC/soccerlg_s6_b3.c:153: else if (dy > 0 && g_Players[i].Y < limitY_Bottom) g_Players[i].Y++;
    000002A5 AF               [ 4] 1063 	xor	a, a
    000002A6 91               [ 4] 1064 	sub	a, c
    000002A7 E2rACr02         [10] 1065 	jp	PO, 00387$
    000002AA EE 80            [ 7] 1066 	xor	a, #0x80
    000002AC                       1067 00387$:
    000002AC F2rC4r02         [10] 1068 	jp	P, 00118$
    000002AF E1               [10] 1069 	pop	hl
    000002B0 E5               [11] 1070 	push	hl
    000002B1 5E               [ 7] 1071 	ld	e, (hl)
    000002B2 23               [ 6] 1072 	inc	hl
    000002B3 56               [ 7] 1073 	ld	d, (hl)
    000002B4 7B               [ 4] 1074 	ld	a, e
    000002B5 DD 96 F8         [19] 1075 	sub	a, -8 (ix)
    000002B8 7A               [ 4] 1076 	ld	a, d
    000002B9 DD 9E F9         [19] 1077 	sbc	a, -7 (ix)
    000002BC 30 06            [12] 1078 	jr	NC, 00118$
    000002BE 13               [ 6] 1079 	inc	de
    000002BF E1               [10] 1080 	pop	hl
    000002C0 E5               [11] 1081 	push	hl
    000002C1 73               [ 7] 1082 	ld	(hl), e
    000002C2 23               [ 6] 1083 	inc	hl
    000002C3 72               [ 7] 1084 	ld	(hl), d
    000002C4                       1085 00118$:
                                   1086 ;E:\Dropbox\FAUSTO\SVILUPPI\MSX\CODE\C\MSXgl\projects\soccerlgSCC/soccerlg_s6_b3.c:155: if (dx < 0 && g_Players[i].X > FIELD_BOUND_X_LEFT) g_Players[i].X--;
    000002C4 CB 78            [ 8] 1087 	bit	7, b
    000002C6 28 21            [12] 1088 	jr	Z, 00124$
    000002C8 E1               [10] 1089 	pop	hl
    000002C9 E5               [11] 1090 	push	hl
    000002CA 23               [ 6] 1091 	inc	hl
    000002CB 23               [ 6] 1092 	inc	hl
    000002CC 5E               [ 7] 1093 	ld	e, (hl)
    000002CD 23               [ 6] 1094 	inc	hl
    000002CE 56               [ 7] 1095 	ld	d, (hl)
    000002CF 2B               [ 6] 1096 	dec	hl
    000002D0 DD 73 FD         [19] 1097 	ld	-3 (ix), e
    000002D3 DD 72 FE         [19] 1098 	ld	-2 (ix), d
    000002D6 3E 0A            [ 7] 1099 	ld	a, #0x0a
    000002D8 DD BE FD         [19] 1100 	cp	a, -3 (ix)
    000002DB 3E 00            [ 7] 1101 	ld	a, #0x00
    000002DD DD 9E FE         [19] 1102 	sbc	a, -2 (ix)
    000002E0 30 07            [12] 1103 	jr	NC, 00124$
    000002E2 1B               [ 6] 1104 	dec	de
    000002E3 73               [ 7] 1105 	ld	(hl), e
    000002E4 23               [ 6] 1106 	inc	hl
    000002E5 72               [ 7] 1107 	ld	(hl), d
    000002E6 C3r09r03         [10] 1108 	jp	00125$
    000002E9                       1109 00124$:
                                   1110 ;E:\Dropbox\FAUSTO\SVILUPPI\MSX\CODE\C\MSXgl\projects\soccerlgSCC/soccerlg_s6_b3.c:156: else if (dx > 0 && g_Players[i].X < FIELD_BOUND_X_RIGHT) g_Players[i].X++;
    000002E9 AF               [ 4] 1111 	xor	a, a
    000002EA 90               [ 4] 1112 	sub	a, b
    000002EB E2rF0r02         [10] 1113 	jp	PO, 00388$
    000002EE EE 80            [ 7] 1114 	xor	a, #0x80
    000002F0                       1115 00388$:
    000002F0 F2r09r03         [10] 1116 	jp	P, 00125$
    000002F3 E1               [10] 1117 	pop	hl
    000002F4 E5               [11] 1118 	push	hl
    000002F5 23               [ 6] 1119 	inc	hl
    000002F6 23               [ 6] 1120 	inc	hl
    000002F7 4E               [ 7] 1121 	ld	c, (hl)
    000002F8 23               [ 6] 1122 	inc	hl
    000002F9 46               [ 7] 1123 	ld	b, (hl)
    000002FA 2B               [ 6] 1124 	dec	hl
    000002FB 59               [ 4] 1125 	ld	e, c
    000002FC 50               [ 4] 1126 	ld	d, b
    000002FD 7B               [ 4] 1127 	ld	a, e
    000002FE D6 EC            [ 7] 1128 	sub	a, #0xec
    00000300 7A               [ 4] 1129 	ld	a, d
    00000301 DE 00            [ 7] 1130 	sbc	a, #0x00
    00000303 30 04            [12] 1131 	jr	NC, 00125$
    00000305 03               [ 6] 1132 	inc	bc
    00000306 71               [ 7] 1133 	ld	(hl), c
    00000307 23               [ 6] 1134 	inc	hl
    00000308 70               [ 7] 1135 	ld	(hl), b
    00000309                       1136 00125$:
                                   1137 ;E:\Dropbox\FAUSTO\SVILUPPI\MSX\CODE\C\MSXgl\projects\soccerlgSCC/soccerlg_s6_b3.c:159: bool animFrame1 = ((g_Timer / 8) % 2) == 0;
    00000309 3Ar00r00         [13] 1138 	ld	a, (_g_Timer+0)
    0000030C 5F               [ 4] 1139 	ld	e, a
    0000030D 16 00            [ 7] 1140 	ld	d, #0x00
    0000030F 4B               [ 4] 1141 	ld	c, e
    00000310 42               [ 4] 1142 	ld	b, d
    00000311 CB 7A            [ 8] 1143 	bit	7, d
    00000313 28 06            [12] 1144 	jr	Z, 00162$
    00000315 21 07 00         [10] 1145 	ld	hl, #0x0007
    00000318 19               [11] 1146 	add	hl, de
    00000319 4D               [ 4] 1147 	ld	c, l
    0000031A 44               [ 4] 1148 	ld	b, h
    0000031B                       1149 00162$:
    0000031B DD 71 FD         [19] 1150 	ld	-3 (ix), c
    0000031E DD 70 FE         [19] 1151 	ld	-2 (ix), b
    00000321 DD CB FE 2E      [23] 1152 	sra	-2 (ix)
    00000325 DD CB FD 1E      [23] 1153 	rr	-3 (ix)
    00000329 DD CB FE 2E      [23] 1154 	sra	-2 (ix)
    0000032D DD CB FD 1E      [23] 1155 	rr	-3 (ix)
    00000331 DD CB FE 2E      [23] 1156 	sra	-2 (ix)
    00000335 DD CB FD 1E      [23] 1157 	rr	-3 (ix)
    00000339 11 02 00         [10] 1158 	ld	de, #0x0002
    0000033C DD 6E FD         [19] 1159 	ld	l, -3 (ix)
                                   1160 ;	spillPairReg hl
                                   1161 ;	spillPairReg hl
    0000033F DD 66 FE         [19] 1162 	ld	h, -2 (ix)
                                   1163 ;	spillPairReg hl
                                   1164 ;	spillPairReg hl
    00000342 CDr00r00         [17] 1165 	call	__modsint
    00000345 DD 73 FD         [19] 1166 	ld	-3 (ix), e
    00000348 DD 72 FE         [19] 1167 	ld	-2 (ix), d
    0000034B DD 7E FD         [19] 1168 	ld	a, -3 (ix)
    0000034E B7               [ 4] 1169 	or	a, a
    0000034F DD B6 FE         [19] 1170 	or	a, -2 (ix)
    00000352 3E 01            [ 7] 1171 	ld	a, #0x01
    00000354 28 01            [12] 1172 	jr	Z, 00390$
    00000356 AF               [ 4] 1173 	xor	a, a
    00000357                       1174 00390$:
    00000357 DD 77 FE         [19] 1175 	ld	-2 (ix), a
                                   1176 ;E:\Dropbox\FAUSTO\SVILUPPI\MSX\CODE\C\MSXgl\projects\soccerlgSCC/soccerlg_s6_b3.c:162: if (isBack) g_Players[i].PatternId = (animFrame1) ? PLAYER_POSE_CELEBRATION_BACK_1 : PLAYER_POSE_CELEBRATION_BACK_2;
    0000035A DD 7E FC         [19] 1177 	ld	a, -4 (ix)
    0000035D B7               [ 4] 1178 	or	a, a
    0000035E 28 2C            [12] 1179 	jr	Z, 00128$
    00000360 DD 7E FE         [19] 1180 	ld	a, -2 (ix)
    00000363 B7               [ 4] 1181 	or	a, a
    00000364 28 0B            [12] 1182 	jr	Z, 00163$
    00000366 DD 36 FD 32      [19] 1183 	ld	-3 (ix), #0x32
    0000036A DD 36 FE 00      [19] 1184 	ld	-2 (ix), #0
    0000036E C3r79r03         [10] 1185 	jp	00164$
    00000371                       1186 00163$:
    00000371 DD 36 FD 33      [19] 1187 	ld	-3 (ix), #0x33
    00000375 DD 36 FE 00      [19] 1188 	ld	-2 (ix), #0
    00000379                       1189 00164$:
    00000379 DD 7E FD         [19] 1190 	ld	a, -3 (ix)
    0000037C DD 77 FE         [19] 1191 	ld	-2 (ix), a
    0000037F DD 6E FA         [19] 1192 	ld	l, -6 (ix)
    00000382 DD 66 FB         [19] 1193 	ld	h, -5 (ix)
    00000385 DD 7E FE         [19] 1194 	ld	a, -2 (ix)
    00000388 77               [ 7] 1195 	ld	(hl), a
    00000389 C3rF2r03         [10] 1196 	jp	00133$
    0000038C                       1197 00128$:
                                   1198 ;E:\Dropbox\FAUSTO\SVILUPPI\MSX\CODE\C\MSXgl\projects\soccerlgSCC/soccerlg_s6_b3.c:163: else g_Players[i].PatternId = (animFrame1) ? PLAYER_POSE_CELEBRATION_FRONT_1 : PLAYER_POSE_CELEBRATION_FRONT_2;
    0000038C DD 7E FE         [19] 1199 	ld	a, -2 (ix)
    0000038F B7               [ 4] 1200 	or	a, a
    00000390 28 0B            [12] 1201 	jr	Z, 00165$
    00000392 DD 36 FD 30      [19] 1202 	ld	-3 (ix), #0x30
    00000396 DD 36 FE 00      [19] 1203 	ld	-2 (ix), #0
    0000039A C3rA5r03         [10] 1204 	jp	00166$
    0000039D                       1205 00165$:
    0000039D DD 36 FD 31      [19] 1206 	ld	-3 (ix), #0x31
    000003A1 DD 36 FE 00      [19] 1207 	ld	-2 (ix), #0
    000003A5                       1208 00166$:
    000003A5 DD 7E FD         [19] 1209 	ld	a, -3 (ix)
    000003A8 DD 6E FA         [19] 1210 	ld	l, -6 (ix)
    000003AB DD 66 FB         [19] 1211 	ld	h, -5 (ix)
    000003AE 77               [ 7] 1212 	ld	(hl), a
    000003AF C3rF2r03         [10] 1213 	jp	00133$
    000003B2                       1214 00131$:
                                   1215 ;E:\Dropbox\FAUSTO\SVILUPPI\MSX\CODE\C\MSXgl\projects\soccerlgSCC/soccerlg_s6_b3.c:167: bool isUp = (dir == DIRECTION_UP || dir == DIRECTION_UP_LEFT || dir == DIRECTION_UP_RIGHT);
    000003B2 DD 7E FE         [19] 1216 	ld	a, -2 (ix)
    000003B5 3D               [ 4] 1217 	dec	a
    000003B6 28 12            [12] 1218 	jr	Z, 00168$
    000003B8 DD 7E FE         [19] 1219 	ld	a, -2 (ix)
    000003BB D6 08            [ 7] 1220 	sub	a, #0x08
    000003BD 28 0B            [12] 1221 	jr	Z, 00168$
    000003BF DD 7E FE         [19] 1222 	ld	a, -2 (ix)
    000003C2 D6 02            [ 7] 1223 	sub	a, #0x02
    000003C4 28 04            [12] 1224 	jr	Z, 00168$
    000003C6 AF               [ 4] 1225 	xor	a, a
    000003C7 C3rCCr03         [10] 1226 	jp	00169$
    000003CA                       1227 00168$:
    000003CA 3E 01            [ 7] 1228 	ld	a, #0x01
    000003CC                       1229 00169$:
                                   1230 ;E:\Dropbox\FAUSTO\SVILUPPI\MSX\CODE\C\MSXgl\projects\soccerlgSCC/soccerlg_s6_b3.c:168: g_Players[i].PatternId = isUp ? PLAYER_POSE_BACK : PLAYER_POSE_FRONT;
    000003CC B7               [ 4] 1231 	or	a, a
    000003CD 28 0B            [12] 1232 	jr	Z, 00173$
    000003CF DD 36 FD 11      [19] 1233 	ld	-3 (ix), #0x11
    000003D3 DD 36 FE 00      [19] 1234 	ld	-2 (ix), #0
    000003D7 C3rE2r03         [10] 1235 	jp	00174$
    000003DA                       1236 00173$:
    000003DA DD 36 FD 10      [19] 1237 	ld	-3 (ix), #0x10
    000003DE DD 36 FE 00      [19] 1238 	ld	-2 (ix), #0
    000003E2                       1239 00174$:
    000003E2 DD 7E FD         [19] 1240 	ld	a, -3 (ix)
    000003E5 DD 77 FE         [19] 1241 	ld	-2 (ix), a
    000003E8 DD 6E FA         [19] 1242 	ld	l, -6 (ix)
    000003EB DD 66 FB         [19] 1243 	ld	h, -5 (ix)
    000003EE DD 7E FE         [19] 1244 	ld	a, -2 (ix)
    000003F1 77               [ 7] 1245 	ld	(hl), a
    000003F2                       1246 00133$:
                                   1247 ;E:\Dropbox\FAUSTO\SVILUPPI\MSX\CODE\C\MSXgl\projects\soccerlgSCC/soccerlg_s6_b3.c:133: for(u8 i=0; i<15; i++){
    000003F2 DD 34 FF         [23] 1248 	inc	-1 (ix)
    000003F5 C3rEDr01         [10] 1249 	jp	00154$
    000003F8                       1250 00136$:
                                   1251 ;E:\Dropbox\FAUSTO\SVILUPPI\MSX\CODE\C\MSXgl\projects\soccerlgSCC/soccerlg_s6_b3.c:173: if(g_Timer > 150){
    000003F8 3E 96            [ 7] 1252 	ld	a, #0x96
    000003FA 21r00r00         [10] 1253 	ld	hl, #_g_Timer
    000003FD 96               [ 7] 1254 	sub	a, (hl)
    000003FE D2r1Fr05         [10] 1255 	jp	NC, 00158$
                                   1256 ;E:/Dropbox/FAUSTO/SVILUPPI/MSX/CODE/C/MSXgl/engine/src/v9990.h:480: inline void V9_SetBackgroundColor(u8 color) { V9_SetRegister(15, color); }
    00000401 2E 01            [ 7] 1257 	ld	l, #0x01
                                   1258 ;	spillPairReg hl
                                   1259 ;	spillPairReg hl
    00000403 3E 0F            [ 7] 1260 	ld	a, #0x0f
    00000405 CDr00r00         [17] 1261 	call	_V9_SetRegister
                                   1262 ;E:\Dropbox\FAUSTO\SVILUPPI\MSX\CODE\C\MSXgl\projects\soccerlgSCC/soccerlg_s6_b3.c:175: V9990_ClearTextFromLayerA(12, 18, 8); // "IN  GOAL"
    00000408 3E 08            [ 7] 1263 	ld	a, #0x08
    0000040A F5               [11] 1264 	push	af
    0000040B 33               [ 6] 1265 	inc	sp
    0000040C 2E 12            [ 7] 1266 	ld	l, #0x12
                                   1267 ;	spillPairReg hl
                                   1268 ;	spillPairReg hl
    0000040E 3E 0C            [ 7] 1269 	ld	a, #0x0c
    00000410 CDr00r00         [17] 1270 	call	_V9990_ClearTextFromLayerA
                                   1271 ;E:\Dropbox\FAUSTO\SVILUPPI\MSX\CODE\C\MSXgl\projects\soccerlgSCC/soccerlg_s6_b3.c:177: g_MatchStatus = MATCH_BEFORE_KICK_OFF;
    00000413 21r00r00         [10] 1272 	ld	hl, #_g_MatchStatus
    00000416 36 01            [10] 1273 	ld	(hl), #0x01
                                   1274 ;E:\Dropbox\FAUSTO\SVILUPPI\MSX\CODE\C\MSXgl\projects\soccerlgSCC/soccerlg_s6_b3.c:178: g_Ball.PossessionPlayerId = NO_VALUE;
    00000418 21r06r00         [10] 1275 	ld	hl, #(_g_Ball + 6)
    0000041B 36 FF            [10] 1276 	ld	(hl), #0xff
                                   1277 ;E:\Dropbox\FAUSTO\SVILUPPI\MSX\CODE\C\MSXgl\projects\soccerlgSCC/soccerlg_s6_b3.c:179: g_Ball.KickMoveState = 0;
    0000041D 21r0Dr00         [10] 1278 	ld	hl, #(_g_Ball + 13)
    00000420 36 00            [10] 1279 	ld	(hl), #0x00
                                   1280 ;E:\Dropbox\FAUSTO\SVILUPPI\MSX\CODE\C\MSXgl\projects\soccerlgSCC/soccerlg_s6_b3.c:180: g_Ball.ShotActive = 0;
    00000422 21r1Br00         [10] 1281 	ld	hl, #(_g_Ball + 27)
    00000425 36 00            [10] 1282 	ld	(hl), #0x00
                                   1283 ;E:\Dropbox\FAUSTO\SVILUPPI\MSX\CODE\C\MSXgl\projects\soccerlgSCC/soccerlg_s6_b3.c:181: if(g_Team1ActivePlayer!=NO_VALUE) g_Players[g_Team1ActivePlayer].Status=PLAYER_STATUS_NONE;
    00000427 3Ar00r00         [13] 1284 	ld	a, (_g_Team1ActivePlayer+0)
    0000042A 3C               [ 4] 1285 	inc	a
    0000042B 28 1A            [12] 1286 	jr	Z, 00138$
    0000042D 01r00r00         [10] 1287 	ld	bc, #_g_Players+0
    00000430 ED 5Br00r00      [20] 1288 	ld	de, (_g_Team1ActivePlayer)
    00000434 16 00            [ 7] 1289 	ld	d, #0x00
    00000436 6B               [ 4] 1290 	ld	l, e
    00000437 62               [ 4] 1291 	ld	h, d
    00000438 29               [11] 1292 	add	hl, hl
    00000439 29               [11] 1293 	add	hl, hl
    0000043A 19               [11] 1294 	add	hl, de
    0000043B 29               [11] 1295 	add	hl, hl
    0000043C 29               [11] 1296 	add	hl, hl
    0000043D 19               [11] 1297 	add	hl, de
    0000043E 09               [11] 1298 	add	hl, bc
    0000043F 01 12 00         [10] 1299 	ld	bc, #0x0012
    00000442 09               [11] 1300 	add	hl, bc
    00000443 AF               [ 4] 1301 	xor	a, a
    00000444 77               [ 7] 1302 	ld	(hl), a
    00000445 23               [ 6] 1303 	inc	hl
    00000446 77               [ 7] 1304 	ld	(hl), a
    00000447                       1305 00138$:
                                   1306 ;E:\Dropbox\FAUSTO\SVILUPPI\MSX\CODE\C\MSXgl\projects\soccerlgSCC/soccerlg_s6_b3.c:182: if(g_Team2ActivePlayer!=NO_VALUE) g_Players[g_Team2ActivePlayer].Status=PLAYER_STATUS_NONE;
    00000447 3Ar00r00         [13] 1307 	ld	a, (_g_Team2ActivePlayer+0)
    0000044A 3C               [ 4] 1308 	inc	a
    0000044B 28 1A            [12] 1309 	jr	Z, 00140$
    0000044D 01r00r00         [10] 1310 	ld	bc, #_g_Players+0
    00000450 ED 5Br00r00      [20] 1311 	ld	de, (_g_Team2ActivePlayer)
    00000454 16 00            [ 7] 1312 	ld	d, #0x00
    00000456 6B               [ 4] 1313 	ld	l, e
    00000457 62               [ 4] 1314 	ld	h, d
    00000458 29               [11] 1315 	add	hl, hl
    00000459 29               [11] 1316 	add	hl, hl
    0000045A 19               [11] 1317 	add	hl, de
    0000045B 29               [11] 1318 	add	hl, hl
    0000045C 29               [11] 1319 	add	hl, hl
    0000045D 19               [11] 1320 	add	hl, de
    0000045E 09               [11] 1321 	add	hl, bc
    0000045F 01 12 00         [10] 1322 	ld	bc, #0x0012
    00000462 09               [11] 1323 	add	hl, bc
    00000463 AF               [ 4] 1324 	xor	a, a
    00000464 77               [ 7] 1325 	ld	(hl), a
    00000465 23               [ 6] 1326 	inc	hl
    00000466 77               [ 7] 1327 	ld	(hl), a
    00000467                       1328 00140$:
                                   1329 ;E:\Dropbox\FAUSTO\SVILUPPI\MSX\CODE\C\MSXgl\projects\soccerlgSCC/soccerlg_s6_b3.c:183: g_Team1ActivePlayer=NO_VALUE;
    00000467 21r00r00         [10] 1330 	ld	hl, #_g_Team1ActivePlayer
    0000046A 36 FF            [10] 1331 	ld	(hl), #0xff
                                   1332 ;E:\Dropbox\FAUSTO\SVILUPPI\MSX\CODE\C\MSXgl\projects\soccerlgSCC/soccerlg_s6_b3.c:184: g_Team2ActivePlayer=NO_VALUE;
    0000046C 21r00r00         [10] 1333 	ld	hl, #_g_Team2ActivePlayer
    0000046F 36 FF            [10] 1334 	ld	(hl), #0xff
                                   1335 ;E:\Dropbox\FAUSTO\SVILUPPI\MSX\CODE\C\MSXgl\projects\soccerlgSCC/soccerlg_s6_b3.c:186: g_Ball.X = FIELD_POS_X_CENTER;
    00000471 21 78 00         [10] 1336 	ld	hl, #0x0078
    00000474 22r02r00         [16] 1337 	ld	((_g_Ball + 2)), hl
                                   1338 ;E:\Dropbox\FAUSTO\SVILUPPI\MSX\CODE\C\MSXgl\projects\soccerlgSCC/soccerlg_s6_b3.c:187: g_Ball.Y = FIELD_POS_Y_CENTER;
    00000477 2E F3            [ 7] 1339 	ld	l, #0xf3
    00000479 22r00r00         [16] 1340 	ld	(_g_Ball), hl
                                   1341 ;E:\Dropbox\FAUSTO\SVILUPPI\MSX\CODE\C\MSXgl\projects\soccerlgSCC/soccerlg_s6_b3.c:188: g_Ball.PreviousY = g_Ball.Y;
    0000047C ED 4Br00r00      [20] 1342 	ld	bc, (#_g_Ball + 0)
    00000480 ED 43r07r00      [20] 1343 	ld	((_g_Ball + 7)), bc
                                   1344 ;E:\Dropbox\FAUSTO\SVILUPPI\MSX\CODE\C\MSXgl\projects\soccerlgSCC/soccerlg_s6_b3.c:189: PutBallSprite();
    00000484 CDr4Er05         [17] 1345 	call	_PutBallSprite
                                   1346 ;E:\Dropbox\FAUSTO\SVILUPPI\MSX\CODE\C\MSXgl\projects\soccerlgSCC/soccerlg_s6_b3.c:191: for(u8 i=0; i<15; i++){
    00000487 11r00r00         [10] 1347 	ld	de, #_g_Players
    0000048A DD 36 FF 00      [19] 1348 	ld	-1 (ix), #0x00
    0000048E                       1349 00156$:
    0000048E DD 7E FF         [19] 1350 	ld	a, -1 (ix)
    00000491 D6 0F            [ 7] 1351 	sub	a, #0x0f
    00000493 D2r1Ar05         [10] 1352 	jp	NC, 00147$
                                   1353 ;E:\Dropbox\FAUSTO\SVILUPPI\MSX\CODE\C\MSXgl\projects\soccerlgSCC/soccerlg_s6_b3.c:192: if(i==REFEREE || g_Players[i].TeamId==TEAM_1 || g_Players[i].TeamId==TEAM_2){
    00000496 DD 7E FF         [19] 1354 	ld	a, -1 (ix)
    00000499 D6 0E            [ 7] 1355 	sub	a, #0x0e
    0000049B 3E 01            [ 7] 1356 	ld	a, #0x01
    0000049D 28 01            [12] 1357 	jr	Z, 00397$
    0000049F AF               [ 4] 1358 	xor	a, a
    000004A0                       1359 00397$:
    000004A0 4F               [ 4] 1360 	ld	c, a
    000004A1 B7               [ 4] 1361 	or	a, a
    000004A2 20 24            [12] 1362 	jr	NZ, 00143$
    000004A4 D5               [11] 1363 	push	de
    000004A5 DD 5E FF         [19] 1364 	ld	e, -1 (ix)
    000004A8 16 00            [ 7] 1365 	ld	d, #0x00
    000004AA 6B               [ 4] 1366 	ld	l, e
    000004AB 62               [ 4] 1367 	ld	h, d
    000004AC 29               [11] 1368 	add	hl, hl
    000004AD 29               [11] 1369 	add	hl, hl
    000004AE 19               [11] 1370 	add	hl, de
    000004AF 29               [11] 1371 	add	hl, hl
    000004B0 29               [11] 1372 	add	hl, hl
    000004B1 19               [11] 1373 	add	hl, de
    000004B2 D1               [10] 1374 	pop	de
    000004B3 FD 21r00r00      [14] 1375 	ld	iy, #_g_Players
    000004B7 C5               [11] 1376 	push	bc
    000004B8 4D               [ 4] 1377 	ld	c, l
    000004B9 44               [ 4] 1378 	ld	b, h
    000004BA FD 09            [15] 1379 	add	iy, bc
    000004BC C1               [10] 1380 	pop	bc
    000004BD FD 7E 09         [19] 1381 	ld	a, 9 (iy)
    000004C0 FE 01            [ 7] 1382 	cp	a, #0x01
    000004C2 28 04            [12] 1383 	jr	Z, 00143$
    000004C4 D6 02            [ 7] 1384 	sub	a, #0x02
    000004C6 20 4C            [12] 1385 	jr	NZ, 00157$
    000004C8                       1386 00143$:
                                   1387 ;E:\Dropbox\FAUSTO\SVILUPPI\MSX\CODE\C\MSXgl\projects\soccerlgSCC/soccerlg_s6_b3.c:194: if (i==REFEREE) {
    000004C8 79               [ 4] 1388 	ld	a, c
    000004C9 B7               [ 4] 1389 	or	a, a
    000004CA 28 39            [12] 1390 	jr	Z, 00142$
                                   1391 ;E:\Dropbox\FAUSTO\SVILUPPI\MSX\CODE\C\MSXgl\projects\soccerlgSCC/soccerlg_s6_b3.c:195: g_Players[i].Direction=DIRECTION_RIGHT;
    000004CC DD 4E FF         [19] 1392 	ld	c, -1 (ix)
    000004CF 06 00            [ 7] 1393 	ld	b, #0x00
    000004D1 69               [ 4] 1394 	ld	l, c
    000004D2 60               [ 4] 1395 	ld	h, b
    000004D3 29               [11] 1396 	add	hl, hl
    000004D4 29               [11] 1397 	add	hl, hl
    000004D5 09               [11] 1398 	add	hl, bc
    000004D6 29               [11] 1399 	add	hl, hl
    000004D7 29               [11] 1400 	add	hl, hl
    000004D8 09               [11] 1401 	add	hl, bc
    000004D9 DD 75 FB         [19] 1402 	ld	-5 (ix), l
    000004DC DD 74 FC         [19] 1403 	ld	-4 (ix), h
    000004DF 7B               [ 4] 1404 	ld	a, e
    000004E0 DD 86 FB         [19] 1405 	add	a, -5 (ix)
    000004E3 DD 77 FD         [19] 1406 	ld	-3 (ix), a
    000004E6 7A               [ 4] 1407 	ld	a, d
    000004E7 DD 8E FC         [19] 1408 	adc	a, -4 (ix)
    000004EA DD 77 FE         [19] 1409 	ld	-2 (ix), a
    000004ED DD 6E FD         [19] 1410 	ld	l, -3 (ix)
    000004F0 DD 66 FE         [19] 1411 	ld	h, -2 (ix)
    000004F3 01 0A 00         [10] 1412 	ld	bc, #0x000a
    000004F6 09               [11] 1413 	add	hl, bc
    000004F7 36 03            [10] 1414 	ld	(hl), #0x03
                                   1415 ;E:\Dropbox\FAUSTO\SVILUPPI\MSX\CODE\C\MSXgl\projects\soccerlgSCC/soccerlg_s6_b3.c:196: g_Players[i].LastPose=0;
    000004F9 DD 6E FD         [19] 1416 	ld	l, -3 (ix)
    000004FC DD 66 FE         [19] 1417 	ld	h, -2 (ix)
    000004FF 01 0C 00         [10] 1418 	ld	bc, #0x000c
    00000502 09               [11] 1419 	add	hl, bc
    00000503 36 00            [10] 1420 	ld	(hl), #0x00
    00000505                       1421 00142$:
                                   1422 ;E:\Dropbox\FAUSTO\SVILUPPI\MSX\CODE\C\MSXgl\projects\soccerlgSCC/soccerlg_s6_b3.c:198: CallFnc_VOID_P1(9,SetPlayerTarget,i);
    00000505 D5               [11] 1423 	push	de
    00000506 DD 7E FF         [19] 1424 	ld	a, -1 (ix)
    00000509 F5               [11] 1425 	push	af
    0000050A 33               [ 6] 1426 	inc	sp
    0000050B 11r00r00         [10] 1427 	ld	de, #_SetPlayerTarget
    0000050E 3E 09            [ 7] 1428 	ld	a, #0x09
    00000510 CDr00r00         [17] 1429 	call	_CallFnc_VOID_P1
    00000513 D1               [10] 1430 	pop	de
    00000514                       1431 00157$:
                                   1432 ;E:\Dropbox\FAUSTO\SVILUPPI\MSX\CODE\C\MSXgl\projects\soccerlgSCC/soccerlg_s6_b3.c:191: for(u8 i=0; i<15; i++){
    00000514 DD 34 FF         [23] 1433 	inc	-1 (ix)
    00000517 C3r8Er04         [10] 1434 	jp	00156$
    0000051A                       1435 00147$:
                                   1436 ;E:\Dropbox\FAUSTO\SVILUPPI\MSX\CODE\C\MSXgl\projects\soccerlgSCC/soccerlg_s6_b3.c:203: g_FieldScrollingActionInProgress=FIELD_CENTRAL_ZONE;
    0000051A 21r00r00         [10] 1437 	ld	hl, #_g_FieldScrollingActionInProgress
    0000051D 36 01            [10] 1438 	ld	(hl), #0x01
    0000051F                       1439 00158$:
                                   1440 ;E:\Dropbox\FAUSTO\SVILUPPI\MSX\CODE\C\MSXgl\projects\soccerlgSCC/soccerlg_s6_b3.c:205: }
    0000051F DD F9            [10] 1441 	ld	sp, ix
    00000521 DD E1            [14] 1442 	pop	ix
    00000523 C9               [10] 1443 	ret
    00000524                       1444 _TickGoalCelebration_k_CelebDX_131073_1206:
    00000524 00                    1445 	.db #0x00	;  0
    00000525 00                    1446 	.db #0x00	;  0
    00000526 01                    1447 	.db #0x01	;  1
    00000527 01                    1448 	.db #0x01	;  1
    00000528 01                    1449 	.db #0x01	;  1
    00000529 00                    1450 	.db #0x00	;  0
    0000052A FF                    1451 	.db #0xff	; -1
    0000052B FF                    1452 	.db #0xff	; -1
    0000052C FF                    1453 	.db #0xff	; -1
    0000052D                       1454 _TickGoalCelebration_k_CelebDY_131073_1206:
    0000052D 00                    1455 	.db #0x00	;  0
    0000052E FF                    1456 	.db #0xff	; -1
    0000052F FF                    1457 	.db #0xff	; -1
    00000530 00                    1458 	.db #0x00	;  0
    00000531 01                    1459 	.db #0x01	;  1
    00000532 01                    1460 	.db #0x01	;  1
    00000533 01                    1461 	.db #0x01	;  1
    00000534 00                    1462 	.db #0x00	;  0
    00000535 FF                    1463 	.db #0xff	; -1
                                   1464 ;E:\Dropbox\FAUSTO\SVILUPPI\MSX\CODE\C\MSXgl\projects\soccerlgSCC/soccerlg_s6_b3.c:208: void UpdateSpritesPositions(){
                                   1465 ;	---------------------------------
                                   1466 ; Function UpdateSpritesPositions
                                   1467 ; ---------------------------------
    00000536                       1468 _UpdateSpritesPositions::
                                   1469 ;E:\Dropbox\FAUSTO\SVILUPPI\MSX\CODE\C\MSXgl\projects\soccerlgSCC/soccerlg_s6_b3.c:209: for (u8 i=0;i<15;i++){
    00000536 06 00            [ 7] 1470 	ld	b, #0x00
    00000538                       1471 00103$:
    00000538 78               [ 4] 1472 	ld	a, b
    00000539 D6 0F            [ 7] 1473 	sub	a, #0x0f
    0000053B D2r4Er05         [10] 1474 	jp	NC,_PutBallSprite
                                   1475 ;E:\Dropbox\FAUSTO\SVILUPPI\MSX\CODE\C\MSXgl\projects\soccerlgSCC/soccerlg_s6_b3.c:210: CallFnc_VOID_P1(5,PutPlayerSprite,i);
    0000053E C5               [11] 1476 	push	bc
    0000053F C5               [11] 1477 	push	bc
    00000540 33               [ 6] 1478 	inc	sp
    00000541 11r00r00         [10] 1479 	ld	de, #_PutPlayerSprite
    00000544 3E 05            [ 7] 1480 	ld	a, #0x05
    00000546 CDr00r00         [17] 1481 	call	_CallFnc_VOID_P1
    00000549 C1               [10] 1482 	pop	bc
                                   1483 ;E:\Dropbox\FAUSTO\SVILUPPI\MSX\CODE\C\MSXgl\projects\soccerlgSCC/soccerlg_s6_b3.c:209: for (u8 i=0;i<15;i++){
    0000054A 04               [ 4] 1484 	inc	b
                                   1485 ;E:\Dropbox\FAUSTO\SVILUPPI\MSX\CODE\C\MSXgl\projects\soccerlgSCC/soccerlg_s6_b3.c:212: PutBallSprite();
                                   1486 ;E:\Dropbox\FAUSTO\SVILUPPI\MSX\CODE\C\MSXgl\projects\soccerlgSCC/soccerlg_s6_b3.c:213: }
    0000054B C3r38r05         [10] 1487 	jp	00103$
                                   1488 ;E:\Dropbox\FAUSTO\SVILUPPI\MSX\CODE\C\MSXgl\projects\soccerlgSCC/soccerlg_s6_b3.c:215: void PutBallSprite(){
                                   1489 ;	---------------------------------
                                   1490 ; Function PutBallSprite
                                   1491 ; ---------------------------------
    0000054E                       1492 _PutBallSprite::
    0000054E DD E5            [15] 1493 	push	ix
    00000550 DD 21 00 00      [14] 1494 	ld	ix,#0
    00000554 DD 39            [15] 1495 	add	ix,sp
    00000556 21 F8 FF         [10] 1496 	ld	hl, #-8
    00000559 39               [11] 1497 	add	hl, sp
    0000055A F9               [ 6] 1498 	ld	sp, hl
                                   1499 ;E:\Dropbox\FAUSTO\SVILUPPI\MSX\CODE\C\MSXgl\projects\soccerlgSCC/soccerlg_s6_b3.c:217: attr.D=!g_BallIsVisible;
    0000055B 21 00 00         [10] 1500 	ld	hl, #0
    0000055E 39               [11] 1501 	add	hl, sp
    0000055F 4D               [ 4] 1502 	ld	c, l
    00000560 44               [ 4] 1503 	ld	b, h
    00000561 3Ar00r00         [13] 1504 	ld	a, (_g_BallIsVisible+0)
    00000564 D6 01            [ 7] 1505 	sub	a,#0x01
    00000566 3E 00            [ 7] 1506 	ld	a, #0x00
    00000568 17               [ 4] 1507 	rla
    00000569 21 03 00         [10] 1508 	ld	hl, #3
    0000056C 39               [11] 1509 	add	hl, sp
    0000056D 07               [ 4] 1510 	rlca
    0000056E 07               [ 4] 1511 	rlca
    0000056F 07               [ 4] 1512 	rlca
    00000570 07               [ 4] 1513 	rlca
    00000571 E6 10            [ 7] 1514 	and	a, #0x10
    00000573 5F               [ 4] 1515 	ld	e, a
    00000574 7E               [ 7] 1516 	ld	a, (hl)
    00000575 E6 EF            [ 7] 1517 	and	a, #0xef
    00000577 B3               [ 4] 1518 	or	a, e
    00000578 77               [ 7] 1519 	ld	(hl), a
                                   1520 ;E:\Dropbox\FAUSTO\SVILUPPI\MSX\CODE\C\MSXgl\projects\soccerlgSCC/soccerlg_s6_b3.c:218: attr.SC=0;
    00000579 21 03 00         [10] 1521 	ld	hl, #3
    0000057C 39               [11] 1522 	add	hl, sp
    0000057D 7E               [ 7] 1523 	ld	a, (hl)
    0000057E E6 3F            [ 7] 1524 	and	a, #0x3f
    00000580 77               [ 7] 1525 	ld	(hl), a
                                   1526 ;E:\Dropbox\FAUSTO\SVILUPPI\MSX\CODE\C\MSXgl\projects\soccerlgSCC/soccerlg_s6_b3.c:219: attr.Y = g_Ball.Y-g_FieldCurrentYPosition;
    00000581 21r00r00         [10] 1527 	ld	hl, #_g_Ball+0
    00000584 56               [ 7] 1528 	ld	d, (hl)
    00000585 3Ar00r00         [13] 1529 	ld	a, (_g_FieldCurrentYPosition+0)
    00000588 5F               [ 4] 1530 	ld	e, a
    00000589 7A               [ 4] 1531 	ld	a, d
    0000058A 93               [ 4] 1532 	sub	a, e
    0000058B 02               [ 7] 1533 	ld	(bc), a
                                   1534 ;E:\Dropbox\FAUSTO\SVILUPPI\MSX\CODE\C\MSXgl\projects\soccerlgSCC/soccerlg_s6_b3.c:222: u8 logicalSize = g_Ball.Size;
    0000058C 21r04r00         [10] 1535 	ld	hl, #_g_Ball + 4
    0000058F 5E               [ 7] 1536 	ld	e, (hl)
                                   1537 ;E:\Dropbox\FAUSTO\SVILUPPI\MSX\CODE\C\MSXgl\projects\soccerlgSCC/soccerlg_s6_b3.c:224: if (g_Ball.PossessionPlayerId != NO_VALUE) logicalSize = 1;
    00000590 3Ar06r00         [13] 1538 	ld	a, (#_g_Ball + 6)
    00000593 3C               [ 4] 1539 	inc	a
    00000594 28 02            [12] 1540 	jr	Z, 00102$
    00000596 1E 01            [ 7] 1541 	ld	e, #0x01
    00000598                       1542 00102$:
                                   1543 ;E:\Dropbox\FAUSTO\SVILUPPI\MSX\CODE\C\MSXgl\projects\soccerlgSCC/soccerlg_s6_b3.c:226: if (logicalSize == 0) logicalSize = 1;
    00000598 7B               [ 4] 1544 	ld	a, e
    00000599 B7               [ 4] 1545 	or	a, a
    0000059A 20 02            [12] 1546 	jr	NZ, 00104$
    0000059C 1E 01            [ 7] 1547 	ld	e, #0x01
    0000059E                       1548 00104$:
                                   1549 ;E:\Dropbox\FAUSTO\SVILUPPI\MSX\CODE\C\MSXgl\projects\soccerlgSCC/soccerlg_s6_b3.c:227: if (logicalSize > 4) logicalSize = 4;
    0000059E 3E 04            [ 7] 1550 	ld	a, #0x04
    000005A0 93               [ 4] 1551 	sub	a, e
    000005A1 30 02            [12] 1552 	jr	NC, 00106$
    000005A3 1E 04            [ 7] 1553 	ld	e, #0x04
    000005A5                       1554 00106$:
                                   1555 ;E:\Dropbox\FAUSTO\SVILUPPI\MSX\CODE\C\MSXgl\projects\soccerlgSCC/soccerlg_s6_b3.c:232: bool rawMovement = (g_Ball.OldX != g_Ball.X || g_Ball.OldY != g_Ball.Y);
    000005A5 21r09r00         [10] 1556 	ld	hl, #(_g_Ball + 9)
    000005A8 7E               [ 7] 1557 	ld	a, (hl)
    000005A9 DD 77 FE         [19] 1558 	ld	-2 (ix), a
    000005AC 23               [ 6] 1559 	inc	hl
    000005AD 7E               [ 7] 1560 	ld	a, (hl)
    000005AE DD 77 FF         [19] 1561 	ld	-1 (ix), a
    000005B1 21r02r00         [10] 1562 	ld	hl, #(_g_Ball + 2)
    000005B4 7E               [ 7] 1563 	ld	a, (hl)
    000005B5 DD 77 FC         [19] 1564 	ld	-4 (ix), a
    000005B8 23               [ 6] 1565 	inc	hl
    000005B9 7E               [ 7] 1566 	ld	a, (hl)
    000005BA DD 77 FD         [19] 1567 	ld	-3 (ix), a
    000005BD DD 7E FE         [19] 1568 	ld	a, -2 (ix)
    000005C0 DD 96 FC         [19] 1569 	sub	a, -4 (ix)
    000005C3 20 28            [12] 1570 	jr	NZ, 00117$
    000005C5 DD 7E FF         [19] 1571 	ld	a, -1 (ix)
    000005C8 DD 96 FD         [19] 1572 	sub	a, -3 (ix)
    000005CB 20 20            [12] 1573 	jr	NZ, 00117$
    000005CD 21r0Br00         [10] 1574 	ld	hl, #(_g_Ball + 11)
    000005D0 7E               [ 7] 1575 	ld	a, (hl)
    000005D1 DD 77 FE         [19] 1576 	ld	-2 (ix), a
    000005D4 23               [ 6] 1577 	inc	hl
    000005D5 7E               [ 7] 1578 	ld	a, (hl)
    000005D6 DD 77 FF         [19] 1579 	ld	-1 (ix), a
    000005D9 2Ar00r00         [16] 1580 	ld	hl, (#_g_Ball + 0)
    000005DC 7D               [ 4] 1581 	ld	a, l
    000005DD DD 96 FE         [19] 1582 	sub	a, -2 (ix)
    000005E0 20 0B            [12] 1583 	jr	NZ, 00117$
    000005E2 7C               [ 4] 1584 	ld	a, h
    000005E3 DD 96 FF         [19] 1585 	sub	a, -1 (ix)
    000005E6 20 05            [12] 1586 	jr	NZ, 00117$
    000005E8 16 00            [ 7] 1587 	ld	d, #0x00
    000005EA C3rEFr05         [10] 1588 	jp	00118$
    000005ED                       1589 00117$:
    000005ED 16 01            [ 7] 1590 	ld	d, #0x01
    000005EF                       1591 00118$:
                                   1592 ;E:\Dropbox\FAUSTO\SVILUPPI\MSX\CODE\C\MSXgl\projects\soccerlgSCC/soccerlg_s6_b3.c:235: g_Ball.OldX = g_Ball.X;
    000005EF 21r09r00         [10] 1593 	ld	hl, #(_g_Ball + 9)
    000005F2 DD 7E FC         [19] 1594 	ld	a, -4 (ix)
    000005F5 77               [ 7] 1595 	ld	(hl), a
    000005F6 23               [ 6] 1596 	inc	hl
    000005F7 DD 7E FD         [19] 1597 	ld	a, -3 (ix)
    000005FA 77               [ 7] 1598 	ld	(hl), a
                                   1599 ;E:\Dropbox\FAUSTO\SVILUPPI\MSX\CODE\C\MSXgl\projects\soccerlgSCC/soccerlg_s6_b3.c:236: g_Ball.OldY = g_Ball.Y;
    000005FB 21r00r00         [10] 1600 	ld	hl, #_g_Ball
    000005FE 7E               [ 7] 1601 	ld	a, (hl)
    000005FF DD 77 FE         [19] 1602 	ld	-2 (ix), a
    00000602 23               [ 6] 1603 	inc	hl
    00000603 7E               [ 7] 1604 	ld	a, (hl)
    00000604 DD 77 FF         [19] 1605 	ld	-1 (ix), a
    00000607 21r0Br00         [10] 1606 	ld	hl, #(_g_Ball + 11)
    0000060A DD 7E FE         [19] 1607 	ld	a, -2 (ix)
    0000060D 77               [ 7] 1608 	ld	(hl), a
    0000060E 23               [ 6] 1609 	inc	hl
    0000060F DD 7E FF         [19] 1610 	ld	a, -1 (ix)
    00000612 77               [ 7] 1611 	ld	(hl), a
                                   1612 ;E:\Dropbox\FAUSTO\SVILUPPI\MSX\CODE\C\MSXgl\projects\soccerlgSCC/soccerlg_s6_b3.c:238: if (rawMovement) {
    00000613 7A               [ 4] 1613 	ld	a, d
    00000614 B7               [ 4] 1614 	or	a, a
    00000615 28 08            [12] 1615 	jr	Z, 00110$
                                   1616 ;E:\Dropbox\FAUSTO\SVILUPPI\MSX\CODE\C\MSXgl\projects\soccerlgSCC/soccerlg_s6_b3.c:239: s_StopCooldown = 15; // Keep animation active for ~1/4 sec after last move
    00000617 3E 0F            [ 7] 1617 	ld	a, #0x0f
    00000619 32r00r00         [13] 1618 	ld	(#_PutBallSprite_s_StopCooldown_65538_1234), a
    0000061C C3r2Cr06         [10] 1619 	jp	00111$
    0000061F                       1620 00110$:
                                   1621 ;E:\Dropbox\FAUSTO\SVILUPPI\MSX\CODE\C\MSXgl\projects\soccerlgSCC/soccerlg_s6_b3.c:241: if (s_StopCooldown > 0) s_StopCooldown--;
    0000061F 3Ar00r00         [13] 1622 	ld	a, (_PutBallSprite_s_StopCooldown_65538_1234+0)
    00000622 B7               [ 4] 1623 	or	a, a
    00000623 28 07            [12] 1624 	jr	Z, 00111$
    00000625 FD 21r00r00      [14] 1625 	ld	iy, #_PutBallSprite_s_StopCooldown_65538_1234
    00000629 FD 35 00         [23] 1626 	dec	0 (iy)
    0000062C                       1627 00111$:
                                   1628 ;E:\Dropbox\FAUSTO\SVILUPPI\MSX\CODE\C\MSXgl\projects\soccerlgSCC/soccerlg_s6_b3.c:244: bool isAnimating = (s_StopCooldown > 0);
    0000062C 3Ar00r00         [13] 1629 	ld	a, (_PutBallSprite_s_StopCooldown_65538_1234+0)
    0000062F B7               [ 4] 1630 	or	a, a
    00000630 3E 01            [ 7] 1631 	ld	a, #0x01
    00000632 20 01            [12] 1632 	jr	NZ, 00120$
    00000634 AF               [ 4] 1633 	xor	a, a
    00000635                       1634 00120$:
                                   1635 ;E:\Dropbox\FAUSTO\SVILUPPI\MSX\CODE\C\MSXgl\projects\soccerlgSCC/soccerlg_s6_b3.c:248: bool useAlt = isAnimating && ((g_FrameCounter & 8) != 0);
    00000635 B7               [ 4] 1636 	or	a, a
    00000636 28 07            [12] 1637 	jr	Z, 00121$
    00000638 3Ar00r00         [13] 1638 	ld	a, (_g_FrameCounter+0)
    0000063B CB 5F            [ 8] 1639 	bit	3, a
    0000063D 20 04            [12] 1640 	jr	NZ, 00122$
    0000063F                       1641 00121$:
    0000063F AF               [ 4] 1642 	xor	a, a
    00000640 C3r45r06         [10] 1643 	jp	00123$
    00000643                       1644 00122$:
    00000643 3E 01            [ 7] 1645 	ld	a, #0x01
    00000645                       1646 00123$:
                                   1647 ;E:\Dropbox\FAUSTO\SVILUPPI\MSX\CODE\C\MSXgl\projects\soccerlgSCC/soccerlg_s6_b3.c:255: u8 idx = (logicalSize - 1) * 2 + (useAlt ? 1 : 0);
    00000645 6B               [ 4] 1648 	ld	l, e
                                   1649 ;	spillPairReg hl
                                   1650 ;	spillPairReg hl
    00000646 2D               [ 4] 1651 	dec	l
    00000647 CB 25            [ 8] 1652 	sla	l
    00000649 B7               [ 4] 1653 	or	a, a
    0000064A 28 06            [12] 1654 	jr	Z, 00124$
    0000064C 11 01 00         [10] 1655 	ld	de, #0x0001
    0000064F C3r55r06         [10] 1656 	jp	00125$
    00000652                       1657 00124$:
    00000652 11 00 00         [10] 1658 	ld	de, #0x0000
    00000655                       1659 00125$:
    00000655 19               [11] 1660 	add	hl, de
                                   1661 ;E:\Dropbox\FAUSTO\SVILUPPI\MSX\CODE\C\MSXgl\projects\soccerlgSCC/soccerlg_s6_b3.c:256: attr.Pattern = k_BallPatterns[idx & 7];
    00000656 11rABr06         [10] 1662 	ld	de, #_PutBallSprite_k_BallPatterns_65539_1237+0
    00000659 7D               [ 4] 1663 	ld	a, l
                                   1664 ;	spillPairReg hl
                                   1665 ;	spillPairReg hl
    0000065A E6 07            [ 7] 1666 	and	a, #0x07
    0000065C 26 00            [ 7] 1667 	ld	h, #0x00
                                   1668 ;	spillPairReg hl
                                   1669 ;	spillPairReg hl
    0000065E 6F               [ 4] 1670 	ld	l, a
    0000065F 19               [11] 1671 	add	hl, de
    00000660 7E               [ 7] 1672 	ld	a, (hl)
    00000661 DD 77 F9         [19] 1673 	ld	-7 (ix), a
                                   1674 ;E:\Dropbox\FAUSTO\SVILUPPI\MSX\CODE\C\MSXgl\projects\soccerlgSCC/soccerlg_s6_b3.c:258: attr.X = g_Ball.X;
    00000664 ED 5Br02r00      [20] 1675 	ld	de, (#(_g_Ball + 2) + 0)
    00000668 21 02 00         [10] 1676 	ld	hl, #2
    0000066B 39               [11] 1677 	add	hl, sp
    0000066C 73               [ 7] 1678 	ld	(hl), e
    0000066D 23               [ 6] 1679 	inc	hl
    0000066E 7A               [ 4] 1680 	ld	a, d
    0000066F E6 03            [ 7] 1681 	and	a, #0x03
    00000671 C5               [11] 1682 	push	bc
    00000672 4F               [ 4] 1683 	ld	c,a
    00000673 7E               [ 7] 1684 	ld	a, (hl)
    00000674 E6 FC            [ 7] 1685 	and	a, #0xfc
    00000676 B1               [ 4] 1686 	or	a, c
    00000677 C1               [10] 1687 	pop	bc
    00000678 77               [ 7] 1688 	ld	(hl), a
                                   1689 ;E:\Dropbox\FAUSTO\SVILUPPI\MSX\CODE\C\MSXgl\projects\soccerlgSCC/soccerlg_s6_b3.c:259: attr.P = attr.D;
    00000679 21 03 00         [10] 1690 	ld	hl, #3
    0000067C 39               [11] 1691 	add	hl, sp
    0000067D 7E               [ 7] 1692 	ld	a, (hl)
    0000067E 07               [ 4] 1693 	rlca
    0000067F 07               [ 4] 1694 	rlca
    00000680 07               [ 4] 1695 	rlca
    00000681 07               [ 4] 1696 	rlca
    00000682 E6 01            [ 7] 1697 	and	a, #0x01
    00000684 21 03 00         [10] 1698 	ld	hl, #3
    00000687 39               [11] 1699 	add	hl, sp
    00000688 0F               [ 4] 1700 	rrca
    00000689 0F               [ 4] 1701 	rrca
    0000068A 0F               [ 4] 1702 	rrca
    0000068B E6 20            [ 7] 1703 	and	a, #0x20
    0000068D 5F               [ 4] 1704 	ld	e, a
    0000068E 7E               [ 7] 1705 	ld	a, (hl)
    0000068F E6 DF            [ 7] 1706 	and	a, #0xdf
    00000691 B3               [ 4] 1707 	or	a, e
    00000692 77               [ 7] 1708 	ld	(hl), a
                                   1709 ;E:\Dropbox\FAUSTO\SVILUPPI\MSX\CODE\C\MSXgl\projects\soccerlgSCC/soccerlg_s6_b3.c:260: V9_SetSpriteP1(15, &attr);
                                   1710 ;E:/Dropbox/FAUSTO/SVILUPPI/MSX/CODE/C/MSXgl/engine/src/v9990.h:781: inline void V9_SetSpriteP1(u8 id, const V9_Sprite* attr) { V9_WriteVRAM(V9_P1_SPAT + (id * 4), (const u8*)attr, 4); }
                                   1711 ;E:/Dropbox/FAUSTO/SVILUPPI/MSX/CODE/C/MSXgl/engine/src/v9990.h:371: inline void V9_WriteVRAM(u32 addr, const u8* src, u16 count) { V9_SetWriteAddress(addr); V9_WriteVRAM_CurrentAddr(src, count); }
    00000693 11 3C FE         [10] 1712 	ld	de, #0xfe3c
    00000696 21 03 00         [10] 1713 	ld	hl, #0x0003
    00000699 CDr00r00         [17] 1714 	call	_V9_SetWriteAddress
    0000069C 11 04 00         [10] 1715 	ld	de, #0x0004
    0000069F 21 00 00         [10] 1716 	ld	hl, #0
    000006A2 39               [11] 1717 	add	hl, sp
    000006A3 CDr00r00         [17] 1718 	call	_V9_WriteVRAM_CurrentAddr
                                   1719 ;E:\Dropbox\FAUSTO\SVILUPPI\MSX\CODE\C\MSXgl\projects\soccerlgSCC/soccerlg_s6_b3.c:260: V9_SetSpriteP1(15, &attr);
                                   1720 ;E:\Dropbox\FAUSTO\SVILUPPI\MSX\CODE\C\MSXgl\projects\soccerlgSCC/soccerlg_s6_b3.c:261: }
    000006A6 DD F9            [10] 1721 	ld	sp, ix
    000006A8 DD E1            [14] 1722 	pop	ix
    000006AA C9               [10] 1723 	ret
    000006AB                       1724 _PutBallSprite_k_BallPatterns_65539_1237:
    000006AB 39                    1725 	.db #0x39	; 57	'9'
    000006AC 3A                    1726 	.db #0x3a	; 58
    000006AD 3B                    1727 	.db #0x3b	; 59
    000006AE 3C                    1728 	.db #0x3c	; 60
    000006AF 3D                    1729 	.db #0x3d	; 61
    000006B0 3E                    1730 	.db #0x3e	; 62
    000006B1 3F                    1731 	.db #0x3f	; 63
    000006B2 74                    1732 	.db #0x74	; 116	't'
                                   1733 ;E:\Dropbox\FAUSTO\SVILUPPI\MSX\CODE\C\MSXgl\projects\soccerlgSCC/soccerlg_s6_b3.c:263: void TickPonPonGirlsAnimation(){
                                   1734 ;	---------------------------------
                                   1735 ; Function TickPonPonGirlsAnimation
                                   1736 ; ---------------------------------
    000006B3                       1737 _TickPonPonGirlsAnimation::
                                   1738 ;E:\Dropbox\FAUSTO\SVILUPPI\MSX\CODE\C\MSXgl\projects\soccerlgSCC/soccerlg_s6_b3.c:264: if(g_MatchStatus!=MATCH_AFTER_IN_GOAL){
    000006B3 3Ar00r00         [13] 1739 	ld	a, (_g_MatchStatus+0)
    000006B6 D6 06            [ 7] 1740 	sub	a, #0x06
    000006B8 28 24            [12] 1741 	jr	Z, 00105$
                                   1742 ;E:\Dropbox\FAUSTO\SVILUPPI\MSX\CODE\C\MSXgl\projects\soccerlgSCC/soccerlg_s6_b3.c:265: if(!g_ponPonGirlsInitailized){
    000006BA 3Ar00r00         [13] 1743 	ld	a, (_g_ponPonGirlsInitailized+0)
    000006BD B7               [ 4] 1744 	or	a, a
    000006BE 20 08            [12] 1745 	jr	NZ, 00123$
                                   1746 ;E:\Dropbox\FAUSTO\SVILUPPI\MSX\CODE\C\MSXgl\projects\soccerlgSCC/soccerlg_s6_b3.c:266: InitPonPonGirls();
    000006C0 CDrF2r00         [17] 1747 	call	_InitPonPonGirls
                                   1748 ;E:\Dropbox\FAUSTO\SVILUPPI\MSX\CODE\C\MSXgl\projects\soccerlgSCC/soccerlg_s6_b3.c:267: g_ponPonGirlsInitailized=true;
    000006C3 21r00r00         [10] 1749 	ld	hl, #_g_ponPonGirlsInitailized
    000006C6 36 01            [10] 1750 	ld	(hl), #0x01
                                   1751 ;E:\Dropbox\FAUSTO\SVILUPPI\MSX\CODE\C\MSXgl\projects\soccerlgSCC/soccerlg_s6_b3.c:271: for(u8 i=0; i<6; i++){
    000006C8                       1752 00123$:
    000006C8 06 00            [ 7] 1753 	ld	b, #0x00
    000006CA                       1754 00113$:
    000006CA 78               [ 4] 1755 	ld	a, b
    000006CB D6 06            [ 7] 1756 	sub	a, #0x06
    000006CD D0               [11] 1757 	ret	NC
                                   1758 ;E:\Dropbox\FAUSTO\SVILUPPI\MSX\CODE\C\MSXgl\projects\soccerlgSCC/soccerlg_s6_b3.c:272: CallFnc_VOID_P1(7,PutPonPonGirlSprite,i);
    000006CE C5               [11] 1759 	push	bc
    000006CF C5               [11] 1760 	push	bc
    000006D0 33               [ 6] 1761 	inc	sp
    000006D1 11r00r00         [10] 1762 	ld	de, #_PutPonPonGirlSprite
    000006D4 3E 07            [ 7] 1763 	ld	a, #0x07
    000006D6 CDr00r00         [17] 1764 	call	_CallFnc_VOID_P1
    000006D9 C1               [10] 1765 	pop	bc
                                   1766 ;E:\Dropbox\FAUSTO\SVILUPPI\MSX\CODE\C\MSXgl\projects\soccerlgSCC/soccerlg_s6_b3.c:271: for(u8 i=0; i<6; i++){
    000006DA 04               [ 4] 1767 	inc	b
                                   1768 ;E:\Dropbox\FAUSTO\SVILUPPI\MSX\CODE\C\MSXgl\projects\soccerlgSCC/soccerlg_s6_b3.c:274: return;
    000006DB C3rCAr06         [10] 1769 	jp	00113$
    000006DE                       1770 00105$:
                                   1771 ;E:\Dropbox\FAUSTO\SVILUPPI\MSX\CODE\C\MSXgl\projects\soccerlgSCC/soccerlg_s6_b3.c:276: g_ponPonGirlsInitailized=false;
    000006DE 21r00r00         [10] 1772 	ld	hl, #_g_ponPonGirlsInitailized
    000006E1 36 00            [10] 1773 	ld	(hl), #0x00
                                   1774 ;E:\Dropbox\FAUSTO\SVILUPPI\MSX\CODE\C\MSXgl\projects\soccerlgSCC/soccerlg_s6_b3.c:277: if(g_PonPonGrilsPoseCounter==PON_PON_GIRLS_POSE_SPEED){
    000006E3 3Ar00r00         [13] 1775 	ld	a, (_g_PonPonGrilsPoseCounter+0)
    000006E6 D6 03            [ 7] 1776 	sub	a, #0x03
    000006E8 20 08            [12] 1777 	jr	NZ, 00107$
                                   1778 ;E:\Dropbox\FAUSTO\SVILUPPI\MSX\CODE\C\MSXgl\projects\soccerlgSCC/soccerlg_s6_b3.c:278: g_PonPonGrilsPoseCounter=0;
    000006EA 21r00r00         [10] 1779 	ld	hl, #_g_PonPonGrilsPoseCounter
    000006ED 36 00            [10] 1780 	ld	(hl), #0x00
    000006EF C3rF7r06         [10] 1781 	jp	00108$
    000006F2                       1782 00107$:
                                   1783 ;E:\Dropbox\FAUSTO\SVILUPPI\MSX\CODE\C\MSXgl\projects\soccerlgSCC/soccerlg_s6_b3.c:281: g_PonPonGrilsPoseCounter++;
    000006F2 21r00r00         [10] 1784 	ld	hl, #_g_PonPonGrilsPoseCounter
    000006F5 34               [11] 1785 	inc	(hl)
                                   1786 ;E:\Dropbox\FAUSTO\SVILUPPI\MSX\CODE\C\MSXgl\projects\soccerlgSCC/soccerlg_s6_b3.c:282: return;
    000006F6 C9               [10] 1787 	ret
    000006F7                       1788 00108$:
                                   1789 ;E:\Dropbox\FAUSTO\SVILUPPI\MSX\CODE\C\MSXgl\projects\soccerlgSCC/soccerlg_s6_b3.c:287: g_ponPonPatternIndex++;
    000006F7 FD 21r00r00      [14] 1790 	ld	iy, #_g_ponPonPatternIndex
    000006FB FD 34 00         [23] 1791 	inc	0 (iy)
                                   1792 ;E:\Dropbox\FAUSTO\SVILUPPI\MSX\CODE\C\MSXgl\projects\soccerlgSCC/soccerlg_s6_b3.c:288: if(g_ponPonPatternIndex >= 9) g_ponPonPatternIndex = 0;
    000006FE 3Ar00r00         [13] 1793 	ld	a, (_g_ponPonPatternIndex+0)
    00000701 D6 09            [ 7] 1794 	sub	a, #0x09
    00000703 38 04            [12] 1795 	jr	C, 00110$
    00000705 FD 36 00 00      [19] 1796 	ld	0 (iy), #0x00
    00000709                       1797 00110$:
                                   1798 ;E:\Dropbox\FAUSTO\SVILUPPI\MSX\CODE\C\MSXgl\projects\soccerlgSCC/soccerlg_s6_b3.c:290: u8 pat = g_GirlPatterns[g_ponPonPatternIndex];
    00000709 01r65r00         [10] 1799 	ld	bc, #_g_GirlPatterns+0
    0000070C 2Ar00r00         [16] 1800 	ld	hl, (_g_ponPonPatternIndex)
    0000070F 26 00            [ 7] 1801 	ld	h, #0x00
    00000711 09               [11] 1802 	add	hl, bc
    00000712 4E               [ 7] 1803 	ld	c, (hl)
                                   1804 ;E:\Dropbox\FAUSTO\SVILUPPI\MSX\CODE\C\MSXgl\projects\soccerlgSCC/soccerlg_s6_b3.c:292: for(u8 i=0; i<6; i++){
    00000713 06 00            [ 7] 1805 	ld	b, #0x00
    00000715                       1806 00116$:
    00000715 78               [ 4] 1807 	ld	a, b
    00000716 D6 06            [ 7] 1808 	sub	a, #0x06
    00000718 30 21            [12] 1809 	jr	NC, 00111$
                                   1810 ;E:\Dropbox\FAUSTO\SVILUPPI\MSX\CODE\C\MSXgl\projects\soccerlgSCC/soccerlg_s6_b3.c:293: g_PonPonGirls[i].PatternId = pat;
    0000071A 58               [ 4] 1811 	ld	e, b
    0000071B 16 00            [ 7] 1812 	ld	d, #0x00
    0000071D 6B               [ 4] 1813 	ld	l, e
    0000071E 62               [ 4] 1814 	ld	h, d
    0000071F 29               [11] 1815 	add	hl, hl
    00000720 29               [11] 1816 	add	hl, hl
    00000721 19               [11] 1817 	add	hl, de
    00000722 11r00r00         [10] 1818 	ld	de, #_g_PonPonGirls
    00000725 19               [11] 1819 	add	hl, de
    00000726 11 04 00         [10] 1820 	ld	de, #0x0004
    00000729 19               [11] 1821 	add	hl, de
    0000072A 71               [ 7] 1822 	ld	(hl), c
                                   1823 ;E:\Dropbox\FAUSTO\SVILUPPI\MSX\CODE\C\MSXgl\projects\soccerlgSCC/soccerlg_s6_b3.c:294: CallFnc_VOID_P1(7,PutPonPonGirlSprite,i);
    0000072B C5               [11] 1824 	push	bc
    0000072C C5               [11] 1825 	push	bc
    0000072D 33               [ 6] 1826 	inc	sp
    0000072E 11r00r00         [10] 1827 	ld	de, #_PutPonPonGirlSprite
    00000731 3E 07            [ 7] 1828 	ld	a, #0x07
    00000733 CDr00r00         [17] 1829 	call	_CallFnc_VOID_P1
    00000736 C1               [10] 1830 	pop	bc
                                   1831 ;E:\Dropbox\FAUSTO\SVILUPPI\MSX\CODE\C\MSXgl\projects\soccerlgSCC/soccerlg_s6_b3.c:292: for(u8 i=0; i<6; i++){
    00000737 04               [ 4] 1832 	inc	b
    00000738 C3r15r07         [10] 1833 	jp	00116$
    0000073B                       1834 00111$:
                                   1835 ;E:\Dropbox\FAUSTO\SVILUPPI\MSX\CODE\C\MSXgl\projects\soccerlgSCC/soccerlg_s6_b3.c:296: g_peopleState=!g_peopleState;
    0000073B 3Ar00r00         [13] 1836 	ld	a, (_g_peopleState+0)
    0000073E D6 01            [ 7] 1837 	sub	a,#0x01
    00000740 3E 00            [ 7] 1838 	ld	a, #0x00
    00000742 17               [ 4] 1839 	rla
                                   1840 ;E:\Dropbox\FAUSTO\SVILUPPI\MSX\CODE\C\MSXgl\projects\soccerlgSCC/soccerlg_s6_b3.c:297: CallFnc_VOID_P1(7,PeopleMoving,g_peopleState);
    00000743 32r00r00         [13] 1841 	ld	(_g_peopleState+0), a
    00000746 F5               [11] 1842 	push	af
    00000747 33               [ 6] 1843 	inc	sp
    00000748 11r00r00         [10] 1844 	ld	de, #_PeopleMoving
    0000074B 3E 07            [ 7] 1845 	ld	a, #0x07
    0000074D CDr00r00         [17] 1846 	call	_CallFnc_VOID_P1
                                   1847 ;E:\Dropbox\FAUSTO\SVILUPPI\MSX\CODE\C\MSXgl\projects\soccerlgSCC/soccerlg_s6_b3.c:298: }
    00000750 C9               [10] 1848 	ret
                                   1849 ;E:\Dropbox\FAUSTO\SVILUPPI\MSX\CODE\C\MSXgl\projects\soccerlgSCC/soccerlg_s6_b3.c:300: void TickTeamJoystick(u8 direction){
                                   1850 ;	---------------------------------
                                   1851 ; Function TickTeamJoystick
                                   1852 ; ---------------------------------
    00000751                       1853 _TickTeamJoystick::
    00000751 DD E5            [15] 1854 	push	ix
    00000753 DD 21 00 00      [14] 1855 	ld	ix,#0
    00000757 DD 39            [15] 1856 	add	ix,sp
    00000759 21 C5 FF         [10] 1857 	ld	hl, #-59
    0000075C 39               [11] 1858 	add	hl, sp
    0000075D F9               [ 6] 1859 	ld	sp, hl
    0000075E DD 77 FF         [19] 1860 	ld	-1 (ix), a
                                   1861 ;E:\Dropbox\FAUSTO\SVILUPPI\MSX\CODE\C\MSXgl\projects\soccerlgSCC/soccerlg_s6_b3.c:303: if (g_MatchStatus == MATCH_NOT_STARTED || 
    00000761 3Ar00r00         [13] 1862 	ld	a, (_g_MatchStatus+0)
    00000764 B7               [ 4] 1863 	or	a, a
    00000765 CArFCr15         [10] 1864 	jp	Z,00290$
                                   1865 ;E:\Dropbox\FAUSTO\SVILUPPI\MSX\CODE\C\MSXgl\projects\soccerlgSCC/soccerlg_s6_b3.c:304: g_MatchStatus == MATCH_PLAYERS_PRESENTATION || 
                                   1866 ;E:\Dropbox\FAUSTO\SVILUPPI\MSX\CODE\C\MSXgl\projects\soccerlgSCC/soccerlg_s6_b3.c:305: g_MatchStatus == MATCH_AFTER_IN_GOAL || 
    00000768 3Ar00r00         [13] 1867 	ld	a,(_g_MatchStatus+0)
    0000076B FE 0B            [ 7] 1868 	cp	a,#0x0b
    0000076D CArFCr15         [10] 1869 	jp	Z,00290$
                                   1870 ;E:\Dropbox\FAUSTO\SVILUPPI\MSX\CODE\C\MSXgl\projects\soccerlgSCC/soccerlg_s6_b3.c:306: g_MatchStatus == MATCH_BEFORE_CORNER_KICK || 
                                   1871 ;E:\Dropbox\FAUSTO\SVILUPPI\MSX\CODE\C\MSXgl\projects\soccerlgSCC/soccerlg_s6_b3.c:307: g_MatchStatus == MATCH_BEFORE_GOAL_KICK || 
    00000770 FE 06            [ 7] 1872 	cp	a,#0x06
    00000772 CArFCr15         [10] 1873 	jp	Z,00290$
    00000775 FE 02            [ 7] 1874 	cp	a,#0x02
    00000777 CArFCr15         [10] 1875 	jp	Z,00290$
                                   1876 ;E:\Dropbox\FAUSTO\SVILUPPI\MSX\CODE\C\MSXgl\projects\soccerlgSCC/soccerlg_s6_b3.c:308: g_MatchStatus == MATCH_BEFORE_THROW_IN ||
                                   1877 ;E:\Dropbox\FAUSTO\SVILUPPI\MSX\CODE\C\MSXgl\projects\soccerlgSCC/soccerlg_s6_b3.c:309: g_MatchStatus == MATCH_BEFORE_OFFSIDE) {
    0000077A FE 05            [ 7] 1878 	cp	a,#0x05
    0000077C CArFCr15         [10] 1879 	jp	Z,00290$
    0000077F FE 03            [ 7] 1880 	cp	a,#0x03
    00000781 CArFCr15         [10] 1881 	jp	Z,00290$
    00000784 D6 0E            [ 7] 1882 	sub	a, #0x0e
                                   1883 ;E:\Dropbox\FAUSTO\SVILUPPI\MSX\CODE\C\MSXgl\projects\soccerlgSCC/soccerlg_s6_b3.c:310: return;
    00000786 CArFCr15         [10] 1884 	jp	Z,00290$
                                   1885 ;E:\Dropbox\FAUSTO\SVILUPPI\MSX\CODE\C\MSXgl\projects\soccerlgSCC/soccerlg_s6_b3.c:314: if(g_Team1ActivePlayer==NO_VALUE){
    00000789 3Ar00r00         [13] 1886 	ld	a, (_g_Team1ActivePlayer+0)
    0000078C 3C               [ 4] 1887 	inc	a
    0000078D CArFCr15         [10] 1888 	jp	Z,00290$
                                   1889 ;E:\Dropbox\FAUSTO\SVILUPPI\MSX\CODE\C\MSXgl\projects\soccerlgSCC/soccerlg_s6_b3.c:315: return;
    00000790 C3r93r07         [10] 1890 	jp	00110$
    00000793                       1891 00110$:
                                   1892 ;E:\Dropbox\FAUSTO\SVILUPPI\MSX\CODE\C\MSXgl\projects\soccerlgSCC/soccerlg_s6_b3.c:318: playerId=g_Team1ActivePlayer;
    00000793 3Ar00r00         [13] 1893 	ld	a, (_g_Team1ActivePlayer+0)
    00000796 DD 77 FE         [19] 1894 	ld	-2 (ix), a
                                   1895 ;E:\Dropbox\FAUSTO\SVILUPPI\MSX\CODE\C\MSXgl\projects\soccerlgSCC/soccerlg_s6_b3.c:325: bool frameTriggerPressed = CallFnc_U8(4,IsTeamJoystickTriggerPressed);
    00000799 11r00r00         [10] 1896 	ld	de, #_IsTeamJoystickTriggerPressed
    0000079C 3E 04            [ 7] 1897 	ld	a, #0x04
    0000079E CDr00r00         [17] 1898 	call	_CallFnc_U8
    000007A1 DD 77 F5         [19] 1899 	ld	-11 (ix), a
                                   1900 ;E:\Dropbox\FAUSTO\SVILUPPI\MSX\CODE\C\MSXgl\projects\soccerlgSCC/soccerlg_s6_b3.c:328: bool canSwitch = false;
    000007A4 0E 00            [ 7] 1901 	ld	c, #0x00
                                   1902 ;E:\Dropbox\FAUSTO\SVILUPPI\MSX\CODE\C\MSXgl\projects\soccerlgSCC/soccerlg_s6_b3.c:329: if (g_Ball.PossessionPlayerId == NO_VALUE) {
    000007A6 3Ar06r00         [13] 1903 	ld	a, (#(_g_Ball + 6) + 0)
    000007A9 FE FF            [ 7] 1904 	cp	a, #0xff
    000007AB 20 05            [12] 1905 	jr	NZ, 00117$
                                   1906 ;E:\Dropbox\FAUSTO\SVILUPPI\MSX\CODE\C\MSXgl\projects\soccerlgSCC/soccerlg_s6_b3.c:330: canSwitch = true; // Always allow switch on loose ball
    000007AD 0E 01            [ 7] 1907 	ld	c, #0x01
    000007AF C3rCBr07         [10] 1908 	jp	00118$
    000007B2                       1909 00117$:
                                   1910 ;E:\Dropbox\FAUSTO\SVILUPPI\MSX\CODE\C\MSXgl\projects\soccerlgSCC/soccerlg_s6_b3.c:332: u8 ballOwner = g_Ball.PossessionPlayerId;
    000007B2 5F               [ 4] 1911 	ld	e, a
                                   1912 ;E:\Dropbox\FAUSTO\SVILUPPI\MSX\CODE\C\MSXgl\projects\soccerlgSCC/soccerlg_s6_b3.c:333: if (g_Players[ballOwner].TeamId != teamId) {
    000007B3 16 00            [ 7] 1913 	ld	d, #0x00
    000007B5 6B               [ 4] 1914 	ld	l, e
    000007B6 62               [ 4] 1915 	ld	h, d
    000007B7 29               [11] 1916 	add	hl, hl
    000007B8 29               [11] 1917 	add	hl, hl
    000007B9 19               [11] 1918 	add	hl, de
    000007BA 29               [11] 1919 	add	hl, hl
    000007BB 29               [11] 1920 	add	hl, hl
    000007BC 19               [11] 1921 	add	hl, de
    000007BD 11r00r00         [10] 1922 	ld	de, #_g_Players
    000007C0 19               [11] 1923 	add	hl, de
    000007C1 11 09 00         [10] 1924 	ld	de, #0x0009
    000007C4 19               [11] 1925 	add	hl, de
    000007C5 7E               [ 7] 1926 	ld	a, (hl)
    000007C6 3D               [ 4] 1927 	dec	a
    000007C7 28 02            [12] 1928 	jr	Z, 00118$
                                   1929 ;E:\Dropbox\FAUSTO\SVILUPPI\MSX\CODE\C\MSXgl\projects\soccerlgSCC/soccerlg_s6_b3.c:334: canSwitch = true;
    000007C9 0E 01            [ 7] 1930 	ld	c, #0x01
    000007CB                       1931 00118$:
                                   1932 ;E:\Dropbox\FAUSTO\SVILUPPI\MSX\CODE\C\MSXgl\projects\soccerlgSCC/soccerlg_s6_b3.c:338: if (canSwitch) {
    000007CB 79               [ 4] 1933 	ld	a, c
    000007CC B7               [ 4] 1934 	or	a, a
    000007CD CAr88r09         [10] 1935 	jp	Z, 00140$
                                   1936 ;E:\Dropbox\FAUSTO\SVILUPPI\MSX\CODE\C\MSXgl\projects\soccerlgSCC/soccerlg_s6_b3.c:341: bool forceSwitch = frameTriggerPressed;
    000007D0 DD 4E F5         [19] 1937 	ld	c, -11 (ix)
                                   1938 ;E:\Dropbox\FAUSTO\SVILUPPI\MSX\CODE\C\MSXgl\projects\soccerlgSCC/soccerlg_s6_b3.c:345: bool inputActive = (direction != DIRECTION_NONE);
    000007D3 DD 7E FF         [19] 1939 	ld	a, -1 (ix)
    000007D6 D6 01            [ 7] 1940 	sub	a,#0x01
    000007D8 3E 00            [ 7] 1941 	ld	a, #0x00
    000007DA 17               [ 4] 1942 	rla
                                   1943 ;E:\Dropbox\FAUSTO\SVILUPPI\MSX\CODE\C\MSXgl\projects\soccerlgSCC/soccerlg_s6_b3.c:347: if (!inputActive || forceSwitch) {
    000007DB EE 01            [ 7] 1944 	xor	a,#0x01
    000007DD 28 07            [12] 1945 	jr	Z, 00136$
    000007DF DD 7E F5         [19] 1946 	ld	a, -11 (ix)
    000007E2 B7               [ 4] 1947 	or	a, a
    000007E3 CAr88r09         [10] 1948 	jp	Z, 00140$
    000007E6                       1949 00136$:
                                   1950 ;E:\Dropbox\FAUSTO\SVILUPPI\MSX\CODE\C\MSXgl\projects\soccerlgSCC/soccerlg_s6_b3.c:349: u8 closestId = CallFnc_U8_P2(4,GetClosestPlayerToBall,teamId, NO_VALUE);
    000007E6 C5               [11] 1951 	push	bc
    000007E7 21 01 FF         [10] 1952 	ld	hl, #0xff01
    000007EA E5               [11] 1953 	push	hl
    000007EB 11r00r00         [10] 1954 	ld	de, #_GetClosestPlayerToBall
    000007EE 3E 04            [ 7] 1955 	ld	a, #0x04
    000007F0 CDr00r00         [17] 1956 	call	_CallFnc_U8_P2
    000007F3 C1               [10] 1957 	pop	bc
                                   1958 ;E:\Dropbox\FAUSTO\SVILUPPI\MSX\CODE\C\MSXgl\projects\soccerlgSCC/soccerlg_s6_b3.c:352: if (closestId != NO_VALUE && g_Players[closestId].Role == PLAYER_ROLE_GOALKEEPER) {
    000007F4 DD 77 F6         [19] 1959 	ld	-10 (ix), a
    000007F7 3C               [ 4] 1960 	inc	a
    000007F8 28 2C            [12] 1961 	jr	Z, 00120$
    000007FA DD 5E F6         [19] 1962 	ld	e, -10 (ix)
    000007FD 16 00            [ 7] 1963 	ld	d, #0x00
    000007FF 6B               [ 4] 1964 	ld	l, e
    00000800 62               [ 4] 1965 	ld	h, d
    00000801 29               [11] 1966 	add	hl, hl
    00000802 29               [11] 1967 	add	hl, hl
    00000803 19               [11] 1968 	add	hl, de
    00000804 29               [11] 1969 	add	hl, hl
    00000805 29               [11] 1970 	add	hl, hl
    00000806 19               [11] 1971 	add	hl, de
    00000807 11r00r00         [10] 1972 	ld	de, #_g_Players
    0000080A 19               [11] 1973 	add	hl, de
    0000080B 11 0D 00         [10] 1974 	ld	de, #0x000d
    0000080E 19               [11] 1975 	add	hl, de
    0000080F 7E               [ 7] 1976 	ld	a, (hl)
    00000810 B7               [ 4] 1977 	or	a, a
    00000811 20 13            [12] 1978 	jr	NZ, 00120$
                                   1979 ;E:\Dropbox\FAUSTO\SVILUPPI\MSX\CODE\C\MSXgl\projects\soccerlgSCC/soccerlg_s6_b3.c:354: closestId = CallFnc_U8_P2(4,GetClosestPlayerToBall,teamId, closestId);
    00000813 C5               [11] 1980 	push	bc
    00000814 DD 66 F6         [19] 1981 	ld	h, -10 (ix)
    00000817 2E 01            [ 7] 1982 	ld	l, #0x01
    00000819 E5               [11] 1983 	push	hl
    0000081A 11r00r00         [10] 1984 	ld	de, #_GetClosestPlayerToBall
    0000081D 3E 04            [ 7] 1985 	ld	a, #0x04
    0000081F CDr00r00         [17] 1986 	call	_CallFnc_U8_P2
    00000822 C1               [10] 1987 	pop	bc
    00000823 DD 77 F6         [19] 1988 	ld	-10 (ix), a
    00000826                       1989 00120$:
                                   1990 ;E:\Dropbox\FAUSTO\SVILUPPI\MSX\CODE\C\MSXgl\projects\soccerlgSCC/soccerlg_s6_b3.c:357: if (closestId != playerId && closestId != NO_VALUE) {
    00000826 DD 7E F6         [19] 1991 	ld	a, -10 (ix)
    00000829 DD 96 FE         [19] 1992 	sub	a, -2 (ix)
    0000082C CAr88r09         [10] 1993 	jp	Z,00140$
    0000082F DD 7E F6         [19] 1994 	ld	a, -10 (ix)
    00000832 3C               [ 4] 1995 	inc	a
    00000833 CAr88r09         [10] 1996 	jp	Z,00140$
                                   1997 ;E:\Dropbox\FAUSTO\SVILUPPI\MSX\CODE\C\MSXgl\projects\soccerlgSCC/soccerlg_s6_b3.c:359: if (forceSwitch) {
    00000836 79               [ 4] 1998 	ld	a, c
    00000837 B7               [ 4] 1999 	or	a, a
    00000838 28 13            [12] 2000 	jr	Z, 00131$
                                   2001 ;E:\Dropbox\FAUSTO\SVILUPPI\MSX\CODE\C\MSXgl\projects\soccerlgSCC/soccerlg_s6_b3.c:361: if (teamId == TEAM_1) g_Team1ActivePlayer = closestId;
    0000083A DD 7E F6         [19] 2002 	ld	a, -10 (ix)
    0000083D 32r00r00         [13] 2003 	ld	(_g_Team1ActivePlayer+0), a
                                   2004 ;E:\Dropbox\FAUSTO\SVILUPPI\MSX\CODE\C\MSXgl\projects\soccerlgSCC/soccerlg_s6_b3.c:363: playerId = closestId; 
    00000840 DD 7E F6         [19] 2005 	ld	a, -10 (ix)
    00000843 DD 77 FE         [19] 2006 	ld	-2 (ix), a
                                   2007 ;E:\Dropbox\FAUSTO\SVILUPPI\MSX\CODE\C\MSXgl\projects\soccerlgSCC/soccerlg_s6_b3.c:366: frameTriggerPressed = false;
    00000846 DD 36 F5 00      [19] 2008 	ld	-11 (ix), #0x00
    0000084A C3r88r09         [10] 2009 	jp	00140$
    0000084D                       2010 00131$:
                                   2011 ;E:\Dropbox\FAUSTO\SVILUPPI\MSX\CODE\C\MSXgl\projects\soccerlgSCC/soccerlg_s6_b3.c:371: u8 histThreshold = (g_Ball.PossessionPlayerId == NO_VALUE) ? 10 : 30;
    0000084D 3Ar06r00         [13] 2012 	ld	a, (#(_g_Ball + 6) + 0)
    00000850 3C               [ 4] 2013 	inc	a
    00000851 20 0B            [12] 2014 	jr	NZ, 00292$
    00000853 DD 36 FC 0A      [19] 2015 	ld	-4 (ix), #0x0a
    00000857 DD 36 FD 00      [19] 2016 	ld	-3 (ix), #0
    0000085B C3r66r08         [10] 2017 	jp	00293$
    0000085E                       2018 00292$:
    0000085E DD 36 FC 1E      [19] 2019 	ld	-4 (ix), #0x1e
    00000862 DD 36 FD 00      [19] 2020 	ld	-3 (ix), #0
    00000866                       2021 00293$:
    00000866 DD 7E FC         [19] 2022 	ld	a, -4 (ix)
    00000869 DD 77 F7         [19] 2023 	ld	-9 (ix), a
                                   2024 ;E:\Dropbox\FAUSTO\SVILUPPI\MSX\CODE\C\MSXgl\projects\soccerlgSCC/soccerlg_s6_b3.c:374: u16 distX_Curr = (g_Players[playerId].X > g_Ball.X) ? (g_Players[playerId].X - g_Ball.X) : (g_Ball.X - g_Players[playerId].X);
    0000086C DD 4E FE         [19] 2025 	ld	c, -2 (ix)
    0000086F 06 00            [ 7] 2026 	ld	b, #0x00
    00000871 69               [ 4] 2027 	ld	l, c
    00000872 60               [ 4] 2028 	ld	h, b
    00000873 29               [11] 2029 	add	hl, hl
    00000874 29               [11] 2030 	add	hl, hl
    00000875 09               [11] 2031 	add	hl, bc
    00000876 29               [11] 2032 	add	hl, hl
    00000877 29               [11] 2033 	add	hl, hl
    00000878 09               [11] 2034 	add	hl, bc
    00000879 11r00r00         [10] 2035 	ld	de, #_g_Players
    0000087C 19               [11] 2036 	add	hl, de
                                   2037 ;	spillPairReg hl
                                   2038 ;	spillPairReg hl
    0000087D 5D               [ 4] 2039 	ld	e, l
    0000087E 54               [ 4] 2040 	ld	d, h
                                   2041 ;	spillPairReg hl
                                   2042 ;	spillPairReg hl
    0000087F 23               [ 6] 2043 	inc	hl
    00000880 23               [ 6] 2044 	inc	hl
    00000881 7E               [ 7] 2045 	ld	a, (hl)
    00000882 DD 77 FC         [19] 2046 	ld	-4 (ix), a
    00000885 23               [ 6] 2047 	inc	hl
    00000886 7E               [ 7] 2048 	ld	a, (hl)
    00000887 DD 77 FD         [19] 2049 	ld	-3 (ix), a
    0000088A ED 4Br02r00      [20] 2050 	ld	bc, (#_g_Ball + 2)
    0000088E 79               [ 4] 2051 	ld	a, c
    0000088F DD 96 FC         [19] 2052 	sub	a, -4 (ix)
    00000892 78               [ 4] 2053 	ld	a, b
    00000893 DD 9E FD         [19] 2054 	sbc	a, -3 (ix)
    00000896 30 0C            [12] 2055 	jr	NC, 00294$
    00000898 DD 7E FC         [19] 2056 	ld	a, -4 (ix)
    0000089B 91               [ 4] 2057 	sub	a, c
    0000089C 6F               [ 4] 2058 	ld	l, a
                                   2059 ;	spillPairReg hl
                                   2060 ;	spillPairReg hl
    0000089D DD 7E FD         [19] 2061 	ld	a, -3 (ix)
    000008A0 98               [ 4] 2062 	sbc	a, b
    000008A1 C3rADr08         [10] 2063 	jp	00295$
    000008A4                       2064 00294$:
    000008A4 79               [ 4] 2065 	ld	a, c
    000008A5 DD 96 FC         [19] 2066 	sub	a, -4 (ix)
    000008A8 6F               [ 4] 2067 	ld	l, a
                                   2068 ;	spillPairReg hl
                                   2069 ;	spillPairReg hl
    000008A9 78               [ 4] 2070 	ld	a, b
    000008AA DD 9E FD         [19] 2071 	sbc	a, -3 (ix)
    000008AD                       2072 00295$:
    000008AD DD 75 FA         [19] 2073 	ld	-6 (ix), l
    000008B0 DD 77 FB         [19] 2074 	ld	-5 (ix), a
                                   2075 ;E:\Dropbox\FAUSTO\SVILUPPI\MSX\CODE\C\MSXgl\projects\soccerlgSCC/soccerlg_s6_b3.c:375: u16 distY_Curr = (g_Players[playerId].Y > g_Ball.Y) ? (g_Players[playerId].Y - g_Ball.Y) : (g_Ball.Y - g_Players[playerId].Y);
    000008B3 1A               [ 7] 2076 	ld	a, (de)
    000008B4 DD 77 FC         [19] 2077 	ld	-4 (ix), a
    000008B7 13               [ 6] 2078 	inc	de
    000008B8 1A               [ 7] 2079 	ld	a, (de)
    000008B9 DD 77 FD         [19] 2080 	ld	-3 (ix), a
    000008BC ED 5Br00r00      [20] 2081 	ld	de, (#_g_Ball + 0)
    000008C0 7B               [ 4] 2082 	ld	a, e
    000008C1 DD 96 FC         [19] 2083 	sub	a, -4 (ix)
    000008C4 7A               [ 4] 2084 	ld	a, d
    000008C5 DD 9E FD         [19] 2085 	sbc	a, -3 (ix)
    000008C8 30 0C            [12] 2086 	jr	NC, 00296$
    000008CA DD 7E FC         [19] 2087 	ld	a, -4 (ix)
    000008CD 93               [ 4] 2088 	sub	a, e
    000008CE 6F               [ 4] 2089 	ld	l, a
                                   2090 ;	spillPairReg hl
                                   2091 ;	spillPairReg hl
    000008CF DD 7E FD         [19] 2092 	ld	a, -3 (ix)
    000008D2 9A               [ 4] 2093 	sbc	a, d
    000008D3 C3rDFr08         [10] 2094 	jp	00297$
    000008D6                       2095 00296$:
    000008D6 7B               [ 4] 2096 	ld	a, e
    000008D7 DD 96 FC         [19] 2097 	sub	a, -4 (ix)
    000008DA 6F               [ 4] 2098 	ld	l, a
                                   2099 ;	spillPairReg hl
                                   2100 ;	spillPairReg hl
    000008DB 7A               [ 4] 2101 	ld	a, d
    000008DC DD 9E FD         [19] 2102 	sbc	a, -3 (ix)
    000008DF                       2103 00297$:
    000008DF 67               [ 4] 2104 	ld	h, a
                                   2105 ;	spillPairReg hl
                                   2106 ;	spillPairReg hl
                                   2107 ;E:\Dropbox\FAUSTO\SVILUPPI\MSX\CODE\C\MSXgl\projects\soccerlgSCC/soccerlg_s6_b3.c:376: u16 distCurr = distX_Curr + distY_Curr;
    000008E0 DD 7E FA         [19] 2108 	ld	a, -6 (ix)
    000008E3 85               [ 4] 2109 	add	a, l
    000008E4 6F               [ 4] 2110 	ld	l, a
                                   2111 ;	spillPairReg hl
                                   2112 ;	spillPairReg hl
    000008E5 DD 7E FB         [19] 2113 	ld	a, -5 (ix)
    000008E8 8C               [ 4] 2114 	adc	a, h
    000008E9 DD 75 F8         [19] 2115 	ld	-8 (ix), l
    000008EC DD 77 F9         [19] 2116 	ld	-7 (ix), a
                                   2117 ;E:\Dropbox\FAUSTO\SVILUPPI\MSX\CODE\C\MSXgl\projects\soccerlgSCC/soccerlg_s6_b3.c:378: u16 distX_New = (g_Players[closestId].X > g_Ball.X) ? (g_Players[closestId].X - g_Ball.X) : (g_Ball.X - g_Players[closestId].X);
    000008EF D5               [11] 2118 	push	de
    000008F0 DD 5E F6         [19] 2119 	ld	e, -10 (ix)
    000008F3 16 00            [ 7] 2120 	ld	d, #0x00
    000008F5 6B               [ 4] 2121 	ld	l, e
    000008F6 62               [ 4] 2122 	ld	h, d
    000008F7 29               [11] 2123 	add	hl, hl
    000008F8 29               [11] 2124 	add	hl, hl
    000008F9 19               [11] 2125 	add	hl, de
    000008FA 29               [11] 2126 	add	hl, hl
    000008FB 29               [11] 2127 	add	hl, hl
    000008FC 19               [11] 2128 	add	hl, de
    000008FD D1               [10] 2129 	pop	de
    000008FE 3Er00            [ 7] 2130 	ld	a, #<(_g_Players)
    00000900 85               [ 4] 2131 	add	a, l
    00000901 DD 77 FA         [19] 2132 	ld	-6 (ix), a
    00000904 3Es00            [ 7] 2133 	ld	a, #>(_g_Players)
    00000906 8C               [ 4] 2134 	adc	a, h
    00000907 DD 77 FB         [19] 2135 	ld	-5 (ix), a
    0000090A DD 6E FA         [19] 2136 	ld	l, -6 (ix)
                                   2137 ;	spillPairReg hl
                                   2138 ;	spillPairReg hl
    0000090D DD 66 FB         [19] 2139 	ld	h, -5 (ix)
                                   2140 ;	spillPairReg hl
                                   2141 ;	spillPairReg hl
    00000910 23               [ 6] 2142 	inc	hl
    00000911 23               [ 6] 2143 	inc	hl
    00000912 7E               [ 7] 2144 	ld	a, (hl)
    00000913 DD 77 FC         [19] 2145 	ld	-4 (ix), a
    00000916 23               [ 6] 2146 	inc	hl
    00000917 7E               [ 7] 2147 	ld	a, (hl)
    00000918 DD 77 FD         [19] 2148 	ld	-3 (ix), a
    0000091B 79               [ 4] 2149 	ld	a, c
    0000091C DD 96 FC         [19] 2150 	sub	a, -4 (ix)
    0000091F 78               [ 4] 2151 	ld	a, b
    00000920 DD 9E FD         [19] 2152 	sbc	a, -3 (ix)
    00000923 30 0D            [12] 2153 	jr	NC, 00298$
    00000925 DD 7E FC         [19] 2154 	ld	a, -4 (ix)
    00000928 91               [ 4] 2155 	sub	a, c
    00000929 4F               [ 4] 2156 	ld	c, a
    0000092A DD 7E FD         [19] 2157 	ld	a, -3 (ix)
    0000092D 98               [ 4] 2158 	sbc	a, b
    0000092E 47               [ 4] 2159 	ld	b, a
    0000092F C3r3Cr09         [10] 2160 	jp	00299$
    00000932                       2161 00298$:
    00000932 79               [ 4] 2162 	ld	a, c
    00000933 DD 96 FC         [19] 2163 	sub	a, -4 (ix)
    00000936 4F               [ 4] 2164 	ld	c, a
    00000937 78               [ 4] 2165 	ld	a, b
    00000938 DD 9E FD         [19] 2166 	sbc	a, -3 (ix)
    0000093B 47               [ 4] 2167 	ld	b, a
    0000093C                       2168 00299$:
    0000093C DD 71 FC         [19] 2169 	ld	-4 (ix), c
    0000093F DD 70 FD         [19] 2170 	ld	-3 (ix), b
                                   2171 ;E:\Dropbox\FAUSTO\SVILUPPI\MSX\CODE\C\MSXgl\projects\soccerlgSCC/soccerlg_s6_b3.c:379: u16 distY_New = (g_Players[closestId].Y > g_Ball.Y) ? (g_Players[closestId].Y - g_Ball.Y) : (g_Ball.Y - g_Players[closestId].Y);
    00000942 DD 6E FA         [19] 2172 	ld	l, -6 (ix)
    00000945 DD 66 FB         [19] 2173 	ld	h, -5 (ix)
    00000948 4E               [ 7] 2174 	ld	c, (hl)
    00000949 23               [ 6] 2175 	inc	hl
    0000094A 46               [ 7] 2176 	ld	b, (hl)
    0000094B 7B               [ 4] 2177 	ld	a, e
    0000094C 91               [ 4] 2178 	sub	a, c
    0000094D 7A               [ 4] 2179 	ld	a, d
    0000094E 98               [ 4] 2180 	sbc	a, b
    0000094F 30 09            [12] 2181 	jr	NC, 00300$
    00000951 79               [ 4] 2182 	ld	a, c
    00000952 93               [ 4] 2183 	sub	a, e
    00000953 4F               [ 4] 2184 	ld	c, a
    00000954 78               [ 4] 2185 	ld	a, b
    00000955 9A               [ 4] 2186 	sbc	a, d
    00000956 47               [ 4] 2187 	ld	b, a
    00000957 C3r60r09         [10] 2188 	jp	00301$
    0000095A                       2189 00300$:
    0000095A 7B               [ 4] 2190 	ld	a, e
    0000095B 91               [ 4] 2191 	sub	a, c
    0000095C 4F               [ 4] 2192 	ld	c, a
    0000095D 7A               [ 4] 2193 	ld	a, d
    0000095E 98               [ 4] 2194 	sbc	a, b
    0000095F 47               [ 4] 2195 	ld	b, a
    00000960                       2196 00301$:
                                   2197 ;E:\Dropbox\FAUSTO\SVILUPPI\MSX\CODE\C\MSXgl\projects\soccerlgSCC/soccerlg_s6_b3.c:380: u16 distNew = distX_New + distY_New;
    00000960 DD 6E FC         [19] 2198 	ld	l, -4 (ix)
    00000963 DD 66 FD         [19] 2199 	ld	h, -3 (ix)
    00000966 09               [11] 2200 	add	hl, bc
    00000967 EB               [ 4] 2201 	ex	de, hl
                                   2202 ;E:\Dropbox\FAUSTO\SVILUPPI\MSX\CODE\C\MSXgl\projects\soccerlgSCC/soccerlg_s6_b3.c:382: if (distNew < (distCurr - histThreshold)) {
    00000968 DD 4E F7         [19] 2203 	ld	c, -9 (ix)
    0000096B 06 00            [ 7] 2204 	ld	b, #0x00
    0000096D DD 6E F8         [19] 2205 	ld	l, -8 (ix)
                                   2206 ;	spillPairReg hl
                                   2207 ;	spillPairReg hl
    00000970 DD 66 F9         [19] 2208 	ld	h, -7 (ix)
                                   2209 ;	spillPairReg hl
                                   2210 ;	spillPairReg hl
    00000973 BF               [ 4] 2211 	cp	a, a
    00000974 ED 42            [15] 2212 	sbc	hl, bc
    00000976 7B               [ 4] 2213 	ld	a, e
    00000977 95               [ 4] 2214 	sub	a, l
    00000978 7A               [ 4] 2215 	ld	a, d
    00000979 9C               [ 4] 2216 	sbc	a, h
    0000097A 30 0C            [12] 2217 	jr	NC, 00140$
                                   2218 ;E:\Dropbox\FAUSTO\SVILUPPI\MSX\CODE\C\MSXgl\projects\soccerlgSCC/soccerlg_s6_b3.c:383: if (teamId == TEAM_1) g_Team1ActivePlayer = closestId;
    0000097C DD 7E F6         [19] 2219 	ld	a, -10 (ix)
    0000097F 32r00r00         [13] 2220 	ld	(_g_Team1ActivePlayer+0), a
                                   2221 ;E:\Dropbox\FAUSTO\SVILUPPI\MSX\CODE\C\MSXgl\projects\soccerlgSCC/soccerlg_s6_b3.c:385: playerId = closestId;
    00000982 DD 7E F6         [19] 2222 	ld	a, -10 (ix)
    00000985 DD 77 FE         [19] 2223 	ld	-2 (ix), a
    00000988                       2224 00140$:
                                   2225 ;E:\Dropbox\FAUSTO\SVILUPPI\MSX\CODE\C\MSXgl\projects\soccerlgSCC/soccerlg_s6_b3.c:392: if (g_Players[playerId].Status == PLAYER_STATUS_POSITIONED) return;
    00000988 01r00r00         [10] 2226 	ld	bc, #_g_Players+0
    0000098B DD 5E FE         [19] 2227 	ld	e, -2 (ix)
    0000098E 16 00            [ 7] 2228 	ld	d, #0x00
    00000990 6B               [ 4] 2229 	ld	l, e
    00000991 62               [ 4] 2230 	ld	h, d
    00000992 29               [11] 2231 	add	hl, hl
    00000993 29               [11] 2232 	add	hl, hl
    00000994 19               [11] 2233 	add	hl, de
    00000995 29               [11] 2234 	add	hl, hl
    00000996 29               [11] 2235 	add	hl, hl
    00000997 19               [11] 2236 	add	hl, de
    00000998 09               [11] 2237 	add	hl, bc
    00000999 DD 75 F1         [19] 2238 	ld	-15 (ix), l
    0000099C DD 74 F2         [19] 2239 	ld	-14 (ix), h
    0000099F DD 7E F1         [19] 2240 	ld	a, -15 (ix)
    000009A2 C6 12            [ 7] 2241 	add	a, #0x12
    000009A4 DD 77 F3         [19] 2242 	ld	-13 (ix), a
    000009A7 DD 7E F2         [19] 2243 	ld	a, -14 (ix)
    000009AA CE 00            [ 7] 2244 	adc	a, #0x00
    000009AC DD 77 F4         [19] 2245 	ld	-12 (ix), a
    000009AF DD 6E F3         [19] 2246 	ld	l, -13 (ix)
    000009B2 DD 66 F4         [19] 2247 	ld	h, -12 (ix)
    000009B5 4E               [ 7] 2248 	ld	c, (hl)
    000009B6 23               [ 6] 2249 	inc	hl
    000009B7 46               [ 7] 2250 	ld	b, (hl)
    000009B8 79               [ 4] 2251 	ld	a, c
    000009B9 D6 04            [ 7] 2252 	sub	a, #0x04
    000009BB B0               [ 4] 2253 	or	a, b
    000009BC CArFCr15         [10] 2254 	jp	Z,00290$
    000009BF C3rC2r09         [10] 2255 	jp	00142$
    000009C2                       2256 00142$:
                                   2257 ;E:\Dropbox\FAUSTO\SVILUPPI\MSX\CODE\C\MSXgl\projects\soccerlgSCC/soccerlg_s6_b3.c:399: if (g_ActionCooldown > 0) frameTriggerPressed = false;
    000009C2 3Ar00r00         [13] 2258 	ld	a, (_g_ActionCooldown+0)
    000009C5 B7               [ 4] 2259 	or	a, a
    000009C6 28 04            [12] 2260 	jr	Z, 00144$
    000009C8 DD 36 F5 00      [19] 2261 	ld	-11 (ix), #0x00
    000009CC                       2262 00144$:
                                   2263 ;E:\Dropbox\FAUSTO\SVILUPPI\MSX\CODE\C\MSXgl\projects\soccerlgSCC/soccerlg_s6_b3.c:401: if (frameTriggerPressed && g_Ball.PossessionPlayerId == NO_VALUE) {
    000009CC DD 7E F5         [19] 2264 	ld	a, -11 (ix)
    000009CF B7               [ 4] 2265 	or	a, a
    000009D0 CAr9Er0A         [10] 2266 	jp	Z, 00151$
    000009D3 3Ar06r00         [13] 2267 	ld	a, (#(_g_Ball + 6) + 0)
    000009D6 3C               [ 4] 2268 	inc	a
    000009D7 C2r9Er0A         [10] 2269 	jp	NZ,00151$
                                   2270 ;E:\Dropbox\FAUSTO\SVILUPPI\MSX\CODE\C\MSXgl\projects\soccerlgSCC/soccerlg_s6_b3.c:402: i16 dx = (i16)g_Players[playerId].X - (i16)g_Ball.X;
    000009DA DD 7E F1         [19] 2271 	ld	a, -15 (ix)
    000009DD DD 77 FC         [19] 2272 	ld	-4 (ix), a
    000009E0 DD 7E F2         [19] 2273 	ld	a, -14 (ix)
    000009E3 DD 77 FD         [19] 2274 	ld	-3 (ix), a
    000009E6 DD 6E FC         [19] 2275 	ld	l, -4 (ix)
    000009E9 DD 66 FD         [19] 2276 	ld	h, -3 (ix)
    000009EC 23               [ 6] 2277 	inc	hl
    000009ED 23               [ 6] 2278 	inc	hl
    000009EE 7E               [ 7] 2279 	ld	a, (hl)
    000009EF DD 77 FC         [19] 2280 	ld	-4 (ix), a
    000009F2 23               [ 6] 2281 	inc	hl
    000009F3 7E               [ 7] 2282 	ld	a, (hl)
    000009F4 DD 77 FD         [19] 2283 	ld	-3 (ix), a
    000009F7 2Ar02r00         [16] 2284 	ld	hl, (#_g_Ball + 2)
    000009FA DD 7E FC         [19] 2285 	ld	a, -4 (ix)
    000009FD 95               [ 4] 2286 	sub	a, l
    000009FE 4F               [ 4] 2287 	ld	c, a
    000009FF DD 7E FD         [19] 2288 	ld	a, -3 (ix)
    00000A02 9C               [ 4] 2289 	sbc	a, h
    00000A03 47               [ 4] 2290 	ld	b, a
    00000A04 DD 71 F6         [19] 2291 	ld	-10 (ix), c
    00000A07 DD 70 F7         [19] 2292 	ld	-9 (ix), b
                                   2293 ;E:\Dropbox\FAUSTO\SVILUPPI\MSX\CODE\C\MSXgl\projects\soccerlgSCC/soccerlg_s6_b3.c:403: i16 dy = (i16)g_Players[playerId].Y - (i16)g_Ball.Y;
    00000A0A DD 6E F1         [19] 2294 	ld	l, -15 (ix)
    00000A0D DD 66 F2         [19] 2295 	ld	h, -14 (ix)
    00000A10 7E               [ 7] 2296 	ld	a, (hl)
    00000A11 DD 77 FC         [19] 2297 	ld	-4 (ix), a
    00000A14 23               [ 6] 2298 	inc	hl
    00000A15 7E               [ 7] 2299 	ld	a, (hl)
    00000A16 DD 77 FD         [19] 2300 	ld	-3 (ix), a
    00000A19 DD 7E FC         [19] 2301 	ld	a, -4 (ix)
    00000A1C DD 77 F8         [19] 2302 	ld	-8 (ix), a
    00000A1F DD 7E FD         [19] 2303 	ld	a, -3 (ix)
    00000A22 DD 77 F9         [19] 2304 	ld	-7 (ix), a
    00000A25 21r00r00         [10] 2305 	ld	hl, #_g_Ball
    00000A28 7E               [ 7] 2306 	ld	a, (hl)
    00000A29 DD 77 FC         [19] 2307 	ld	-4 (ix), a
    00000A2C 23               [ 6] 2308 	inc	hl
    00000A2D 7E               [ 7] 2309 	ld	a, (hl)
    00000A2E DD 77 FD         [19] 2310 	ld	-3 (ix), a
    00000A31 DD 7E FC         [19] 2311 	ld	a, -4 (ix)
    00000A34 DD 77 FA         [19] 2312 	ld	-6 (ix), a
    00000A37 DD 7E FD         [19] 2313 	ld	a, -3 (ix)
    00000A3A DD 77 FB         [19] 2314 	ld	-5 (ix), a
    00000A3D DD 7E F8         [19] 2315 	ld	a, -8 (ix)
    00000A40 DD 96 FA         [19] 2316 	sub	a, -6 (ix)
    00000A43 DD 77 FC         [19] 2317 	ld	-4 (ix), a
    00000A46 DD 7E F9         [19] 2318 	ld	a, -7 (ix)
    00000A49 DD 9E FB         [19] 2319 	sbc	a, -5 (ix)
    00000A4C DD 77 FD         [19] 2320 	ld	-3 (ix), a
    00000A4F DD 4E FC         [19] 2321 	ld	c, -4 (ix)
    00000A52 DD 46 FD         [19] 2322 	ld	b, -3 (ix)
                                   2323 ;E:\Dropbox\FAUSTO\SVILUPPI\MSX\CODE\C\MSXgl\projects\soccerlgSCC/soccerlg_s6_b3.c:404: if (dx > -16 && dx < 16 && dy > -16 && dy < 16) {
    00000A55 3E F0            [ 7] 2324 	ld	a, #0xf0
    00000A57 DD BE F6         [19] 2325 	cp	a, -10 (ix)
    00000A5A 3E FF            [ 7] 2326 	ld	a, #0xff
    00000A5C DD 9E F7         [19] 2327 	sbc	a, -9 (ix)
    00000A5F E2r64r0A         [10] 2328 	jp	PO, 00790$
    00000A62 EE 80            [ 7] 2329 	xor	a, #0x80
    00000A64                       2330 00790$:
    00000A64 F2r9Er0A         [10] 2331 	jp	P, 00151$
    00000A67 DD 5E F6         [19] 2332 	ld	e, -10 (ix)
    00000A6A DD 56 F7         [19] 2333 	ld	d, -9 (ix)
    00000A6D 7B               [ 4] 2334 	ld	a, e
    00000A6E D6 10            [ 7] 2335 	sub	a, #0x10
    00000A70 7A               [ 4] 2336 	ld	a, d
    00000A71 17               [ 4] 2337 	rla
    00000A72 3F               [ 4] 2338 	ccf
    00000A73 1F               [ 4] 2339 	rra
    00000A74 DE 80            [ 7] 2340 	sbc	a, #0x80
    00000A76 30 26            [12] 2341 	jr	NC, 00151$
    00000A78 3E F0            [ 7] 2342 	ld	a, #0xf0
    00000A7A B9               [ 4] 2343 	cp	a, c
    00000A7B 3E FF            [ 7] 2344 	ld	a, #0xff
    00000A7D 98               [ 4] 2345 	sbc	a, b
    00000A7E E2r83r0A         [10] 2346 	jp	PO, 00791$
    00000A81 EE 80            [ 7] 2347 	xor	a, #0x80
    00000A83                       2348 00791$:
    00000A83 F2r9Er0A         [10] 2349 	jp	P, 00151$
    00000A86 79               [ 4] 2350 	ld	a, c
    00000A87 D6 10            [ 7] 2351 	sub	a, #0x10
    00000A89 78               [ 4] 2352 	ld	a, b
    00000A8A 17               [ 4] 2353 	rla
    00000A8B 3F               [ 4] 2354 	ccf
    00000A8C 1F               [ 4] 2355 	rra
    00000A8D DE 80            [ 7] 2356 	sbc	a, #0x80
    00000A8F 30 0D            [12] 2357 	jr	NC, 00151$
                                   2358 ;E:\Dropbox\FAUSTO\SVILUPPI\MSX\CODE\C\MSXgl\projects\soccerlgSCC/soccerlg_s6_b3.c:405: CallFnc_VOID_P1(4,PutBallOnPlayerFeet,playerId);
    00000A91 DD 7E FE         [19] 2359 	ld	a, -2 (ix)
    00000A94 F5               [11] 2360 	push	af
    00000A95 33               [ 6] 2361 	inc	sp
    00000A96 11r00r00         [10] 2362 	ld	de, #_PutBallOnPlayerFeet
    00000A99 3E 04            [ 7] 2363 	ld	a, #0x04
    00000A9B CDr00r00         [17] 2364 	call	_CallFnc_VOID_P1
    00000A9E                       2365 00151$:
                                   2366 ;E:\Dropbox\FAUSTO\SVILUPPI\MSX\CODE\C\MSXgl\projects\soccerlgSCC/soccerlg_s6_b3.c:408: if(g_Ball.PossessionPlayerId==playerId){
    00000A9E 21r06r00         [10] 2367 	ld	hl, #(_g_Ball + 6)
    00000AA1 DD 7E FE         [19] 2368 	ld	a,-2 (ix)
    00000AA4 96               [ 7] 2369 	sub	a,(hl)
    00000AA5 C2r00r13         [10] 2370 	jp	NZ,00288$
                                   2371 ;E:\Dropbox\FAUSTO\SVILUPPI\MSX\CODE\C\MSXgl\projects\soccerlgSCC/soccerlg_s6_b3.c:413: if (frameTriggerPressed) {
    00000AA8 DD 7E F5         [19] 2372 	ld	a, -11 (ix)
    00000AAB B7               [ 4] 2373 	or	a, a
    00000AAC CArC4r0B         [10] 2374 	jp	Z, 00198$
                                   2375 ;E:\Dropbox\FAUSTO\SVILUPPI\MSX\CODE\C\MSXgl\projects\soccerlgSCC/soccerlg_s6_b3.c:417: if (g_MatchStatus == MATCH_IN_ACTION) {
    00000AAF 3Ar00r00         [13] 2376 	ld	a, (_g_MatchStatus+0)
    00000AB2 D6 0C            [ 7] 2377 	sub	a, #0x0c
    00000AB4 C2r81r0B         [10] 2378 	jp	NZ,00192$
                                   2379 ;E:\Dropbox\FAUSTO\SVILUPPI\MSX\CODE\C\MSXgl\projects\soccerlgSCC/soccerlg_s6_b3.c:419: if (g_ActionCooldown > 0) {
    00000AB7 3Ar00r00         [13] 2380 	ld	a, (_g_ActionCooldown+0)
    00000ABA B7               [ 4] 2381 	or	a, a
    00000ABB C2r81r0B         [10] 2382 	jp	NZ, 00192$
                                   2383 ;E:\Dropbox\FAUSTO\SVILUPPI\MSX\CODE\C\MSXgl\projects\soccerlgSCC/soccerlg_s6_b3.c:422: bool isShooting = false;
    00000ABE DD 36 F8 00      [19] 2384 	ld	-8 (ix), #0x00
                                   2385 ;E:\Dropbox\FAUSTO\SVILUPPI\MSX\CODE\C\MSXgl\projects\soccerlgSCC/soccerlg_s6_b3.c:429: u16 plY = g_Players[playerId].Y;
    00000AC2 DD 6E F1         [19] 2386 	ld	l, -15 (ix)
    00000AC5 DD 66 F2         [19] 2387 	ld	h, -14 (ix)
    00000AC8 7E               [ 7] 2388 	ld	a, (hl)
    00000AC9 DD 77 F9         [19] 2389 	ld	-7 (ix), a
    00000ACC 23               [ 6] 2390 	inc	hl
    00000ACD 7E               [ 7] 2391 	ld	a, (hl)
    00000ACE DD 77 FA         [19] 2392 	ld	-6 (ix), a
                                   2393 ;E:\Dropbox\FAUSTO\SVILUPPI\MSX\CODE\C\MSXgl\projects\soccerlgSCC/soccerlg_s6_b3.c:430: u16 plX = g_Players[playerId].X;
    00000AD1 DD 7E F1         [19] 2394 	ld	a, -15 (ix)
    00000AD4 DD 77 F6         [19] 2395 	ld	-10 (ix), a
    00000AD7 DD 7E F2         [19] 2396 	ld	a, -14 (ix)
    00000ADA DD 77 F7         [19] 2397 	ld	-9 (ix), a
    00000ADD DD 6E F6         [19] 2398 	ld	l, -10 (ix)
    00000AE0 DD 66 F7         [19] 2399 	ld	h, -9 (ix)
    00000AE3 23               [ 6] 2400 	inc	hl
    00000AE4 23               [ 6] 2401 	inc	hl
    00000AE5 7E               [ 7] 2402 	ld	a, (hl)
    00000AE6 DD 77 FB         [19] 2403 	ld	-5 (ix), a
    00000AE9 23               [ 6] 2404 	inc	hl
    00000AEA 7E               [ 7] 2405 	ld	a, (hl)
    00000AEB DD 77 FC         [19] 2406 	ld	-4 (ix), a
                                   2407 ;E:\Dropbox\FAUSTO\SVILUPPI\MSX\CODE\C\MSXgl\projects\soccerlgSCC/soccerlg_s6_b3.c:434: if (plY >= FIELD_BOUND_Y_TOP && plY <= (FIELD_BOUND_Y_TOP + 120)) { 
    00000AEE DD 7E F9         [19] 2408 	ld	a, -7 (ix)
    00000AF1 DD 77 F6         [19] 2409 	ld	-10 (ix), a
    00000AF4 DD 7E FA         [19] 2410 	ld	a, -6 (ix)
    00000AF7 DD 77 F7         [19] 2411 	ld	-9 (ix), a
    00000AFA DD 7E F6         [19] 2412 	ld	a, -10 (ix)
    00000AFD D6 32            [ 7] 2413 	sub	a, #0x32
    00000AFF DD 7E F7         [19] 2414 	ld	a, -9 (ix)
    00000B02 DE 00            [ 7] 2415 	sbc	a, #0x00
    00000B04 38 66            [12] 2416 	jr	C, 00183$
    00000B06 3E AA            [ 7] 2417 	ld	a, #0xaa
    00000B08 DD BE F9         [19] 2418 	cp	a, -7 (ix)
    00000B0B 3E 00            [ 7] 2419 	ld	a, #0x00
    00000B0D DD 9E FA         [19] 2420 	sbc	a, -6 (ix)
    00000B10 38 5A            [12] 2421 	jr	C, 00183$
                                   2422 ;E:\Dropbox\FAUSTO\SVILUPPI\MSX\CODE\C\MSXgl\projects\soccerlgSCC/soccerlg_s6_b3.c:435: if (checkDir == DIRECTION_UP || checkDir == DIRECTION_UP_LEFT || checkDir == DIRECTION_UP_RIGHT) {
    00000B12 DD 7E FF         [19] 2423 	ld	a, -1 (ix)
    00000B15 3D               [ 4] 2424 	dec	a
    00000B16 28 0E            [12] 2425 	jr	Z, 00160$
    00000B18 DD 7E FF         [19] 2426 	ld	a, -1 (ix)
    00000B1B D6 08            [ 7] 2427 	sub	a, #0x08
    00000B1D 28 07            [12] 2428 	jr	Z, 00160$
    00000B1F DD 7E FF         [19] 2429 	ld	a, -1 (ix)
    00000B22 D6 02            [ 7] 2430 	sub	a, #0x02
    00000B24 20 46            [12] 2431 	jr	NZ, 00183$
    00000B26                       2432 00160$:
                                   2433 ;E:\Dropbox\FAUSTO\SVILUPPI\MSX\CODE\C\MSXgl\projects\soccerlgSCC/soccerlg_s6_b3.c:438: bool allowed = true;
    00000B26 DD 36 FD 01      [19] 2434 	ld	-3 (ix), #0x01
                                   2435 ;E:\Dropbox\FAUSTO\SVILUPPI\MSX\CODE\C\MSXgl\projects\soccerlgSCC/soccerlg_s6_b3.c:439: if (plY < (FIELD_BOUND_Y_TOP + 20)) {
    00000B2A DD 7E F9         [19] 2436 	ld	a, -7 (ix)
    00000B2D D6 46            [ 7] 2437 	sub	a, #0x46
    00000B2F DD 7E FA         [19] 2438 	ld	a, -6 (ix)
    00000B32 DE 00            [ 7] 2439 	sbc	a, #0x00
    00000B34 30 1C            [12] 2440 	jr	NC, 00157$
                                   2441 ;E:\Dropbox\FAUSTO\SVILUPPI\MSX\CODE\C\MSXgl\projects\soccerlgSCC/soccerlg_s6_b3.c:440: if (plX < (GOAL_X_MIN - 5) || plX > (GOAL_X_MAX + 5)) allowed = false;
    00000B36 DD 7E FB         [19] 2442 	ld	a, -5 (ix)
    00000B39 D6 5B            [ 7] 2443 	sub	a, #0x5b
    00000B3B DD 7E FC         [19] 2444 	ld	a, -4 (ix)
    00000B3E DE 00            [ 7] 2445 	sbc	a, #0x00
    00000B40 38 0C            [12] 2446 	jr	C, 00153$
    00000B42 3E 95            [ 7] 2447 	ld	a, #0x95
    00000B44 DD BE FB         [19] 2448 	cp	a, -5 (ix)
    00000B47 3E 00            [ 7] 2449 	ld	a, #0x00
    00000B49 DD 9E FC         [19] 2450 	sbc	a, -4 (ix)
    00000B4C 30 04            [12] 2451 	jr	NC, 00157$
    00000B4E                       2452 00153$:
    00000B4E DD 36 FD 00      [19] 2453 	ld	-3 (ix), #0x00
    00000B52                       2454 00157$:
                                   2455 ;E:\Dropbox\FAUSTO\SVILUPPI\MSX\CODE\C\MSXgl\projects\soccerlgSCC/soccerlg_s6_b3.c:443: if (allowed) {
    00000B52 DD 7E FD         [19] 2456 	ld	a, -3 (ix)
    00000B55 B7               [ 4] 2457 	or	a, a
    00000B56 28 14            [12] 2458 	jr	Z, 00183$
                                   2459 ;E:\Dropbox\FAUSTO\SVILUPPI\MSX\CODE\C\MSXgl\projects\soccerlgSCC/soccerlg_s6_b3.c:444: isShooting = true;
    00000B58 DD 36 F8 01      [19] 2460 	ld	-8 (ix), #0x01
                                   2461 ;E:\Dropbox\FAUSTO\SVILUPPI\MSX\CODE\C\MSXgl\projects\soccerlgSCC/soccerlg_s6_b3.c:445: CallFnc_VOID_16_P2(8,PerformShot,g_ShotCursorX, FIELD_BOUND_Y_TOP - 40);
    00000B5C 21 0A 00         [10] 2462 	ld	hl, #0x000a
    00000B5F E5               [11] 2463 	push	hl
    00000B60 2Ar00r00         [16] 2464 	ld	hl, (_g_ShotCursorX)
    00000B63 E5               [11] 2465 	push	hl
    00000B64 11r00r00         [10] 2466 	ld	de, #_PerformShot
    00000B67 3E 08            [ 7] 2467 	ld	a, #0x08
    00000B69 CDr00r00         [17] 2468 	call	_CallFnc_VOID_16_P2
                                   2469 ;E:\Dropbox\FAUSTO\SVILUPPI\MSX\CODE\C\MSXgl\projects\soccerlgSCC/soccerlg_s6_b3.c:462: CallFnc_VOID_16_P2(8,PerformShot,g_ShotCursorX, FIELD_BOUND_Y_BOTTOM + 40);
    00000B6C                       2470 00183$:
                                   2471 ;E:\Dropbox\FAUSTO\SVILUPPI\MSX\CODE\C\MSXgl\projects\soccerlgSCC/soccerlg_s6_b3.c:468: if (isShooting) {
    00000B6C DD 7E F8         [19] 2472 	ld	a, -8 (ix)
    00000B6F B7               [ 4] 2473 	or	a, a
    00000B70 28 0F            [12] 2474 	jr	Z, 00192$
                                   2475 ;E:\Dropbox\FAUSTO\SVILUPPI\MSX\CODE\C\MSXgl\projects\soccerlgSCC/soccerlg_s6_b3.c:469: if (g_ShootCooldown > 0) return; // Prevent shooting if cooldown active
    00000B72 3Ar00r00         [13] 2476 	ld	a, (_g_ShootCooldown+0)
    00000B75 B7               [ 4] 2477 	or	a, a
    00000B76 C2rFCr15         [10] 2478 	jp	NZ,00290$
                                   2479 ;E:\Dropbox\FAUSTO\SVILUPPI\MSX\CODE\C\MSXgl\projects\soccerlgSCC/soccerlg_s6_b3.c:470: g_ActionCooldown = 20;
    00000B79 21r00r00         [10] 2480 	ld	hl, #_g_ActionCooldown
    00000B7C 36 14            [10] 2481 	ld	(hl), #0x14
                                   2482 ;E:\Dropbox\FAUSTO\SVILUPPI\MSX\CODE\C\MSXgl\projects\soccerlgSCC/soccerlg_s6_b3.c:471: return;
    00000B7E C3rFCr15         [10] 2483 	jp	00290$
    00000B81                       2484 00192$:
                                   2485 ;E:\Dropbox\FAUSTO\SVILUPPI\MSX\CODE\C\MSXgl\projects\soccerlgSCC/soccerlg_s6_b3.c:480: if(direction != DIRECTION_NONE){
    00000B81 DD 7E FF         [19] 2486 	ld	a, -1 (ix)
    00000B84 B7               [ 4] 2487 	or	a, a
    00000B85 28 1A            [12] 2488 	jr	Z, 00194$
                                   2489 ;E:\Dropbox\FAUSTO\SVILUPPI\MSX\CODE\C\MSXgl\projects\soccerlgSCC/soccerlg_s6_b3.c:481: g_Players[playerId].Direction = direction;
    00000B87 DD 7E F1         [19] 2490 	ld	a, -15 (ix)
    00000B8A C6 0A            [ 7] 2491 	add	a, #0x0a
    00000B8C DD 77 FC         [19] 2492 	ld	-4 (ix), a
    00000B8F DD 7E F2         [19] 2493 	ld	a, -14 (ix)
    00000B92 CE 00            [ 7] 2494 	adc	a, #0x00
    00000B94 DD 77 FD         [19] 2495 	ld	-3 (ix), a
    00000B97 DD 6E FC         [19] 2496 	ld	l, -4 (ix)
    00000B9A DD 66 FD         [19] 2497 	ld	h, -3 (ix)
    00000B9D DD 7E FF         [19] 2498 	ld	a, -1 (ix)
    00000BA0 77               [ 7] 2499 	ld	(hl), a
    00000BA1                       2500 00194$:
                                   2501 ;E:\Dropbox\FAUSTO\SVILUPPI\MSX\CODE\C\MSXgl\projects\soccerlgSCC/soccerlg_s6_b3.c:485: g_PassTargetPlayer = CallFnc_U8_P1(9,GetBestPassTarget,playerId);
    00000BA1 DD 7E FE         [19] 2502 	ld	a, -2 (ix)
    00000BA4 F5               [11] 2503 	push	af
    00000BA5 33               [ 6] 2504 	inc	sp
    00000BA6 11r00r00         [10] 2505 	ld	de, #_GetBestPassTarget
    00000BA9 3E 09            [ 7] 2506 	ld	a, #0x09
    00000BAB CDr00r00         [17] 2507 	call	_CallFnc_U8_P1
                                   2508 ;E:\Dropbox\FAUSTO\SVILUPPI\MSX\CODE\C\MSXgl\projects\soccerlgSCC/soccerlg_s6_b3.c:487: if (g_PassTargetPlayer != NO_VALUE) {
    00000BAE 32r00r00         [13] 2509 	ld	(_g_PassTargetPlayer+0), a
    00000BB1 3C               [ 4] 2510 	inc	a
    00000BB2 28 10            [12] 2511 	jr	Z, 00198$
                                   2512 ;E:\Dropbox\FAUSTO\SVILUPPI\MSX\CODE\C\MSXgl\projects\soccerlgSCC/soccerlg_s6_b3.c:489: CallFnc_VOID_P1(5,PerformPass,g_PassTargetPlayer);
    00000BB4 3Ar00r00         [13] 2513 	ld	a, (_g_PassTargetPlayer+0)
    00000BB7 F5               [11] 2514 	push	af
    00000BB8 33               [ 6] 2515 	inc	sp
    00000BB9 11r00r00         [10] 2516 	ld	de, #_PerformPass
    00000BBC 3E 05            [ 7] 2517 	ld	a, #0x05
    00000BBE CDr00r00         [17] 2518 	call	_CallFnc_VOID_P1
                                   2519 ;E:\Dropbox\FAUSTO\SVILUPPI\MSX\CODE\C\MSXgl\projects\soccerlgSCC/soccerlg_s6_b3.c:492: return; 
    00000BC1 C3rFCr15         [10] 2520 	jp	00290$
    00000BC4                       2521 00198$:
                                   2522 ;E:\Dropbox\FAUSTO\SVILUPPI\MSX\CODE\C\MSXgl\projects\soccerlgSCC/soccerlg_s6_b3.c:496: if((g_FrameCounter % 2)!=0){ 
    00000BC4 FD 21r00r00      [14] 2523 	ld	iy, #_g_FrameCounter
    00000BC8 FD CB 00 46      [20] 2524 	bit	0, 0 (iy)
                                   2525 ;E:\Dropbox\FAUSTO\SVILUPPI\MSX\CODE\C\MSXgl\projects\soccerlgSCC/soccerlg_s6_b3.c:497: return;
    00000BCC C2rFCr15         [10] 2526 	jp	NZ,00290$
                                   2527 ;E:\Dropbox\FAUSTO\SVILUPPI\MSX\CODE\C\MSXgl\projects\soccerlgSCC/soccerlg_s6_b3.c:500: if(g_Ball.KickMoveState==NO_VALUE){
    00000BCF 3Ar0Dr00         [13] 2528 	ld	a, (#(_g_Ball + 13) + 0)
    00000BD2 3C               [ 4] 2529 	inc	a
    00000BD3 20 05            [12] 2530 	jr	NZ, 00202$
                                   2531 ;E:\Dropbox\FAUSTO\SVILUPPI\MSX\CODE\C\MSXgl\projects\soccerlgSCC/soccerlg_s6_b3.c:501: g_Ball.KickMoveState=0;
    00000BD5 21r0Dr00         [10] 2532 	ld	hl, #(_g_Ball + 13)
    00000BD8 36 00            [10] 2533 	ld	(hl), #0x00
    00000BDA                       2534 00202$:
                                   2535 ;E:\Dropbox\FAUSTO\SVILUPPI\MSX\CODE\C\MSXgl\projects\soccerlgSCC/soccerlg_s6_b3.c:504: u8 moveDir = direction;
    00000BDA DD 7E FF         [19] 2536 	ld	a, -1 (ix)
    00000BDD DD 77 F5         [19] 2537 	ld	-11 (ix), a
                                   2538 ;E:\Dropbox\FAUSTO\SVILUPPI\MSX\CODE\C\MSXgl\projects\soccerlgSCC/soccerlg_s6_b3.c:505: if(g_Ball.KickMoveState != 0){
    00000BE0 3Ar0Dr00         [13] 2539 	ld	a, (#(_g_Ball + 13) + 0)
    00000BE3 DD 77 FD         [19] 2540 	ld	-3 (ix), a
    00000BE6 B7               [ 4] 2541 	or	a, a
    00000BE7 28 1A            [12] 2542 	jr	Z, 00204$
                                   2543 ;E:\Dropbox\FAUSTO\SVILUPPI\MSX\CODE\C\MSXgl\projects\soccerlgSCC/soccerlg_s6_b3.c:506: moveDir = g_Players[playerId].Direction;
    00000BE9 DD 7E F1         [19] 2544 	ld	a, -15 (ix)
    00000BEC DD 77 FC         [19] 2545 	ld	-4 (ix), a
    00000BEF DD 7E F2         [19] 2546 	ld	a, -14 (ix)
    00000BF2 DD 77 FD         [19] 2547 	ld	-3 (ix), a
    00000BF5 DD 6E FC         [19] 2548 	ld	l, -4 (ix)
    00000BF8 DD 66 FD         [19] 2549 	ld	h, -3 (ix)
    00000BFB 11 0A 00         [10] 2550 	ld	de, #0x000a
    00000BFE 19               [11] 2551 	add	hl, de
    00000BFF 7E               [ 7] 2552 	ld	a, (hl)
    00000C00 DD 77 F5         [19] 2553 	ld	-11 (ix), a
    00000C03                       2554 00204$:
                                   2555 ;E:\Dropbox\FAUSTO\SVILUPPI\MSX\CODE\C\MSXgl\projects\soccerlgSCC/soccerlg_s6_b3.c:511: if(g_Players[playerId].PreviousDirection!=DIRECTION_NONE){
    00000C03 DD 7E F1         [19] 2556 	ld	a, -15 (ix)
    00000C06 C6 0B            [ 7] 2557 	add	a, #0x0b
    00000C08 DD 77 F6         [19] 2558 	ld	-10 (ix), a
    00000C0B DD 7E F2         [19] 2559 	ld	a, -14 (ix)
    00000C0E CE 00            [ 7] 2560 	adc	a, #0x00
    00000C10 DD 77 F7         [19] 2561 	ld	-9 (ix), a
                                   2562 ;E:\Dropbox\FAUSTO\SVILUPPI\MSX\CODE\C\MSXgl\projects\soccerlgSCC/soccerlg_s6_b3.c:508: if(moveDir==DIRECTION_NONE){
    00000C13 DD 7E F5         [19] 2563 	ld	a, -11 (ix)
    00000C16 B7               [ 4] 2564 	or	a, a
    00000C17 20 51            [12] 2565 	jr	NZ, 00252$
                                   2566 ;E:\Dropbox\FAUSTO\SVILUPPI\MSX\CODE\C\MSXgl\projects\soccerlgSCC/soccerlg_s6_b3.c:509: g_Players[playerId].Status=PLAYER_STATUS_POSITIONED;
    00000C19 DD 6E F3         [19] 2567 	ld	l, -13 (ix)
    00000C1C DD 66 F4         [19] 2568 	ld	h, -12 (ix)
    00000C1F 36 04            [10] 2569 	ld	(hl), #0x04
    00000C21 23               [ 6] 2570 	inc	hl
    00000C22 36 00            [10] 2571 	ld	(hl), #0x00
                                   2572 ;E:\Dropbox\FAUSTO\SVILUPPI\MSX\CODE\C\MSXgl\projects\soccerlgSCC/soccerlg_s6_b3.c:510: CallFnc_VOID_P1(4,PutBallOnPlayerFeet,playerId);
    00000C24 DD 7E FE         [19] 2573 	ld	a, -2 (ix)
    00000C27 F5               [11] 2574 	push	af
    00000C28 33               [ 6] 2575 	inc	sp
    00000C29 11r00r00         [10] 2576 	ld	de, #_PutBallOnPlayerFeet
    00000C2C 3E 04            [ 7] 2577 	ld	a, #0x04
    00000C2E CDr00r00         [17] 2578 	call	_CallFnc_VOID_P1
                                   2579 ;E:\Dropbox\FAUSTO\SVILUPPI\MSX\CODE\C\MSXgl\projects\soccerlgSCC/soccerlg_s6_b3.c:511: if(g_Players[playerId].PreviousDirection!=DIRECTION_NONE){
    00000C31 DD 6E F6         [19] 2580 	ld	l, -10 (ix)
    00000C34 DD 66 F7         [19] 2581 	ld	h, -9 (ix)
    00000C37 7E               [ 7] 2582 	ld	a, (hl)
    00000C38 DD 77 FE         [19] 2583 	ld	-2 (ix), a
    00000C3B B7               [ 4] 2584 	or	a, a
    00000C3C 28 24            [12] 2585 	jr	Z, 00206$
                                   2586 ;E:\Dropbox\FAUSTO\SVILUPPI\MSX\CODE\C\MSXgl\projects\soccerlgSCC/soccerlg_s6_b3.c:512: g_Players[playerId].PatternId=CallFnc_U8_P1(8,GetNoMovingPlayerPatternId,g_Players[playerId].PreviousDirection);
    00000C3E DD 7E F1         [19] 2587 	ld	a, -15 (ix)
    00000C41 C6 08            [ 7] 2588 	add	a, #0x08
    00000C43 DD 77 FC         [19] 2589 	ld	-4 (ix), a
    00000C46 DD 7E F2         [19] 2590 	ld	a, -14 (ix)
    00000C49 CE 00            [ 7] 2591 	adc	a, #0x00
    00000C4B DD 77 FD         [19] 2592 	ld	-3 (ix), a
    00000C4E DD 7E FE         [19] 2593 	ld	a, -2 (ix)
    00000C51 F5               [11] 2594 	push	af
    00000C52 33               [ 6] 2595 	inc	sp
    00000C53 11r00r00         [10] 2596 	ld	de, #_GetNoMovingPlayerPatternId
    00000C56 3E 08            [ 7] 2597 	ld	a, #0x08
    00000C58 CDr00r00         [17] 2598 	call	_CallFnc_U8_P1
    00000C5B DD 6E FC         [19] 2599 	ld	l, -4 (ix)
    00000C5E DD 66 FD         [19] 2600 	ld	h, -3 (ix)
    00000C61 77               [ 7] 2601 	ld	(hl), a
    00000C62                       2602 00206$:
                                   2603 ;E:\Dropbox\FAUSTO\SVILUPPI\MSX\CODE\C\MSXgl\projects\soccerlgSCC/soccerlg_s6_b3.c:514: g_Ball.KickMoveState=0;
    00000C62 21r0Dr00         [10] 2604 	ld	hl, #(_g_Ball + 13)
    00000C65 36 00            [10] 2605 	ld	(hl), #0x00
    00000C67 C3rFCr15         [10] 2606 	jp	00290$
    00000C6A                       2607 00252$:
                                   2608 ;E:\Dropbox\FAUSTO\SVILUPPI\MSX\CODE\C\MSXgl\projects\soccerlgSCC/soccerlg_s6_b3.c:520: const u8 BallBaseDistX[] = { 0, 0, 4, 6, 4, 0, 4, 6, 4 };
    00000C6A DD 36 C5 00      [19] 2609 	ld	-59 (ix), #0x00
    00000C6E DD 36 C6 00      [19] 2610 	ld	-58 (ix), #0x00
    00000C72 DD 36 C7 04      [19] 2611 	ld	-57 (ix), #0x04
    00000C76 DD 36 C8 06      [19] 2612 	ld	-56 (ix), #0x06
    00000C7A DD 36 C9 04      [19] 2613 	ld	-55 (ix), #0x04
    00000C7E DD 36 CA 00      [19] 2614 	ld	-54 (ix), #0x00
    00000C82 DD 36 CB 04      [19] 2615 	ld	-53 (ix), #0x04
    00000C86 DD 36 CC 06      [19] 2616 	ld	-52 (ix), #0x06
    00000C8A DD 36 CD 04      [19] 2617 	ld	-51 (ix), #0x04
                                   2618 ;E:\Dropbox\FAUSTO\SVILUPPI\MSX\CODE\C\MSXgl\projects\soccerlgSCC/soccerlg_s6_b3.c:521: const u8 BallBaseDistY[] = { 0, 6, 4, 0, 4, 6, 4, 0, 4 };
    00000C8E DD 36 CE 00      [19] 2619 	ld	-50 (ix), #0x00
    00000C92 DD 36 CF 06      [19] 2620 	ld	-49 (ix), #0x06
    00000C96 DD 36 D0 04      [19] 2621 	ld	-48 (ix), #0x04
    00000C9A DD 36 D1 00      [19] 2622 	ld	-47 (ix), #0x00
    00000C9E DD 36 D2 04      [19] 2623 	ld	-46 (ix), #0x04
    00000CA2 DD 36 D3 06      [19] 2624 	ld	-45 (ix), #0x06
    00000CA6 DD 36 D4 04      [19] 2625 	ld	-44 (ix), #0x04
    00000CAA DD 36 D5 00      [19] 2626 	ld	-43 (ix), #0x00
    00000CAE DD 36 D6 04      [19] 2627 	ld	-42 (ix), #0x04
                                   2628 ;E:\Dropbox\FAUSTO\SVILUPPI\MSX\CODE\C\MSXgl\projects\soccerlgSCC/soccerlg_s6_b3.c:540: const i8 BallAlignCorrectX[] = { 0, 0, 0, 0, 2, 0, -2, 0, 0 };
    00000CB2 DD 36 D7 00      [19] 2629 	ld	-41 (ix), #0x00
    00000CB6 DD 36 D8 00      [19] 2630 	ld	-40 (ix), #0x00
    00000CBA DD 36 D9 00      [19] 2631 	ld	-39 (ix), #0x00
    00000CBE DD 36 DA 00      [19] 2632 	ld	-38 (ix), #0x00
    00000CC2 DD 36 DB 02      [19] 2633 	ld	-37 (ix), #0x02
    00000CC6 DD 36 DC 00      [19] 2634 	ld	-36 (ix), #0x00
    00000CCA DD 36 DD FE      [19] 2635 	ld	-35 (ix), #0xfe
    00000CCE DD 36 DE 00      [19] 2636 	ld	-34 (ix), #0x00
    00000CD2 DD 36 DF 00      [19] 2637 	ld	-33 (ix), #0x00
                                   2638 ;E:\Dropbox\FAUSTO\SVILUPPI\MSX\CODE\C\MSXgl\projects\soccerlgSCC/soccerlg_s6_b3.c:541: const i8 BallAlignCorrectY[] = { 0, 0, 0, 8, 2, -2, 2, 8, 0 };
    00000CD6 DD 36 E0 00      [19] 2639 	ld	-32 (ix), #0x00
    00000CDA DD 36 E1 00      [19] 2640 	ld	-31 (ix), #0x00
    00000CDE DD 36 E2 00      [19] 2641 	ld	-30 (ix), #0x00
    00000CE2 DD 36 E3 08      [19] 2642 	ld	-29 (ix), #0x08
    00000CE6 DD 36 E4 02      [19] 2643 	ld	-28 (ix), #0x02
    00000CEA DD 36 E5 FE      [19] 2644 	ld	-27 (ix), #0xfe
    00000CEE DD 36 E6 02      [19] 2645 	ld	-26 (ix), #0x02
    00000CF2 DD 36 E7 08      [19] 2646 	ld	-25 (ix), #0x08
    00000CF6 DD 36 E8 00      [19] 2647 	ld	-24 (ix), #0x00
                                   2648 ;E:\Dropbox\FAUSTO\SVILUPPI\MSX\CODE\C\MSXgl\projects\soccerlgSCC/soccerlg_s6_b3.c:543: const u8 DribbleAnimOffsets[] = {5, 4, 2, 0};
    00000CFA DD 36 E9 05      [19] 2649 	ld	-23 (ix), #0x05
    00000CFE DD 36 EA 04      [19] 2650 	ld	-22 (ix), #0x04
    00000D02 DD 36 EB 02      [19] 2651 	ld	-21 (ix), #0x02
    00000D06 DD 36 EC 00      [19] 2652 	ld	-20 (ix), #0x00
                                   2653 ;E:\Dropbox\FAUSTO\SVILUPPI\MSX\CODE\C\MSXgl\projects\soccerlgSCC/soccerlg_s6_b3.c:544: const u8 DribbleAnimOffsetsDiag[] = {3, 3, 1, 0};
    00000D0A DD 36 ED 03      [19] 2654 	ld	-19 (ix), #0x03
    00000D0E DD 36 EE 03      [19] 2655 	ld	-18 (ix), #0x03
    00000D12 DD 36 EF 01      [19] 2656 	ld	-17 (ix), #0x01
    00000D16 DD 36 F0 00      [19] 2657 	ld	-16 (ix), #0x00
                                   2658 ;E:\Dropbox\FAUSTO\SVILUPPI\MSX\CODE\C\MSXgl\projects\soccerlgSCC/soccerlg_s6_b3.c:546: u8 animStep = g_Ball.KickMoveState;
    00000D1A 3Ar0Dr00         [13] 2659 	ld	a, (#(_g_Ball + 13) + 0)
    00000D1D DD 77 FD         [19] 2660 	ld	-3 (ix), a
                                   2661 ;E:\Dropbox\FAUSTO\SVILUPPI\MSX\CODE\C\MSXgl\projects\soccerlgSCC/soccerlg_s6_b3.c:547: u8 diagStep = (animStep % 2) ? 1 : 2;
    00000D20 DD CB FD 46      [20] 2662 	bit	0, -3 (ix)
    00000D24 28 06            [12] 2663 	jr	Z, 00302$
    00000D26 01 01 00         [10] 2664 	ld	bc, #0x0001
    00000D29 C3r2Fr0D         [10] 2665 	jp	00303$
    00000D2C                       2666 00302$:
    00000D2C 01 02 00         [10] 2667 	ld	bc, #0x0002
    00000D2F                       2668 00303$:
    00000D2F DD 71 FE         [19] 2669 	ld	-2 (ix), c
                                   2670 ;E:\Dropbox\FAUSTO\SVILUPPI\MSX\CODE\C\MSXgl\projects\soccerlgSCC/soccerlg_s6_b3.c:549: u8 currentOffset = DribbleAnimOffsets[animStep];
    00000D32 DD 5E FD         [19] 2671 	ld	e, -3 (ix)
    00000D35 16 00            [ 7] 2672 	ld	d, #0x00
    00000D37 21 24 00         [10] 2673 	ld	hl, #36
    00000D3A 39               [11] 2674 	add	hl, sp
    00000D3B 19               [11] 2675 	add	hl, de
    00000D3C 5E               [ 7] 2676 	ld	e, (hl)
                                   2677 ;E:\Dropbox\FAUSTO\SVILUPPI\MSX\CODE\C\MSXgl\projects\soccerlgSCC/soccerlg_s6_b3.c:550: u8 currentOffsetDiag = DribbleAnimOffsetsDiag[animStep];
    00000D3D D5               [11] 2678 	push	de
    00000D3E DD 5E FD         [19] 2679 	ld	e, -3 (ix)
    00000D41 16 00            [ 7] 2680 	ld	d, #0x00
    00000D43 21 2A 00         [10] 2681 	ld	hl, #42
    00000D46 39               [11] 2682 	add	hl, sp
    00000D47 19               [11] 2683 	add	hl, de
    00000D48 D1               [10] 2684 	pop	de
    00000D49 7E               [ 7] 2685 	ld	a, (hl)
    00000D4A DD 77 FD         [19] 2686 	ld	-3 (ix), a
                                   2687 ;E:\Dropbox\FAUSTO\SVILUPPI\MSX\CODE\C\MSXgl\projects\soccerlgSCC/soccerlg_s6_b3.c:552: u8 distX = BallBaseDistX[moveDir] + ((moveDir==DIRECTION_UP || moveDir==DIRECTION_DOWN) ? 0 : (moveDir == DIRECTION_LEFT || moveDir == DIRECTION_RIGHT ? currentOffset : currentOffsetDiag));
    00000D4D D5               [11] 2688 	push	de
    00000D4E DD 5E F5         [19] 2689 	ld	e, -11 (ix)
    00000D51 16 00            [ 7] 2690 	ld	d, #0x00
    00000D53 21 02 00         [10] 2691 	ld	hl, #2
    00000D56 39               [11] 2692 	add	hl, sp
    00000D57 19               [11] 2693 	add	hl, de
    00000D58 D1               [10] 2694 	pop	de
    00000D59 46               [ 7] 2695 	ld	b, (hl)
    00000D5A DD 7E F5         [19] 2696 	ld	a, -11 (ix)
    00000D5D 3D               [ 4] 2697 	dec	a
    00000D5E 3E 01            [ 7] 2698 	ld	a, #0x01
    00000D60 28 01            [12] 2699 	jr	Z, 00806$
    00000D62 AF               [ 4] 2700 	xor	a, a
    00000D63                       2701 00806$:
    00000D63 4F               [ 4] 2702 	ld	c, a
    00000D64 DD 7E F5         [19] 2703 	ld	a, -11 (ix)
    00000D67 D6 07            [ 7] 2704 	sub	a, #0x07
    00000D69 3E 01            [ 7] 2705 	ld	a, #0x01
    00000D6B 28 01            [12] 2706 	jr	Z, 00808$
    00000D6D AF               [ 4] 2707 	xor	a, a
    00000D6E                       2708 00808$:
    00000D6E DD 77 F8         [19] 2709 	ld	-8 (ix), a
    00000D71 CB 41            [ 8] 2710 	bit	0, c
    00000D73 20 07            [12] 2711 	jr	NZ, 00307$
    00000D75 DD 7E F5         [19] 2712 	ld	a, -11 (ix)
    00000D78 D6 05            [ 7] 2713 	sub	a, #0x05
    00000D7A 20 05            [12] 2714 	jr	NZ, 00304$
    00000D7C                       2715 00307$:
    00000D7C AF               [ 4] 2716 	xor	a, a
    00000D7D 57               [ 4] 2717 	ld	d, a
    00000D7E C3r97r0D         [10] 2718 	jp	00305$
    00000D81                       2719 00304$:
    00000D81 DD CB F8 46      [20] 2720 	bit	0, -8 (ix)
    00000D85 20 07            [12] 2721 	jr	NZ, 00312$
    00000D87 DD 7E F5         [19] 2722 	ld	a, -11 (ix)
    00000D8A D6 03            [ 7] 2723 	sub	a, #0x03
    00000D8C 20 04            [12] 2724 	jr	NZ, 00309$
    00000D8E                       2725 00312$:
    00000D8E 7B               [ 4] 2726 	ld	a, e
    00000D8F C3r95r0D         [10] 2727 	jp	00310$
    00000D92                       2728 00309$:
    00000D92 DD 7E FD         [19] 2729 	ld	a, -3 (ix)
    00000D95                       2730 00310$:
    00000D95 16 00            [ 7] 2731 	ld	d, #0x00
    00000D97                       2732 00305$:
    00000D97 68               [ 4] 2733 	ld	l, b
                                   2734 ;	spillPairReg hl
                                   2735 ;	spillPairReg hl
    00000D98 85               [ 4] 2736 	add	a, l
    00000D99 DD 77 F9         [19] 2737 	ld	-7 (ix), a
                                   2738 ;E:\Dropbox\FAUSTO\SVILUPPI\MSX\CODE\C\MSXgl\projects\soccerlgSCC/soccerlg_s6_b3.c:553: u8 distY = BallBaseDistY[moveDir] + ((moveDir==DIRECTION_LEFT || moveDir==DIRECTION_RIGHT) ? 0 : (moveDir == DIRECTION_UP || moveDir == DIRECTION_DOWN ? currentOffset : currentOffsetDiag));
    00000D9C D5               [11] 2739 	push	de
    00000D9D DD 5E F5         [19] 2740 	ld	e, -11 (ix)
    00000DA0 16 00            [ 7] 2741 	ld	d, #0x00
    00000DA2 21 0B 00         [10] 2742 	ld	hl, #11
    00000DA5 39               [11] 2743 	add	hl, sp
    00000DA6 19               [11] 2744 	add	hl, de
    00000DA7 D1               [10] 2745 	pop	de
    00000DA8 46               [ 7] 2746 	ld	b, (hl)
    00000DA9 DD CB F8 46      [20] 2747 	bit	0, -8 (ix)
    00000DAD 20 07            [12] 2748 	jr	NZ, 00317$
    00000DAF DD 7E F5         [19] 2749 	ld	a, -11 (ix)
    00000DB2 D6 03            [ 7] 2750 	sub	a, #0x03
    00000DB4 20 06            [12] 2751 	jr	NZ, 00314$
    00000DB6                       2752 00317$:
    00000DB6 11 00 00         [10] 2753 	ld	de, #0x0000
    00000DB9 C3rCAr0D         [10] 2754 	jp	00315$
    00000DBC                       2755 00314$:
    00000DBC CB 41            [ 8] 2756 	bit	0, c
    00000DBE 20 0A            [12] 2757 	jr	NZ, 00320$
    00000DC0 DD 7E F5         [19] 2758 	ld	a, -11 (ix)
    00000DC3 D6 05            [ 7] 2759 	sub	a, #0x05
    00000DC5 28 03            [12] 2760 	jr	Z, 00320$
    00000DC7 DD 5E FD         [19] 2761 	ld	e, -3 (ix)
    00000DCA                       2762 00320$:
    00000DCA                       2763 00315$:
    00000DCA 78               [ 4] 2764 	ld	a, b
    00000DCB 83               [ 4] 2765 	add	a, e
    00000DCC DD 77 FA         [19] 2766 	ld	-6 (ix), a
                                   2767 ;E:\Dropbox\FAUSTO\SVILUPPI\MSX\CODE\C\MSXgl\projects\soccerlgSCC/soccerlg_s6_b3.c:402: i16 dx = (i16)g_Players[playerId].X - (i16)g_Ball.X;
    00000DCF DD 7E F1         [19] 2768 	ld	a, -15 (ix)
    00000DD2 C6 02            [ 7] 2769 	add	a, #0x02
    00000DD4 DD 77 FB         [19] 2770 	ld	-5 (ix), a
    00000DD7 DD 7E F2         [19] 2771 	ld	a, -14 (ix)
    00000DDA CE 00            [ 7] 2772 	adc	a, #0x00
    00000DDC DD 77 FC         [19] 2773 	ld	-4 (ix), a
                                   2774 ;E:\Dropbox\FAUSTO\SVILUPPI\MSX\CODE\C\MSXgl\projects\soccerlgSCC/soccerlg_s6_b3.c:556: switch(moveDir){
    00000DDF 3E 08            [ 7] 2775 	ld	a, #0x08
    00000DE1 DD 96 F5         [19] 2776 	sub	a, -11 (ix)
    00000DE4 DAr5Fr0F         [10] 2777 	jp	C, 00215$
    00000DE7 DD 5E F5         [19] 2778 	ld	e, -11 (ix)
    00000DEA 16 00            [ 7] 2779 	ld	d, #0x00
    00000DEC 21rF3r0D         [10] 2780 	ld	hl, #00817$
    00000DEF 19               [11] 2781 	add	hl, de
    00000DF0 19               [11] 2782 	add	hl, de
    00000DF1 19               [11] 2783 	add	hl, de
    00000DF2 E9               [ 4] 2784 	jp	(hl)
    00000DF3                       2785 00817$:
    00000DF3 C3r5Fr0F         [10] 2786 	jp	00215$
    00000DF6 C3r0Er0E         [10] 2787 	jp	00207$
    00000DF9 C3r6Ar0E         [10] 2788 	jp	00211$
    00000DFC C3r53r0E         [10] 2789 	jp	00210$
    00000DFF C3rEAr0E         [10] 2790 	jp	00213$
    00000E02 C3r25r0E         [10] 2791 	jp	00208$
    00000E05 C3r23r0F         [10] 2792 	jp	00214$
    00000E08 C3r3Cr0E         [10] 2793 	jp	00209$
    00000E0B C3rA9r0E         [10] 2794 	jp	00212$
                                   2795 ;E:\Dropbox\FAUSTO\SVILUPPI\MSX\CODE\C\MSXgl\projects\soccerlgSCC/soccerlg_s6_b3.c:557: case DIRECTION_UP:
    00000E0E                       2796 00207$:
                                   2797 ;E:\Dropbox\FAUSTO\SVILUPPI\MSX\CODE\C\MSXgl\projects\soccerlgSCC/soccerlg_s6_b3.c:558: g_Players[playerId].Y -= 2;
    00000E0E DD 6E F1         [19] 2798 	ld	l, -15 (ix)
    00000E11 DD 66 F2         [19] 2799 	ld	h, -14 (ix)
    00000E14 5E               [ 7] 2800 	ld	e, (hl)
    00000E15 23               [ 6] 2801 	inc	hl
    00000E16 56               [ 7] 2802 	ld	d, (hl)
    00000E17 1B               [ 6] 2803 	dec	de
    00000E18 1B               [ 6] 2804 	dec	de
    00000E19 DD 6E F1         [19] 2805 	ld	l, -15 (ix)
    00000E1C DD 66 F2         [19] 2806 	ld	h, -14 (ix)
    00000E1F 73               [ 7] 2807 	ld	(hl), e
    00000E20 23               [ 6] 2808 	inc	hl
    00000E21 72               [ 7] 2809 	ld	(hl), d
                                   2810 ;E:\Dropbox\FAUSTO\SVILUPPI\MSX\CODE\C\MSXgl\projects\soccerlgSCC/soccerlg_s6_b3.c:559: break;
    00000E22 C3r5Fr0F         [10] 2811 	jp	00215$
                                   2812 ;E:\Dropbox\FAUSTO\SVILUPPI\MSX\CODE\C\MSXgl\projects\soccerlgSCC/soccerlg_s6_b3.c:560: case DIRECTION_DOWN:
    00000E25                       2813 00208$:
                                   2814 ;E:\Dropbox\FAUSTO\SVILUPPI\MSX\CODE\C\MSXgl\projects\soccerlgSCC/soccerlg_s6_b3.c:561: g_Players[playerId].Y += 2;
    00000E25 DD 6E F1         [19] 2815 	ld	l, -15 (ix)
    00000E28 DD 66 F2         [19] 2816 	ld	h, -14 (ix)
    00000E2B 5E               [ 7] 2817 	ld	e, (hl)
    00000E2C 23               [ 6] 2818 	inc	hl
    00000E2D 56               [ 7] 2819 	ld	d, (hl)
    00000E2E 13               [ 6] 2820 	inc	de
    00000E2F 13               [ 6] 2821 	inc	de
    00000E30 DD 6E F1         [19] 2822 	ld	l, -15 (ix)
    00000E33 DD 66 F2         [19] 2823 	ld	h, -14 (ix)
    00000E36 73               [ 7] 2824 	ld	(hl), e
    00000E37 23               [ 6] 2825 	inc	hl
    00000E38 72               [ 7] 2826 	ld	(hl), d
                                   2827 ;E:\Dropbox\FAUSTO\SVILUPPI\MSX\CODE\C\MSXgl\projects\soccerlgSCC/soccerlg_s6_b3.c:562: break;
    00000E39 C3r5Fr0F         [10] 2828 	jp	00215$
                                   2829 ;E:\Dropbox\FAUSTO\SVILUPPI\MSX\CODE\C\MSXgl\projects\soccerlgSCC/soccerlg_s6_b3.c:563: case DIRECTION_LEFT:
    00000E3C                       2830 00209$:
                                   2831 ;E:\Dropbox\FAUSTO\SVILUPPI\MSX\CODE\C\MSXgl\projects\soccerlgSCC/soccerlg_s6_b3.c:564: g_Players[playerId].X -= 2;
    00000E3C DD 6E FB         [19] 2832 	ld	l, -5 (ix)
    00000E3F DD 66 FC         [19] 2833 	ld	h, -4 (ix)
    00000E42 5E               [ 7] 2834 	ld	e, (hl)
    00000E43 23               [ 6] 2835 	inc	hl
    00000E44 56               [ 7] 2836 	ld	d, (hl)
    00000E45 1B               [ 6] 2837 	dec	de
    00000E46 1B               [ 6] 2838 	dec	de
    00000E47 DD 6E FB         [19] 2839 	ld	l, -5 (ix)
    00000E4A DD 66 FC         [19] 2840 	ld	h, -4 (ix)
    00000E4D 73               [ 7] 2841 	ld	(hl), e
    00000E4E 23               [ 6] 2842 	inc	hl
    00000E4F 72               [ 7] 2843 	ld	(hl), d
                                   2844 ;E:\Dropbox\FAUSTO\SVILUPPI\MSX\CODE\C\MSXgl\projects\soccerlgSCC/soccerlg_s6_b3.c:565: break;
    00000E50 C3r5Fr0F         [10] 2845 	jp	00215$
                                   2846 ;E:\Dropbox\FAUSTO\SVILUPPI\MSX\CODE\C\MSXgl\projects\soccerlgSCC/soccerlg_s6_b3.c:566: case DIRECTION_RIGHT:
    00000E53                       2847 00210$:
                                   2848 ;E:\Dropbox\FAUSTO\SVILUPPI\MSX\CODE\C\MSXgl\projects\soccerlgSCC/soccerlg_s6_b3.c:567: g_Players[playerId].X += 2;
    00000E53 DD 6E FB         [19] 2849 	ld	l, -5 (ix)
    00000E56 DD 66 FC         [19] 2850 	ld	h, -4 (ix)
    00000E59 5E               [ 7] 2851 	ld	e, (hl)
    00000E5A 23               [ 6] 2852 	inc	hl
    00000E5B 56               [ 7] 2853 	ld	d, (hl)
    00000E5C 13               [ 6] 2854 	inc	de
    00000E5D 13               [ 6] 2855 	inc	de
    00000E5E DD 6E FB         [19] 2856 	ld	l, -5 (ix)
    00000E61 DD 66 FC         [19] 2857 	ld	h, -4 (ix)
    00000E64 73               [ 7] 2858 	ld	(hl), e
    00000E65 23               [ 6] 2859 	inc	hl
    00000E66 72               [ 7] 2860 	ld	(hl), d
                                   2861 ;E:\Dropbox\FAUSTO\SVILUPPI\MSX\CODE\C\MSXgl\projects\soccerlgSCC/soccerlg_s6_b3.c:568: break;
    00000E67 C3r5Fr0F         [10] 2862 	jp	00215$
                                   2863 ;E:\Dropbox\FAUSTO\SVILUPPI\MSX\CODE\C\MSXgl\projects\soccerlgSCC/soccerlg_s6_b3.c:569: case DIRECTION_UP_RIGHT:
    00000E6A                       2864 00211$:
                                   2865 ;E:\Dropbox\FAUSTO\SVILUPPI\MSX\CODE\C\MSXgl\projects\soccerlgSCC/soccerlg_s6_b3.c:570: g_Players[playerId].Y -= diagStep;
    00000E6A DD 6E F1         [19] 2866 	ld	l, -15 (ix)
    00000E6D DD 66 F2         [19] 2867 	ld	h, -14 (ix)
    00000E70 7E               [ 7] 2868 	ld	a, (hl)
    00000E71 23               [ 6] 2869 	inc	hl
    00000E72 66               [ 7] 2870 	ld	h, (hl)
                                   2871 ;	spillPairReg hl
    00000E73 6F               [ 4] 2872 	ld	l, a
                                   2873 ;	spillPairReg hl
                                   2874 ;	spillPairReg hl
    00000E74 DD 5E FE         [19] 2875 	ld	e, -2 (ix)
    00000E77 16 00            [ 7] 2876 	ld	d, #0x00
    00000E79 BF               [ 4] 2877 	cp	a, a
    00000E7A ED 52            [15] 2878 	sbc	hl, de
    00000E7C DD 75 FD         [19] 2879 	ld	-3 (ix), l
    00000E7F DD 74 FE         [19] 2880 	ld	-2 (ix), h
    00000E82 DD 6E F1         [19] 2881 	ld	l, -15 (ix)
    00000E85 DD 66 F2         [19] 2882 	ld	h, -14 (ix)
    00000E88 DD 7E FD         [19] 2883 	ld	a, -3 (ix)
    00000E8B 77               [ 7] 2884 	ld	(hl), a
    00000E8C 23               [ 6] 2885 	inc	hl
    00000E8D DD 7E FE         [19] 2886 	ld	a, -2 (ix)
    00000E90 77               [ 7] 2887 	ld	(hl), a
                                   2888 ;E:\Dropbox\FAUSTO\SVILUPPI\MSX\CODE\C\MSXgl\projects\soccerlgSCC/soccerlg_s6_b3.c:571: g_Players[playerId].X += diagStep;
    00000E91 DD 6E FB         [19] 2889 	ld	l, -5 (ix)
    00000E94 DD 66 FC         [19] 2890 	ld	h, -4 (ix)
    00000E97 7E               [ 7] 2891 	ld	a, (hl)
    00000E98 23               [ 6] 2892 	inc	hl
    00000E99 66               [ 7] 2893 	ld	h, (hl)
                                   2894 ;	spillPairReg hl
    00000E9A 6F               [ 4] 2895 	ld	l, a
                                   2896 ;	spillPairReg hl
                                   2897 ;	spillPairReg hl
    00000E9B 19               [11] 2898 	add	hl, de
    00000E9C EB               [ 4] 2899 	ex	de, hl
    00000E9D DD 6E FB         [19] 2900 	ld	l, -5 (ix)
    00000EA0 DD 66 FC         [19] 2901 	ld	h, -4 (ix)
    00000EA3 73               [ 7] 2902 	ld	(hl), e
    00000EA4 23               [ 6] 2903 	inc	hl
    00000EA5 72               [ 7] 2904 	ld	(hl), d
                                   2905 ;E:\Dropbox\FAUSTO\SVILUPPI\MSX\CODE\C\MSXgl\projects\soccerlgSCC/soccerlg_s6_b3.c:572: break;
    00000EA6 C3r5Fr0F         [10] 2906 	jp	00215$
                                   2907 ;E:\Dropbox\FAUSTO\SVILUPPI\MSX\CODE\C\MSXgl\projects\soccerlgSCC/soccerlg_s6_b3.c:573: case DIRECTION_UP_LEFT:
    00000EA9                       2908 00212$:
                                   2909 ;E:\Dropbox\FAUSTO\SVILUPPI\MSX\CODE\C\MSXgl\projects\soccerlgSCC/soccerlg_s6_b3.c:574: g_Players[playerId].Y -= diagStep;
    00000EA9 DD 6E F1         [19] 2910 	ld	l, -15 (ix)
    00000EAC DD 66 F2         [19] 2911 	ld	h, -14 (ix)
    00000EAF 7E               [ 7] 2912 	ld	a, (hl)
    00000EB0 23               [ 6] 2913 	inc	hl
    00000EB1 66               [ 7] 2914 	ld	h, (hl)
                                   2915 ;	spillPairReg hl
    00000EB2 6F               [ 4] 2916 	ld	l, a
                                   2917 ;	spillPairReg hl
                                   2918 ;	spillPairReg hl
    00000EB3 DD 5E FE         [19] 2919 	ld	e, -2 (ix)
    00000EB6 16 00            [ 7] 2920 	ld	d, #0x00
    00000EB8 BF               [ 4] 2921 	cp	a, a
    00000EB9 ED 52            [15] 2922 	sbc	hl, de
    00000EBB DD 75 FD         [19] 2923 	ld	-3 (ix), l
    00000EBE DD 74 FE         [19] 2924 	ld	-2 (ix), h
    00000EC1 DD 6E F1         [19] 2925 	ld	l, -15 (ix)
    00000EC4 DD 66 F2         [19] 2926 	ld	h, -14 (ix)
    00000EC7 DD 7E FD         [19] 2927 	ld	a, -3 (ix)
    00000ECA 77               [ 7] 2928 	ld	(hl), a
    00000ECB 23               [ 6] 2929 	inc	hl
    00000ECC DD 7E FE         [19] 2930 	ld	a, -2 (ix)
    00000ECF 77               [ 7] 2931 	ld	(hl), a
                                   2932 ;E:\Dropbox\FAUSTO\SVILUPPI\MSX\CODE\C\MSXgl\projects\soccerlgSCC/soccerlg_s6_b3.c:575: g_Players[playerId].X -= diagStep;
    00000ED0 DD 6E FB         [19] 2933 	ld	l, -5 (ix)
    00000ED3 DD 66 FC         [19] 2934 	ld	h, -4 (ix)
    00000ED6 7E               [ 7] 2935 	ld	a, (hl)
    00000ED7 23               [ 6] 2936 	inc	hl
    00000ED8 66               [ 7] 2937 	ld	h, (hl)
                                   2938 ;	spillPairReg hl
    00000ED9 6F               [ 4] 2939 	ld	l, a
                                   2940 ;	spillPairReg hl
                                   2941 ;	spillPairReg hl
    00000EDA BF               [ 4] 2942 	cp	a, a
    00000EDB ED 52            [15] 2943 	sbc	hl, de
    00000EDD EB               [ 4] 2944 	ex	de, hl
    00000EDE DD 6E FB         [19] 2945 	ld	l, -5 (ix)
    00000EE1 DD 66 FC         [19] 2946 	ld	h, -4 (ix)
    00000EE4 73               [ 7] 2947 	ld	(hl), e
    00000EE5 23               [ 6] 2948 	inc	hl
    00000EE6 72               [ 7] 2949 	ld	(hl), d
                                   2950 ;E:\Dropbox\FAUSTO\SVILUPPI\MSX\CODE\C\MSXgl\projects\soccerlgSCC/soccerlg_s6_b3.c:576: break;
    00000EE7 C3r5Fr0F         [10] 2951 	jp	00215$
                                   2952 ;E:\Dropbox\FAUSTO\SVILUPPI\MSX\CODE\C\MSXgl\projects\soccerlgSCC/soccerlg_s6_b3.c:577: case DIRECTION_DOWN_RIGHT:
    00000EEA                       2953 00213$:
                                   2954 ;E:\Dropbox\FAUSTO\SVILUPPI\MSX\CODE\C\MSXgl\projects\soccerlgSCC/soccerlg_s6_b3.c:578: g_Players[playerId].Y += diagStep;
    00000EEA DD 6E F1         [19] 2955 	ld	l, -15 (ix)
    00000EED DD 66 F2         [19] 2956 	ld	h, -14 (ix)
    00000EF0 5E               [ 7] 2957 	ld	e, (hl)
    00000EF1 23               [ 6] 2958 	inc	hl
    00000EF2 56               [ 7] 2959 	ld	d, (hl)
    00000EF3 DD 6E FE         [19] 2960 	ld	l, -2 (ix)
                                   2961 ;	spillPairReg hl
                                   2962 ;	spillPairReg hl
    00000EF6 26 00            [ 7] 2963 	ld	h, #0x00
                                   2964 ;	spillPairReg hl
                                   2965 ;	spillPairReg hl
    00000EF8 E5               [11] 2966 	push	hl
    00000EF9 FD E1            [14] 2967 	pop	iy
    00000EFB FD E5            [15] 2968 	push	iy
    00000EFD E1               [10] 2969 	pop	hl
    00000EFE 19               [11] 2970 	add	hl, de
    00000EFF EB               [ 4] 2971 	ex	de, hl
    00000F00 DD 6E F1         [19] 2972 	ld	l, -15 (ix)
    00000F03 DD 66 F2         [19] 2973 	ld	h, -14 (ix)
    00000F06 73               [ 7] 2974 	ld	(hl), e
    00000F07 23               [ 6] 2975 	inc	hl
    00000F08 72               [ 7] 2976 	ld	(hl), d
                                   2977 ;E:\Dropbox\FAUSTO\SVILUPPI\MSX\CODE\C\MSXgl\projects\soccerlgSCC/soccerlg_s6_b3.c:579: g_Players[playerId].X += diagStep;
    00000F09 DD 6E FB         [19] 2978 	ld	l, -5 (ix)
    00000F0C DD 66 FC         [19] 2979 	ld	h, -4 (ix)
    00000F0F 5E               [ 7] 2980 	ld	e, (hl)
    00000F10 23               [ 6] 2981 	inc	hl
    00000F11 56               [ 7] 2982 	ld	d, (hl)
    00000F12 FD E5            [15] 2983 	push	iy
    00000F14 E1               [10] 2984 	pop	hl
    00000F15 19               [11] 2985 	add	hl, de
    00000F16 EB               [ 4] 2986 	ex	de, hl
    00000F17 DD 6E FB         [19] 2987 	ld	l, -5 (ix)
    00000F1A DD 66 FC         [19] 2988 	ld	h, -4 (ix)
    00000F1D 73               [ 7] 2989 	ld	(hl), e
    00000F1E 23               [ 6] 2990 	inc	hl
    00000F1F 72               [ 7] 2991 	ld	(hl), d
                                   2992 ;E:\Dropbox\FAUSTO\SVILUPPI\MSX\CODE\C\MSXgl\projects\soccerlgSCC/soccerlg_s6_b3.c:580: break;
    00000F20 C3r5Fr0F         [10] 2993 	jp	00215$
                                   2994 ;E:\Dropbox\FAUSTO\SVILUPPI\MSX\CODE\C\MSXgl\projects\soccerlgSCC/soccerlg_s6_b3.c:581: case DIRECTION_DOWN_LEFT:
    00000F23                       2995 00214$:
                                   2996 ;E:\Dropbox\FAUSTO\SVILUPPI\MSX\CODE\C\MSXgl\projects\soccerlgSCC/soccerlg_s6_b3.c:582: g_Players[playerId].Y += diagStep;
    00000F23 DD 6E F1         [19] 2997 	ld	l, -15 (ix)
    00000F26 DD 66 F2         [19] 2998 	ld	h, -14 (ix)
    00000F29 7E               [ 7] 2999 	ld	a, (hl)
    00000F2A 23               [ 6] 3000 	inc	hl
    00000F2B 66               [ 7] 3001 	ld	h, (hl)
                                   3002 ;	spillPairReg hl
    00000F2C 6F               [ 4] 3003 	ld	l, a
                                   3004 ;	spillPairReg hl
                                   3005 ;	spillPairReg hl
    00000F2D DD 5E FE         [19] 3006 	ld	e, -2 (ix)
    00000F30 16 00            [ 7] 3007 	ld	d, #0x00
    00000F32 19               [11] 3008 	add	hl, de
    00000F33 DD 75 FD         [19] 3009 	ld	-3 (ix), l
    00000F36 DD 74 FE         [19] 3010 	ld	-2 (ix), h
    00000F39 DD 6E F1         [19] 3011 	ld	l, -15 (ix)
    00000F3C DD 66 F2         [19] 3012 	ld	h, -14 (ix)
    00000F3F DD 7E FD         [19] 3013 	ld	a, -3 (ix)
    00000F42 77               [ 7] 3014 	ld	(hl), a
    00000F43 23               [ 6] 3015 	inc	hl
    00000F44 DD 7E FE         [19] 3016 	ld	a, -2 (ix)
    00000F47 77               [ 7] 3017 	ld	(hl), a
                                   3018 ;E:\Dropbox\FAUSTO\SVILUPPI\MSX\CODE\C\MSXgl\projects\soccerlgSCC/soccerlg_s6_b3.c:583: g_Players[playerId].X -= diagStep;
    00000F48 DD 6E FB         [19] 3019 	ld	l, -5 (ix)
    00000F4B DD 66 FC         [19] 3020 	ld	h, -4 (ix)
    00000F4E 7E               [ 7] 3021 	ld	a, (hl)
    00000F4F 23               [ 6] 3022 	inc	hl
    00000F50 66               [ 7] 3023 	ld	h, (hl)
                                   3024 ;	spillPairReg hl
    00000F51 6F               [ 4] 3025 	ld	l, a
                                   3026 ;	spillPairReg hl
                                   3027 ;	spillPairReg hl
    00000F52 BF               [ 4] 3028 	cp	a, a
    00000F53 ED 52            [15] 3029 	sbc	hl, de
    00000F55 EB               [ 4] 3030 	ex	de, hl
    00000F56 DD 6E FB         [19] 3031 	ld	l, -5 (ix)
    00000F59 DD 66 FC         [19] 3032 	ld	h, -4 (ix)
    00000F5C 73               [ 7] 3033 	ld	(hl), e
    00000F5D 23               [ 6] 3034 	inc	hl
    00000F5E 72               [ 7] 3035 	ld	(hl), d
                                   3036 ;E:\Dropbox\FAUSTO\SVILUPPI\MSX\CODE\C\MSXgl\projects\soccerlgSCC/soccerlg_s6_b3.c:585: }
    00000F5F                       3037 00215$:
                                   3038 ;E:\Dropbox\FAUSTO\SVILUPPI\MSX\CODE\C\MSXgl\projects\soccerlgSCC/soccerlg_s6_b3.c:587: if(g_Players[playerId].Y < FIELD_BOUND_Y_TOP) g_Players[playerId].Y = FIELD_BOUND_Y_TOP;
    00000F5F DD 6E F1         [19] 3039 	ld	l, -15 (ix)
    00000F62 DD 66 F2         [19] 3040 	ld	h, -14 (ix)
    00000F65 5E               [ 7] 3041 	ld	e, (hl)
    00000F66 23               [ 6] 3042 	inc	hl
    00000F67 46               [ 7] 3043 	ld	b, (hl)
    00000F68 7B               [ 4] 3044 	ld	a, e
    00000F69 D6 32            [ 7] 3045 	sub	a, #0x32
    00000F6B 78               [ 4] 3046 	ld	a, b
    00000F6C DE 00            [ 7] 3047 	sbc	a, #0x00
    00000F6E 30 0B            [12] 3048 	jr	NC, 00217$
    00000F70 DD 6E F1         [19] 3049 	ld	l, -15 (ix)
    00000F73 DD 66 F2         [19] 3050 	ld	h, -14 (ix)
    00000F76 36 32            [10] 3051 	ld	(hl), #0x32
    00000F78 23               [ 6] 3052 	inc	hl
    00000F79 36 00            [10] 3053 	ld	(hl), #0x00
    00000F7B                       3054 00217$:
                                   3055 ;E:\Dropbox\FAUSTO\SVILUPPI\MSX\CODE\C\MSXgl\projects\soccerlgSCC/soccerlg_s6_b3.c:588: if(g_Players[playerId].Y > FIELD_BOUND_Y_BOTTOM) g_Players[playerId].Y = FIELD_BOUND_Y_BOTTOM;
    00000F7B DD 6E F1         [19] 3056 	ld	l, -15 (ix)
    00000F7E DD 66 F2         [19] 3057 	ld	h, -14 (ix)
    00000F81 5E               [ 7] 3058 	ld	e, (hl)
    00000F82 23               [ 6] 3059 	inc	hl
    00000F83 46               [ 7] 3060 	ld	b, (hl)
    00000F84 3E B3            [ 7] 3061 	ld	a, #0xb3
    00000F86 BB               [ 4] 3062 	cp	a, e
    00000F87 3E 01            [ 7] 3063 	ld	a, #0x01
    00000F89 98               [ 4] 3064 	sbc	a, b
    00000F8A 30 0B            [12] 3065 	jr	NC, 00219$
    00000F8C DD 6E F1         [19] 3066 	ld	l, -15 (ix)
    00000F8F DD 66 F2         [19] 3067 	ld	h, -14 (ix)
    00000F92 36 B3            [10] 3068 	ld	(hl), #0xb3
    00000F94 23               [ 6] 3069 	inc	hl
    00000F95 36 01            [10] 3070 	ld	(hl), #0x01
    00000F97                       3071 00219$:
                                   3072 ;E:\Dropbox\FAUSTO\SVILUPPI\MSX\CODE\C\MSXgl\projects\soccerlgSCC/soccerlg_s6_b3.c:589: if(g_Players[playerId].X < FIELD_BOUND_X_LEFT) g_Players[playerId].X = FIELD_BOUND_X_LEFT;
    00000F97 DD 6E FB         [19] 3073 	ld	l, -5 (ix)
    00000F9A DD 66 FC         [19] 3074 	ld	h, -4 (ix)
    00000F9D 5E               [ 7] 3075 	ld	e, (hl)
    00000F9E 23               [ 6] 3076 	inc	hl
    00000F9F 46               [ 7] 3077 	ld	b, (hl)
    00000FA0 7B               [ 4] 3078 	ld	a, e
    00000FA1 D6 0A            [ 7] 3079 	sub	a, #0x0a
    00000FA3 78               [ 4] 3080 	ld	a, b
    00000FA4 DE 00            [ 7] 3081 	sbc	a, #0x00
    00000FA6 30 0B            [12] 3082 	jr	NC, 00221$
    00000FA8 DD 6E FB         [19] 3083 	ld	l, -5 (ix)
    00000FAB DD 66 FC         [19] 3084 	ld	h, -4 (ix)
    00000FAE 36 0A            [10] 3085 	ld	(hl), #0x0a
    00000FB0 23               [ 6] 3086 	inc	hl
    00000FB1 36 00            [10] 3087 	ld	(hl), #0x00
    00000FB3                       3088 00221$:
                                   3089 ;E:\Dropbox\FAUSTO\SVILUPPI\MSX\CODE\C\MSXgl\projects\soccerlgSCC/soccerlg_s6_b3.c:590: if(g_Players[playerId].X > FIELD_BOUND_X_RIGHT) g_Players[playerId].X = FIELD_BOUND_X_RIGHT;
    00000FB3 DD 6E FB         [19] 3090 	ld	l, -5 (ix)
    00000FB6 DD 66 FC         [19] 3091 	ld	h, -4 (ix)
    00000FB9 5E               [ 7] 3092 	ld	e, (hl)
    00000FBA 23               [ 6] 3093 	inc	hl
    00000FBB 46               [ 7] 3094 	ld	b, (hl)
    00000FBC 3E EC            [ 7] 3095 	ld	a, #0xec
    00000FBE BB               [ 4] 3096 	cp	a, e
    00000FBF 3E 00            [ 7] 3097 	ld	a, #0x00
    00000FC1 98               [ 4] 3098 	sbc	a, b
    00000FC2 30 0B            [12] 3099 	jr	NC, 00223$
    00000FC4 DD 6E FB         [19] 3100 	ld	l, -5 (ix)
    00000FC7 DD 66 FC         [19] 3101 	ld	h, -4 (ix)
    00000FCA 36 EC            [10] 3102 	ld	(hl), #0xec
    00000FCC 23               [ 6] 3103 	inc	hl
    00000FCD 36 00            [10] 3104 	ld	(hl), #0x00
    00000FCF                       3105 00223$:
                                   3106 ;E:\Dropbox\FAUSTO\SVILUPPI\MSX\CODE\C\MSXgl\projects\soccerlgSCC/soccerlg_s6_b3.c:594: if (moveDir == DIRECTION_UP) {
    00000FCF 79               [ 4] 3107 	ld	a, c
    00000FD0 B7               [ 4] 3108 	or	a, a
    00000FD1 28 4A            [12] 3109 	jr	Z, 00245$
                                   3110 ;E:\Dropbox\FAUSTO\SVILUPPI\MSX\CODE\C\MSXgl\projects\soccerlgSCC/soccerlg_s6_b3.c:595: g_Ball.Y = g_Players[playerId].Y - distY + BallAlignCorrectY[moveDir];
    00000FD3 DD 6E F1         [19] 3111 	ld	l, -15 (ix)
    00000FD6 DD 66 F2         [19] 3112 	ld	h, -14 (ix)
    00000FD9 4E               [ 7] 3113 	ld	c, (hl)
    00000FDA 23               [ 6] 3114 	inc	hl
    00000FDB 46               [ 7] 3115 	ld	b, (hl)
    00000FDC DD 5E FA         [19] 3116 	ld	e, -6 (ix)
    00000FDF 16 00            [ 7] 3117 	ld	d, #0x00
    00000FE1 79               [ 4] 3118 	ld	a, c
    00000FE2 93               [ 4] 3119 	sub	a, e
    00000FE3 4F               [ 4] 3120 	ld	c, a
    00000FE4 78               [ 4] 3121 	ld	a, b
    00000FE5 9A               [ 4] 3122 	sbc	a, d
    00000FE6 47               [ 4] 3123 	ld	b, a
    00000FE7 DD 5E F5         [19] 3124 	ld	e, -11 (ix)
    00000FEA 16 00            [ 7] 3125 	ld	d, #0x00
    00000FEC 21 1B 00         [10] 3126 	ld	hl, #27
    00000FEF 39               [11] 3127 	add	hl, sp
    00000FF0 19               [11] 3128 	add	hl, de
    00000FF1 7E               [ 7] 3129 	ld	a, (hl)
    00000FF2 6F               [ 4] 3130 	ld	l, a
                                   3131 ;	spillPairReg hl
                                   3132 ;	spillPairReg hl
    00000FF3 07               [ 4] 3133 	rlca
    00000FF4 9F               [ 4] 3134 	sbc	a, a
    00000FF5 67               [ 4] 3135 	ld	h, a
                                   3136 ;	spillPairReg hl
                                   3137 ;	spillPairReg hl
    00000FF6 09               [11] 3138 	add	hl, bc
    00000FF7 EB               [ 4] 3139 	ex	de, hl
    00000FF8 ED 53r00r00      [20] 3140 	ld	(_g_Ball), de
                                   3141 ;E:\Dropbox\FAUSTO\SVILUPPI\MSX\CODE\C\MSXgl\projects\soccerlgSCC/soccerlg_s6_b3.c:596: g_Ball.X = g_Players[playerId].X + BallAlignCorrectX[moveDir];
    00000FFC DD 6E FB         [19] 3142 	ld	l, -5 (ix)
    00000FFF DD 66 FC         [19] 3143 	ld	h, -4 (ix)
    00001002 4E               [ 7] 3144 	ld	c, (hl)
    00001003 23               [ 6] 3145 	inc	hl
    00001004 46               [ 7] 3146 	ld	b, (hl)
    00001005 DD 5E F5         [19] 3147 	ld	e, -11 (ix)
    00001008 16 00            [ 7] 3148 	ld	d, #0x00
    0000100A 21 12 00         [10] 3149 	ld	hl, #18
    0000100D 39               [11] 3150 	add	hl, sp
    0000100E 19               [11] 3151 	add	hl, de
    0000100F 7E               [ 7] 3152 	ld	a, (hl)
    00001010 6F               [ 4] 3153 	ld	l, a
                                   3154 ;	spillPairReg hl
                                   3155 ;	spillPairReg hl
    00001011 07               [ 4] 3156 	rlca
    00001012 9F               [ 4] 3157 	sbc	a, a
    00001013 67               [ 4] 3158 	ld	h, a
                                   3159 ;	spillPairReg hl
                                   3160 ;	spillPairReg hl
    00001014 09               [11] 3161 	add	hl, bc
    00001015 EB               [ 4] 3162 	ex	de, hl
    00001016 ED 53r02r00      [20] 3163 	ld	((_g_Ball + 2)), de
    0000101A C3r61r12         [10] 3164 	jp	00246$
    0000101D                       3165 00245$:
                                   3166 ;E:\Dropbox\FAUSTO\SVILUPPI\MSX\CODE\C\MSXgl\projects\soccerlgSCC/soccerlg_s6_b3.c:597: } else if (moveDir == DIRECTION_DOWN) {
    0000101D DD 7E F5         [19] 3167 	ld	a, -11 (ix)
    00001020 D6 05            [ 7] 3168 	sub	a, #0x05
    00001022 20 4B            [12] 3169 	jr	NZ, 00242$
                                   3170 ;E:\Dropbox\FAUSTO\SVILUPPI\MSX\CODE\C\MSXgl\projects\soccerlgSCC/soccerlg_s6_b3.c:598: g_Ball.Y = g_Players[playerId].Y + distY + BallAlignCorrectY[moveDir] + 5;
    00001024 DD 6E F1         [19] 3171 	ld	l, -15 (ix)
    00001027 DD 66 F2         [19] 3172 	ld	h, -14 (ix)
    0000102A 4E               [ 7] 3173 	ld	c, (hl)
    0000102B 23               [ 6] 3174 	inc	hl
    0000102C 46               [ 7] 3175 	ld	b, (hl)
    0000102D DD 6E FA         [19] 3176 	ld	l, -6 (ix)
                                   3177 ;	spillPairReg hl
                                   3178 ;	spillPairReg hl
    00001030 26 00            [ 7] 3179 	ld	h, #0x00
                                   3180 ;	spillPairReg hl
                                   3181 ;	spillPairReg hl
    00001032 09               [11] 3182 	add	hl, bc
    00001033 4D               [ 4] 3183 	ld	c, l
    00001034 44               [ 4] 3184 	ld	b, h
    00001035 DD 5E F5         [19] 3185 	ld	e, -11 (ix)
    00001038 16 00            [ 7] 3186 	ld	d, #0x00
    0000103A 21 1B 00         [10] 3187 	ld	hl, #27
    0000103D 39               [11] 3188 	add	hl, sp
    0000103E 19               [11] 3189 	add	hl, de
    0000103F 7E               [ 7] 3190 	ld	a, (hl)
    00001040 6F               [ 4] 3191 	ld	l, a
                                   3192 ;	spillPairReg hl
                                   3193 ;	spillPairReg hl
    00001041 07               [ 4] 3194 	rlca
    00001042 9F               [ 4] 3195 	sbc	a, a
    00001043 67               [ 4] 3196 	ld	h, a
                                   3197 ;	spillPairReg hl
                                   3198 ;	spillPairReg hl
    00001044 09               [11] 3199 	add	hl, bc
    00001045 01 05 00         [10] 3200 	ld	bc, #0x0005
    00001048 09               [11] 3201 	add	hl, bc
    00001049 EB               [ 4] 3202 	ex	de, hl
    0000104A ED 53r00r00      [20] 3203 	ld	(_g_Ball), de
                                   3204 ;E:\Dropbox\FAUSTO\SVILUPPI\MSX\CODE\C\MSXgl\projects\soccerlgSCC/soccerlg_s6_b3.c:599: g_Ball.X = g_Players[playerId].X + BallAlignCorrectX[moveDir];
    0000104E DD 6E FB         [19] 3205 	ld	l, -5 (ix)
    00001051 DD 66 FC         [19] 3206 	ld	h, -4 (ix)
    00001054 4E               [ 7] 3207 	ld	c, (hl)
    00001055 23               [ 6] 3208 	inc	hl
    00001056 46               [ 7] 3209 	ld	b, (hl)
    00001057 DD 5E F5         [19] 3210 	ld	e, -11 (ix)
    0000105A 16 00            [ 7] 3211 	ld	d, #0x00
    0000105C 21 12 00         [10] 3212 	ld	hl, #18
    0000105F 39               [11] 3213 	add	hl, sp
    00001060 19               [11] 3214 	add	hl, de
    00001061 7E               [ 7] 3215 	ld	a, (hl)
    00001062 6F               [ 4] 3216 	ld	l, a
                                   3217 ;	spillPairReg hl
                                   3218 ;	spillPairReg hl
    00001063 07               [ 4] 3219 	rlca
    00001064 9F               [ 4] 3220 	sbc	a, a
    00001065 67               [ 4] 3221 	ld	h, a
                                   3222 ;	spillPairReg hl
                                   3223 ;	spillPairReg hl
    00001066 09               [11] 3224 	add	hl, bc
    00001067 EB               [ 4] 3225 	ex	de, hl
    00001068 ED 53r02r00      [20] 3226 	ld	((_g_Ball + 2)), de
    0000106C C3r61r12         [10] 3227 	jp	00246$
    0000106F                       3228 00242$:
                                   3229 ;E:\Dropbox\FAUSTO\SVILUPPI\MSX\CODE\C\MSXgl\projects\soccerlgSCC/soccerlg_s6_b3.c:600: } else if (moveDir == DIRECTION_LEFT) {
    0000106F DD 7E F8         [19] 3230 	ld	a, -8 (ix)
    00001072 B7               [ 4] 3231 	or	a, a
    00001073 28 51            [12] 3232 	jr	Z, 00239$
                                   3233 ;E:\Dropbox\FAUSTO\SVILUPPI\MSX\CODE\C\MSXgl\projects\soccerlgSCC/soccerlg_s6_b3.c:601: g_Ball.X = g_Players[playerId].X - distX + BallAlignCorrectX[moveDir];
    00001075 DD 6E FB         [19] 3234 	ld	l, -5 (ix)
    00001078 DD 66 FC         [19] 3235 	ld	h, -4 (ix)
    0000107B 4E               [ 7] 3236 	ld	c, (hl)
    0000107C 23               [ 6] 3237 	inc	hl
    0000107D 46               [ 7] 3238 	ld	b, (hl)
    0000107E DD 5E F9         [19] 3239 	ld	e, -7 (ix)
    00001081 16 00            [ 7] 3240 	ld	d, #0x00
    00001083 79               [ 4] 3241 	ld	a, c
    00001084 93               [ 4] 3242 	sub	a, e
    00001085 4F               [ 4] 3243 	ld	c, a
    00001086 78               [ 4] 3244 	ld	a, b
    00001087 9A               [ 4] 3245 	sbc	a, d
    00001088 47               [ 4] 3246 	ld	b, a
    00001089 DD 5E F5         [19] 3247 	ld	e, -11 (ix)
    0000108C 16 00            [ 7] 3248 	ld	d, #0x00
    0000108E 21 12 00         [10] 3249 	ld	hl, #18
    00001091 39               [11] 3250 	add	hl, sp
    00001092 19               [11] 3251 	add	hl, de
    00001093 7E               [ 7] 3252 	ld	a, (hl)
    00001094 6F               [ 4] 3253 	ld	l, a
                                   3254 ;	spillPairReg hl
                                   3255 ;	spillPairReg hl
    00001095 07               [ 4] 3256 	rlca
    00001096 9F               [ 4] 3257 	sbc	a, a
    00001097 67               [ 4] 3258 	ld	h, a
                                   3259 ;	spillPairReg hl
                                   3260 ;	spillPairReg hl
    00001098 09               [11] 3261 	add	hl, bc
    00001099 EB               [ 4] 3262 	ex	de, hl
    0000109A ED 53r02r00      [20] 3263 	ld	((_g_Ball + 2)), de
                                   3264 ;E:\Dropbox\FAUSTO\SVILUPPI\MSX\CODE\C\MSXgl\projects\soccerlgSCC/soccerlg_s6_b3.c:602: g_Ball.Y = g_Players[playerId].Y + BallAlignCorrectY[moveDir] - 4;
    0000109E DD 6E F1         [19] 3265 	ld	l, -15 (ix)
    000010A1 DD 66 F2         [19] 3266 	ld	h, -14 (ix)
    000010A4 4E               [ 7] 3267 	ld	c, (hl)
    000010A5 23               [ 6] 3268 	inc	hl
    000010A6 46               [ 7] 3269 	ld	b, (hl)
    000010A7 DD 5E F5         [19] 3270 	ld	e, -11 (ix)
    000010AA 16 00            [ 7] 3271 	ld	d, #0x00
    000010AC 21 1B 00         [10] 3272 	ld	hl, #27
    000010AF 39               [11] 3273 	add	hl, sp
    000010B0 19               [11] 3274 	add	hl, de
    000010B1 7E               [ 7] 3275 	ld	a, (hl)
    000010B2 6F               [ 4] 3276 	ld	l, a
                                   3277 ;	spillPairReg hl
                                   3278 ;	spillPairReg hl
    000010B3 07               [ 4] 3279 	rlca
    000010B4 9F               [ 4] 3280 	sbc	a, a
    000010B5 67               [ 4] 3281 	ld	h, a
                                   3282 ;	spillPairReg hl
                                   3283 ;	spillPairReg hl
    000010B6 09               [11] 3284 	add	hl, bc
    000010B7 7D               [ 4] 3285 	ld	a, l
    000010B8 C6 FC            [ 7] 3286 	add	a, #0xfc
    000010BA 4F               [ 4] 3287 	ld	c, a
    000010BB 7C               [ 4] 3288 	ld	a, h
    000010BC CE FF            [ 7] 3289 	adc	a, #0xff
    000010BE 47               [ 4] 3290 	ld	b, a
    000010BF ED 43r00r00      [20] 3291 	ld	(_g_Ball), bc
    000010C3 C3r61r12         [10] 3292 	jp	00246$
    000010C6                       3293 00239$:
                                   3294 ;E:\Dropbox\FAUSTO\SVILUPPI\MSX\CODE\C\MSXgl\projects\soccerlgSCC/soccerlg_s6_b3.c:603: } else if (moveDir == DIRECTION_RIGHT) {
    000010C6 DD 7E F5         [19] 3295 	ld	a, -11 (ix)
    000010C9 D6 03            [ 7] 3296 	sub	a, #0x03
    000010CB 20 4E            [12] 3297 	jr	NZ, 00236$
                                   3298 ;E:\Dropbox\FAUSTO\SVILUPPI\MSX\CODE\C\MSXgl\projects\soccerlgSCC/soccerlg_s6_b3.c:604: g_Ball.X = g_Players[playerId].X + distX + BallAlignCorrectX[moveDir];
    000010CD DD 6E FB         [19] 3299 	ld	l, -5 (ix)
    000010D0 DD 66 FC         [19] 3300 	ld	h, -4 (ix)
    000010D3 4E               [ 7] 3301 	ld	c, (hl)
    000010D4 23               [ 6] 3302 	inc	hl
    000010D5 46               [ 7] 3303 	ld	b, (hl)
    000010D6 DD 6E F9         [19] 3304 	ld	l, -7 (ix)
                                   3305 ;	spillPairReg hl
                                   3306 ;	spillPairReg hl
    000010D9 26 00            [ 7] 3307 	ld	h, #0x00
                                   3308 ;	spillPairReg hl
                                   3309 ;	spillPairReg hl
    000010DB 09               [11] 3310 	add	hl, bc
    000010DC 4D               [ 4] 3311 	ld	c, l
    000010DD 44               [ 4] 3312 	ld	b, h
    000010DE DD 5E F5         [19] 3313 	ld	e, -11 (ix)
    000010E1 16 00            [ 7] 3314 	ld	d, #0x00
    000010E3 21 12 00         [10] 3315 	ld	hl, #18
    000010E6 39               [11] 3316 	add	hl, sp
    000010E7 19               [11] 3317 	add	hl, de
    000010E8 7E               [ 7] 3318 	ld	a, (hl)
    000010E9 6F               [ 4] 3319 	ld	l, a
                                   3320 ;	spillPairReg hl
                                   3321 ;	spillPairReg hl
    000010EA 07               [ 4] 3322 	rlca
    000010EB 9F               [ 4] 3323 	sbc	a, a
    000010EC 67               [ 4] 3324 	ld	h, a
                                   3325 ;	spillPairReg hl
                                   3326 ;	spillPairReg hl
    000010ED 09               [11] 3327 	add	hl, bc
    000010EE EB               [ 4] 3328 	ex	de, hl
    000010EF ED 53r02r00      [20] 3329 	ld	((_g_Ball + 2)), de
                                   3330 ;E:\Dropbox\FAUSTO\SVILUPPI\MSX\CODE\C\MSXgl\projects\soccerlgSCC/soccerlg_s6_b3.c:605: g_Ball.Y = g_Players[playerId].Y + BallAlignCorrectY[moveDir] - 4;
    000010F3 DD 6E F1         [19] 3331 	ld	l, -15 (ix)
    000010F6 DD 66 F2         [19] 3332 	ld	h, -14 (ix)
    000010F9 4E               [ 7] 3333 	ld	c, (hl)
    000010FA 23               [ 6] 3334 	inc	hl
    000010FB 46               [ 7] 3335 	ld	b, (hl)
    000010FC DD 5E F5         [19] 3336 	ld	e, -11 (ix)
    000010FF 16 00            [ 7] 3337 	ld	d, #0x00
    00001101 21 1B 00         [10] 3338 	ld	hl, #27
    00001104 39               [11] 3339 	add	hl, sp
    00001105 19               [11] 3340 	add	hl, de
    00001106 7E               [ 7] 3341 	ld	a, (hl)
    00001107 6F               [ 4] 3342 	ld	l, a
                                   3343 ;	spillPairReg hl
                                   3344 ;	spillPairReg hl
    00001108 07               [ 4] 3345 	rlca
    00001109 9F               [ 4] 3346 	sbc	a, a
    0000110A 67               [ 4] 3347 	ld	h, a
                                   3348 ;	spillPairReg hl
                                   3349 ;	spillPairReg hl
    0000110B 09               [11] 3350 	add	hl, bc
    0000110C 7D               [ 4] 3351 	ld	a, l
    0000110D C6 FC            [ 7] 3352 	add	a, #0xfc
    0000110F 4F               [ 4] 3353 	ld	c, a
    00001110 7C               [ 4] 3354 	ld	a, h
    00001111 CE FF            [ 7] 3355 	adc	a, #0xff
    00001113 47               [ 4] 3356 	ld	b, a
    00001114 ED 43r00r00      [20] 3357 	ld	(_g_Ball), bc
    00001118 C3r61r12         [10] 3358 	jp	00246$
    0000111B                       3359 00236$:
                                   3360 ;E:\Dropbox\FAUSTO\SVILUPPI\MSX\CODE\C\MSXgl\projects\soccerlgSCC/soccerlg_s6_b3.c:403: i16 dy = (i16)g_Players[playerId].Y - (i16)g_Ball.Y;
    0000111B DD 6E F1         [19] 3361 	ld	l, -15 (ix)
    0000111E DD 66 F2         [19] 3362 	ld	h, -14 (ix)
    00001121 4E               [ 7] 3363 	ld	c, (hl)
    00001122 23               [ 6] 3364 	inc	hl
    00001123 46               [ 7] 3365 	ld	b, (hl)
                                   3366 ;E:\Dropbox\FAUSTO\SVILUPPI\MSX\CODE\C\MSXgl\projects\soccerlgSCC/soccerlg_s6_b3.c:606: } else if (moveDir == DIRECTION_UP_RIGHT) {
    00001124 DD 7E F5         [19] 3367 	ld	a, -11 (ix)
    00001127 D6 02            [ 7] 3368 	sub	a, #0x02
    00001129 20 49            [12] 3369 	jr	NZ, 00233$
                                   3370 ;E:\Dropbox\FAUSTO\SVILUPPI\MSX\CODE\C\MSXgl\projects\soccerlgSCC/soccerlg_s6_b3.c:607: g_Ball.Y = g_Players[playerId].Y - distY + BallAlignCorrectY[moveDir];
    0000112B DD 5E FA         [19] 3371 	ld	e, -6 (ix)
    0000112E 16 00            [ 7] 3372 	ld	d, #0x00
    00001130 79               [ 4] 3373 	ld	a, c
    00001131 93               [ 4] 3374 	sub	a, e
    00001132 4F               [ 4] 3375 	ld	c, a
    00001133 78               [ 4] 3376 	ld	a, b
    00001134 9A               [ 4] 3377 	sbc	a, d
    00001135 47               [ 4] 3378 	ld	b, a
    00001136 DD 5E F5         [19] 3379 	ld	e, -11 (ix)
    00001139 16 00            [ 7] 3380 	ld	d, #0x00
    0000113B 21 1B 00         [10] 3381 	ld	hl, #27
    0000113E 39               [11] 3382 	add	hl, sp
    0000113F 19               [11] 3383 	add	hl, de
    00001140 7E               [ 7] 3384 	ld	a, (hl)
    00001141 6F               [ 4] 3385 	ld	l, a
                                   3386 ;	spillPairReg hl
                                   3387 ;	spillPairReg hl
    00001142 07               [ 4] 3388 	rlca
    00001143 9F               [ 4] 3389 	sbc	a, a
    00001144 67               [ 4] 3390 	ld	h, a
                                   3391 ;	spillPairReg hl
                                   3392 ;	spillPairReg hl
    00001145 09               [11] 3393 	add	hl, bc
    00001146 EB               [ 4] 3394 	ex	de, hl
    00001147 ED 53r00r00      [20] 3395 	ld	(_g_Ball), de
                                   3396 ;E:\Dropbox\FAUSTO\SVILUPPI\MSX\CODE\C\MSXgl\projects\soccerlgSCC/soccerlg_s6_b3.c:608: g_Ball.X = g_Players[playerId].X + distX + BallAlignCorrectX[moveDir];
    0000114B DD 6E FB         [19] 3397 	ld	l, -5 (ix)
    0000114E DD 66 FC         [19] 3398 	ld	h, -4 (ix)
    00001151 4E               [ 7] 3399 	ld	c, (hl)
    00001152 23               [ 6] 3400 	inc	hl
    00001153 46               [ 7] 3401 	ld	b, (hl)
    00001154 DD 6E F9         [19] 3402 	ld	l, -7 (ix)
                                   3403 ;	spillPairReg hl
                                   3404 ;	spillPairReg hl
    00001157 26 00            [ 7] 3405 	ld	h, #0x00
                                   3406 ;	spillPairReg hl
                                   3407 ;	spillPairReg hl
    00001159 09               [11] 3408 	add	hl, bc
    0000115A 4D               [ 4] 3409 	ld	c, l
    0000115B 44               [ 4] 3410 	ld	b, h
    0000115C DD 5E F5         [19] 3411 	ld	e, -11 (ix)
    0000115F 16 00            [ 7] 3412 	ld	d, #0x00
    00001161 21 12 00         [10] 3413 	ld	hl, #18
    00001164 39               [11] 3414 	add	hl, sp
    00001165 19               [11] 3415 	add	hl, de
    00001166 7E               [ 7] 3416 	ld	a, (hl)
    00001167 6F               [ 4] 3417 	ld	l, a
                                   3418 ;	spillPairReg hl
                                   3419 ;	spillPairReg hl
    00001168 07               [ 4] 3420 	rlca
    00001169 9F               [ 4] 3421 	sbc	a, a
    0000116A 67               [ 4] 3422 	ld	h, a
                                   3423 ;	spillPairReg hl
                                   3424 ;	spillPairReg hl
    0000116B 09               [11] 3425 	add	hl, bc
    0000116C EB               [ 4] 3426 	ex	de, hl
    0000116D ED 53r02r00      [20] 3427 	ld	((_g_Ball + 2)), de
    00001171 C3r61r12         [10] 3428 	jp	00246$
    00001174                       3429 00233$:
                                   3430 ;E:\Dropbox\FAUSTO\SVILUPPI\MSX\CODE\C\MSXgl\projects\soccerlgSCC/soccerlg_s6_b3.c:609: } else if (moveDir == DIRECTION_UP_LEFT) {
    00001174 DD 7E F5         [19] 3431 	ld	a, -11 (ix)
    00001177 D6 08            [ 7] 3432 	sub	a, #0x08
    00001179 20 4C            [12] 3433 	jr	NZ, 00230$
                                   3434 ;E:\Dropbox\FAUSTO\SVILUPPI\MSX\CODE\C\MSXgl\projects\soccerlgSCC/soccerlg_s6_b3.c:610: g_Ball.Y = g_Players[playerId].Y - distY + BallAlignCorrectY[moveDir];
    0000117B DD 5E FA         [19] 3435 	ld	e, -6 (ix)
    0000117E 16 00            [ 7] 3436 	ld	d, #0x00
    00001180 79               [ 4] 3437 	ld	a, c
    00001181 93               [ 4] 3438 	sub	a, e
    00001182 4F               [ 4] 3439 	ld	c, a
    00001183 78               [ 4] 3440 	ld	a, b
    00001184 9A               [ 4] 3441 	sbc	a, d
    00001185 47               [ 4] 3442 	ld	b, a
    00001186 DD 5E F5         [19] 3443 	ld	e, -11 (ix)
    00001189 16 00            [ 7] 3444 	ld	d, #0x00
    0000118B 21 1B 00         [10] 3445 	ld	hl, #27
    0000118E 39               [11] 3446 	add	hl, sp
    0000118F 19               [11] 3447 	add	hl, de
    00001190 7E               [ 7] 3448 	ld	a, (hl)
    00001191 6F               [ 4] 3449 	ld	l, a
                                   3450 ;	spillPairReg hl
                                   3451 ;	spillPairReg hl
    00001192 07               [ 4] 3452 	rlca
    00001193 9F               [ 4] 3453 	sbc	a, a
    00001194 67               [ 4] 3454 	ld	h, a
                                   3455 ;	spillPairReg hl
                                   3456 ;	spillPairReg hl
    00001195 09               [11] 3457 	add	hl, bc
    00001196 EB               [ 4] 3458 	ex	de, hl
    00001197 ED 53r00r00      [20] 3459 	ld	(_g_Ball), de
                                   3460 ;E:\Dropbox\FAUSTO\SVILUPPI\MSX\CODE\C\MSXgl\projects\soccerlgSCC/soccerlg_s6_b3.c:611: g_Ball.X = g_Players[playerId].X - distX + BallAlignCorrectX[moveDir];
    0000119B DD 6E FB         [19] 3461 	ld	l, -5 (ix)
    0000119E DD 66 FC         [19] 3462 	ld	h, -4 (ix)
    000011A1 4E               [ 7] 3463 	ld	c, (hl)
    000011A2 23               [ 6] 3464 	inc	hl
    000011A3 46               [ 7] 3465 	ld	b, (hl)
    000011A4 DD 5E F9         [19] 3466 	ld	e, -7 (ix)
    000011A7 16 00            [ 7] 3467 	ld	d, #0x00
    000011A9 79               [ 4] 3468 	ld	a, c
    000011AA 93               [ 4] 3469 	sub	a, e
    000011AB 4F               [ 4] 3470 	ld	c, a
    000011AC 78               [ 4] 3471 	ld	a, b
    000011AD 9A               [ 4] 3472 	sbc	a, d
    000011AE 47               [ 4] 3473 	ld	b, a
    000011AF DD 5E F5         [19] 3474 	ld	e, -11 (ix)
    000011B2 16 00            [ 7] 3475 	ld	d, #0x00
    000011B4 21 12 00         [10] 3476 	ld	hl, #18
    000011B7 39               [11] 3477 	add	hl, sp
    000011B8 19               [11] 3478 	add	hl, de
    000011B9 7E               [ 7] 3479 	ld	a, (hl)
    000011BA 6F               [ 4] 3480 	ld	l, a
                                   3481 ;	spillPairReg hl
                                   3482 ;	spillPairReg hl
    000011BB 07               [ 4] 3483 	rlca
    000011BC 9F               [ 4] 3484 	sbc	a, a
    000011BD 67               [ 4] 3485 	ld	h, a
                                   3486 ;	spillPairReg hl
                                   3487 ;	spillPairReg hl
    000011BE 09               [11] 3488 	add	hl, bc
    000011BF EB               [ 4] 3489 	ex	de, hl
    000011C0 ED 53r02r00      [20] 3490 	ld	((_g_Ball + 2)), de
    000011C4 C3r61r12         [10] 3491 	jp	00246$
    000011C7                       3492 00230$:
                                   3493 ;E:\Dropbox\FAUSTO\SVILUPPI\MSX\CODE\C\MSXgl\projects\soccerlgSCC/soccerlg_s6_b3.c:612: } else if (moveDir == DIRECTION_DOWN_RIGHT) {
    000011C7 DD 7E F5         [19] 3494 	ld	a, -11 (ix)
    000011CA D6 04            [ 7] 3495 	sub	a, #0x04
    000011CC 20 46            [12] 3496 	jr	NZ, 00227$
                                   3497 ;E:\Dropbox\FAUSTO\SVILUPPI\MSX\CODE\C\MSXgl\projects\soccerlgSCC/soccerlg_s6_b3.c:613: g_Ball.Y = g_Players[playerId].Y + distY + BallAlignCorrectY[moveDir];
    000011CE DD 6E FA         [19] 3498 	ld	l, -6 (ix)
                                   3499 ;	spillPairReg hl
                                   3500 ;	spillPairReg hl
    000011D1 26 00            [ 7] 3501 	ld	h, #0x00
                                   3502 ;	spillPairReg hl
                                   3503 ;	spillPairReg hl
    000011D3 09               [11] 3504 	add	hl, bc
    000011D4 4D               [ 4] 3505 	ld	c, l
    000011D5 44               [ 4] 3506 	ld	b, h
    000011D6 DD 5E F5         [19] 3507 	ld	e, -11 (ix)
    000011D9 16 00            [ 7] 3508 	ld	d, #0x00
    000011DB 21 1B 00         [10] 3509 	ld	hl, #27
    000011DE 39               [11] 3510 	add	hl, sp
    000011DF 19               [11] 3511 	add	hl, de
    000011E0 7E               [ 7] 3512 	ld	a, (hl)
    000011E1 6F               [ 4] 3513 	ld	l, a
                                   3514 ;	spillPairReg hl
                                   3515 ;	spillPairReg hl
    000011E2 07               [ 4] 3516 	rlca
    000011E3 9F               [ 4] 3517 	sbc	a, a
    000011E4 67               [ 4] 3518 	ld	h, a
                                   3519 ;	spillPairReg hl
                                   3520 ;	spillPairReg hl
    000011E5 09               [11] 3521 	add	hl, bc
    000011E6 EB               [ 4] 3522 	ex	de, hl
    000011E7 ED 53r00r00      [20] 3523 	ld	(_g_Ball), de
                                   3524 ;E:\Dropbox\FAUSTO\SVILUPPI\MSX\CODE\C\MSXgl\projects\soccerlgSCC/soccerlg_s6_b3.c:614: g_Ball.X = g_Players[playerId].X + distX + BallAlignCorrectX[moveDir];
    000011EB DD 6E FB         [19] 3525 	ld	l, -5 (ix)
    000011EE DD 66 FC         [19] 3526 	ld	h, -4 (ix)
    000011F1 4E               [ 7] 3527 	ld	c, (hl)
    000011F2 23               [ 6] 3528 	inc	hl
    000011F3 46               [ 7] 3529 	ld	b, (hl)
    000011F4 DD 6E F9         [19] 3530 	ld	l, -7 (ix)
                                   3531 ;	spillPairReg hl
                                   3532 ;	spillPairReg hl
    000011F7 26 00            [ 7] 3533 	ld	h, #0x00
                                   3534 ;	spillPairReg hl
                                   3535 ;	spillPairReg hl
    000011F9 09               [11] 3536 	add	hl, bc
    000011FA 4D               [ 4] 3537 	ld	c, l
    000011FB 44               [ 4] 3538 	ld	b, h
    000011FC DD 5E F5         [19] 3539 	ld	e, -11 (ix)
    000011FF 16 00            [ 7] 3540 	ld	d, #0x00
    00001201 21 12 00         [10] 3541 	ld	hl, #18
    00001204 39               [11] 3542 	add	hl, sp
    00001205 19               [11] 3543 	add	hl, de
    00001206 7E               [ 7] 3544 	ld	a, (hl)
    00001207 6F               [ 4] 3545 	ld	l, a
                                   3546 ;	spillPairReg hl
                                   3547 ;	spillPairReg hl
    00001208 07               [ 4] 3548 	rlca
    00001209 9F               [ 4] 3549 	sbc	a, a
    0000120A 67               [ 4] 3550 	ld	h, a
                                   3551 ;	spillPairReg hl
                                   3552 ;	spillPairReg hl
    0000120B 09               [11] 3553 	add	hl, bc
    0000120C EB               [ 4] 3554 	ex	de, hl
    0000120D ED 53r02r00      [20] 3555 	ld	((_g_Ball + 2)), de
    00001211 C3r61r12         [10] 3556 	jp	00246$
    00001214                       3557 00227$:
                                   3558 ;E:\Dropbox\FAUSTO\SVILUPPI\MSX\CODE\C\MSXgl\projects\soccerlgSCC/soccerlg_s6_b3.c:615: } else if (moveDir == DIRECTION_DOWN_LEFT) {
    00001214 DD 7E F5         [19] 3559 	ld	a, -11 (ix)
    00001217 D6 06            [ 7] 3560 	sub	a, #0x06
    00001219 20 46            [12] 3561 	jr	NZ, 00246$
                                   3562 ;E:\Dropbox\FAUSTO\SVILUPPI\MSX\CODE\C\MSXgl\projects\soccerlgSCC/soccerlg_s6_b3.c:616: g_Ball.Y = g_Players[playerId].Y + distY + BallAlignCorrectY[moveDir];
    0000121B DD 6E FA         [19] 3563 	ld	l, -6 (ix)
                                   3564 ;	spillPairReg hl
                                   3565 ;	spillPairReg hl
    0000121E 26 00            [ 7] 3566 	ld	h, #0x00
                                   3567 ;	spillPairReg hl
                                   3568 ;	spillPairReg hl
    00001220 09               [11] 3569 	add	hl, bc
    00001221 4D               [ 4] 3570 	ld	c, l
    00001222 44               [ 4] 3571 	ld	b, h
    00001223 DD 5E F5         [19] 3572 	ld	e, -11 (ix)
    00001226 16 00            [ 7] 3573 	ld	d, #0x00
    00001228 21 1B 00         [10] 3574 	ld	hl, #27
    0000122B 39               [11] 3575 	add	hl, sp
    0000122C 19               [11] 3576 	add	hl, de
    0000122D 7E               [ 7] 3577 	ld	a, (hl)
    0000122E 6F               [ 4] 3578 	ld	l, a
                                   3579 ;	spillPairReg hl
                                   3580 ;	spillPairReg hl
    0000122F 07               [ 4] 3581 	rlca
    00001230 9F               [ 4] 3582 	sbc	a, a
    00001231 67               [ 4] 3583 	ld	h, a
                                   3584 ;	spillPairReg hl
                                   3585 ;	spillPairReg hl
    00001232 09               [11] 3586 	add	hl, bc
    00001233 EB               [ 4] 3587 	ex	de, hl
    00001234 ED 53r00r00      [20] 3588 	ld	(_g_Ball), de
                                   3589 ;E:\Dropbox\FAUSTO\SVILUPPI\MSX\CODE\C\MSXgl\projects\soccerlgSCC/soccerlg_s6_b3.c:617: g_Ball.X = g_Players[playerId].X - distX + BallAlignCorrectX[moveDir];
    00001238 DD 6E FB         [19] 3590 	ld	l, -5 (ix)
    0000123B DD 66 FC         [19] 3591 	ld	h, -4 (ix)
    0000123E 4E               [ 7] 3592 	ld	c, (hl)
    0000123F 23               [ 6] 3593 	inc	hl
    00001240 46               [ 7] 3594 	ld	b, (hl)
    00001241 DD 5E F9         [19] 3595 	ld	e, -7 (ix)
    00001244 16 00            [ 7] 3596 	ld	d, #0x00
    00001246 79               [ 4] 3597 	ld	a, c
    00001247 93               [ 4] 3598 	sub	a, e
    00001248 4F               [ 4] 3599 	ld	c, a
    00001249 78               [ 4] 3600 	ld	a, b
    0000124A 9A               [ 4] 3601 	sbc	a, d
    0000124B 47               [ 4] 3602 	ld	b, a
    0000124C DD 5E F5         [19] 3603 	ld	e, -11 (ix)
    0000124F 16 00            [ 7] 3604 	ld	d, #0x00
    00001251 21 12 00         [10] 3605 	ld	hl, #18
    00001254 39               [11] 3606 	add	hl, sp
    00001255 19               [11] 3607 	add	hl, de
    00001256 7E               [ 7] 3608 	ld	a, (hl)
    00001257 6F               [ 4] 3609 	ld	l, a
                                   3610 ;	spillPairReg hl
                                   3611 ;	spillPairReg hl
    00001258 07               [ 4] 3612 	rlca
    00001259 9F               [ 4] 3613 	sbc	a, a
    0000125A 67               [ 4] 3614 	ld	h, a
                                   3615 ;	spillPairReg hl
                                   3616 ;	spillPairReg hl
    0000125B 09               [11] 3617 	add	hl, bc
    0000125C EB               [ 4] 3618 	ex	de, hl
    0000125D ED 53r02r00      [20] 3619 	ld	((_g_Ball + 2)), de
    00001261                       3620 00246$:
                                   3621 ;E:\Dropbox\FAUSTO\SVILUPPI\MSX\CODE\C\MSXgl\projects\soccerlgSCC/soccerlg_s6_b3.c:620: g_Players[playerId].TargetY=g_Players[playerId].Y;
    00001261 DD 7E F1         [19] 3622 	ld	a, -15 (ix)
    00001264 C6 0E            [ 7] 3623 	add	a, #0x0e
    00001266 4F               [ 4] 3624 	ld	c, a
    00001267 DD 7E F2         [19] 3625 	ld	a, -14 (ix)
    0000126A CE 00            [ 7] 3626 	adc	a, #0x00
    0000126C 47               [ 4] 3627 	ld	b, a
    0000126D DD 6E F1         [19] 3628 	ld	l, -15 (ix)
    00001270 DD 66 F2         [19] 3629 	ld	h, -14 (ix)
    00001273 5E               [ 7] 3630 	ld	e, (hl)
    00001274 23               [ 6] 3631 	inc	hl
    00001275 56               [ 7] 3632 	ld	d, (hl)
    00001276 7B               [ 4] 3633 	ld	a, e
    00001277 02               [ 7] 3634 	ld	(bc), a
    00001278 03               [ 6] 3635 	inc	bc
    00001279 7A               [ 4] 3636 	ld	a, d
    0000127A 02               [ 7] 3637 	ld	(bc), a
                                   3638 ;E:\Dropbox\FAUSTO\SVILUPPI\MSX\CODE\C\MSXgl\projects\soccerlgSCC/soccerlg_s6_b3.c:621: g_Players[playerId].TargetX=g_Players[playerId].X;
    0000127B DD 7E F1         [19] 3639 	ld	a, -15 (ix)
    0000127E C6 10            [ 7] 3640 	add	a, #0x10
    00001280 4F               [ 4] 3641 	ld	c, a
    00001281 DD 7E F2         [19] 3642 	ld	a, -14 (ix)
    00001284 CE 00            [ 7] 3643 	adc	a, #0x00
    00001286 47               [ 4] 3644 	ld	b, a
    00001287 DD 6E FB         [19] 3645 	ld	l, -5 (ix)
    0000128A DD 66 FC         [19] 3646 	ld	h, -4 (ix)
    0000128D 5E               [ 7] 3647 	ld	e, (hl)
    0000128E 23               [ 6] 3648 	inc	hl
    0000128F 56               [ 7] 3649 	ld	d, (hl)
    00001290 7B               [ 4] 3650 	ld	a, e
    00001291 02               [ 7] 3651 	ld	(bc), a
    00001292 03               [ 6] 3652 	inc	bc
    00001293 7A               [ 4] 3653 	ld	a, d
    00001294 02               [ 7] 3654 	ld	(bc), a
                                   3655 ;E:\Dropbox\FAUSTO\SVILUPPI\MSX\CODE\C\MSXgl\projects\soccerlgSCC/soccerlg_s6_b3.c:622: g_Players[playerId].Status=PLAYER_STATUS_HAS_BALL; 
    00001295 DD 6E F3         [19] 3656 	ld	l, -13 (ix)
    00001298 DD 66 F4         [19] 3657 	ld	h, -12 (ix)
    0000129B 36 01            [10] 3658 	ld	(hl), #0x01
    0000129D 23               [ 6] 3659 	inc	hl
    0000129E 36 00            [10] 3660 	ld	(hl), #0x00
                                   3661 ;E:\Dropbox\FAUSTO\SVILUPPI\MSX\CODE\C\MSXgl\projects\soccerlgSCC/soccerlg_s6_b3.c:623: g_Players[playerId].Direction=moveDir;
    000012A0 DD 7E F1         [19] 3662 	ld	a, -15 (ix)
    000012A3 C6 0A            [ 7] 3663 	add	a, #0x0a
    000012A5 4F               [ 4] 3664 	ld	c, a
    000012A6 DD 7E F2         [19] 3665 	ld	a, -14 (ix)
    000012A9 CE 00            [ 7] 3666 	adc	a, #0x00
    000012AB 47               [ 4] 3667 	ld	b, a
    000012AC DD 7E F5         [19] 3668 	ld	a, -11 (ix)
    000012AF 02               [ 7] 3669 	ld	(bc), a
                                   3670 ;E:\Dropbox\FAUSTO\SVILUPPI\MSX\CODE\C\MSXgl\projects\soccerlgSCC/soccerlg_s6_b3.c:625: g_Players[playerId].PatternId=CallFnc_U8_P1(8,GetNoMovingPlayerPatternId,g_Players[playerId].PreviousDirection);
    000012B0 DD 7E F1         [19] 3671 	ld	a, -15 (ix)
    000012B3 C6 08            [ 7] 3672 	add	a, #0x08
    000012B5 5F               [ 4] 3673 	ld	e, a
    000012B6 DD 7E F2         [19] 3674 	ld	a, -14 (ix)
    000012B9 CE 00            [ 7] 3675 	adc	a, #0x00
    000012BB 57               [ 4] 3676 	ld	d, a
    000012BC DD 6E F6         [19] 3677 	ld	l, -10 (ix)
    000012BF DD 66 F7         [19] 3678 	ld	h, -9 (ix)
    000012C2 7E               [ 7] 3679 	ld	a, (hl)
    000012C3 C5               [11] 3680 	push	bc
    000012C4 D5               [11] 3681 	push	de
    000012C5 F5               [11] 3682 	push	af
    000012C6 33               [ 6] 3683 	inc	sp
    000012C7 11r00r00         [10] 3684 	ld	de, #_GetNoMovingPlayerPatternId
    000012CA 3E 08            [ 7] 3685 	ld	a, #0x08
    000012CC CDr00r00         [17] 3686 	call	_CallFnc_U8_P1
    000012CF D1               [10] 3687 	pop	de
    000012D0 C1               [10] 3688 	pop	bc
    000012D1 12               [ 7] 3689 	ld	(de), a
                                   3690 ;E:\Dropbox\FAUSTO\SVILUPPI\MSX\CODE\C\MSXgl\projects\soccerlgSCC/soccerlg_s6_b3.c:626: g_Players[playerId].PreviousDirection=g_Players[playerId].Direction;
    000012D2 0A               [ 7] 3691 	ld	a, (bc)
    000012D3 DD 6E F6         [19] 3692 	ld	l, -10 (ix)
    000012D6 DD 66 F7         [19] 3693 	ld	h, -9 (ix)
    000012D9 77               [ 7] 3694 	ld	(hl), a
                                   3695 ;E:\Dropbox\FAUSTO\SVILUPPI\MSX\CODE\C\MSXgl\projects\soccerlgSCC/soccerlg_s6_b3.c:628: g_Ball.Direction = moveDir;
    000012DA 21r05r00         [10] 3696 	ld	hl, #(_g_Ball + 5)
    000012DD DD 7E F5         [19] 3697 	ld	a, -11 (ix)
    000012E0 77               [ 7] 3698 	ld	(hl), a
                                   3699 ;E:\Dropbox\FAUSTO\SVILUPPI\MSX\CODE\C\MSXgl\projects\soccerlgSCC/soccerlg_s6_b3.c:630: g_Ball.KickMoveState++;
    000012E1 3Ar0Dr00         [13] 3700 	ld	a, (#(_g_Ball + 13) + 0)
    000012E4 4F               [ 4] 3701 	ld	c, a
    000012E5 0C               [ 4] 3702 	inc	c
    000012E6 21r0Dr00         [10] 3703 	ld	hl, #(_g_Ball + 13)
    000012E9 71               [ 7] 3704 	ld	(hl), c
                                   3705 ;E:\Dropbox\FAUSTO\SVILUPPI\MSX\CODE\C\MSXgl\projects\soccerlgSCC/soccerlg_s6_b3.c:631: if(g_Ball.KickMoveState>3){
    000012EA 3E 03            [ 7] 3706 	ld	a, #0x03
    000012EC 91               [ 4] 3707 	sub	a, c
    000012ED 30 02            [12] 3708 	jr	NC, 00248$
                                   3709 ;E:\Dropbox\FAUSTO\SVILUPPI\MSX\CODE\C\MSXgl\projects\soccerlgSCC/soccerlg_s6_b3.c:632: g_Ball.KickMoveState=0;
    000012EF 36 00            [10] 3710 	ld	(hl), #0x00
    000012F1                       3711 00248$:
                                   3712 ;E:\Dropbox\FAUSTO\SVILUPPI\MSX\CODE\C\MSXgl\projects\soccerlgSCC/soccerlg_s6_b3.c:634: if(g_Ball.KickMoveState==1) PlayAyFx(AYFX_BALL);
    000012F1 3Ar0Dr00         [13] 3713 	ld	a, (#(_g_Ball + 13) + 0)
    000012F4 3D               [ 4] 3714 	dec	a
    000012F5 C2rFCr15         [10] 3715 	jp	NZ,00290$
    000012F8 3E 05            [ 7] 3716 	ld	a, #0x05
    000012FA CDr00r00         [17] 3717 	call	_PlayAyFx
    000012FD C3rFCr15         [10] 3718 	jp	00290$
    00001300                       3719 00288$:
                                   3720 ;E:\Dropbox\FAUSTO\SVILUPPI\MSX\CODE\C\MSXgl\projects\soccerlgSCC/soccerlg_s6_b3.c:640: if (frameTriggerPressed) {
    00001300 DD 7E F5         [19] 3721 	ld	a, -11 (ix)
    00001303 B7               [ 4] 3722 	or	a, a
    00001304 CAr0Br14         [10] 3723 	jp	Z, 00273$
                                   3724 ;E:\Dropbox\FAUSTO\SVILUPPI\MSX\CODE\C\MSXgl\projects\soccerlgSCC/soccerlg_s6_b3.c:641: i16 dx = (i16)g_Players[playerId].X - (i16)g_Ball.X;
    00001307 DD 6E F1         [19] 3725 	ld	l, -15 (ix)
                                   3726 ;	spillPairReg hl
                                   3727 ;	spillPairReg hl
    0000130A DD 66 F2         [19] 3728 	ld	h, -14 (ix)
                                   3729 ;	spillPairReg hl
                                   3730 ;	spillPairReg hl
    0000130D 23               [ 6] 3731 	inc	hl
    0000130E 23               [ 6] 3732 	inc	hl
    0000130F 4E               [ 7] 3733 	ld	c, (hl)
    00001310 23               [ 6] 3734 	inc	hl
    00001311 46               [ 7] 3735 	ld	b, (hl)
    00001312 2Ar02r00         [16] 3736 	ld	hl, (#_g_Ball + 2)
    00001315 79               [ 4] 3737 	ld	a, c
    00001316 95               [ 4] 3738 	sub	a, l
    00001317 4F               [ 4] 3739 	ld	c, a
    00001318 78               [ 4] 3740 	ld	a, b
    00001319 9C               [ 4] 3741 	sbc	a, h
    0000131A 47               [ 4] 3742 	ld	b, a
                                   3743 ;E:\Dropbox\FAUSTO\SVILUPPI\MSX\CODE\C\MSXgl\projects\soccerlgSCC/soccerlg_s6_b3.c:642: i16 dy = (i16)g_Players[playerId].Y - (i16)g_Ball.Y;
    0000131B DD 6E F1         [19] 3744 	ld	l, -15 (ix)
    0000131E DD 66 F2         [19] 3745 	ld	h, -14 (ix)
    00001321 5E               [ 7] 3746 	ld	e, (hl)
    00001322 23               [ 6] 3747 	inc	hl
    00001323 56               [ 7] 3748 	ld	d, (hl)
    00001324 2Ar00r00         [16] 3749 	ld	hl, (#_g_Ball + 0)
    00001327 7B               [ 4] 3750 	ld	a, e
    00001328 95               [ 4] 3751 	sub	a, l
    00001329 5F               [ 4] 3752 	ld	e, a
    0000132A 7A               [ 4] 3753 	ld	a, d
    0000132B 9C               [ 4] 3754 	sbc	a, h
    0000132C 57               [ 4] 3755 	ld	d, a
                                   3756 ;E:\Dropbox\FAUSTO\SVILUPPI\MSX\CODE\C\MSXgl\projects\soccerlgSCC/soccerlg_s6_b3.c:645: if (dx > -24 && dx < 24 && dy > -24 && dy < 24) {
    0000132D 3E E8            [ 7] 3757 	ld	a, #0xe8
    0000132F B9               [ 4] 3758 	cp	a, c
    00001330 3E FF            [ 7] 3759 	ld	a, #0xff
    00001332 98               [ 4] 3760 	sbc	a, b
    00001333 E2r38r13         [10] 3761 	jp	PO, 00832$
    00001336 EE 80            [ 7] 3762 	xor	a, #0x80
    00001338                       3763 00832$:
    00001338 F2r0Br14         [10] 3764 	jp	P, 00273$
    0000133B 79               [ 4] 3765 	ld	a, c
    0000133C D6 18            [ 7] 3766 	sub	a, #0x18
    0000133E 78               [ 4] 3767 	ld	a, b
    0000133F 17               [ 4] 3768 	rla
    00001340 3F               [ 4] 3769 	ccf
    00001341 1F               [ 4] 3770 	rra
    00001342 DE 80            [ 7] 3771 	sbc	a, #0x80
    00001344 D2r0Br14         [10] 3772 	jp	NC, 00273$
    00001347 3E E8            [ 7] 3773 	ld	a, #0xe8
    00001349 BB               [ 4] 3774 	cp	a, e
    0000134A 3E FF            [ 7] 3775 	ld	a, #0xff
    0000134C 9A               [ 4] 3776 	sbc	a, d
    0000134D E2r52r13         [10] 3777 	jp	PO, 00833$
    00001350 EE 80            [ 7] 3778 	xor	a, #0x80
    00001352                       3779 00833$:
    00001352 F2r0Br14         [10] 3780 	jp	P, 00273$
    00001355 7B               [ 4] 3781 	ld	a, e
    00001356 D6 18            [ 7] 3782 	sub	a, #0x18
    00001358 7A               [ 4] 3783 	ld	a, d
    00001359 17               [ 4] 3784 	rla
    0000135A 3F               [ 4] 3785 	ccf
    0000135B 1F               [ 4] 3786 	rra
    0000135C DE 80            [ 7] 3787 	sbc	a, #0x80
    0000135E D2r0Br14         [10] 3788 	jp	NC, 00273$
                                   3789 ;E:\Dropbox\FAUSTO\SVILUPPI\MSX\CODE\C\MSXgl\projects\soccerlgSCC/soccerlg_s6_b3.c:657: if (dx < 0) {
    00001361 78               [ 4] 3790 	ld	a, b
    00001362 07               [ 4] 3791 	rlca
    00001363 E6 01            [ 7] 3792 	and	a,#0x01
    00001365 DD 77 FD         [19] 3793 	ld	-3 (ix), a
                                   3794 ;E:\Dropbox\FAUSTO\SVILUPPI\MSX\CODE\C\MSXgl\projects\soccerlgSCC/soccerlg_s6_b3.c:655: if (dy < 0) {
    00001368 CB 7A            [ 8] 3795 	bit	7, d
    0000136A 28 1C            [12] 3796 	jr	Z, 00261$
                                   3797 ;E:\Dropbox\FAUSTO\SVILUPPI\MSX\CODE\C\MSXgl\projects\soccerlgSCC/soccerlg_s6_b3.c:657: if (dx < 0) {
    0000136C DD 7E FD         [19] 3798 	ld	a, -3 (ix)
    0000136F B7               [ 4] 3799 	or	a, a
    00001370 28 0B            [12] 3800 	jr	Z, 00255$
                                   3801 ;E:\Dropbox\FAUSTO\SVILUPPI\MSX\CODE\C\MSXgl\projects\soccerlgSCC/soccerlg_s6_b3.c:658: slidePose = PLAYER_POSE_TACKLE_FROM_UP_LEFT;    // UP-LEFT -> Slides towards Bottom-Right
    00001372 DD 36 FA 24      [19] 3802 	ld	-6 (ix), #0x24
                                   3803 ;E:\Dropbox\FAUSTO\SVILUPPI\MSX\CODE\C\MSXgl\projects\soccerlgSCC/soccerlg_s6_b3.c:659: slideDir = DIRECTION_DOWN_RIGHT;
    00001376 DD 36 FB 04      [19] 3804 	ld	-5 (ix), #0x04
    0000137A C3rA1r13         [10] 3805 	jp	00262$
    0000137D                       3806 00255$:
                                   3807 ;E:\Dropbox\FAUSTO\SVILUPPI\MSX\CODE\C\MSXgl\projects\soccerlgSCC/soccerlg_s6_b3.c:661: slidePose = PLAYER_POSE_TACKLE_FROM_UP_RIGHT;   // UP-RIGHT -> Slides towards Bottom-Left
    0000137D DD 36 FA AC      [19] 3808 	ld	-6 (ix), #0xac
                                   3809 ;E:\Dropbox\FAUSTO\SVILUPPI\MSX\CODE\C\MSXgl\projects\soccerlgSCC/soccerlg_s6_b3.c:662: slideDir = DIRECTION_DOWN_LEFT;
    00001381 DD 36 FB 06      [19] 3810 	ld	-5 (ix), #0x06
    00001385 C3rA1r13         [10] 3811 	jp	00262$
    00001388                       3812 00261$:
                                   3813 ;E:\Dropbox\FAUSTO\SVILUPPI\MSX\CODE\C\MSXgl\projects\soccerlgSCC/soccerlg_s6_b3.c:666: if (dx < 0) {
    00001388 DD 7E FD         [19] 3814 	ld	a, -3 (ix)
    0000138B B7               [ 4] 3815 	or	a, a
    0000138C 28 0B            [12] 3816 	jr	Z, 00258$
                                   3817 ;E:\Dropbox\FAUSTO\SVILUPPI\MSX\CODE\C\MSXgl\projects\soccerlgSCC/soccerlg_s6_b3.c:667: slidePose = PLAYER_POSE_TACKLE_FROM_DOWN_LEFT;  // DOWN-LEFT -> Slides towards Top-Right
    0000138E DD 36 FA 22      [19] 3818 	ld	-6 (ix), #0x22
                                   3819 ;E:\Dropbox\FAUSTO\SVILUPPI\MSX\CODE\C\MSXgl\projects\soccerlgSCC/soccerlg_s6_b3.c:668: slideDir = DIRECTION_UP_RIGHT;
    00001392 DD 36 FB 02      [19] 3820 	ld	-5 (ix), #0x02
    00001396 C3rA1r13         [10] 3821 	jp	00262$
    00001399                       3822 00258$:
                                   3823 ;E:\Dropbox\FAUSTO\SVILUPPI\MSX\CODE\C\MSXgl\projects\soccerlgSCC/soccerlg_s6_b3.c:670: slidePose = PLAYER_POSE_TACKLE_FROM_DOWN_RIGHT; // DOWN-RIGHT -> Slides towards Top-Left
    00001399 DD 36 FA AE      [19] 3824 	ld	-6 (ix), #0xae
                                   3825 ;E:\Dropbox\FAUSTO\SVILUPPI\MSX\CODE\C\MSXgl\projects\soccerlgSCC/soccerlg_s6_b3.c:671: slideDir = DIRECTION_UP_LEFT;
    0000139D DD 36 FB 08      [19] 3826 	ld	-5 (ix), #0x08
    000013A1                       3827 00262$:
                                   3828 ;E:\Dropbox\FAUSTO\SVILUPPI\MSX\CODE\C\MSXgl\projects\soccerlgSCC/soccerlg_s6_b3.c:674: PlayAyFx(AYFX_TACKLE);
    000013A1 3E 01            [ 7] 3829 	ld	a, #0x01
    000013A3 CDr00r00         [17] 3830 	call	_PlayAyFx
                                   3831 ;E:\Dropbox\FAUSTO\SVILUPPI\MSX\CODE\C\MSXgl\projects\soccerlgSCC/soccerlg_s6_b3.c:676: if (slidePose != 0) {
    000013A6 DD 7E FA         [19] 3832 	ld	a, -6 (ix)
    000013A9 B7               [ 4] 3833 	or	a, a
    000013AA 28 34            [12] 3834 	jr	Z, 00264$
                                   3835 ;E:\Dropbox\FAUSTO\SVILUPPI\MSX\CODE\C\MSXgl\projects\soccerlgSCC/soccerlg_s6_b3.c:677: g_Players[playerId].PatternId = slidePose;
    000013AC DD 7E F1         [19] 3836 	ld	a, -15 (ix)
    000013AF C6 08            [ 7] 3837 	add	a, #0x08
    000013B1 DD 77 FC         [19] 3838 	ld	-4 (ix), a
    000013B4 DD 7E F2         [19] 3839 	ld	a, -14 (ix)
    000013B7 CE 00            [ 7] 3840 	adc	a, #0x00
    000013B9 DD 77 FD         [19] 3841 	ld	-3 (ix), a
    000013BC DD 6E FC         [19] 3842 	ld	l, -4 (ix)
    000013BF DD 66 FD         [19] 3843 	ld	h, -3 (ix)
    000013C2 DD 7E FA         [19] 3844 	ld	a, -6 (ix)
    000013C5 77               [ 7] 3845 	ld	(hl), a
                                   3846 ;E:\Dropbox\FAUSTO\SVILUPPI\MSX\CODE\C\MSXgl\projects\soccerlgSCC/soccerlg_s6_b3.c:678: g_Players[playerId].Direction = slideDir;
    000013C6 DD 7E F1         [19] 3847 	ld	a, -15 (ix)
    000013C9 C6 0A            [ 7] 3848 	add	a, #0x0a
    000013CB DD 77 FC         [19] 3849 	ld	-4 (ix), a
    000013CE DD 7E F2         [19] 3850 	ld	a, -14 (ix)
    000013D1 CE 00            [ 7] 3851 	adc	a, #0x00
    000013D3 DD 77 FD         [19] 3852 	ld	-3 (ix), a
    000013D6 DD 6E FC         [19] 3853 	ld	l, -4 (ix)
    000013D9 DD 66 FD         [19] 3854 	ld	h, -3 (ix)
    000013DC DD 7E FB         [19] 3855 	ld	a, -5 (ix)
    000013DF 77               [ 7] 3856 	ld	(hl), a
    000013E0                       3857 00264$:
                                   3858 ;E:\Dropbox\FAUSTO\SVILUPPI\MSX\CODE\C\MSXgl\projects\soccerlgSCC/soccerlg_s6_b3.c:682: CallFnc_VOID_P1(4,PutBallOnPlayerFeet,playerId);
    000013E0 DD 7E FE         [19] 3859 	ld	a, -2 (ix)
    000013E3 F5               [11] 3860 	push	af
    000013E4 33               [ 6] 3861 	inc	sp
    000013E5 11r00r00         [10] 3862 	ld	de, #_PutBallOnPlayerFeet
    000013E8 3E 04            [ 7] 3863 	ld	a, #0x04
    000013EA CDr00r00         [17] 3864 	call	_CallFnc_VOID_P1
                                   3865 ;E:\Dropbox\FAUSTO\SVILUPPI\MSX\CODE\C\MSXgl\projects\soccerlgSCC/soccerlg_s6_b3.c:683: g_Ball.StealCooldown = 45; // Protect possession for 0.75s
    000013ED 21r0Fr00         [10] 3866 	ld	hl, #(_g_Ball + 15)
    000013F0 36 2D            [10] 3867 	ld	(hl), #0x2d
                                   3868 ;E:\Dropbox\FAUSTO\SVILUPPI\MSX\CODE\C\MSXgl\projects\soccerlgSCC/soccerlg_s6_b3.c:685: if (slidePose != 0) {
    000013F2 DD 7E FA         [19] 3869 	ld	a, -6 (ix)
    000013F5 B7               [ 4] 3870 	or	a, a
    000013F6 28 0B            [12] 3871 	jr	Z, 00266$
                                   3872 ;E:\Dropbox\FAUSTO\SVILUPPI\MSX\CODE\C\MSXgl\projects\soccerlgSCC/soccerlg_s6_b3.c:686: g_Players[playerId].Status = PLAYER_STATUS_POSITIONED; // Lock visual (Override HAS_BALL)
    000013F8 DD 6E F3         [19] 3873 	ld	l, -13 (ix)
    000013FB DD 66 F4         [19] 3874 	ld	h, -12 (ix)
    000013FE 36 04            [10] 3875 	ld	(hl), #0x04
    00001400 23               [ 6] 3876 	inc	hl
    00001401 36 00            [10] 3877 	ld	(hl), #0x00
    00001403                       3878 00266$:
                                   3879 ;E:\Dropbox\FAUSTO\SVILUPPI\MSX\CODE\C\MSXgl\projects\soccerlgSCC/soccerlg_s6_b3.c:689: g_ActionCooldown = 15; // Set 15 frames cooldown to avoid immediate pass
    00001403 21r00r00         [10] 3880 	ld	hl, #_g_ActionCooldown
    00001406 36 0F            [10] 3881 	ld	(hl), #0x0f
                                   3882 ;E:\Dropbox\FAUSTO\SVILUPPI\MSX\CODE\C\MSXgl\projects\soccerlgSCC/soccerlg_s6_b3.c:690: return;
    00001408 C3rFCr15         [10] 3883 	jp	00290$
    0000140B                       3884 00273$:
                                   3885 ;E:\Dropbox\FAUSTO\SVILUPPI\MSX\CODE\C\MSXgl\projects\soccerlgSCC/soccerlg_s6_b3.c:694: if((g_FrameCounter % 2)!=0){ 
    0000140B 21r00r00         [10] 3886 	ld	hl, #_g_FrameCounter
    0000140E CB 46            [12] 3887 	bit	0, (hl)
                                   3888 ;E:\Dropbox\FAUSTO\SVILUPPI\MSX\CODE\C\MSXgl\projects\soccerlgSCC/soccerlg_s6_b3.c:695: return;
    00001410 C2rFCr15         [10] 3889 	jp	NZ,00290$
                                   3890 ;E:\Dropbox\FAUSTO\SVILUPPI\MSX\CODE\C\MSXgl\projects\soccerlgSCC/soccerlg_s6_b3.c:402: i16 dx = (i16)g_Players[playerId].X - (i16)g_Ball.X;
    00001413 DD 7E F1         [19] 3891 	ld	a, -15 (ix)
    00001416 C6 02            [ 7] 3892 	add	a, #0x02
    00001418 DD 77 F7         [19] 3893 	ld	-9 (ix), a
    0000141B DD 7E F2         [19] 3894 	ld	a, -14 (ix)
    0000141E CE 00            [ 7] 3895 	adc	a, #0x00
    00001420 DD 77 F8         [19] 3896 	ld	-8 (ix), a
                                   3897 ;E:\Dropbox\FAUSTO\SVILUPPI\MSX\CODE\C\MSXgl\projects\soccerlgSCC/soccerlg_s6_b3.c:700: if (direction <= 8) {
    00001423 3E 08            [ 7] 3898 	ld	a, #0x08
    00001425 DD 96 FF         [19] 3899 	sub	a, -1 (ix)
    00001428 DArFDr14         [10] 3900 	jp	C, 00277$
                                   3901 ;E:\Dropbox\FAUSTO\SVILUPPI\MSX\CODE\C\MSXgl\projects\soccerlgSCC/soccerlg_s6_b3.c:701: g_Players[playerId].X += k_MoveDX[direction];
    0000142B DD 6E F7         [19] 3902 	ld	l, -9 (ix)
    0000142E DD 66 F8         [19] 3903 	ld	h, -8 (ix)
    00001431 7E               [ 7] 3904 	ld	a, (hl)
    00001432 DD 77 FB         [19] 3905 	ld	-5 (ix), a
    00001435 23               [ 6] 3906 	inc	hl
    00001436 7E               [ 7] 3907 	ld	a, (hl)
    00001437 DD 77 FC         [19] 3908 	ld	-4 (ix), a
    0000143A DD 7E FF         [19] 3909 	ld	a, -1 (ix)
    0000143D C6r01            [ 7] 3910 	add	a, #<(_TickTeamJoystick_k_MoveDX_131075_1321)
    0000143F DD 77 FD         [19] 3911 	ld	-3 (ix), a
    00001442 3E 00            [ 7] 3912 	ld	a, #0x00
    00001444 CEs16            [ 7] 3913 	adc	a, #>(_TickTeamJoystick_k_MoveDX_131075_1321)
    00001446 DD 77 FE         [19] 3914 	ld	-2 (ix), a
    00001449 DD 6E FD         [19] 3915 	ld	l, -3 (ix)
    0000144C DD 66 FE         [19] 3916 	ld	h, -2 (ix)
    0000144F 7E               [ 7] 3917 	ld	a, (hl)
    00001450 DD 77 FE         [19] 3918 	ld	-2 (ix), a
    00001453 DD 77 FD         [19] 3919 	ld	-3 (ix), a
    00001456 07               [ 4] 3920 	rlca
    00001457 9F               [ 4] 3921 	sbc	a, a
    00001458 DD 77 FE         [19] 3922 	ld	-2 (ix), a
    0000145B DD 7E FB         [19] 3923 	ld	a, -5 (ix)
    0000145E DD 77 F9         [19] 3924 	ld	-7 (ix), a
    00001461 DD 7E FC         [19] 3925 	ld	a, -4 (ix)
    00001464 DD 77 FA         [19] 3926 	ld	-6 (ix), a
    00001467 DD 7E FD         [19] 3927 	ld	a, -3 (ix)
    0000146A DD 77 FB         [19] 3928 	ld	-5 (ix), a
    0000146D DD 7E FE         [19] 3929 	ld	a, -2 (ix)
    00001470 DD 77 FC         [19] 3930 	ld	-4 (ix), a
    00001473 DD 7E F9         [19] 3931 	ld	a, -7 (ix)
    00001476 DD 86 FB         [19] 3932 	add	a, -5 (ix)
    00001479 DD 77 FD         [19] 3933 	ld	-3 (ix), a
    0000147C DD 7E FA         [19] 3934 	ld	a, -6 (ix)
    0000147F DD 8E FC         [19] 3935 	adc	a, -4 (ix)
    00001482 DD 77 FE         [19] 3936 	ld	-2 (ix), a
    00001485 DD 6E F7         [19] 3937 	ld	l, -9 (ix)
    00001488 DD 66 F8         [19] 3938 	ld	h, -8 (ix)
    0000148B DD 7E FD         [19] 3939 	ld	a, -3 (ix)
    0000148E 77               [ 7] 3940 	ld	(hl), a
    0000148F 23               [ 6] 3941 	inc	hl
    00001490 DD 7E FE         [19] 3942 	ld	a, -2 (ix)
    00001493 77               [ 7] 3943 	ld	(hl), a
                                   3944 ;E:\Dropbox\FAUSTO\SVILUPPI\MSX\CODE\C\MSXgl\projects\soccerlgSCC/soccerlg_s6_b3.c:702: g_Players[playerId].Y += k_MoveDY[direction];
    00001494 DD 6E F1         [19] 3945 	ld	l, -15 (ix)
    00001497 DD 66 F2         [19] 3946 	ld	h, -14 (ix)
    0000149A 7E               [ 7] 3947 	ld	a, (hl)
    0000149B DD 77 FB         [19] 3948 	ld	-5 (ix), a
    0000149E 23               [ 6] 3949 	inc	hl
    0000149F 7E               [ 7] 3950 	ld	a, (hl)
    000014A0 DD 77 FC         [19] 3951 	ld	-4 (ix), a
    000014A3 DD 7E FF         [19] 3952 	ld	a, -1 (ix)
    000014A6 C6r0A            [ 7] 3953 	add	a, #<(_TickTeamJoystick_k_MoveDY_131075_1321)
    000014A8 DD 77 FD         [19] 3954 	ld	-3 (ix), a
    000014AB 3E 00            [ 7] 3955 	ld	a, #0x00
    000014AD CEs16            [ 7] 3956 	adc	a, #>(_TickTeamJoystick_k_MoveDY_131075_1321)
    000014AF DD 77 FE         [19] 3957 	ld	-2 (ix), a
    000014B2 DD 6E FD         [19] 3958 	ld	l, -3 (ix)
    000014B5 DD 66 FE         [19] 3959 	ld	h, -2 (ix)
    000014B8 7E               [ 7] 3960 	ld	a, (hl)
    000014B9 DD 77 FE         [19] 3961 	ld	-2 (ix), a
    000014BC DD 77 FD         [19] 3962 	ld	-3 (ix), a
    000014BF 07               [ 4] 3963 	rlca
    000014C0 9F               [ 4] 3964 	sbc	a, a
    000014C1 DD 77 FE         [19] 3965 	ld	-2 (ix), a
    000014C4 DD 7E FB         [19] 3966 	ld	a, -5 (ix)
    000014C7 DD 77 F9         [19] 3967 	ld	-7 (ix), a
    000014CA DD 7E FC         [19] 3968 	ld	a, -4 (ix)
    000014CD DD 77 FA         [19] 3969 	ld	-6 (ix), a
    000014D0 DD 7E FD         [19] 3970 	ld	a, -3 (ix)
    000014D3 DD 77 FB         [19] 3971 	ld	-5 (ix), a
    000014D6 DD 7E FE         [19] 3972 	ld	a, -2 (ix)
    000014D9 DD 77 FC         [19] 3973 	ld	-4 (ix), a
    000014DC DD 7E F9         [19] 3974 	ld	a, -7 (ix)
    000014DF DD 86 FB         [19] 3975 	add	a, -5 (ix)
    000014E2 DD 77 FD         [19] 3976 	ld	-3 (ix), a
    000014E5 DD 7E FA         [19] 3977 	ld	a, -6 (ix)
    000014E8 DD 8E FC         [19] 3978 	adc	a, -4 (ix)
    000014EB DD 77 FE         [19] 3979 	ld	-2 (ix), a
    000014EE DD 6E F1         [19] 3980 	ld	l, -15 (ix)
    000014F1 DD 66 F2         [19] 3981 	ld	h, -14 (ix)
    000014F4 DD 7E FD         [19] 3982 	ld	a, -3 (ix)
    000014F7 77               [ 7] 3983 	ld	(hl), a
    000014F8 23               [ 6] 3984 	inc	hl
    000014F9 DD 7E FE         [19] 3985 	ld	a, -2 (ix)
    000014FC 77               [ 7] 3986 	ld	(hl), a
    000014FD                       3987 00277$:
                                   3988 ;E:\Dropbox\FAUSTO\SVILUPPI\MSX\CODE\C\MSXgl\projects\soccerlgSCC/soccerlg_s6_b3.c:706: if(g_Players[playerId].Y < FIELD_BOUND_Y_TOP) g_Players[playerId].Y = FIELD_BOUND_Y_TOP;
    000014FD DD 6E F1         [19] 3989 	ld	l, -15 (ix)
    00001500 DD 66 F2         [19] 3990 	ld	h, -14 (ix)
    00001503 4E               [ 7] 3991 	ld	c, (hl)
    00001504 23               [ 6] 3992 	inc	hl
    00001505 46               [ 7] 3993 	ld	b, (hl)
    00001506 79               [ 4] 3994 	ld	a, c
    00001507 D6 32            [ 7] 3995 	sub	a, #0x32
    00001509 78               [ 4] 3996 	ld	a, b
    0000150A DE 00            [ 7] 3997 	sbc	a, #0x00
    0000150C 30 0B            [12] 3998 	jr	NC, 00279$
    0000150E DD 6E F1         [19] 3999 	ld	l, -15 (ix)
    00001511 DD 66 F2         [19] 4000 	ld	h, -14 (ix)
    00001514 36 32            [10] 4001 	ld	(hl), #0x32
    00001516 23               [ 6] 4002 	inc	hl
    00001517 36 00            [10] 4003 	ld	(hl), #0x00
    00001519                       4004 00279$:
                                   4005 ;E:\Dropbox\FAUSTO\SVILUPPI\MSX\CODE\C\MSXgl\projects\soccerlgSCC/soccerlg_s6_b3.c:707: if(g_Players[playerId].Y > FIELD_BOUND_Y_BOTTOM) g_Players[playerId].Y = FIELD_BOUND_Y_BOTTOM;
    00001519 DD 6E F1         [19] 4006 	ld	l, -15 (ix)
    0000151C DD 66 F2         [19] 4007 	ld	h, -14 (ix)
    0000151F 4E               [ 7] 4008 	ld	c, (hl)
    00001520 23               [ 6] 4009 	inc	hl
    00001521 46               [ 7] 4010 	ld	b, (hl)
    00001522 3E B3            [ 7] 4011 	ld	a, #0xb3
    00001524 B9               [ 4] 4012 	cp	a, c
    00001525 3E 01            [ 7] 4013 	ld	a, #0x01
    00001527 98               [ 4] 4014 	sbc	a, b
    00001528 30 0B            [12] 4015 	jr	NC, 00281$
    0000152A DD 6E F1         [19] 4016 	ld	l, -15 (ix)
    0000152D DD 66 F2         [19] 4017 	ld	h, -14 (ix)
    00001530 36 B3            [10] 4018 	ld	(hl), #0xb3
    00001532 23               [ 6] 4019 	inc	hl
    00001533 36 01            [10] 4020 	ld	(hl), #0x01
    00001535                       4021 00281$:
                                   4022 ;E:\Dropbox\FAUSTO\SVILUPPI\MSX\CODE\C\MSXgl\projects\soccerlgSCC/soccerlg_s6_b3.c:709: g_Players[playerId].TargetY=g_Players[playerId].Y;
    00001535 DD 7E F1         [19] 4023 	ld	a, -15 (ix)
    00001538 C6 0E            [ 7] 4024 	add	a, #0x0e
    0000153A DD 77 FB         [19] 4025 	ld	-5 (ix), a
    0000153D DD 7E F2         [19] 4026 	ld	a, -14 (ix)
    00001540 CE 00            [ 7] 4027 	adc	a, #0x00
    00001542 DD 77 FC         [19] 4028 	ld	-4 (ix), a
    00001545 DD 6E F1         [19] 4029 	ld	l, -15 (ix)
    00001548 DD 66 F2         [19] 4030 	ld	h, -14 (ix)
    0000154B 7E               [ 7] 4031 	ld	a, (hl)
    0000154C DD 77 FD         [19] 4032 	ld	-3 (ix), a
    0000154F 23               [ 6] 4033 	inc	hl
    00001550 7E               [ 7] 4034 	ld	a, (hl)
    00001551 DD 77 FE         [19] 4035 	ld	-2 (ix), a
    00001554 DD 6E FB         [19] 4036 	ld	l, -5 (ix)
    00001557 DD 66 FC         [19] 4037 	ld	h, -4 (ix)
    0000155A DD 7E FD         [19] 4038 	ld	a, -3 (ix)
    0000155D 77               [ 7] 4039 	ld	(hl), a
    0000155E 23               [ 6] 4040 	inc	hl
    0000155F DD 7E FE         [19] 4041 	ld	a, -2 (ix)
    00001562 77               [ 7] 4042 	ld	(hl), a
                                   4043 ;E:\Dropbox\FAUSTO\SVILUPPI\MSX\CODE\C\MSXgl\projects\soccerlgSCC/soccerlg_s6_b3.c:710: g_Players[playerId].TargetX=g_Players[playerId].X;
    00001563 DD 7E F1         [19] 4044 	ld	a, -15 (ix)
    00001566 C6 10            [ 7] 4045 	add	a, #0x10
    00001568 DD 77 FD         [19] 4046 	ld	-3 (ix), a
    0000156B DD 7E F2         [19] 4047 	ld	a, -14 (ix)
    0000156E CE 00            [ 7] 4048 	adc	a, #0x00
    00001570 DD 77 FE         [19] 4049 	ld	-2 (ix), a
    00001573 DD 6E F7         [19] 4050 	ld	l, -9 (ix)
    00001576 DD 66 F8         [19] 4051 	ld	h, -8 (ix)
    00001579 4E               [ 7] 4052 	ld	c, (hl)
    0000157A 23               [ 6] 4053 	inc	hl
    0000157B 46               [ 7] 4054 	ld	b, (hl)
    0000157C DD 6E FD         [19] 4055 	ld	l, -3 (ix)
    0000157F DD 66 FE         [19] 4056 	ld	h, -2 (ix)
    00001582 71               [ 7] 4057 	ld	(hl), c
    00001583 23               [ 6] 4058 	inc	hl
    00001584 70               [ 7] 4059 	ld	(hl), b
                                   4060 ;E:\Dropbox\FAUSTO\SVILUPPI\MSX\CODE\C\MSXgl\projects\soccerlgSCC/soccerlg_s6_b3.c:511: if(g_Players[playerId].PreviousDirection!=DIRECTION_NONE){
    00001585 DD 7E F1         [19] 4061 	ld	a, -15 (ix)
    00001588 C6 0B            [ 7] 4062 	add	a, #0x0b
    0000158A DD 77 FD         [19] 4063 	ld	-3 (ix), a
    0000158D DD 7E F2         [19] 4064 	ld	a, -14 (ix)
    00001590 CE 00            [ 7] 4065 	adc	a, #0x00
    00001592 DD 77 FE         [19] 4066 	ld	-2 (ix), a
                                   4067 ;E:\Dropbox\FAUSTO\SVILUPPI\MSX\CODE\C\MSXgl\projects\soccerlgSCC/soccerlg_s6_b3.c:711: if(direction==DIRECTION_NONE){
    00001595 DD 7E FF         [19] 4068 	ld	a, -1 (ix)
    00001598 B7               [ 4] 4069 	or	a, a
    00001599 20 3F            [12] 4070 	jr	NZ, 00285$
                                   4071 ;E:\Dropbox\FAUSTO\SVILUPPI\MSX\CODE\C\MSXgl\projects\soccerlgSCC/soccerlg_s6_b3.c:712: g_Players[playerId].Status=PLAYER_STATUS_POSITIONED;
    0000159B DD 6E F3         [19] 4072 	ld	l, -13 (ix)
    0000159E DD 66 F4         [19] 4073 	ld	h, -12 (ix)
    000015A1 36 04            [10] 4074 	ld	(hl), #0x04
    000015A3 23               [ 6] 4075 	inc	hl
    000015A4 36 00            [10] 4076 	ld	(hl), #0x00
                                   4077 ;E:\Dropbox\FAUSTO\SVILUPPI\MSX\CODE\C\MSXgl\projects\soccerlgSCC/soccerlg_s6_b3.c:713: if(g_Players[playerId].PreviousDirection!=DIRECTION_NONE){
    000015A6 DD 6E FD         [19] 4078 	ld	l, -3 (ix)
    000015A9 DD 66 FE         [19] 4079 	ld	h, -2 (ix)
    000015AC 7E               [ 7] 4080 	ld	a, (hl)
    000015AD DD 77 FA         [19] 4081 	ld	-6 (ix), a
    000015B0 B7               [ 4] 4082 	or	a, a
    000015B1 28 31            [12] 4083 	jr	Z, 00286$
                                   4084 ;E:\Dropbox\FAUSTO\SVILUPPI\MSX\CODE\C\MSXgl\projects\soccerlgSCC/soccerlg_s6_b3.c:714: g_Players[playerId].PatternId=CallFnc_U8_P1(8,GetNoMovingPlayerPatternId,g_Players[playerId].PreviousDirection);
    000015B3 DD 7E F1         [19] 4085 	ld	a, -15 (ix)
    000015B6 C6 08            [ 7] 4086 	add	a, #0x08
    000015B8 DD 77 FB         [19] 4087 	ld	-5 (ix), a
    000015BB DD 7E F2         [19] 4088 	ld	a, -14 (ix)
    000015BE CE 00            [ 7] 4089 	adc	a, #0x00
    000015C0 DD 77 FC         [19] 4090 	ld	-4 (ix), a
    000015C3 DD 7E FA         [19] 4091 	ld	a, -6 (ix)
    000015C6 F5               [11] 4092 	push	af
    000015C7 33               [ 6] 4093 	inc	sp
    000015C8 11r00r00         [10] 4094 	ld	de, #_GetNoMovingPlayerPatternId
    000015CB 3E 08            [ 7] 4095 	ld	a, #0x08
    000015CD CDr00r00         [17] 4096 	call	_CallFnc_U8_P1
    000015D0 DD 6E FB         [19] 4097 	ld	l, -5 (ix)
    000015D3 DD 66 FC         [19] 4098 	ld	h, -4 (ix)
    000015D6 77               [ 7] 4099 	ld	(hl), a
    000015D7 C3rE4r15         [10] 4100 	jp	00286$
    000015DA                       4101 00285$:
                                   4102 ;E:\Dropbox\FAUSTO\SVILUPPI\MSX\CODE\C\MSXgl\projects\soccerlgSCC/soccerlg_s6_b3.c:719: g_Players[playerId].Status=PLAYER_STATUS_NONE;
    000015DA DD 6E F3         [19] 4103 	ld	l, -13 (ix)
    000015DD DD 66 F4         [19] 4104 	ld	h, -12 (ix)
    000015E0 AF               [ 4] 4105 	xor	a, a
    000015E1 77               [ 7] 4106 	ld	(hl), a
    000015E2 23               [ 6] 4107 	inc	hl
    000015E3 77               [ 7] 4108 	ld	(hl), a
    000015E4                       4109 00286$:
                                   4110 ;E:\Dropbox\FAUSTO\SVILUPPI\MSX\CODE\C\MSXgl\projects\soccerlgSCC/soccerlg_s6_b3.c:721: g_Players[playerId].Direction=direction;
    000015E4 DD 6E F1         [19] 4111 	ld	l, -15 (ix)
    000015E7 DD 66 F2         [19] 4112 	ld	h, -14 (ix)
    000015EA 11 0A 00         [10] 4113 	ld	de, #0x000a
    000015ED 19               [11] 4114 	add	hl, de
    000015EE DD 7E FF         [19] 4115 	ld	a, -1 (ix)
    000015F1 77               [ 7] 4116 	ld	(hl), a
                                   4117 ;E:\Dropbox\FAUSTO\SVILUPPI\MSX\CODE\C\MSXgl\projects\soccerlgSCC/soccerlg_s6_b3.c:722: g_Players[playerId].PreviousDirection=g_Players[playerId].Direction;
    000015F2 DD 6E FD         [19] 4118 	ld	l, -3 (ix)
    000015F5 DD 66 FE         [19] 4119 	ld	h, -2 (ix)
    000015F8 DD 7E FF         [19] 4120 	ld	a, -1 (ix)
    000015FB 77               [ 7] 4121 	ld	(hl), a
    000015FC                       4122 00290$:
                                   4123 ;E:\Dropbox\FAUSTO\SVILUPPI\MSX\CODE\C\MSXgl\projects\soccerlgSCC/soccerlg_s6_b3.c:726: }
    000015FC DD F9            [10] 4124 	ld	sp, ix
    000015FE DD E1            [14] 4125 	pop	ix
    00001600 C9               [10] 4126 	ret
    00001601                       4127 _TickTeamJoystick_k_MoveDX_131075_1321:
    00001601 00                    4128 	.db #0x00	;  0
    00001602 00                    4129 	.db #0x00	;  0
    00001603 02                    4130 	.db #0x02	;  2
    00001604 02                    4131 	.db #0x02	;  2
    00001605 02                    4132 	.db #0x02	;  2
    00001606 00                    4133 	.db #0x00	;  0
    00001607 FE                    4134 	.db #0xfe	; -2
    00001608 FE                    4135 	.db #0xfe	; -2
    00001609 FE                    4136 	.db #0xfe	; -2
    0000160A                       4137 _TickTeamJoystick_k_MoveDY_131075_1321:
    0000160A 00                    4138 	.db #0x00	;  0
    0000160B FE                    4139 	.db #0xfe	; -2
    0000160C FE                    4140 	.db #0xfe	; -2
    0000160D 00                    4141 	.db #0x00	;  0
    0000160E 02                    4142 	.db #0x02	;  2
    0000160F 02                    4143 	.db #0x02	;  2
    00001610 02                    4144 	.db #0x02	;  2
    00001611 00                    4145 	.db #0x00	;  0
    00001612 FE                    4146 	.db #0xfe	; -2
                                   4147 	.area _SEG6
                                   4148 	.area _INITIALIZER
                                   4149 	.area _CABS (ABS)
