                                      1 ;--------------------------------------------------------
                                      2 ; File Created by SDCC : free open source ANSI-C Compiler
                                      3 ; Version 4.2.0 #13081 (MINGW64)
                                      4 ;--------------------------------------------------------
                                      5 	.module soccerlg_s8_b3
                                      6 	.optsdcc -mz80
                                      7 	
                                      8 ;--------------------------------------------------------
                                      9 ; Public variables in this module
                                     10 ;--------------------------------------------------------
                                     11 	.globl _YSCC_Stop
                                     12 	.globl _YSCC_PlayLoop
                                     13 	.globl _YSCC_Play
                                     14 	.globl _TimeUp
                                     15 	.globl _ShowHeaderInfo
                                     16 	.globl _SetTeamsPresentationSpritesPosition
                                     17 	.globl _ShowField
                                     18 	.globl _V9990_PrintLayerAStringAtPos
                                     19 	.globl _PutBallSprite
                                     20 	.globl _InitPonPonGirls
                                     21 	.globl _V9990_InitPalette
                                     22 	.globl _PutBallOnPlayerFeet
                                     23 	.globl _SetPlayerBallPossession
                                     24 	.globl _GetClosestPlayerToBall
                                     25 	.globl _GetJoystickDirection
                                     26 	.globl _IsTeamJoystickTriggerPressed
                                     27 	.globl _Math_Abs32
                                     28 	.globl _PlayAyFx
                                     29 	.globl _V9990_InitScrollText
                                     30 	.globl _V9990_StopScrollText
                                     31 	.globl _V9990_ClearTextFromLayerA
                                     32 	.globl _PlayPCM
                                     33 	.globl _CallFnc_U8_P2
                                     34 	.globl _CallFnc_U8
                                     35 	.globl _CallFnc_VOID_P1
                                     36 	.globl _CallFnc_VOID
                                     37 	.globl _V9990_LoadButtonsImageData
                                     38 	.globl _V9990_LoadSprites
                                     39 	.globl _V9990_LoadP1LayerB
                                     40 	.globl _V9990_LoadP1LayerA
                                     41 	.globl _V9990_LoadMenuTeamsData
                                     42 	.globl _V9990_WaitSynch
                                     43 	.globl _V9_SetPaletteEntry
                                     44 	.globl _V9_SetScrollingBY
                                     45 	.globl _V9_SetScrollingY
                                     46 	.globl _V9_Peek_CurrentAddr
                                     47 	.globl _V9_Poke16_CurrentAddr
                                     48 	.globl _V9_Poke_CurrentAddr
                                     49 	.globl _V9_WriteVRAM_CurrentAddr
                                     50 	.globl _V9_FillVRAM_CurrentAddr
                                     51 	.globl _V9_SetReadAddress
                                     52 	.globl _V9_SetWriteAddress
                                     53 	.globl _V9_GetRegister
                                     54 	.globl _V9_SetRegister
                                     55 	.globl _g_SLTSL
                                     56 	.globl _g_GRPACY
                                     57 	.globl _g_GRPACX
                                     58 	.globl _g_LOGOPR
                                     59 	.globl _g_CMASK
                                     60 	.globl _g_CLOC
                                     61 	.globl _g_FNKSTR
                                     62 	.globl _g_ATRBYT
                                     63 	.globl _g_BDRCLR
                                     64 	.globl _g_BAKCLR
                                     65 	.globl _g_FORCLR
                                     66 	.globl _g_CSRX
                                     67 	.globl _g_CSRY
                                     68 	.globl _g_CLIKSW
                                     69 	.globl _g_MLTPAT
                                     70 	.globl _g_MLTATR
                                     71 	.globl _g_MLTCGP
                                     72 	.globl _g_MLTCOL
                                     73 	.globl _g_MLTNAM
                                     74 	.globl _g_GRPPAT
                                     75 	.globl _g_GRPATR
                                     76 	.globl _g_GRPCGP
                                     77 	.globl _g_GRPCOL
                                     78 	.globl _g_GRPNAM
                                     79 	.globl _g_T32PAT
                                     80 	.globl _g_T32ATR
                                     81 	.globl _g_T32CGP
                                     82 	.globl _g_T32COL
                                     83 	.globl _g_T32NAM
                                     84 	.globl _g_TXTPAT
                                     85 	.globl _g_TXTATR
                                     86 	.globl _g_TXTCGP
                                     87 	.globl _g_TXTCOL
                                     88 	.globl _g_TXTNAM
                                     89 	.globl _g_CLMLST
                                     90 	.globl _g_CRTCNT
                                     91 	.globl _g_LINLEN
                                     92 	.globl _g_LINL32
                                     93 	.globl _g_LINL40
                                     94 	.globl _g_Data_Palette_Team_BRA
                                     95 	.globl _g_Data_Palette_Team_GBR
                                     96 	.globl _g_Data_Palette_Team_GER
                                     97 	.globl _g_Data_Palette_Team_FRA
                                     98 	.globl _g_Data_Palette_Team_AUS
                                     99 	.globl _g_Data_Palette_Team_ITA
                                    100 	.globl _g_BDOS
                                    101 	.globl _g_MASTER
                                    102 	.globl _g_RAMAD3
                                    103 	.globl _g_RAMAD2
                                    104 	.globl _g_RAMAD1
                                    105 	.globl _g_RAMAD0
                                    106 	.globl _g_BREAKV
                                    107 	.globl _g_DISKVE
                                    108 	.globl _g_KANJTABLE
                                    109 	.globl _g_STRSRC
                                    110 	.globl _g_SUBRID
                                    111 	.globl _g_CHAR_16
                                    112 	.globl _g_MSXMID
                                    113 	.globl _g_MSXVER
                                    114 	.globl _g_ROMVersion
                                    115 	.globl _g_BASRVN
                                    116 	.globl _g_VDP_DW
                                    117 	.globl _g_VDP_DR
                                    118 	.globl _g_CGTABL
                                    119 	.globl _g_SVFFFD
                                    120 	.globl _g_RG27SAV
                                    121 	.globl _g_RG26SAV
                                    122 	.globl _g_RG25SAV
                                    123 	.globl _g_SVFFF8
                                    124 	.globl _g_MINROM
                                    125 	.globl _g_RG23SAV
                                    126 	.globl _g_RG22SAV
                                    127 	.globl _g_RG21SAV
                                    128 	.globl _g_RG20SAV
                                    129 	.globl _g_RG19SAV
                                    130 	.globl _g_RG18SAV
                                    131 	.globl _g_RG17SAV
                                    132 	.globl _g_RG16SAV
                                    133 	.globl _g_RG15SAV
                                    134 	.globl _g_RG14SAV
                                    135 	.globl _g_RG13SAV
                                    136 	.globl _g_RG12SAV
                                    137 	.globl _g_RG11SAV
                                    138 	.globl _g_RG10SAV
                                    139 	.globl _g_RG09SAV
                                    140 	.globl _g_RG08SAV
                                    141 	.globl _g_PROCNM
                                    142 	.globl _g_SLTWRK
                                    143 	.globl _g_SLTATR
                                    144 	.globl _g_SLTTBL
                                    145 	.globl _g_EXPTBL
                                    146 	.globl _g_MNROM
                                    147 	.globl _g_DRWANG
                                    148 	.globl _g_DRWSCL
                                    149 	.globl _g_DRWFLG
                                    150 	.globl _g_GYPOS
                                    151 	.globl _g_GXPOS
                                    152 	.globl _g_BRDATR
                                    153 	.globl _g_CASPRV
                                    154 	.globl _g_OLDSCR
                                    155 	.globl _g_SCRMOD
                                    156 	.globl _g_FLBMEM
                                    157 	.globl _g_KANAMD
                                    158 	.globl _g_KANAST
                                    159 	.globl _g_CAPST
                                    160 	.globl _g_CSTYLE
                                    161 	.globl _g_CSRSW
                                    162 	.globl _g_INSFLG
                                    163 	.globl _g_ESCCNT
                                    164 	.globl _g_GRPHED
                                    165 	.globl _g_WINWID
                                    166 	.globl _g_LOWLIM
                                    167 	.globl _g_INTCNT
                                    168 	.globl _g_INTVAL
                                    169 	.globl _g_JIFFY
                                    170 	.globl _g_PADX
                                    171 	.globl _g_PADY
                                    172 	.globl _g_INTFLG
                                    173 	.globl _g_RTYCNT
                                    174 	.globl _g_TRPTBL
                                    175 	.globl _g_HIMEM
                                    176 	.globl _g_BOTTOM
                                    177 	.globl _g_PATWRK
                                    178 	.globl _g_LINWRK
                                    179 	.globl _g_KEYBUF
                                    180 	.globl _g_NEWKEY
                                    181 	.globl _g_OLDKEY
                                    182 	.globl _g_CLIKFL
                                    183 	.globl _g_ONGSBF
                                    184 	.globl _g_FNKFLG
                                    185 	.globl _g_FNKSWI
                                    186 	.globl _g_CODSAV
                                    187 	.globl _g_FSTPOS
                                    188 	.globl _g_LINTTB
                                    189 	.globl _g_BASROM
                                    190 	.globl _g_ENSTOP
                                    191 	.globl _g_VCBC
                                    192 	.globl _g_VCBB
                                    193 	.globl _g_VCBA
                                    194 	.globl _g_PLYCNT
                                    195 	.globl _g_MUSICF
                                    196 	.globl _g_QUEUEN
                                    197 	.globl _g_MCLPTR
                                    198 	.globl _g_MCLLEN
                                    199 	.globl _g_SAVVOL
                                    200 	.globl _g_VOICEN
                                    201 	.globl _g_SAVSP
                                    202 	.globl _g_PRSCNT
                                    203 	.globl _g_LSTMOD
                                    204 	.globl _g_LSTCOM
                                    205 	.globl _g_COMMSK
                                    206 	.globl _g_ESTBLS
                                    207 	.globl _g_FLAGS
                                    208 	.globl _g_ERRORS
                                    209 	.globl _g_DATCNT
                                    210 	.globl _g_DEVNUM
                                    211 	.globl _g_OLDINT
                                    212 	.globl _g_OLDSTT
                                    213 	.globl _g_MEXBIh
                                    214 	.globl _g_RSIQLN
                                    215 	.globl _g_RSFCB
                                    216 	.globl _g_TOCNT
                                    217 	.globl _g_RSTMP
                                    218 	.globl _g_YSAVE
                                    219 	.globl _g_XSAVE
                                    220 	.globl _g_NORUSE
                                    221 	.globl _g_MODE
                                    222 	.globl _g_ROMA
                                    223 	.globl _g_CHRCNT
                                    224 	.globl _g_EXBRSA
                                    225 	.globl _g_AVCSAV
                                    226 	.globl _g_ACPAGE
                                    227 	.globl _g_DPPAGE
                                    228 	.globl _g_RS2IQ
                                    229 	.globl _g_VOICCQ
                                    230 	.globl _g_VOICBQ
                                    231 	.globl _g_VOICAQ
                                    232 	.globl _g_QUEBAK
                                    233 	.globl _g_QUETAB
                                    234 	.globl _g_ASPCT2
                                    235 	.globl _g_ASPCT1
                                    236 	.globl _g_HEADER
                                    237 	.globl _g_HIGH
                                    238 	.globl _g_LOW
                                    239 	.globl _g_CS240
                                    240 	.globl _g_CS120
                                    241 	.globl _g_GETPNT
                                    242 	.globl _g_PUTPNT
                                    243 	.globl _g_REPCNT
                                    244 	.globl _g_SCNCNT
                                    245 	.globl _g_FRCNEW
                                    246 	.globl _g_QUEUES
                                    247 	.globl _g_MINUPD
                                    248 	.globl _g_MAXUPD
                                    249 	.globl _g_TRGFLG
                                    250 	.globl _g_STATFL
                                    251 	.globl _g_RG7SAV
                                    252 	.globl _g_RG6SAV
                                    253 	.globl _g_RG5SAV
                                    254 	.globl _g_RG4SAV
                                    255 	.globl _g_RG3SAV
                                    256 	.globl _g_RG2SAV
                                    257 	.globl _g_RG1SAV
                                    258 	.globl _g_RG0SAV
                                    259 	.globl _g_CNSDFG
                                    260 	.globl _g_USRTAB
                                    261 	.globl _g_CLPRIM
                                    262 	.globl _g_WRPRIM
                                    263 	.globl _g_RDPRIM
                                    264 	.globl _SelectTeam
                                    265 	.globl _MenuSpriteBlinking
                                    266 	.globl _ResetPlayersInfo
                                    267 	.globl _ShowMenu
                                    268 	.globl _SetTeam1Palette
                                    269 	.globl _SetTeam2Palette
                                    270 	.globl _GetTeamPaletteById
                                    271 	.globl _GameStart
                                    272 	.globl _GetNoMovingPlayerPatternId
                                    273 	.globl _PerformShot
                                    274 	.globl _TickBallFlying
                                    275 	.globl _TickActiveFieldZone
                                    276 	.globl _TickUpdateTime
                                    277 	.globl _BallInGoal
                                    278 ;--------------------------------------------------------
                                    279 ; special function registers
                                    280 ;--------------------------------------------------------
                         000000A8   281 _g_PortPrimarySlot	=	0x00a8
                         000000A9   282 _g_PortReadKeyboard	=	0x00a9
                         000000AA   283 _g_PortAccessKeyboard	=	0x00aa
                         000000AB   284 _g_PortControl	=	0x00ab
                         00000098   285 _g_VDP_DataPort	=	0x0098
                         00000099   286 _g_VDP_RegPort	=	0x0099
                         00000099   287 _g_VDP_AddrPort	=	0x0099
                         00000099   288 _g_VDP_StatPort	=	0x0099
                         000000A0   289 _g_PSG_RegPort	=	0x00a0
                         000000A1   290 _g_PSG_DataPort	=	0x00a1
                         000000A2   291 _g_PSG_StatPort	=	0x00a2
                         00000010   292 _g_PSG_Ext_RegPort	=	0x0010
                         00000011   293 _g_PSG_Ext_DataPort	=	0x0011
                         00000012   294 _g_PSG_Ext_StatPort	=	0x0012
                         0000007C   295 _g_MSXMusic_IndexPort	=	0x007c
                         0000007D   296 _g_MSXMusic_DataPort	=	0x007d
                         000000C0   297 _g_MSXAudio_IndexPort	=	0x00c0
                         000000C1   298 _g_MSXAudio_DataPort	=	0x00c1
                         000000C2   299 _g_MSXAudio_IndexPort2	=	0x00c2
                         000000C3   300 _g_MSXAudio_DataPort2	=	0x00c3
                         000000B4   301 _g_RTC_AddrPort	=	0x00b4
                         000000B5   302 _g_RTC_DataPort	=	0x00b5
                         00000060   303 _g_V9_VRAMPort	=	0x0060
                         00000061   304 _g_V9_PalettePort	=	0x0061
                         00000062   305 _g_V9_CmdDataPort	=	0x0062
                         00000063   306 _g_V9_RegDataPort	=	0x0063
                         00000064   307 _g_V9_RegSelectPort	=	0x0064
                         00000065   308 _g_V9_SatusPort	=	0x0065
                         00000066   309 _g_V9_IntFlagPort	=	0x0066
                         00000067   310 _g_V9_SysCtrlPort	=	0x0067
                         00000068   311 _g_V9_KanjiAddrLPort	=	0x0068
                         00000069   312 _g_V9_KanjiAddrHPort	=	0x0069
                         00000069   313 _g_V9_KanjiDataPort	=	0x0069
                         0000006A   314 _g_V9_Kanji2AddrLPort	=	0x006a
                         0000006B   315 _g_V9_Kanji2AddrHPort	=	0x006b
                         0000006B   316 _g_V9_Kanji2DataPort	=	0x006b
                         0000006F   317 _g_V9_OutputCtrPort	=	0x006f
                                    318 ;--------------------------------------------------------
                                    319 ; ram data
                                    320 ;--------------------------------------------------------
                                    321 	.area _DATA
                         0000F3AE   322 _g_LINL40	=	0xf3ae
                         0000F3AF   323 _g_LINL32	=	0xf3af
                         0000F3B0   324 _g_LINLEN	=	0xf3b0
                         0000F3B1   325 _g_CRTCNT	=	0xf3b1
                         0000F3B2   326 _g_CLMLST	=	0xf3b2
                         0000F3B3   327 _g_TXTNAM	=	0xf3b3
                         0000F3B5   328 _g_TXTCOL	=	0xf3b5
                         0000F3B7   329 _g_TXTCGP	=	0xf3b7
                         0000F3B9   330 _g_TXTATR	=	0xf3b9
                         0000F3BB   331 _g_TXTPAT	=	0xf3bb
                         0000F3BD   332 _g_T32NAM	=	0xf3bd
                         0000F3BF   333 _g_T32COL	=	0xf3bf
                         0000F3C1   334 _g_T32CGP	=	0xf3c1
                         0000F3C3   335 _g_T32ATR	=	0xf3c3
                         0000F3C5   336 _g_T32PAT	=	0xf3c5
                         0000F3C7   337 _g_GRPNAM	=	0xf3c7
                         0000F3C9   338 _g_GRPCOL	=	0xf3c9
                         0000F3CB   339 _g_GRPCGP	=	0xf3cb
                         0000F3CD   340 _g_GRPATR	=	0xf3cd
                         0000F3CF   341 _g_GRPPAT	=	0xf3cf
                         0000F3D1   342 _g_MLTNAM	=	0xf3d1
                         0000F3D3   343 _g_MLTCOL	=	0xf3d3
                         0000F3D5   344 _g_MLTCGP	=	0xf3d5
                         0000F3D7   345 _g_MLTATR	=	0xf3d7
                         0000F3D9   346 _g_MLTPAT	=	0xf3d9
                         0000F3DB   347 _g_CLIKSW	=	0xf3db
                         0000F3DC   348 _g_CSRY	=	0xf3dc
                         0000F3DD   349 _g_CSRX	=	0xf3dd
                         0000F3E9   350 _g_FORCLR	=	0xf3e9
                         0000F3EA   351 _g_BAKCLR	=	0xf3ea
                         0000F3EB   352 _g_BDRCLR	=	0xf3eb
                         0000F3F2   353 _g_ATRBYT	=	0xf3f2
                         0000F87F   354 _g_FNKSTR	=	0xf87f
                         0000F92A   355 _g_CLOC	=	0xf92a
                         0000F92C   356 _g_CMASK	=	0xf92c
                         0000FB02   357 _g_LOGOPR	=	0xfb02
                         0000FCB7   358 _g_GRPACX	=	0xfcb7
                         0000FCB9   359 _g_GRPACY	=	0xfcb9
                         0000FFFF   360 _g_SLTSL	=	0xffff
                                    361 ;--------------------------------------------------------
                                    362 ; ram data
                                    363 ;--------------------------------------------------------
                                    364 	.area _INITIALIZED
                                    365 ;--------------------------------------------------------
                                    366 ; absolute external ram data
                                    367 ;--------------------------------------------------------
                                    368 	.area _DABS (ABS)
                                    369 ;--------------------------------------------------------
                                    370 ; global & static initialisations
                                    371 ;--------------------------------------------------------
                                    372 	.area _HOME
                                    373 	.area _GSINIT
                                    374 	.area _GSFINAL
                                    375 	.area _GSINIT
                                    376 ;--------------------------------------------------------
                                    377 ; Home
                                    378 ;--------------------------------------------------------
                                    379 	.area _HOME
                                    380 	.area _HOME
                                    381 ;--------------------------------------------------------
                                    382 ; code
                                    383 ;--------------------------------------------------------
                                    384 	.area _SEG8
                                    385 ;E:\Dropbox\FAUSTO\SVILUPPI\MSX\CODE\C\MSXgl\projects\soccerlgSCC/soccerlg_s8_b3.c:160: u8 SelectTeam(u8 cursorPatternId, u8 excludeIndex) {
                                    386 ;	---------------------------------
                                    387 ; Function SelectTeam
                                    388 ; ---------------------------------
    00000000                        389 _SelectTeam::
    00000000 DD E5            [15]  390 	push	ix
    00000002 DD 21 00 00      [14]  391 	ld	ix,#0
    00000006 DD 39            [15]  392 	add	ix,sp
    00000008 FD 21 F6 FF      [14]  393 	ld	iy, #-10
    0000000C FD 39            [15]  394 	add	iy, sp
    0000000E FD F9            [10]  395 	ld	sp, iy
    00000010 DD 77 FF         [19]  396 	ld	-1 (ix), a
    00000013 DD 75 FE         [19]  397 	ld	-2 (ix), l
                                    398 ;E:\Dropbox\FAUSTO\SVILUPPI\MSX\CODE\C\MSXgl\projects\soccerlgSCC/soccerlg_s8_b3.c:162: u8 currentIdx = 0;
    00000016 DD 36 FA 00      [19]  399 	ld	-6 (ix), #0x00
                                    400 ;E:\Dropbox\FAUSTO\SVILUPPI\MSX\CODE\C\MSXgl\projects\soccerlgSCC/soccerlg_s8_b3.c:163: if (currentIdx == excludeIndex) currentIdx++;
    0000001A DD 7E FE         [19]  401 	ld	a, -2 (ix)
    0000001D B7               [ 4]  402 	or	a, a
    0000001E 20 04            [12]  403 	jr	NZ, 00102$
    00000020 DD 36 FA 01      [19]  404 	ld	-6 (ix), #0x01
    00000024                        405 00102$:
                                    406 ;E:\Dropbox\FAUSTO\SVILUPPI\MSX\CODE\C\MSXgl\projects\soccerlgSCC/soccerlg_s8_b3.c:166: u8 oldDir = DIRECTION_NONE;
    00000024 DD 36 FD 00      [19]  407 	ld	-3 (ix), #0x00
                                    408 ;E:\Dropbox\FAUSTO\SVILUPPI\MSX\CODE\C\MSXgl\projects\soccerlgSCC/soccerlg_s8_b3.c:168: bool oldTrigger = true; // Force release first
    00000028 DD 36 FB 01      [19]  409 	ld	-5 (ix), #0x01
                                    410 ;E:\Dropbox\FAUSTO\SVILUPPI\MSX\CODE\C\MSXgl\projects\soccerlgSCC/soccerlg_s8_b3.c:170: while (true) {
    0000002C                        411 00143$:
                                    412 ;E:\Dropbox\FAUSTO\SVILUPPI\MSX\CODE\C\MSXgl\projects\soccerlgSCC/soccerlg_s8_b3.c:171: V9990_WaitSynch();
    0000002C CDr00r00         [17]  413 	call	_V9990_WaitSynch
                                    414 ;E:\Dropbox\FAUSTO\SVILUPPI\MSX\CODE\C\MSXgl\projects\soccerlgSCC/soccerlg_s8_b3.c:172: dir=CallFnc_U8(4,GetJoystickDirection);
    0000002F 11r00r00         [10]  415 	ld	de, #_GetJoystickDirection
    00000032 3E 04            [ 7]  416 	ld	a, #0x04
    00000034 CDr00r00         [17]  417 	call	_CallFnc_U8
    00000037 4F               [ 4]  418 	ld	c, a
                                    419 ;E:\Dropbox\FAUSTO\SVILUPPI\MSX\CODE\C\MSXgl\projects\soccerlgSCC/soccerlg_s8_b3.c:174: trigger=CallFnc_U8(4,IsTeamJoystickTriggerPressed);
    00000038 C5               [11]  420 	push	bc
    00000039 11r00r00         [10]  421 	ld	de, #_IsTeamJoystickTriggerPressed
    0000003C 3E 04            [ 7]  422 	ld	a, #0x04
    0000003E CDr00r00         [17]  423 	call	_CallFnc_U8
    00000041 C1               [10]  424 	pop	bc
    00000042 DD 77 FC         [19]  425 	ld	-4 (ix), a
                                    426 ;E:\Dropbox\FAUSTO\SVILUPPI\MSX\CODE\C\MSXgl\projects\soccerlgSCC/soccerlg_s8_b3.c:176: if (dir != DIRECTION_NONE && dir != oldDir) {
    00000045 79               [ 4]  427 	ld	a, c
    00000046 B7               [ 4]  428 	or	a, a
    00000047 CAr22r01         [10]  429 	jp	Z, 00137$
    0000004A 79               [ 4]  430 	ld	a, c
    0000004B DD 96 FD         [19]  431 	sub	a, -3 (ix)
    0000004E CAr22r01         [10]  432 	jp	Z,00137$
                                    433 ;E:\Dropbox\FAUSTO\SVILUPPI\MSX\CODE\C\MSXgl\projects\soccerlgSCC/soccerlg_s8_b3.c:177: u8 nextIdx = currentIdx;
    00000051 DD 46 FA         [19]  434 	ld	b, -6 (ix)
                                    435 ;E:\Dropbox\FAUSTO\SVILUPPI\MSX\CODE\C\MSXgl\projects\soccerlgSCC/soccerlg_s8_b3.c:179: if (dir == DIRECTION_RIGHT) {
    00000054 79               [ 4]  436 	ld	a, c
    00000055 D6 03            [ 7]  437 	sub	a, #0x03
    00000057 3E 01            [ 7]  438 	ld	a, #0x01
    00000059 28 01            [12]  439 	jr	Z, 00248$
    0000005B AF               [ 4]  440 	xor	a, a
    0000005C                        441 00248$:
    0000005C DD 77 FD         [19]  442 	ld	-3 (ix), a
    0000005F B7               [ 4]  443 	or	a, a
    00000060 28 1F            [12]  444 	jr	Z, 00120$
                                    445 ;E:\Dropbox\FAUSTO\SVILUPPI\MSX\CODE\C\MSXgl\projects\soccerlgSCC/soccerlg_s8_b3.c:180: if ((currentIdx % 3) < 2) nextIdx++;
    00000062 DD 6E FA         [19]  446 	ld	l, -6 (ix)
                                    447 ;	spillPairReg hl
                                    448 ;	spillPairReg hl
    00000065 26 00            [ 7]  449 	ld	h, #0x00
                                    450 ;	spillPairReg hl
                                    451 ;	spillPairReg hl
    00000067 C5               [11]  452 	push	bc
    00000068 11 03 00         [10]  453 	ld	de, #0x0003
    0000006B CDr00r00         [17]  454 	call	__modsint
    0000006E C1               [10]  455 	pop	bc
    0000006F 7B               [ 4]  456 	ld	a, e
    00000070 D6 02            [ 7]  457 	sub	a, #0x02
    00000072 7A               [ 4]  458 	ld	a, d
    00000073 17               [ 4]  459 	rla
    00000074 3F               [ 4]  460 	ccf
    00000075 1F               [ 4]  461 	rra
    00000076 DE 80            [ 7]  462 	sbc	a, #0x80
    00000078 30 51            [12]  463 	jr	NC, 00121$
    0000007A DD 46 FA         [19]  464 	ld	b, -6 (ix)
    0000007D 04               [ 4]  465 	inc	b
    0000007E C3rCBr00         [10]  466 	jp	00121$
    00000081                        467 00120$:
                                    468 ;E:\Dropbox\FAUSTO\SVILUPPI\MSX\CODE\C\MSXgl\projects\soccerlgSCC/soccerlg_s8_b3.c:181: } else if (dir == DIRECTION_LEFT) {
    00000081 79               [ 4]  469 	ld	a, c
    00000082 D6 07            [ 7]  470 	sub	a, #0x07
    00000084 20 1F            [12]  471 	jr	NZ, 00117$
                                    472 ;E:\Dropbox\FAUSTO\SVILUPPI\MSX\CODE\C\MSXgl\projects\soccerlgSCC/soccerlg_s8_b3.c:182: if ((currentIdx % 3) > 0) nextIdx--;
    00000086 DD 6E FA         [19]  473 	ld	l, -6 (ix)
                                    474 ;	spillPairReg hl
                                    475 ;	spillPairReg hl
    00000089 26 00            [ 7]  476 	ld	h, #0x00
                                    477 ;	spillPairReg hl
                                    478 ;	spillPairReg hl
    0000008B C5               [11]  479 	push	bc
    0000008C 11 03 00         [10]  480 	ld	de, #0x0003
    0000008F CDr00r00         [17]  481 	call	__modsint
    00000092 C1               [10]  482 	pop	bc
    00000093 AF               [ 4]  483 	xor	a, a
    00000094 BB               [ 4]  484 	cp	a, e
    00000095 9A               [ 4]  485 	sbc	a, d
    00000096 E2r9Br00         [10]  486 	jp	PO, 00251$
    00000099 EE 80            [ 7]  487 	xor	a, #0x80
    0000009B                        488 00251$:
    0000009B F2rCBr00         [10]  489 	jp	P, 00121$
    0000009E DD 46 FA         [19]  490 	ld	b, -6 (ix)
    000000A1 05               [ 4]  491 	dec	b
    000000A2 C3rCBr00         [10]  492 	jp	00121$
    000000A5                        493 00117$:
                                    494 ;E:\Dropbox\FAUSTO\SVILUPPI\MSX\CODE\C\MSXgl\projects\soccerlgSCC/soccerlg_s8_b3.c:183: } else if (dir == DIRECTION_UP) {
    000000A5 79               [ 4]  495 	ld	a, c
    000000A6 3D               [ 4]  496 	dec	a
    000000A7 20 10            [12]  497 	jr	NZ, 00114$
                                    498 ;E:\Dropbox\FAUSTO\SVILUPPI\MSX\CODE\C\MSXgl\projects\soccerlgSCC/soccerlg_s8_b3.c:184: if (currentIdx >= 3) nextIdx -= 3;
    000000A9 DD 7E FA         [19]  499 	ld	a, -6 (ix)
    000000AC D6 03            [ 7]  500 	sub	a, #0x03
    000000AE 38 1B            [12]  501 	jr	C, 00121$
    000000B0 DD 7E FA         [19]  502 	ld	a, -6 (ix)
    000000B3 C6 FD            [ 7]  503 	add	a, #0xfd
    000000B5 47               [ 4]  504 	ld	b, a
    000000B6 C3rCBr00         [10]  505 	jp	00121$
    000000B9                        506 00114$:
                                    507 ;E:\Dropbox\FAUSTO\SVILUPPI\MSX\CODE\C\MSXgl\projects\soccerlgSCC/soccerlg_s8_b3.c:185: } else if (dir == DIRECTION_DOWN) {
    000000B9 79               [ 4]  508 	ld	a, c
    000000BA D6 05            [ 7]  509 	sub	a, #0x05
    000000BC 20 0D            [12]  510 	jr	NZ, 00121$
                                    511 ;E:\Dropbox\FAUSTO\SVILUPPI\MSX\CODE\C\MSXgl\projects\soccerlgSCC/soccerlg_s8_b3.c:186: if (currentIdx < 3) nextIdx += 3;
    000000BE DD 7E FA         [19]  512 	ld	a, -6 (ix)
    000000C1 D6 03            [ 7]  513 	sub	a, #0x03
    000000C3 30 06            [12]  514 	jr	NC, 00121$
    000000C5 DD 7E FA         [19]  515 	ld	a, -6 (ix)
    000000C8 C6 03            [ 7]  516 	add	a, #0x03
    000000CA 47               [ 4]  517 	ld	b, a
    000000CB                        518 00121$:
                                    519 ;E:\Dropbox\FAUSTO\SVILUPPI\MSX\CODE\C\MSXgl\projects\soccerlgSCC/soccerlg_s8_b3.c:189: if (nextIdx == excludeIndex) {
    000000CB DD 7E FE         [19]  520 	ld	a, -2 (ix)
    000000CE 90               [ 4]  521 	sub	a, b
    000000CF 20 4E            [12]  522 	jr	NZ, 00135$
                                    523 ;E:\Dropbox\FAUSTO\SVILUPPI\MSX\CODE\C\MSXgl\projects\soccerlgSCC/soccerlg_s8_b3.c:190: if (dir == DIRECTION_RIGHT) {
    000000D1 DD 7E FD         [19]  524 	ld	a, -3 (ix)
    000000D4 B7               [ 4]  525 	or	a, a
    000000D5 28 20            [12]  526 	jr	Z, 00132$
                                    527 ;E:\Dropbox\FAUSTO\SVILUPPI\MSX\CODE\C\MSXgl\projects\soccerlgSCC/soccerlg_s8_b3.c:191: if ((nextIdx % 3) < 2) nextIdx++; else nextIdx = currentIdx;
    000000D7 68               [ 4]  528 	ld	l, b
                                    529 ;	spillPairReg hl
                                    530 ;	spillPairReg hl
    000000D8 26 00            [ 7]  531 	ld	h, #0x00
                                    532 ;	spillPairReg hl
                                    533 ;	spillPairReg hl
    000000DA C5               [11]  534 	push	bc
    000000DB 11 03 00         [10]  535 	ld	de, #0x0003
    000000DE CDr00r00         [17]  536 	call	__modsint
    000000E1 C1               [10]  537 	pop	bc
    000000E2 7B               [ 4]  538 	ld	a, e
    000000E3 D6 02            [ 7]  539 	sub	a, #0x02
    000000E5 7A               [ 4]  540 	ld	a, d
    000000E6 17               [ 4]  541 	rla
    000000E7 3F               [ 4]  542 	ccf
    000000E8 1F               [ 4]  543 	rra
    000000E9 DE 80            [ 7]  544 	sbc	a, #0x80
    000000EB 30 04            [12]  545 	jr	NC, 00123$
    000000ED 04               [ 4]  546 	inc	b
    000000EE C3r1Fr01         [10]  547 	jp	00135$
    000000F1                        548 00123$:
    000000F1 DD 46 FA         [19]  549 	ld	b, -6 (ix)
    000000F4 C3r1Fr01         [10]  550 	jp	00135$
    000000F7                        551 00132$:
                                    552 ;E:\Dropbox\FAUSTO\SVILUPPI\MSX\CODE\C\MSXgl\projects\soccerlgSCC/soccerlg_s8_b3.c:192: } else if (dir == DIRECTION_LEFT) {
    000000F7 79               [ 4]  553 	ld	a, c
    000000F8 D6 07            [ 7]  554 	sub	a, #0x07
    000000FA 20 20            [12]  555 	jr	NZ, 00129$
                                    556 ;E:\Dropbox\FAUSTO\SVILUPPI\MSX\CODE\C\MSXgl\projects\soccerlgSCC/soccerlg_s8_b3.c:193: if ((nextIdx % 3) > 0) nextIdx--; else nextIdx = currentIdx;
    000000FC 68               [ 4]  557 	ld	l, b
                                    558 ;	spillPairReg hl
                                    559 ;	spillPairReg hl
    000000FD 26 00            [ 7]  560 	ld	h, #0x00
                                    561 ;	spillPairReg hl
                                    562 ;	spillPairReg hl
    000000FF C5               [11]  563 	push	bc
    00000100 11 03 00         [10]  564 	ld	de, #0x0003
    00000103 CDr00r00         [17]  565 	call	__modsint
    00000106 C1               [10]  566 	pop	bc
    00000107 AF               [ 4]  567 	xor	a, a
    00000108 BB               [ 4]  568 	cp	a, e
    00000109 9A               [ 4]  569 	sbc	a, d
    0000010A E2r0Fr01         [10]  570 	jp	PO, 00260$
    0000010D EE 80            [ 7]  571 	xor	a, #0x80
    0000010F                        572 00260$:
    0000010F F2r16r01         [10]  573 	jp	P, 00126$
    00000112 05               [ 4]  574 	dec	b
    00000113 C3r1Fr01         [10]  575 	jp	00135$
    00000116                        576 00126$:
    00000116 DD 46 FA         [19]  577 	ld	b, -6 (ix)
    00000119 C3r1Fr01         [10]  578 	jp	00135$
    0000011C                        579 00129$:
                                    580 ;E:\Dropbox\FAUSTO\SVILUPPI\MSX\CODE\C\MSXgl\projects\soccerlgSCC/soccerlg_s8_b3.c:195: nextIdx = currentIdx;
    0000011C DD 46 FA         [19]  581 	ld	b, -6 (ix)
    0000011F                        582 00135$:
                                    583 ;E:\Dropbox\FAUSTO\SVILUPPI\MSX\CODE\C\MSXgl\projects\soccerlgSCC/soccerlg_s8_b3.c:198: currentIdx = nextIdx;
    0000011F DD 70 FA         [19]  584 	ld	-6 (ix), b
    00000122                        585 00137$:
                                    586 ;E:\Dropbox\FAUSTO\SVILUPPI\MSX\CODE\C\MSXgl\projects\soccerlgSCC/soccerlg_s8_b3.c:200: oldDir = dir;
    00000122 DD 71 FD         [19]  587 	ld	-3 (ix), c
                                    588 ;E:\Dropbox\FAUSTO\SVILUPPI\MSX\CODE\C\MSXgl\projects\soccerlgSCC/soccerlg_s8_b3.c:202: if (trigger && !oldTrigger) {
    00000125 DD 7E FC         [19]  589 	ld	a, -4 (ix)
    00000128 B7               [ 4]  590 	or	a, a
    00000129 28 11            [12]  591 	jr	Z, 00140$
    0000012B DD 7E FB         [19]  592 	ld	a, -5 (ix)
    0000012E B7               [ 4]  593 	or	a, a
    0000012F 20 0B            [12]  594 	jr	NZ, 00140$
                                    595 ;E:\Dropbox\FAUSTO\SVILUPPI\MSX\CODE\C\MSXgl\projects\soccerlgSCC/soccerlg_s8_b3.c:203: PlayAyFx(AYFX_BALL);
    00000131 3E 05            [ 7]  596 	ld	a, #0x05
    00000133 CDr00r00         [17]  597 	call	_PlayAyFx
                                    598 ;E:\Dropbox\FAUSTO\SVILUPPI\MSX\CODE\C\MSXgl\projects\soccerlgSCC/soccerlg_s8_b3.c:204: return currentIdx;
    00000136 DD 7E FA         [19]  599 	ld	a, -6 (ix)
    00000139 C3r9Br01         [10]  600 	jp	00147$
    0000013C                        601 00140$:
                                    602 ;E:\Dropbox\FAUSTO\SVILUPPI\MSX\CODE\C\MSXgl\projects\soccerlgSCC/soccerlg_s8_b3.c:206: oldTrigger = trigger;
    0000013C DD 7E FC         [19]  603 	ld	a, -4 (ix)
    0000013F DD 77 FB         [19]  604 	ld	-5 (ix), a
                                    605 ;E:\Dropbox\FAUSTO\SVILUPPI\MSX\CODE\C\MSXgl\projects\soccerlgSCC/soccerlg_s8_b3.c:209: attr.Y = g_TeamPos[currentIdx].y+2;
    00000142 DD 6E FA         [19]  606 	ld	l, -6 (ix)
                                    607 ;	spillPairReg hl
                                    608 ;	spillPairReg hl
    00000145 26 00            [ 7]  609 	ld	h, #0x00
                                    610 ;	spillPairReg hl
                                    611 ;	spillPairReg hl
    00000147 29               [11]  612 	add	hl, hl
    00000148 29               [11]  613 	add	hl, hl
    00000149 01rC0r02         [10]  614 	ld	bc,#_g_TeamPos
    0000014C 09               [11]  615 	add	hl,bc
    0000014D EB               [ 4]  616 	ex	de, hl
    0000014E 4B               [ 4]  617 	ld	c, e
    0000014F 42               [ 4]  618 	ld	b, d
    00000150 03               [ 6]  619 	inc	bc
    00000151 03               [ 6]  620 	inc	bc
    00000152 0A               [ 7]  621 	ld	a, (bc)
    00000153 C6 02            [ 7]  622 	add	a, #0x02
    00000155 DD 77 F6         [19]  623 	ld	-10 (ix), a
                                    624 ;E:\Dropbox\FAUSTO\SVILUPPI\MSX\CODE\C\MSXgl\projects\soccerlgSCC/soccerlg_s8_b3.c:210: attr.X = g_TeamPos[currentIdx].x;
    00000158 EB               [ 4]  625 	ex	de,hl
    00000159 4E               [ 7]  626 	ld	c, (hl)
    0000015A 23               [ 6]  627 	inc	hl
    0000015B 46               [ 7]  628 	ld	b, (hl)
    0000015C 21 02 00         [10]  629 	ld	hl, #2
    0000015F 39               [11]  630 	add	hl, sp
    00000160 71               [ 7]  631 	ld	(hl), c
    00000161 23               [ 6]  632 	inc	hl
    00000162 78               [ 4]  633 	ld	a, b
    00000163 E6 03            [ 7]  634 	and	a, #0x03
    00000165 5F               [ 4]  635 	ld	e,a
    00000166 7E               [ 7]  636 	ld	a, (hl)
    00000167 E6 FC            [ 7]  637 	and	a, #0xfc
    00000169 B3               [ 4]  638 	or	a, e
    0000016A 77               [ 7]  639 	ld	(hl), a
                                    640 ;E:\Dropbox\FAUSTO\SVILUPPI\MSX\CODE\C\MSXgl\projects\soccerlgSCC/soccerlg_s8_b3.c:211: attr.Pattern = cursorPatternId;
    0000016B DD 7E FF         [19]  641 	ld	a, -1 (ix)
    0000016E DD 77 F7         [19]  642 	ld	-9 (ix), a
                                    643 ;E:\Dropbox\FAUSTO\SVILUPPI\MSX\CODE\C\MSXgl\projects\soccerlgSCC/soccerlg_s8_b3.c:212: attr.P = 0; 
    00000171 21 03 00         [10]  644 	ld	hl, #3
    00000174 39               [11]  645 	add	hl, sp
    00000175 CB AE            [15]  646 	res	5, (hl)
                                    647 ;E:\Dropbox\FAUSTO\SVILUPPI\MSX\CODE\C\MSXgl\projects\soccerlgSCC/soccerlg_s8_b3.c:213: attr.SC = 0;
    00000177 21 03 00         [10]  648 	ld	hl, #3
    0000017A 39               [11]  649 	add	hl, sp
    0000017B 7E               [ 7]  650 	ld	a, (hl)
    0000017C E6 3F            [ 7]  651 	and	a, #0x3f
    0000017E 77               [ 7]  652 	ld	(hl), a
                                    653 ;E:\Dropbox\FAUSTO\SVILUPPI\MSX\CODE\C\MSXgl\projects\soccerlgSCC/soccerlg_s8_b3.c:214: attr.D = 0;
    0000017F 21 03 00         [10]  654 	ld	hl, #3
    00000182 39               [11]  655 	add	hl, sp
    00000183 CB A6            [15]  656 	res	4, (hl)
                                    657 ;E:\Dropbox\FAUSTO\SVILUPPI\MSX\CODE\C\MSXgl\projects\soccerlgSCC/soccerlg_s8_b3.c:215: V9_SetSpriteP1(0, &attr);
                                    658 ;E:/Dropbox/FAUSTO/SVILUPPI/MSX/CODE/C/MSXgl/engine/src/v9990.h:781: inline void V9_SetSpriteP1(u8 id, const V9_Sprite* attr) { V9_WriteVRAM(V9_P1_SPAT + (id * 4), (const u8*)attr, 4); }
                                    659 ;E:/Dropbox/FAUSTO/SVILUPPI/MSX/CODE/C/MSXgl/engine/src/v9990.h:371: inline void V9_WriteVRAM(u32 addr, const u8* src, u16 count) { V9_SetWriteAddress(addr); V9_WriteVRAM_CurrentAddr(src, count); }
    00000185 11 00 FE         [10]  660 	ld	de, #0xfe00
    00000188 21 03 00         [10]  661 	ld	hl, #0x0003
    0000018B CDr00r00         [17]  662 	call	_V9_SetWriteAddress
    0000018E 11 04 00         [10]  663 	ld	de, #0x0004
    00000191 21 00 00         [10]  664 	ld	hl, #0
    00000194 39               [11]  665 	add	hl, sp
    00000195 CDr00r00         [17]  666 	call	_V9_WriteVRAM_CurrentAddr
                                    667 ;E:\Dropbox\FAUSTO\SVILUPPI\MSX\CODE\C\MSXgl\projects\soccerlgSCC/soccerlg_s8_b3.c:215: V9_SetSpriteP1(0, &attr);
    00000198 C3r2Cr00         [10]  668 	jp	00143$
    0000019B                        669 00147$:
                                    670 ;E:\Dropbox\FAUSTO\SVILUPPI\MSX\CODE\C\MSXgl\projects\soccerlgSCC/soccerlg_s8_b3.c:217: }
    0000019B DD F9            [10]  671 	ld	sp, ix
    0000019D DD E1            [14]  672 	pop	ix
    0000019F C9               [10]  673 	ret
                         0000F380   674 _g_RDPRIM	=	0xf380
                         0000F385   675 _g_WRPRIM	=	0xf385
                         0000F38C   676 _g_CLPRIM	=	0xf38c
                         0000F39A   677 _g_USRTAB	=	0xf39a
                         0000F3DE   678 _g_CNSDFG	=	0xf3de
                         0000F3DF   679 _g_RG0SAV	=	0xf3df
                         0000F3E0   680 _g_RG1SAV	=	0xf3e0
                         0000F3E1   681 _g_RG2SAV	=	0xf3e1
                         0000F3E2   682 _g_RG3SAV	=	0xf3e2
                         0000F3E3   683 _g_RG4SAV	=	0xf3e3
                         0000F3E4   684 _g_RG5SAV	=	0xf3e4
                         0000F3E5   685 _g_RG6SAV	=	0xf3e5
                         0000F3E6   686 _g_RG7SAV	=	0xf3e6
                         0000F3E7   687 _g_STATFL	=	0xf3e7
                         0000F3E8   688 _g_TRGFLG	=	0xf3e8
                         0000F3EC   689 _g_MAXUPD	=	0xf3ec
                         0000F3EF   690 _g_MINUPD	=	0xf3ef
                         0000F3F3   691 _g_QUEUES	=	0xf3f3
                         0000F3F5   692 _g_FRCNEW	=	0xf3f5
                         0000F3F6   693 _g_SCNCNT	=	0xf3f6
                         0000F3F7   694 _g_REPCNT	=	0xf3f7
                         0000F3F8   695 _g_PUTPNT	=	0xf3f8
                         0000F3FA   696 _g_GETPNT	=	0xf3fa
                         0000F3FC   697 _g_CS120	=	0xf3fc
                         0000F401   698 _g_CS240	=	0xf401
                         0000F406   699 _g_LOW	=	0xf406
                         0000F408   700 _g_HIGH	=	0xf408
                         0000F40A   701 _g_HEADER	=	0xf40a
                         0000F40B   702 _g_ASPCT1	=	0xf40b
                         0000F40D   703 _g_ASPCT2	=	0xf40d
                         0000F959   704 _g_QUETAB	=	0xf959
                         0000F971   705 _g_QUEBAK	=	0xf971
                         0000F975   706 _g_VOICAQ	=	0xf975
                         0000F9F5   707 _g_VOICBQ	=	0xf9f5
                         0000FA75   708 _g_VOICCQ	=	0xfa75
                         0000FAF5   709 _g_RS2IQ	=	0xfaf5
                         0000FAF5   710 _g_DPPAGE	=	0xfaf5
                         0000FAF6   711 _g_ACPAGE	=	0xfaf6
                         0000FAF7   712 _g_AVCSAV	=	0xfaf7
                         0000FAF8   713 _g_EXBRSA	=	0xfaf8
                         0000FAF9   714 _g_CHRCNT	=	0xfaf9
                         0000FAFA   715 _g_ROMA	=	0xfafa
                         0000FAFC   716 _g_MODE	=	0xfafc
                         0000FAFD   717 _g_NORUSE	=	0xfafd
                         0000FAFE   718 _g_XSAVE	=	0xfafe
                         0000FB00   719 _g_YSAVE	=	0xfb00
                         0000FB03   720 _g_RSTMP	=	0xfb03
                         0000FB03   721 _g_TOCNT	=	0xfb03
                         0000FB04   722 _g_RSFCB	=	0xfb04
                         0000FB06   723 _g_RSIQLN	=	0xfb06
                         0000FB07   724 _g_MEXBIh	=	0xfb07
                         0000FB0C   725 _g_OLDSTT	=	0xfb0c
                         0000FB0C   726 _g_OLDINT	=	0xfb0c
                         0000FB16   727 _g_DEVNUM	=	0xfb16
                         0000FB17   728 _g_DATCNT	=	0xfb17
                         0000FB1A   729 _g_ERRORS	=	0xfb1a
                         0000FB1B   730 _g_FLAGS	=	0xfb1b
                         0000FB1C   731 _g_ESTBLS	=	0xfb1c
                         0000FB1D   732 _g_COMMSK	=	0xfb1d
                         0000FB1E   733 _g_LSTCOM	=	0xfb1e
                         0000FB1F   734 _g_LSTMOD	=	0xfb1f
                         0000FB35   735 _g_PRSCNT	=	0xfb35
                         0000FB36   736 _g_SAVSP	=	0xfb36
                         0000FB38   737 _g_VOICEN	=	0xfb38
                         0000FB39   738 _g_SAVVOL	=	0xfb39
                         0000FB3B   739 _g_MCLLEN	=	0xfb3b
                         0000FB3C   740 _g_MCLPTR	=	0xfb3c
                         0000FB3E   741 _g_QUEUEN	=	0xfb3e
                         0000FB3F   742 _g_MUSICF	=	0xfb3f
                         0000FB40   743 _g_PLYCNT	=	0xfb40
                         0000FB41   744 _g_VCBA	=	0xfb41
                         0000FB66   745 _g_VCBB	=	0xfb66
                         0000FB8B   746 _g_VCBC	=	0xfb8b
                         0000FBB0   747 _g_ENSTOP	=	0xfbb0
                         0000FBB1   748 _g_BASROM	=	0xfbb1
                         0000FBB2   749 _g_LINTTB	=	0xfbb2
                         0000FBCA   750 _g_FSTPOS	=	0xfbca
                         0000FBCC   751 _g_CODSAV	=	0xfbcc
                         0000FBCD   752 _g_FNKSWI	=	0xfbcd
                         0000FBCE   753 _g_FNKFLG	=	0xfbce
                         0000FBD8   754 _g_ONGSBF	=	0xfbd8
                         0000FBD9   755 _g_CLIKFL	=	0xfbd9
                         0000FBDA   756 _g_OLDKEY	=	0xfbda
                         0000FBE5   757 _g_NEWKEY	=	0xfbe5
                         0000FBF0   758 _g_KEYBUF	=	0xfbf0
                         0000FC18   759 _g_LINWRK	=	0xfc18
                         0000FC40   760 _g_PATWRK	=	0xfc40
                         0000FC48   761 _g_BOTTOM	=	0xfc48
                         0000FC4A   762 _g_HIMEM	=	0xfc4a
                         0000FC4C   763 _g_TRPTBL	=	0xfc4c
                         0000FC9A   764 _g_RTYCNT	=	0xfc9a
                         0000FC9B   765 _g_INTFLG	=	0xfc9b
                         0000FC9C   766 _g_PADY	=	0xfc9c
                         0000FC9D   767 _g_PADX	=	0xfc9d
                         0000FC9E   768 _g_JIFFY	=	0xfc9e
                         0000FCA0   769 _g_INTVAL	=	0xfca0
                         0000FCA2   770 _g_INTCNT	=	0xfca2
                         0000FCA4   771 _g_LOWLIM	=	0xfca4
                         0000FCA5   772 _g_WINWID	=	0xfca5
                         0000FCA6   773 _g_GRPHED	=	0xfca6
                         0000FCA7   774 _g_ESCCNT	=	0xfca7
                         0000FCA8   775 _g_INSFLG	=	0xfca8
                         0000FCA9   776 _g_CSRSW	=	0xfca9
                         0000FCAA   777 _g_CSTYLE	=	0xfcaa
                         0000FCAB   778 _g_CAPST	=	0xfcab
                         0000FCAC   779 _g_KANAST	=	0xfcac
                         0000FCAD   780 _g_KANAMD	=	0xfcad
                         0000FCAE   781 _g_FLBMEM	=	0xfcae
                         0000FCAF   782 _g_SCRMOD	=	0xfcaf
                         0000FCB0   783 _g_OLDSCR	=	0xfcb0
                         0000FCB1   784 _g_CASPRV	=	0xfcb1
                         0000FCB2   785 _g_BRDATR	=	0xfcb2
                         0000FCB3   786 _g_GXPOS	=	0xfcb3
                         0000FCB5   787 _g_GYPOS	=	0xfcb5
                         0000FCBB   788 _g_DRWFLG	=	0xfcbb
                         0000FCBC   789 _g_DRWSCL	=	0xfcbc
                         0000FCBD   790 _g_DRWANG	=	0xfcbd
                         0000FCC1   791 _g_MNROM	=	0xfcc1
                         0000FCC1   792 _g_EXPTBL	=	0xfcc1
                         0000FCC5   793 _g_SLTTBL	=	0xfcc5
                         0000FCC9   794 _g_SLTATR	=	0xfcc9
                         0000FD09   795 _g_SLTWRK	=	0xfd09
                         0000FD89   796 _g_PROCNM	=	0xfd89
                         0000FFE7   797 _g_RG08SAV	=	0xffe7
                         0000FFE8   798 _g_RG09SAV	=	0xffe8
                         0000FFE9   799 _g_RG10SAV	=	0xffe9
                         0000FFEA   800 _g_RG11SAV	=	0xffea
                         0000FFEB   801 _g_RG12SAV	=	0xffeb
                         0000FFEC   802 _g_RG13SAV	=	0xffec
                         0000FFED   803 _g_RG14SAV	=	0xffed
                         0000FFEE   804 _g_RG15SAV	=	0xffee
                         0000FFEF   805 _g_RG16SAV	=	0xffef
                         0000FFF0   806 _g_RG17SAV	=	0xfff0
                         0000FFF1   807 _g_RG18SAV	=	0xfff1
                         0000FFF2   808 _g_RG19SAV	=	0xfff2
                         0000FFF3   809 _g_RG20SAV	=	0xfff3
                         0000FFF4   810 _g_RG21SAV	=	0xfff4
                         0000FFF5   811 _g_RG22SAV	=	0xfff5
                         0000FFF6   812 _g_RG23SAV	=	0xfff6
                         0000FFF7   813 _g_MINROM	=	0xfff7
                         0000FFF8   814 _g_SVFFF8	=	0xfff8
                         0000FFFA   815 _g_RG25SAV	=	0xfffa
                         0000FFFB   816 _g_RG26SAV	=	0xfffb
                         0000FFFC   817 _g_RG27SAV	=	0xfffc
                         0000FFFD   818 _g_SVFFFD	=	0xfffd
                         00000004   819 _g_CGTABL	=	0x0004
                         00000006   820 _g_VDP_DR	=	0x0006
                         00000007   821 _g_VDP_DW	=	0x0007
                         0000002B   822 _g_BASRVN	=	0x002b
                         0000002B   823 _g_ROMVersion	=	0x002b
                         0000002D   824 _g_MSXVER	=	0x002d
                         0000002E   825 _g_MSXMID	=	0x002e
                         00000034   826 _g_CHAR_16	=	0x0034
                         00000000   827 _g_SUBRID	=	0x0000
                         00000002   828 _g_STRSRC	=	0x0002
                         0000F30F   829 _g_KANJTABLE	=	0xf30f
                         0000F323   830 _g_DISKVE	=	0xf323
                         0000F325   831 _g_BREAKV	=	0xf325
                         0000F341   832 _g_RAMAD0	=	0xf341
                         0000F342   833 _g_RAMAD1	=	0xf342
                         0000F343   834 _g_RAMAD2	=	0xf343
                         0000F344   835 _g_RAMAD3	=	0xf344
                         0000F348   836 _g_MASTER	=	0xf348
                         0000F37D   837 _g_BDOS	=	0xf37d
    000001A0                        838 _g_Data_Palette_Team_ITA:
    000001A0 00                     839 	.db #0x00	; 0
    000001A1 00                     840 	.db #0x00	; 0
    000001A2 00                     841 	.db #0x00	; 0
    000001A3 14                     842 	.db #0x14	; 20
    000001A4 09                     843 	.db #0x09	; 9
    000001A5 14                     844 	.db #0x14	; 20
    000001A6 01                     845 	.db #0x01	; 1
    000001A7 01                     846 	.db #0x01	; 1
    000001A8 01                     847 	.db #0x01	; 1
    000001A9 05                     848 	.db #0x05	; 5
    000001AA 03                     849 	.db #0x03	; 3
    000001AB 01                     850 	.db #0x01	; 1
    000001AC 1B                     851 	.db #0x1b	; 27
    000001AD 1A                     852 	.db #0x1a	; 26
    000001AE 1B                     853 	.db #0x1b	; 27
    000001AF 1E                     854 	.db #0x1e	; 30
    000001B0 1A                     855 	.db #0x1a	; 26
    000001B1 08                     856 	.db #0x08	; 8
    000001B2 1B                     857 	.db #0x1b	; 27
    000001B3 1A                     858 	.db #0x1a	; 26
    000001B4 1B                     859 	.db #0x1b	; 27
    000001B5 09                     860 	.db #0x09	; 9
    000001B6 16                     861 	.db #0x16	; 22
    000001B7 1B                     862 	.db #0x1b	; 27
    000001B8 1B                     863 	.db #0x1b	; 27
    000001B9 1A                     864 	.db #0x1a	; 26
    000001BA 1B                     865 	.db #0x1b	; 27
    000001BB 1B                     866 	.db #0x1b	; 27
    000001BC 13                     867 	.db #0x13	; 19
    000001BD 09                     868 	.db #0x09	; 9
    000001BE 1F                     869 	.db #0x1f	; 31
    000001BF 1E                     870 	.db #0x1e	; 30
    000001C0 01                     871 	.db #0x01	; 1
    000001C1 1D                     872 	.db #0x1d	; 29
    000001C2 03                     873 	.db #0x03	; 3
    000001C3 02                     874 	.db #0x02	; 2
    000001C4 05                     875 	.db #0x05	; 5
    000001C5 03                     876 	.db #0x03	; 3
    000001C6 01                     877 	.db #0x01	; 1
    000001C7 01                     878 	.db #0x01	; 1
    000001C8 01                     879 	.db #0x01	; 1
    000001C9 01                     880 	.db #0x01	; 1
    000001CA 01                     881 	.db #0x01	; 1
    000001CB 01                     882 	.db #0x01	; 1
    000001CC 01                     883 	.db #0x01	; 1
    000001CD 01                     884 	.db #0x01	; 1
    000001CE 01                     885 	.db #0x01	; 1
    000001CF 01                     886 	.db #0x01	; 1
    000001D0                        887 _g_Data_Palette_Team_AUS:
    000001D0 00                     888 	.db #0x00	; 0
    000001D1 00                     889 	.db #0x00	; 0
    000001D2 00                     890 	.db #0x00	; 0
    000001D3 14                     891 	.db #0x14	; 20
    000001D4 09                     892 	.db #0x09	; 9
    000001D5 14                     893 	.db #0x14	; 20
    000001D6 01                     894 	.db #0x01	; 1
    000001D7 01                     895 	.db #0x01	; 1
    000001D8 01                     896 	.db #0x01	; 1
    000001D9 05                     897 	.db #0x05	; 5
    000001DA 03                     898 	.db #0x03	; 3
    000001DB 01                     899 	.db #0x01	; 1
    000001DC 1B                     900 	.db #0x1b	; 27
    000001DD 1A                     901 	.db #0x1a	; 26
    000001DE 1B                     902 	.db #0x1b	; 27
    000001DF 1E                     903 	.db #0x1e	; 30
    000001E0 1A                     904 	.db #0x1a	; 26
    000001E1 08                     905 	.db #0x08	; 8
    000001E2 1B                     906 	.db #0x1b	; 27
    000001E3 1A                     907 	.db #0x1a	; 26
    000001E4 1B                     908 	.db #0x1b	; 27
    000001E5 05                     909 	.db #0x05	; 5
    000001E6 03                     910 	.db #0x03	; 3
    000001E7 01                     911 	.db #0x01	; 1
    000001E8 1B                     912 	.db #0x1b	; 27
    000001E9 1A                     913 	.db #0x1a	; 26
    000001EA 1B                     914 	.db #0x1b	; 27
    000001EB 1B                     915 	.db #0x1b	; 27
    000001EC 13                     916 	.db #0x13	; 19
    000001ED 09                     917 	.db #0x09	; 9
    000001EE 1F                     918 	.db #0x1f	; 31
    000001EF 1E                     919 	.db #0x1e	; 30
    000001F0 01                     920 	.db #0x01	; 1
    000001F1 1D                     921 	.db #0x1d	; 29
    000001F2 03                     922 	.db #0x03	; 3
    000001F3 02                     923 	.db #0x02	; 2
    000001F4 05                     924 	.db #0x05	; 5
    000001F5 03                     925 	.db #0x03	; 3
    000001F6 01                     926 	.db #0x01	; 1
    000001F7 01                     927 	.db #0x01	; 1
    000001F8 01                     928 	.db #0x01	; 1
    000001F9 01                     929 	.db #0x01	; 1
    000001FA 01                     930 	.db #0x01	; 1
    000001FB 01                     931 	.db #0x01	; 1
    000001FC 01                     932 	.db #0x01	; 1
    000001FD 01                     933 	.db #0x01	; 1
    000001FE 01                     934 	.db #0x01	; 1
    000001FF 01                     935 	.db #0x01	; 1
    00000200                        936 _g_Data_Palette_Team_FRA:
    00000200 00                     937 	.db #0x00	; 0
    00000201 00                     938 	.db #0x00	; 0
    00000202 00                     939 	.db #0x00	; 0
    00000203 14                     940 	.db #0x14	; 20
    00000204 09                     941 	.db #0x09	; 9
    00000205 14                     942 	.db #0x14	; 20
    00000206 01                     943 	.db #0x01	; 1
    00000207 01                     944 	.db #0x01	; 1
    00000208 01                     945 	.db #0x01	; 1
    00000209 05                     946 	.db #0x05	; 5
    0000020A 03                     947 	.db #0x03	; 3
    0000020B 01                     948 	.db #0x01	; 1
    0000020C 1B                     949 	.db #0x1b	; 27
    0000020D 1A                     950 	.db #0x1a	; 26
    0000020E 1B                     951 	.db #0x1b	; 27
    0000020F 1E                     952 	.db #0x1e	; 30
    00000210 1A                     953 	.db #0x1a	; 26
    00000211 08                     954 	.db #0x08	; 8
    00000212 1B                     955 	.db #0x1b	; 27
    00000213 1A                     956 	.db #0x1a	; 26
    00000214 1B                     957 	.db #0x1b	; 27
    00000215 04                     958 	.db #0x04	; 4
    00000216 04                     959 	.db #0x04	; 4
    00000217 1B                     960 	.db #0x1b	; 27
    00000218 1B                     961 	.db #0x1b	; 27
    00000219 1A                     962 	.db #0x1a	; 26
    0000021A 1B                     963 	.db #0x1b	; 27
    0000021B 1B                     964 	.db #0x1b	; 27
    0000021C 13                     965 	.db #0x13	; 19
    0000021D 09                     966 	.db #0x09	; 9
    0000021E 1F                     967 	.db #0x1f	; 31
    0000021F 1E                     968 	.db #0x1e	; 30
    00000220 01                     969 	.db #0x01	; 1
    00000221 1D                     970 	.db #0x1d	; 29
    00000222 03                     971 	.db #0x03	; 3
    00000223 02                     972 	.db #0x02	; 2
    00000224 05                     973 	.db #0x05	; 5
    00000225 03                     974 	.db #0x03	; 3
    00000226 01                     975 	.db #0x01	; 1
    00000227 01                     976 	.db #0x01	; 1
    00000228 01                     977 	.db #0x01	; 1
    00000229 01                     978 	.db #0x01	; 1
    0000022A 01                     979 	.db #0x01	; 1
    0000022B 01                     980 	.db #0x01	; 1
    0000022C 01                     981 	.db #0x01	; 1
    0000022D 01                     982 	.db #0x01	; 1
    0000022E 01                     983 	.db #0x01	; 1
    0000022F 01                     984 	.db #0x01	; 1
    00000230                        985 _g_Data_Palette_Team_GER:
    00000230 00                     986 	.db #0x00	; 0
    00000231 00                     987 	.db #0x00	; 0
    00000232 00                     988 	.db #0x00	; 0
    00000233 14                     989 	.db #0x14	; 20
    00000234 09                     990 	.db #0x09	; 9
    00000235 14                     991 	.db #0x14	; 20
    00000236 01                     992 	.db #0x01	; 1
    00000237 01                     993 	.db #0x01	; 1
    00000238 01                     994 	.db #0x01	; 1
    00000239 05                     995 	.db #0x05	; 5
    0000023A 03                     996 	.db #0x03	; 3
    0000023B 01                     997 	.db #0x01	; 1
    0000023C 1B                     998 	.db #0x1b	; 27
    0000023D 1A                     999 	.db #0x1a	; 26
    0000023E 1B                    1000 	.db #0x1b	; 27
    0000023F 1E                    1001 	.db #0x1e	; 30
    00000240 1A                    1002 	.db #0x1a	; 26
    00000241 08                    1003 	.db #0x08	; 8
    00000242 05                    1004 	.db #0x05	; 5
    00000243 03                    1005 	.db #0x03	; 3
    00000244 01                    1006 	.db #0x01	; 1
    00000245 1B                    1007 	.db #0x1b	; 27
    00000246 1A                    1008 	.db #0x1a	; 26
    00000247 1B                    1009 	.db #0x1b	; 27
    00000248 1F                    1010 	.db #0x1f	; 31
    00000249 00                    1011 	.db #0x00	; 0
    0000024A 00                    1012 	.db #0x00	; 0
    0000024B 1B                    1013 	.db #0x1b	; 27
    0000024C 13                    1014 	.db #0x13	; 19
    0000024D 09                    1015 	.db #0x09	; 9
    0000024E 1F                    1016 	.db #0x1f	; 31
    0000024F 1E                    1017 	.db #0x1e	; 30
    00000250 01                    1018 	.db #0x01	; 1
    00000251 1D                    1019 	.db #0x1d	; 29
    00000252 03                    1020 	.db #0x03	; 3
    00000253 02                    1021 	.db #0x02	; 2
    00000254 05                    1022 	.db #0x05	; 5
    00000255 03                    1023 	.db #0x03	; 3
    00000256 01                    1024 	.db #0x01	; 1
    00000257 01                    1025 	.db #0x01	; 1
    00000258 01                    1026 	.db #0x01	; 1
    00000259 01                    1027 	.db #0x01	; 1
    0000025A 01                    1028 	.db #0x01	; 1
    0000025B 01                    1029 	.db #0x01	; 1
    0000025C 01                    1030 	.db #0x01	; 1
    0000025D 01                    1031 	.db #0x01	; 1
    0000025E 01                    1032 	.db #0x01	; 1
    0000025F 01                    1033 	.db #0x01	; 1
    00000260                       1034 _g_Data_Palette_Team_GBR:
    00000260 00                    1035 	.db #0x00	; 0
    00000261 00                    1036 	.db #0x00	; 0
    00000262 00                    1037 	.db #0x00	; 0
    00000263 14                    1038 	.db #0x14	; 20
    00000264 09                    1039 	.db #0x09	; 9
    00000265 14                    1040 	.db #0x14	; 20
    00000266 01                    1041 	.db #0x01	; 1
    00000267 01                    1042 	.db #0x01	; 1
    00000268 01                    1043 	.db #0x01	; 1
    00000269 05                    1044 	.db #0x05	; 5
    0000026A 03                    1045 	.db #0x03	; 3
    0000026B 01                    1046 	.db #0x01	; 1
    0000026C 1B                    1047 	.db #0x1b	; 27
    0000026D 1A                    1048 	.db #0x1a	; 26
    0000026E 1B                    1049 	.db #0x1b	; 27
    0000026F 1E                    1050 	.db #0x1e	; 30
    00000270 1A                    1051 	.db #0x1a	; 26
    00000271 08                    1052 	.db #0x08	; 8
    00000272 01                    1053 	.db #0x01	; 1
    00000273 01                    1054 	.db #0x01	; 1
    00000274 01                    1055 	.db #0x01	; 1
    00000275 1B                    1056 	.db #0x1b	; 27
    00000276 1A                    1057 	.db #0x1a	; 26
    00000277 1B                    1058 	.db #0x1b	; 27
    00000278 01                    1059 	.db #0x01	; 1
    00000279 01                    1060 	.db #0x01	; 1
    0000027A 01                    1061 	.db #0x01	; 1
    0000027B 1B                    1062 	.db #0x1b	; 27
    0000027C 13                    1063 	.db #0x13	; 19
    0000027D 09                    1064 	.db #0x09	; 9
    0000027E 1F                    1065 	.db #0x1f	; 31
    0000027F 1E                    1066 	.db #0x1e	; 30
    00000280 01                    1067 	.db #0x01	; 1
    00000281 1D                    1068 	.db #0x1d	; 29
    00000282 03                    1069 	.db #0x03	; 3
    00000283 02                    1070 	.db #0x02	; 2
    00000284 05                    1071 	.db #0x05	; 5
    00000285 03                    1072 	.db #0x03	; 3
    00000286 01                    1073 	.db #0x01	; 1
    00000287 01                    1074 	.db #0x01	; 1
    00000288 01                    1075 	.db #0x01	; 1
    00000289 01                    1076 	.db #0x01	; 1
    0000028A 01                    1077 	.db #0x01	; 1
    0000028B 01                    1078 	.db #0x01	; 1
    0000028C 01                    1079 	.db #0x01	; 1
    0000028D 01                    1080 	.db #0x01	; 1
    0000028E 01                    1081 	.db #0x01	; 1
    0000028F 01                    1082 	.db #0x01	; 1
    00000290                       1083 _g_Data_Palette_Team_BRA:
    00000290 00                    1084 	.db #0x00	; 0
    00000291 00                    1085 	.db #0x00	; 0
    00000292 00                    1086 	.db #0x00	; 0
    00000293 14                    1087 	.db #0x14	; 20
    00000294 09                    1088 	.db #0x09	; 9
    00000295 14                    1089 	.db #0x14	; 20
    00000296 01                    1090 	.db #0x01	; 1
    00000297 01                    1091 	.db #0x01	; 1
    00000298 01                    1092 	.db #0x01	; 1
    00000299 05                    1093 	.db #0x05	; 5
    0000029A 03                    1094 	.db #0x03	; 3
    0000029B 01                    1095 	.db #0x01	; 1
    0000029C 1B                    1096 	.db #0x1b	; 27
    0000029D 1A                    1097 	.db #0x1a	; 26
    0000029E 1B                    1098 	.db #0x1b	; 27
    0000029F 1E                    1099 	.db #0x1e	; 30
    000002A0 1A                    1100 	.db #0x1a	; 26
    000002A1 08                    1101 	.db #0x08	; 8
    000002A2 1B                    1102 	.db #0x1b	; 27
    000002A3 13                    1103 	.db #0x13	; 19
    000002A4 09                    1104 	.db #0x09	; 9
    000002A5 00                    1105 	.db #0x00	; 0
    000002A6 0A                    1106 	.db #0x0a	; 10
    000002A7 03                    1107 	.db #0x03	; 3
    000002A8 1B                    1108 	.db #0x1b	; 27
    000002A9 13                    1109 	.db #0x13	; 19
    000002AA 09                    1110 	.db #0x09	; 9
    000002AB 1B                    1111 	.db #0x1b	; 27
    000002AC 13                    1112 	.db #0x13	; 19
    000002AD 09                    1113 	.db #0x09	; 9
    000002AE 1F                    1114 	.db #0x1f	; 31
    000002AF 1E                    1115 	.db #0x1e	; 30
    000002B0 01                    1116 	.db #0x01	; 1
    000002B1 1D                    1117 	.db #0x1d	; 29
    000002B2 03                    1118 	.db #0x03	; 3
    000002B3 02                    1119 	.db #0x02	; 2
    000002B4 05                    1120 	.db #0x05	; 5
    000002B5 03                    1121 	.db #0x03	; 3
    000002B6 01                    1122 	.db #0x01	; 1
    000002B7 01                    1123 	.db #0x01	; 1
    000002B8 01                    1124 	.db #0x01	; 1
    000002B9 01                    1125 	.db #0x01	; 1
    000002BA 01                    1126 	.db #0x01	; 1
    000002BB 01                    1127 	.db #0x01	; 1
    000002BC 01                    1128 	.db #0x01	; 1
    000002BD 01                    1129 	.db #0x01	; 1
    000002BE 01                    1130 	.db #0x01	; 1
    000002BF 01                    1131 	.db #0x01	; 1
    000002C0                       1132 _g_TeamPos:
    000002C0 21 00                 1133 	.dw #0x0021
    000002C2 65 00                 1134 	.dw #0x0065
    000002C4 72 00                 1135 	.dw #0x0072
    000002C6 65 00                 1136 	.dw #0x0065
    000002C8 C5 00                 1137 	.dw #0x00c5
    000002CA 65 00                 1138 	.dw #0x0065
    000002CC 21 00                 1139 	.dw #0x0021
    000002CE B8 00                 1140 	.dw #0x00b8
    000002D0 72 00                 1141 	.dw #0x0072
    000002D2 B8 00                 1142 	.dw #0x00b8
    000002D4 C5 00                 1143 	.dw #0x00c5
    000002D6 B8 00                 1144 	.dw #0x00b8
    000002D8                       1145 _g_TeamGrayPos:
    000002D8 01 00                 1146 	.dw #0x0001
    000002DA 04 00                 1147 	.dw #0x0004
    000002DC 0B 00                 1148 	.dw #0x000b
    000002DE 04 00                 1149 	.dw #0x0004
    000002E0 15 00                 1150 	.dw #0x0015
    000002E2 04 00                 1151 	.dw #0x0004
    000002E4 01 00                 1152 	.dw #0x0001
    000002E6 0E 00                 1153 	.dw #0x000e
    000002E8 0B 00                 1154 	.dw #0x000b
    000002EA 0E 00                 1155 	.dw #0x000e
    000002EC 15 00                 1156 	.dw #0x0015
    000002EE 0E 00                 1157 	.dw #0x000e
                                   1158 ;E:\Dropbox\FAUSTO\SVILUPPI\MSX\CODE\C\MSXgl\projects\soccerlgSCC/soccerlg_s8_b3.c:220: void MenuSpriteBlinking(){
                                   1159 ;	---------------------------------
                                   1160 ; Function MenuSpriteBlinking
                                   1161 ; ---------------------------------
    000002F0                       1162 _MenuSpriteBlinking::
    000002F0 3B               [ 6] 1163 	dec	sp
                                   1164 ;E:\Dropbox\FAUSTO\SVILUPPI\MSX\CODE\C\MSXgl\projects\soccerlgSCC/soccerlg_s8_b3.c:221: u8 ms=g_MatchStatus;
    000002F1 3Ar00r00         [13] 1165 	ld	a, (_g_MatchStatus+0)
    000002F4 FD 21 00 00      [14] 1166 	ld	iy, #0
    000002F8 FD 39            [15] 1167 	add	iy, sp
    000002FA FD 77 00         [19] 1168 	ld	0 (iy), a
                                   1169 ;E:/Dropbox/FAUSTO/SVILUPPI/MSX/CODE/C/MSXgl/engine/src/v9990.h:258: inline void V9_SetFlag(u8 reg, u8 mask, u8 flag) { V9_SetRegister(reg, V9_GetRegister(reg) & (~mask) | flag); }
    000002FD 3E 08            [ 7] 1170 	ld	a, #0x08
    000002FF CDr00r00         [17] 1171 	call	_V9_GetRegister
    00000302 CB B7            [ 8] 1172 	res	6, a
    00000304 6F               [ 4] 1173 	ld	l, a
                                   1174 ;	spillPairReg hl
                                   1175 ;	spillPairReg hl
    00000305 CB F5            [ 8] 1176 	set	6, l
    00000307 3E 08            [ 7] 1177 	ld	a, #0x08
    00000309 CDr00r00         [17] 1178 	call	_V9_SetRegister
                                   1179 ;E:/Dropbox/FAUSTO/SVILUPPI/MSX/CODE/C/MSXgl/engine/src/v9990.h:574: inline void V9_SetInterrupt(u8 flags) { V9_SetRegister(9, flags); }
    0000030C 2E 01            [ 7] 1180 	ld	l, #0x01
                                   1181 ;	spillPairReg hl
                                   1182 ;	spillPairReg hl
    0000030E 3E 09            [ 7] 1183 	ld	a, #0x09
    00000310 CDr00r00         [17] 1184 	call	_V9_SetRegister
                                   1185 ;E:\Dropbox\FAUSTO\SVILUPPI\MSX\CODE\C\MSXgl\projects\soccerlgSCC/soccerlg_s8_b3.c:225: g_MatchStatus=MATCH_PRESENTATION;
    00000313 3E 0F            [ 7] 1186 	ld	a, #0x0f
    00000315 32r00r00         [13] 1187 	ld	(#_g_MatchStatus), a
                                   1188 ;E:\Dropbox\FAUSTO\SVILUPPI\MSX\CODE\C\MSXgl\projects\soccerlgSCC/soccerlg_s8_b3.c:227: g_TimerActive=TRUE;
    00000318 3E 01            [ 7] 1189 	ld	a, #0x01
    0000031A 32r00r00         [13] 1190 	ld	(#_g_TimerActive), a
                                   1191 ;E:\Dropbox\FAUSTO\SVILUPPI\MSX\CODE\C\MSXgl\projects\soccerlgSCC/soccerlg_s8_b3.c:228: g_Timer=0;  
    0000031D AF               [ 4] 1192 	xor	a, a
    0000031E 32r00r00         [13] 1193 	ld	(#_g_Timer), a
                                   1194 ;E:\Dropbox\FAUSTO\SVILUPPI\MSX\CODE\C\MSXgl\projects\soccerlgSCC/soccerlg_s8_b3.c:229: while (g_Timer<=20)
    00000321                       1195 00101$:
    00000321 3E 14            [ 7] 1196 	ld	a, #0x14
    00000323 FD 21r00r00      [14] 1197 	ld	iy, #_g_Timer
    00000327 FD 96 00         [19] 1198 	sub	a, 0 (iy)
    0000032A 38 06            [12] 1199 	jr	C, 00103$
                                   1200 ;E:\Dropbox\FAUSTO\SVILUPPI\MSX\CODE\C\MSXgl\projects\soccerlgSCC/soccerlg_s8_b3.c:231: ResetPlayersInfo();
    0000032C CDr01r04         [17] 1201 	call	_ResetPlayersInfo
    0000032F C3r21r03         [10] 1202 	jp	00101$
    00000332                       1203 00103$:
                                   1204 ;E:\Dropbox\FAUSTO\SVILUPPI\MSX\CODE\C\MSXgl\projects\soccerlgSCC/soccerlg_s8_b3.c:233: g_TimerActive=FALSE;
    00000332 AF               [ 4] 1205 	xor	a, a
    00000333 32r00r00         [13] 1206 	ld	(#_g_TimerActive), a
                                   1207 ;E:/Dropbox/FAUSTO/SVILUPPI/MSX/CODE/C/MSXgl/engine/src/v9990.h:258: inline void V9_SetFlag(u8 reg, u8 mask, u8 flag) { V9_SetRegister(reg, V9_GetRegister(reg) & (~mask) | flag); }
    00000336 3E 08            [ 7] 1208 	ld	a, #0x08
    00000338 CDr00r00         [17] 1209 	call	_V9_GetRegister
    0000033B 6F               [ 4] 1210 	ld	l, a
                                   1211 ;	spillPairReg hl
                                   1212 ;	spillPairReg hl
    0000033C CB B5            [ 8] 1213 	res	6, l
    0000033E 3E 08            [ 7] 1214 	ld	a, #0x08
    00000340 CDr00r00         [17] 1215 	call	_V9_SetRegister
                                   1216 ;E:\Dropbox\FAUSTO\SVILUPPI\MSX\CODE\C\MSXgl\projects\soccerlgSCC/soccerlg_s8_b3.c:237: g_TimerActive=TRUE;
    00000343 3E 01            [ 7] 1217 	ld	a, #0x01
    00000345 32r00r00         [13] 1218 	ld	(#_g_TimerActive), a
                                   1219 ;E:\Dropbox\FAUSTO\SVILUPPI\MSX\CODE\C\MSXgl\projects\soccerlgSCC/soccerlg_s8_b3.c:238: g_Timer=0;  
    00000348 AF               [ 4] 1220 	xor	a, a
    00000349 32r00r00         [13] 1221 	ld	(#_g_Timer), a
                                   1222 ;E:\Dropbox\FAUSTO\SVILUPPI\MSX\CODE\C\MSXgl\projects\soccerlgSCC/soccerlg_s8_b3.c:239: while (g_Timer<=20)
    0000034C                       1223 00104$:
    0000034C 3E 14            [ 7] 1224 	ld	a, #0x14
    0000034E FD 21r00r00      [14] 1225 	ld	iy, #_g_Timer
    00000352 FD 96 00         [19] 1226 	sub	a, 0 (iy)
    00000355 38 06            [12] 1227 	jr	C, 00106$
                                   1228 ;E:\Dropbox\FAUSTO\SVILUPPI\MSX\CODE\C\MSXgl\projects\soccerlgSCC/soccerlg_s8_b3.c:241: ResetPlayersInfo();
    00000357 CDr01r04         [17] 1229 	call	_ResetPlayersInfo
    0000035A C3r4Cr03         [10] 1230 	jp	00104$
    0000035D                       1231 00106$:
                                   1232 ;E:\Dropbox\FAUSTO\SVILUPPI\MSX\CODE\C\MSXgl\projects\soccerlgSCC/soccerlg_s8_b3.c:243: g_TimerActive=FALSE;
    0000035D AF               [ 4] 1233 	xor	a, a
    0000035E 32r00r00         [13] 1234 	ld	(#_g_TimerActive), a
                                   1235 ;E:/Dropbox/FAUSTO/SVILUPPI/MSX/CODE/C/MSXgl/engine/src/v9990.h:258: inline void V9_SetFlag(u8 reg, u8 mask, u8 flag) { V9_SetRegister(reg, V9_GetRegister(reg) & (~mask) | flag); }
    00000361 3E 08            [ 7] 1236 	ld	a, #0x08
    00000363 CDr00r00         [17] 1237 	call	_V9_GetRegister
    00000366 CB B7            [ 8] 1238 	res	6, a
    00000368 6F               [ 4] 1239 	ld	l, a
                                   1240 ;	spillPairReg hl
                                   1241 ;	spillPairReg hl
    00000369 CB F5            [ 8] 1242 	set	6, l
    0000036B 3E 08            [ 7] 1243 	ld	a, #0x08
    0000036D CDr00r00         [17] 1244 	call	_V9_SetRegister
                                   1245 ;E:\Dropbox\FAUSTO\SVILUPPI\MSX\CODE\C\MSXgl\projects\soccerlgSCC/soccerlg_s8_b3.c:247: g_TimerActive=TRUE;
    00000370 3E 01            [ 7] 1246 	ld	a, #0x01
    00000372 32r00r00         [13] 1247 	ld	(#_g_TimerActive), a
                                   1248 ;E:\Dropbox\FAUSTO\SVILUPPI\MSX\CODE\C\MSXgl\projects\soccerlgSCC/soccerlg_s8_b3.c:248: g_Timer=0;  
    00000375 AF               [ 4] 1249 	xor	a, a
    00000376 32r00r00         [13] 1250 	ld	(#_g_Timer), a
                                   1251 ;E:\Dropbox\FAUSTO\SVILUPPI\MSX\CODE\C\MSXgl\projects\soccerlgSCC/soccerlg_s8_b3.c:249: while (g_Timer<=20)
    00000379                       1252 00107$:
    00000379 3E 14            [ 7] 1253 	ld	a, #0x14
    0000037B FD 21r00r00      [14] 1254 	ld	iy, #_g_Timer
    0000037F FD 96 00         [19] 1255 	sub	a, 0 (iy)
    00000382 38 06            [12] 1256 	jr	C, 00109$
                                   1257 ;E:\Dropbox\FAUSTO\SVILUPPI\MSX\CODE\C\MSXgl\projects\soccerlgSCC/soccerlg_s8_b3.c:251: ResetPlayersInfo();
    00000384 CDr01r04         [17] 1258 	call	_ResetPlayersInfo
    00000387 C3r79r03         [10] 1259 	jp	00107$
    0000038A                       1260 00109$:
                                   1261 ;E:\Dropbox\FAUSTO\SVILUPPI\MSX\CODE\C\MSXgl\projects\soccerlgSCC/soccerlg_s8_b3.c:253: g_TimerActive=FALSE;
    0000038A AF               [ 4] 1262 	xor	a, a
    0000038B 32r00r00         [13] 1263 	ld	(#_g_TimerActive), a
                                   1264 ;E:/Dropbox/FAUSTO/SVILUPPI/MSX/CODE/C/MSXgl/engine/src/v9990.h:258: inline void V9_SetFlag(u8 reg, u8 mask, u8 flag) { V9_SetRegister(reg, V9_GetRegister(reg) & (~mask) | flag); }
    0000038E 3E 08            [ 7] 1265 	ld	a, #0x08
    00000390 CDr00r00         [17] 1266 	call	_V9_GetRegister
    00000393 6F               [ 4] 1267 	ld	l, a
                                   1268 ;	spillPairReg hl
                                   1269 ;	spillPairReg hl
    00000394 CB B5            [ 8] 1270 	res	6, l
    00000396 3E 08            [ 7] 1271 	ld	a, #0x08
    00000398 CDr00r00         [17] 1272 	call	_V9_SetRegister
                                   1273 ;E:\Dropbox\FAUSTO\SVILUPPI\MSX\CODE\C\MSXgl\projects\soccerlgSCC/soccerlg_s8_b3.c:256: g_TimerActive=TRUE;
    0000039B 3E 01            [ 7] 1274 	ld	a, #0x01
    0000039D 32r00r00         [13] 1275 	ld	(#_g_TimerActive), a
                                   1276 ;E:\Dropbox\FAUSTO\SVILUPPI\MSX\CODE\C\MSXgl\projects\soccerlgSCC/soccerlg_s8_b3.c:257: g_Timer=0;  
    000003A0 AF               [ 4] 1277 	xor	a, a
    000003A1 32r00r00         [13] 1278 	ld	(#_g_Timer), a
                                   1279 ;E:\Dropbox\FAUSTO\SVILUPPI\MSX\CODE\C\MSXgl\projects\soccerlgSCC/soccerlg_s8_b3.c:258: while (g_Timer<=20)
    000003A4                       1280 00110$:
    000003A4 3E 14            [ 7] 1281 	ld	a, #0x14
    000003A6 FD 21r00r00      [14] 1282 	ld	iy, #_g_Timer
    000003AA FD 96 00         [19] 1283 	sub	a, 0 (iy)
    000003AD 38 06            [12] 1284 	jr	C, 00112$
                                   1285 ;E:\Dropbox\FAUSTO\SVILUPPI\MSX\CODE\C\MSXgl\projects\soccerlgSCC/soccerlg_s8_b3.c:260: ResetPlayersInfo();
    000003AF CDr01r04         [17] 1286 	call	_ResetPlayersInfo
    000003B2 C3rA4r03         [10] 1287 	jp	00110$
    000003B5                       1288 00112$:
                                   1289 ;E:\Dropbox\FAUSTO\SVILUPPI\MSX\CODE\C\MSXgl\projects\soccerlgSCC/soccerlg_s8_b3.c:262: g_TimerActive=FALSE;
    000003B5 AF               [ 4] 1290 	xor	a, a
    000003B6 32r00r00         [13] 1291 	ld	(#_g_TimerActive), a
                                   1292 ;E:/Dropbox/FAUSTO/SVILUPPI/MSX/CODE/C/MSXgl/engine/src/v9990.h:258: inline void V9_SetFlag(u8 reg, u8 mask, u8 flag) { V9_SetRegister(reg, V9_GetRegister(reg) & (~mask) | flag); }
    000003B9 3E 08            [ 7] 1293 	ld	a, #0x08
    000003BB CDr00r00         [17] 1294 	call	_V9_GetRegister
    000003BE CB B7            [ 8] 1295 	res	6, a
    000003C0 6F               [ 4] 1296 	ld	l, a
                                   1297 ;	spillPairReg hl
                                   1298 ;	spillPairReg hl
    000003C1 CB F5            [ 8] 1299 	set	6, l
    000003C3 3E 08            [ 7] 1300 	ld	a, #0x08
    000003C5 CDr00r00         [17] 1301 	call	_V9_SetRegister
                                   1302 ;E:\Dropbox\FAUSTO\SVILUPPI\MSX\CODE\C\MSXgl\projects\soccerlgSCC/soccerlg_s8_b3.c:266: g_TimerActive=TRUE;
    000003C8 3E 01            [ 7] 1303 	ld	a, #0x01
    000003CA 32r00r00         [13] 1304 	ld	(#_g_TimerActive), a
                                   1305 ;E:\Dropbox\FAUSTO\SVILUPPI\MSX\CODE\C\MSXgl\projects\soccerlgSCC/soccerlg_s8_b3.c:267: g_Timer=0;  
    000003CD AF               [ 4] 1306 	xor	a, a
    000003CE 32r00r00         [13] 1307 	ld	(#_g_Timer), a
                                   1308 ;E:\Dropbox\FAUSTO\SVILUPPI\MSX\CODE\C\MSXgl\projects\soccerlgSCC/soccerlg_s8_b3.c:268: while (g_Timer<=20)
    000003D1                       1309 00113$:
    000003D1 3E 14            [ 7] 1310 	ld	a, #0x14
    000003D3 FD 21r00r00      [14] 1311 	ld	iy, #_g_Timer
    000003D7 FD 96 00         [19] 1312 	sub	a, 0 (iy)
    000003DA 38 06            [12] 1313 	jr	C, 00115$
                                   1314 ;E:\Dropbox\FAUSTO\SVILUPPI\MSX\CODE\C\MSXgl\projects\soccerlgSCC/soccerlg_s8_b3.c:270: ResetPlayersInfo();
    000003DC CDr01r04         [17] 1315 	call	_ResetPlayersInfo
    000003DF C3rD1r03         [10] 1316 	jp	00113$
    000003E2                       1317 00115$:
                                   1318 ;E:\Dropbox\FAUSTO\SVILUPPI\MSX\CODE\C\MSXgl\projects\soccerlgSCC/soccerlg_s8_b3.c:272: g_TimerActive=FALSE;
    000003E2 AF               [ 4] 1319 	xor	a, a
    000003E3 32r00r00         [13] 1320 	ld	(#_g_TimerActive), a
                                   1321 ;E:/Dropbox/FAUSTO/SVILUPPI/MSX/CODE/C/MSXgl/engine/src/v9990.h:258: inline void V9_SetFlag(u8 reg, u8 mask, u8 flag) { V9_SetRegister(reg, V9_GetRegister(reg) & (~mask) | flag); }
    000003E6 3E 08            [ 7] 1322 	ld	a, #0x08
    000003E8 CDr00r00         [17] 1323 	call	_V9_GetRegister
    000003EB 6F               [ 4] 1324 	ld	l, a
                                   1325 ;	spillPairReg hl
                                   1326 ;	spillPairReg hl
    000003EC CB B5            [ 8] 1327 	res	6, l
    000003EE 3E 08            [ 7] 1328 	ld	a, #0x08
    000003F0 CDr00r00         [17] 1329 	call	_V9_SetRegister
                                   1330 ;E:\Dropbox\FAUSTO\SVILUPPI\MSX\CODE\C\MSXgl\projects\soccerlgSCC/soccerlg_s8_b3.c:274: g_MatchStatus=ms;
    000003F3 FD 21 00 00      [14] 1331 	ld	iy, #0
    000003F7 FD 39            [15] 1332 	add	iy, sp
    000003F9 FD 7E 00         [19] 1333 	ld	a, 0 (iy)
    000003FC 32r00r00         [13] 1334 	ld	(_g_MatchStatus+0), a
                                   1335 ;E:\Dropbox\FAUSTO\SVILUPPI\MSX\CODE\C\MSXgl\projects\soccerlgSCC/soccerlg_s8_b3.c:276: }
    000003FF 33               [ 6] 1336 	inc	sp
    00000400 C9               [10] 1337 	ret
                                   1338 ;E:\Dropbox\FAUSTO\SVILUPPI\MSX\CODE\C\MSXgl\projects\soccerlgSCC/soccerlg_s8_b3.c:279: void ResetPlayersInfo(){
                                   1339 ;	---------------------------------
                                   1340 ; Function ResetPlayersInfo
                                   1341 ; ---------------------------------
    00000401                       1342 _ResetPlayersInfo::
    00000401 DD E5            [15] 1343 	push	ix
    00000403 DD 21 00 00      [14] 1344 	ld	ix,#0
    00000407 DD 39            [15] 1345 	add	ix,sp
    00000409 3B               [ 6] 1346 	dec	sp
                                   1347 ;E:\Dropbox\FAUSTO\SVILUPPI\MSX\CODE\C\MSXgl\projects\soccerlgSCC/soccerlg_s8_b3.c:280: CallFnc_VOID_P1(4,SetPlayerBallPossession,NO_VALUE);
    0000040A 3E FF            [ 7] 1348 	ld	a, #0xff
    0000040C F5               [11] 1349 	push	af
    0000040D 33               [ 6] 1350 	inc	sp
    0000040E 11r00r00         [10] 1351 	ld	de, #_SetPlayerBallPossession
    00000411 3E 04            [ 7] 1352 	ld	a, #0x04
    00000413 CDr00r00         [17] 1353 	call	_CallFnc_VOID_P1
                                   1354 ;E:\Dropbox\FAUSTO\SVILUPPI\MSX\CODE\C\MSXgl\projects\soccerlgSCC/soccerlg_s8_b3.c:281: for(u8 i=0;i<14;i++){
    00000416 0E 00            [ 7] 1355 	ld	c, #0x00
    00000418                       1356 00103$:
    00000418 79               [ 4] 1357 	ld	a, c
    00000419 D6 0E            [ 7] 1358 	sub	a, #0x0e
    0000041B 30 41            [12] 1359 	jr	NC, 00105$
                                   1360 ;E:\Dropbox\FAUSTO\SVILUPPI\MSX\CODE\C\MSXgl\projects\soccerlgSCC/soccerlg_s8_b3.c:282: g_Players[i].Direction=DIRECTION_NONE;
    0000041D 06 00            [ 7] 1361 	ld	b, #0x00
    0000041F 69               [ 4] 1362 	ld	l, c
    00000420 60               [ 4] 1363 	ld	h, b
    00000421 29               [11] 1364 	add	hl, hl
    00000422 29               [11] 1365 	add	hl, hl
    00000423 09               [11] 1366 	add	hl, bc
    00000424 29               [11] 1367 	add	hl, hl
    00000425 29               [11] 1368 	add	hl, hl
    00000426 09               [11] 1369 	add	hl, bc
    00000427 EB               [ 4] 1370 	ex	de, hl
    00000428 21r00r00         [10] 1371 	ld	hl, #_g_Players
    0000042B 19               [11] 1372 	add	hl, de
    0000042C EB               [ 4] 1373 	ex	de, hl
    0000042D 21 0A 00         [10] 1374 	ld	hl, #0x000a
    00000430 19               [11] 1375 	add	hl, de
    00000431 36 00            [10] 1376 	ld	(hl), #0x00
                                   1377 ;E:\Dropbox\FAUSTO\SVILUPPI\MSX\CODE\C\MSXgl\projects\soccerlgSCC/soccerlg_s8_b3.c:283: g_Players[i].PreviousDirection=g_Players[i].Direction;
    00000433 7B               [ 4] 1378 	ld	a, e
    00000434 C6 0B            [ 7] 1379 	add	a, #0x0b
    00000436 47               [ 4] 1380 	ld	b, a
    00000437 7A               [ 4] 1381 	ld	a, d
    00000438 CE 00            [ 7] 1382 	adc	a, #0x00
    0000043A F5               [11] 1383 	push	af
    0000043B 7E               [ 7] 1384 	ld	a, (hl)
    0000043C DD 77 FF         [19] 1385 	ld	-1 (ix), a
    0000043F F1               [10] 1386 	pop	af
    00000440 68               [ 4] 1387 	ld	l, b
    00000441 67               [ 4] 1388 	ld	h, a
    00000442 DD 7E FF         [19] 1389 	ld	a, -1 (ix)
    00000445 77               [ 7] 1390 	ld	(hl), a
                                   1391 ;E:\Dropbox\FAUSTO\SVILUPPI\MSX\CODE\C\MSXgl\projects\soccerlgSCC/soccerlg_s8_b3.c:284: g_Players[i].LastPose=0;
    00000446 21 0C 00         [10] 1392 	ld	hl, #0x000c
    00000449 19               [11] 1393 	add	hl, de
    0000044A 36 00            [10] 1394 	ld	(hl), #0x00
                                   1395 ;E:\Dropbox\FAUSTO\SVILUPPI\MSX\CODE\C\MSXgl\projects\soccerlgSCC/soccerlg_s8_b3.c:285: g_Players[i].Status=PLAYER_STATUS_NONE;
    0000044C 21 12 00         [10] 1396 	ld	hl, #0x0012
    0000044F 19               [11] 1397 	add	hl, de
    00000450 36 00            [10] 1398 	ld	(hl), #0x00
    00000452 23               [ 6] 1399 	inc	hl
    00000453 36 00            [10] 1400 	ld	(hl), #0x00
    00000455 2B               [ 6] 1401 	dec	hl
                                   1402 ;E:\Dropbox\FAUSTO\SVILUPPI\MSX\CODE\C\MSXgl\projects\soccerlgSCC/soccerlg_s8_b3.c:286: g_Players[i].Status=PLAYER_STATUS_NONE;
    00000456 AF               [ 4] 1403 	xor	a, a
    00000457 77               [ 7] 1404 	ld	(hl), a
    00000458 23               [ 6] 1405 	inc	hl
    00000459 77               [ 7] 1406 	ld	(hl), a
                                   1407 ;E:\Dropbox\FAUSTO\SVILUPPI\MSX\CODE\C\MSXgl\projects\soccerlgSCC/soccerlg_s8_b3.c:281: for(u8 i=0;i<14;i++){
    0000045A 0C               [ 4] 1408 	inc	c
    0000045B C3r18r04         [10] 1409 	jp	00103$
    0000045E                       1410 00105$:
                                   1411 ;E:\Dropbox\FAUSTO\SVILUPPI\MSX\CODE\C\MSXgl\projects\soccerlgSCC/soccerlg_s8_b3.c:288: }
    0000045E 33               [ 6] 1412 	inc	sp
    0000045F DD E1            [14] 1413 	pop	ix
    00000461 C9               [10] 1414 	ret
                                   1415 ;E:\Dropbox\FAUSTO\SVILUPPI\MSX\CODE\C\MSXgl\projects\soccerlgSCC/soccerlg_s8_b3.c:291: void ShowMenu(){
                                   1416 ;	---------------------------------
                                   1417 ; Function ShowMenu
                                   1418 ; ---------------------------------
    00000462                       1419 _ShowMenu::
    00000462 DD E5            [15] 1420 	push	ix
    00000464 DD 21 00 00      [14] 1421 	ld	ix,#0
    00000468 DD 39            [15] 1422 	add	ix,sp
    0000046A 21 F4 FF         [10] 1423 	ld	hl, #-12
    0000046D 39               [11] 1424 	add	hl, sp
    0000046E F9               [ 6] 1425 	ld	sp, hl
                                   1426 ;E:\Dropbox\FAUSTO\SVILUPPI\MSX\CODE\C\MSXgl\projects\soccerlgSCC/soccerlg_s8_b3.c:292: g_MatchStatus=MATCH_SHOW_MENU;
    0000046F 21r00r00         [10] 1427 	ld	hl, #_g_MatchStatus
    00000472 36 13            [10] 1428 	ld	(hl), #0x13
                                   1429 ;E:/Dropbox/FAUSTO/SVILUPPI/MSX/CODE/C/MSXgl/engine/src/v9990.h:574: inline void V9_SetInterrupt(u8 flags) { V9_SetRegister(9, flags); }
    00000474 2E 00            [ 7] 1430 	ld	l, #0x00
                                   1431 ;	spillPairReg hl
                                   1432 ;	spillPairReg hl
    00000476 3E 09            [ 7] 1433 	ld	a, #0x09
    00000478 CDr00r00         [17] 1434 	call	_V9_SetRegister
                                   1435 ;E:\Dropbox\FAUSTO\SVILUPPI\MSX\CODE\C\MSXgl\projects\soccerlgSCC/soccerlg_s8_b3.c:294: g_PonPonGirlsAreVisible = FALSE;
    0000047B 21r00r00         [10] 1436 	ld	hl, #_g_PonPonGirlsAreVisible
    0000047E 36 00            [10] 1437 	ld	(hl), #0x00
                                   1438 ;E:\Dropbox\FAUSTO\SVILUPPI\MSX\CODE\C\MSXgl\projects\soccerlgSCC/soccerlg_s8_b3.c:295: g_FieldCurrentYPosition = -1; // Sync global variable to desired menu scroll
    00000480 21 FF FF         [10] 1439 	ld	hl, #0xffff
    00000483 22r00r00         [16] 1440 	ld	(_g_FieldCurrentYPosition), hl
                                   1441 ;E:\Dropbox\FAUSTO\SVILUPPI\MSX\CODE\C\MSXgl\projects\soccerlgSCC/soccerlg_s8_b3.c:297: V9_SetScrollingBY(-1);
    00000486 CDr00r00         [17] 1442 	call	_V9_SetScrollingBY
                                   1443 ;E:\Dropbox\FAUSTO\SVILUPPI\MSX\CODE\C\MSXgl\projects\soccerlgSCC/soccerlg_s8_b3.c:298: V9_SetScrollingY(-1);
    00000489 21 FF FF         [10] 1444 	ld	hl, #0xffff
    0000048C CDr00r00         [17] 1445 	call	_V9_SetScrollingY
                                   1446 ;E:\Dropbox\FAUSTO\SVILUPPI\MSX\CODE\C\MSXgl\projects\soccerlgSCC/soccerlg_s8_b3.c:299: YSCC_PlayLoop(SCC_MENU_BIN_SEG,SCC_MENU_BIN_SIZE);
    0000048F 21 0A 00         [10] 1447 	ld	hl, #0x000a
    00000492 E5               [11] 1448 	push	hl
    00000493 21 80 C9         [10] 1449 	ld	hl, #0xc980
    00000496 E5               [11] 1450 	push	hl
    00000497 3E 91            [ 7] 1451 	ld	a, #0x91
    00000499 CDr00r00         [17] 1452 	call	_YSCC_PlayLoop
                                   1453 ;E:\Dropbox\FAUSTO\SVILUPPI\MSX\CODE\C\MSXgl\projects\soccerlgSCC/soccerlg_s8_b3.c:300: for(u8 i=0;i<32;i++){
    0000049C 0E 00            [ 7] 1454 	ld	c, #0x00
    0000049E                       1455 00163$:
    0000049E 79               [ 4] 1456 	ld	a, c
    0000049F D6 20            [ 7] 1457 	sub	a, #0x20
    000004A1 30 2F            [12] 1458 	jr	NC, 00101$
                                   1459 ;E:\Dropbox\FAUSTO\SVILUPPI\MSX\CODE\C\MSXgl\projects\soccerlgSCC/soccerlg_s8_b3.c:302: attr.D = 1;
    000004A3 21 03 00         [10] 1460 	ld	hl, #3
    000004A6 39               [11] 1461 	add	hl, sp
    000004A7 CB E6            [15] 1462 	set	4, (hl)
                                   1463 ;E:\Dropbox\FAUSTO\SVILUPPI\MSX\CODE\C\MSXgl\projects\soccerlgSCC/soccerlg_s8_b3.c:303: V9_SetSpriteP1(i, &attr);
                                   1464 ;E:/Dropbox/FAUSTO/SVILUPPI/MSX/CODE/C/MSXgl/engine/src/v9990.h:781: inline void V9_SetSpriteP1(u8 id, const V9_Sprite* attr) { V9_WriteVRAM(V9_P1_SPAT + (id * 4), (const u8*)attr, 4); }
    000004A9 69               [ 4] 1465 	ld	l, c
                                   1466 ;	spillPairReg hl
                                   1467 ;	spillPairReg hl
    000004AA 26 00            [ 7] 1468 	ld	h, #0x00
                                   1469 ;	spillPairReg hl
                                   1470 ;	spillPairReg hl
    000004AC 29               [11] 1471 	add	hl, hl
    000004AD 29               [11] 1472 	add	hl, hl
    000004AE 7C               [ 4] 1473 	ld	a, h
    000004AF 07               [ 4] 1474 	rlca
    000004B0 9F               [ 4] 1475 	sbc	a, a
    000004B1 5F               [ 4] 1476 	ld	e, a
    000004B2 57               [ 4] 1477 	ld	d, a
    000004B3 7C               [ 4] 1478 	ld	a, h
    000004B4 C6 FE            [ 7] 1479 	add	a, #0xfe
    000004B6 67               [ 4] 1480 	ld	h, a
                                   1481 ;	spillPairReg hl
                                   1482 ;	spillPairReg hl
    000004B7 7B               [ 4] 1483 	ld	a, e
    000004B8 CE 03            [ 7] 1484 	adc	a, #0x03
    000004BA 5F               [ 4] 1485 	ld	e, a
    000004BB 30 01            [12] 1486 	jr	NC, 00396$
    000004BD 14               [ 4] 1487 	inc	d
    000004BE                       1488 00396$:
                                   1489 ;E:/Dropbox/FAUSTO/SVILUPPI/MSX/CODE/C/MSXgl/engine/src/v9990.h:371: inline void V9_WriteVRAM(u32 addr, const u8* src, u16 count) { V9_SetWriteAddress(addr); V9_WriteVRAM_CurrentAddr(src, count); }
    000004BE C5               [11] 1490 	push	bc
    000004BF EB               [ 4] 1491 	ex	de, hl
    000004C0 CDr00r00         [17] 1492 	call	_V9_SetWriteAddress
    000004C3 11 04 00         [10] 1493 	ld	de, #0x0004
    000004C6 21 02 00         [10] 1494 	ld	hl, #2
    000004C9 39               [11] 1495 	add	hl, sp
    000004CA CDr00r00         [17] 1496 	call	_V9_WriteVRAM_CurrentAddr
    000004CD C1               [10] 1497 	pop	bc
                                   1498 ;E:\Dropbox\FAUSTO\SVILUPPI\MSX\CODE\C\MSXgl\projects\soccerlgSCC/soccerlg_s8_b3.c:300: for(u8 i=0;i<32;i++){
    000004CE 0C               [ 4] 1499 	inc	c
    000004CF C3r9Er04         [10] 1500 	jp	00163$
    000004D2                       1501 00101$:
                                   1502 ;E:/Dropbox/FAUSTO/SVILUPPI/MSX/CODE/C/MSXgl/engine/src/v9990.h:258: inline void V9_SetFlag(u8 reg, u8 mask, u8 flag) { V9_SetRegister(reg, V9_GetRegister(reg) & (~mask) | flag); }
    000004D2 3E 08            [ 7] 1503 	ld	a, #0x08
    000004D4 CDr00r00         [17] 1504 	call	_V9_GetRegister
    000004D7 6F               [ 4] 1505 	ld	l, a
                                   1506 ;	spillPairReg hl
                                   1507 ;	spillPairReg hl
    000004D8 CB BD            [ 8] 1508 	res	7, l
    000004DA 3E 08            [ 7] 1509 	ld	a, #0x08
    000004DC CDr00r00         [17] 1510 	call	_V9_SetRegister
                                   1511 ;E:/Dropbox/FAUSTO/SVILUPPI/MSX/CODE/C/MSXgl/engine/src/v9990.h:353: inline void V9_FillVRAM(u32 addr, u8 value, u16 count) { V9_SetWriteAddress(addr); V9_FillVRAM_CurrentAddr(value, count); }
    000004DF 11 00 00         [10] 1512 	ld	de, #0x0000
    000004E2 21 04 00         [10] 1513 	ld	hl, #0x0004
    000004E5 CDr00r00         [17] 1514 	call	_V9_SetWriteAddress
    000004E8 11 00 6A         [10] 1515 	ld	de, #0x6a00
    000004EB AF               [ 4] 1516 	xor	a, a
    000004EC CDr00r00         [17] 1517 	call	_V9_FillVRAM_CurrentAddr
                                   1518 ;E:\Dropbox\FAUSTO\SVILUPPI\MSX\CODE\C\MSXgl\projects\soccerlgSCC/soccerlg_s8_b3.c:310: V9990_LoadMenuTeamsData();
    000004EF CDr00r00         [17] 1519 	call	_V9990_LoadMenuTeamsData
                                   1520 ;E:/Dropbox/FAUSTO/SVILUPPI/MSX/CODE/C/MSXgl/engine/src/v9990.h:1047: inline void V9_SelectPaletteP1(u8 a, u8 b) { V9_SetRegister(13, ((b & 0x3) << 2) + (a & 0x3)); }
    000004F2 3E 01            [ 7] 1521 	ld	a, #0x01
    000004F4 E6 03            [ 7] 1522 	and	a, #0x03
    000004F6 87               [ 4] 1523 	add	a, a
    000004F7 87               [ 4] 1524 	add	a, a
    000004F8 4F               [ 4] 1525 	ld	c, a
    000004F9 AF               [ 4] 1526 	xor	a, a
    000004FA E6 03            [ 7] 1527 	and	a, #0x03
    000004FC 81               [ 4] 1528 	add	a, c
    000004FD 6F               [ 4] 1529 	ld	l, a
                                   1530 ;	spillPairReg hl
                                   1531 ;	spillPairReg hl
    000004FE 3E 0D            [ 7] 1532 	ld	a, #0x0d
    00000500 CDr00r00         [17] 1533 	call	_V9_SetRegister
                                   1534 ;E:\Dropbox\FAUSTO\SVILUPPI\MSX\CODE\C\MSXgl\projects\soccerlgSCC/soccerlg_s8_b3.c:312: for (u8 y=0;y<64;y++){
    00000503 DD 36 FF 00      [19] 1535 	ld	-1 (ix), #0x00
    00000507                       1536 00169$:
    00000507 DD 7E FF         [19] 1537 	ld	a, -1 (ix)
    0000050A D6 40            [ 7] 1538 	sub	a, #0x40
    0000050C 30 3D            [12] 1539 	jr	NC, 00103$
                                   1540 ;E:\Dropbox\FAUSTO\SVILUPPI\MSX\CODE\C\MSXgl\projects\soccerlgSCC/soccerlg_s8_b3.c:313: for (u8 x=0;x<64;x++){
    0000050E 0E 00            [ 7] 1541 	ld	c, #0x00
    00000510                       1542 00166$:
    00000510 79               [ 4] 1543 	ld	a, c
    00000511 D6 40            [ 7] 1544 	sub	a, #0x40
    00000513 30 30            [12] 1545 	jr	NC, 00170$
                                   1546 ;E:/Dropbox/FAUSTO/SVILUPPI/MSX/CODE/C/MSXgl/engine/src/v9990.h:1426: inline u32 V9_CellAddrP1A(u8 x, u8 y) { return V9_P1_PNT_A + (((64 * y) + x) * 2); }
    00000515 DD 6E FF         [19] 1547 	ld	l, -1 (ix)
                                   1548 ;	spillPairReg hl
                                   1549 ;	spillPairReg hl
    00000518 26 00            [ 7] 1550 	ld	h, #0x00
                                   1551 ;	spillPairReg hl
                                   1552 ;	spillPairReg hl
    0000051A 29               [11] 1553 	add	hl, hl
    0000051B 29               [11] 1554 	add	hl, hl
    0000051C 29               [11] 1555 	add	hl, hl
    0000051D 29               [11] 1556 	add	hl, hl
    0000051E 29               [11] 1557 	add	hl, hl
    0000051F 29               [11] 1558 	add	hl, hl
    00000520 59               [ 4] 1559 	ld	e, c
    00000521 16 00            [ 7] 1560 	ld	d, #0x00
    00000523 19               [11] 1561 	add	hl, de
    00000524 29               [11] 1562 	add	hl, hl
    00000525 7C               [ 4] 1563 	ld	a, h
    00000526 07               [ 4] 1564 	rlca
    00000527 9F               [ 4] 1565 	sbc	a, a
    00000528 5F               [ 4] 1566 	ld	e, a
    00000529 57               [ 4] 1567 	ld	d, a
    0000052A 7C               [ 4] 1568 	ld	a, h
    0000052B C6 C0            [ 7] 1569 	add	a, #0xc0
    0000052D 67               [ 4] 1570 	ld	h, a
                                   1571 ;	spillPairReg hl
                                   1572 ;	spillPairReg hl
    0000052E 7B               [ 4] 1573 	ld	a, e
    0000052F CE 07            [ 7] 1574 	adc	a, #0x07
    00000531 5F               [ 4] 1575 	ld	e, a
    00000532 30 01            [12] 1576 	jr	NC, 00397$
    00000534 14               [ 4] 1577 	inc	d
    00000535                       1578 00397$:
                                   1579 ;E:/Dropbox/FAUSTO/SVILUPPI/MSX/CODE/C/MSXgl/engine/src/v9990.h:396: inline void V9_Poke16(u32 addr, u16 val) { V9_SetWriteAddress(addr); V9_Poke16_CurrentAddr(val); }
    00000535 C5               [11] 1580 	push	bc
    00000536 EB               [ 4] 1581 	ex	de, hl
    00000537 CDr00r00         [17] 1582 	call	_V9_SetWriteAddress
    0000053A C1               [10] 1583 	pop	bc
    0000053B 21 20 00         [10] 1584 	ld	hl, #0x0020
    0000053E CDr00r00         [17] 1585 	call	_V9_Poke16_CurrentAddr
                                   1586 ;E:\Dropbox\FAUSTO\SVILUPPI\MSX\CODE\C\MSXgl\projects\soccerlgSCC/soccerlg_s8_b3.c:313: for (u8 x=0;x<64;x++){
    00000541 0C               [ 4] 1587 	inc	c
    00000542 C3r10r05         [10] 1588 	jp	00166$
    00000545                       1589 00170$:
                                   1590 ;E:\Dropbox\FAUSTO\SVILUPPI\MSX\CODE\C\MSXgl\projects\soccerlgSCC/soccerlg_s8_b3.c:312: for (u8 y=0;y<64;y++){
    00000545 DD 34 FF         [23] 1591 	inc	-1 (ix)
    00000548 C3r07r05         [10] 1592 	jp	00169$
    0000054B                       1593 00103$:
                                   1594 ;E:\Dropbox\FAUSTO\SVILUPPI\MSX\CODE\C\MSXgl\projects\soccerlgSCC/soccerlg_s8_b3.c:317: for (u8 y=4;y<25;y++){
    0000054B 0E 04            [ 7] 1595 	ld	c, #0x04
    0000054D                       1596 00175$:
                                   1597 ;E:\Dropbox\FAUSTO\SVILUPPI\MSX\CODE\C\MSXgl\projects\soccerlgSCC/soccerlg_s8_b3.c:318: u16 tileId=256+32*(y-5);
    0000054D 79               [ 4] 1598 	ld	a,c
    0000054E FE 19            [ 7] 1599 	cp	a,#0x19
    00000550 D2r01r06         [10] 1600 	jp	NC,00105$
    00000553 06 00            [ 7] 1601 	ld	b, #0x00
    00000555 C6 FB            [ 7] 1602 	add	a, #0xfb
    00000557 6F               [ 4] 1603 	ld	l, a
                                   1604 ;	spillPairReg hl
                                   1605 ;	spillPairReg hl
    00000558 78               [ 4] 1606 	ld	a, b
    00000559 CE FF            [ 7] 1607 	adc	a, #0xff
    0000055B 67               [ 4] 1608 	ld	h, a
    0000055C 29               [11] 1609 	add	hl, hl
    0000055D 29               [11] 1610 	add	hl, hl
    0000055E 29               [11] 1611 	add	hl, hl
    0000055F 29               [11] 1612 	add	hl, hl
    00000560 29               [11] 1613 	add	hl, hl
    00000561 7C               [ 4] 1614 	ld	a, h
    00000562 3C               [ 4] 1615 	inc	a
    00000563 DD 75 FD         [19] 1616 	ld	-3 (ix), l
    00000566 DD 77 FE         [19] 1617 	ld	-2 (ix), a
                                   1618 ;E:\Dropbox\FAUSTO\SVILUPPI\MSX\CODE\C\MSXgl\projects\soccerlgSCC/soccerlg_s8_b3.c:319: for (u8 x=1;x<31;x++){
    00000569 DD 36 FF 01      [19] 1619 	ld	-1 (ix), #0x01
    0000056D                       1620 00172$:
    0000056D DD 7E FF         [19] 1621 	ld	a, -1 (ix)
    00000570 D6 1F            [ 7] 1622 	sub	a, #0x1f
    00000572 D2rFDr05         [10] 1623 	jp	NC, 00176$
                                   1624 ;E:\Dropbox\FAUSTO\SVILUPPI\MSX\CODE\C\MSXgl\projects\soccerlgSCC/soccerlg_s8_b3.c:320: V9_Poke16(V9_CellAddrP1A(x,y-1), tileId);
    00000575 79               [ 4] 1625 	ld	a, c
    00000576 3D               [ 4] 1626 	dec	a
    00000577 DD 77 F8         [19] 1627 	ld	-8 (ix), a
    0000057A 6F               [ 4] 1628 	ld	l, a
                                   1629 ;	spillPairReg hl
                                   1630 ;	spillPairReg hl
                                   1631 ;E:/Dropbox/FAUSTO/SVILUPPI/MSX/CODE/C/MSXgl/engine/src/v9990.h:1426: inline u32 V9_CellAddrP1A(u8 x, u8 y) { return V9_P1_PNT_A + (((64 * y) + x) * 2); }
    0000057B 26 00            [ 7] 1632 	ld	h, #0x00
                                   1633 ;	spillPairReg hl
                                   1634 ;	spillPairReg hl
    0000057D 29               [11] 1635 	add	hl, hl
    0000057E 29               [11] 1636 	add	hl, hl
    0000057F 29               [11] 1637 	add	hl, hl
    00000580 29               [11] 1638 	add	hl, hl
    00000581 29               [11] 1639 	add	hl, hl
    00000582 29               [11] 1640 	add	hl, hl
    00000583 DD 5E FF         [19] 1641 	ld	e, -1 (ix)
    00000586 16 00            [ 7] 1642 	ld	d, #0x00
    00000588 19               [11] 1643 	add	hl, de
    00000589 29               [11] 1644 	add	hl, hl
    0000058A 7D               [ 4] 1645 	ld	a, l
    0000058B F5               [11] 1646 	push	af
    0000058C 7C               [ 4] 1647 	ld	a, h
    0000058D 47               [ 4] 1648 	ld	b, a
    0000058E 07               [ 4] 1649 	rlca
    0000058F ED 62            [15] 1650 	sbc	hl, hl
    00000591 F1               [10] 1651 	pop	af
    00000592 DD 77 F9         [19] 1652 	ld	-7 (ix), a
    00000595 78               [ 4] 1653 	ld	a, b
    00000596 C6 C0            [ 7] 1654 	add	a, #0xc0
    00000598 DD 77 FA         [19] 1655 	ld	-6 (ix), a
    0000059B 7D               [ 4] 1656 	ld	a, l
    0000059C CE 07            [ 7] 1657 	adc	a, #0x07
    0000059E DD 77 FB         [19] 1658 	ld	-5 (ix), a
    000005A1 7C               [ 4] 1659 	ld	a, h
    000005A2 CE 00            [ 7] 1660 	adc	a, #0x00
    000005A4 DD 77 FC         [19] 1661 	ld	-4 (ix), a
                                   1662 ;E:/Dropbox/FAUSTO/SVILUPPI/MSX/CODE/C/MSXgl/engine/src/v9990.h:396: inline void V9_Poke16(u32 addr, u16 val) { V9_SetWriteAddress(addr); V9_Poke16_CurrentAddr(val); }
    000005A7 C5               [11] 1663 	push	bc
    000005A8 D5               [11] 1664 	push	de
    000005A9 DD 5E F9         [19] 1665 	ld	e, -7 (ix)
    000005AC DD 56 FA         [19] 1666 	ld	d, -6 (ix)
    000005AF DD 6E FB         [19] 1667 	ld	l, -5 (ix)
                                   1668 ;	spillPairReg hl
                                   1669 ;	spillPairReg hl
    000005B2 DD 66 FC         [19] 1670 	ld	h, -4 (ix)
                                   1671 ;	spillPairReg hl
                                   1672 ;	spillPairReg hl
    000005B5 CDr00r00         [17] 1673 	call	_V9_SetWriteAddress
    000005B8 D1               [10] 1674 	pop	de
    000005B9 C1               [10] 1675 	pop	bc
    000005BA DD 6E FD         [19] 1676 	ld	l, -3 (ix)
                                   1677 ;	spillPairReg hl
                                   1678 ;	spillPairReg hl
    000005BD DD 66 FE         [19] 1679 	ld	h, -2 (ix)
                                   1680 ;	spillPairReg hl
                                   1681 ;	spillPairReg hl
    000005C0 CDr00r00         [17] 1682 	call	_V9_Poke16_CurrentAddr
                                   1683 ;E:\Dropbox\FAUSTO\SVILUPPI\MSX\CODE\C\MSXgl\projects\soccerlgSCC/soccerlg_s8_b3.c:321: V9_Poke16(V9_CellAddrP1B(x,y-1), tileId);
    000005C3 DD 6E F8         [19] 1684 	ld	l, -8 (ix)
                                   1685 ;	spillPairReg hl
                                   1686 ;	spillPairReg hl
                                   1687 ;E:/Dropbox/FAUSTO/SVILUPPI/MSX/CODE/C/MSXgl/engine/src/v9990.h:1437: inline u32 V9_CellAddrP1B(u8 x, u8 y) { return V9_P1_PNT_B + (((64 * y) + x) * 2); }
    000005C6 26 00            [ 7] 1688 	ld	h, #0x00
                                   1689 ;	spillPairReg hl
                                   1690 ;	spillPairReg hl
    000005C8 29               [11] 1691 	add	hl, hl
    000005C9 29               [11] 1692 	add	hl, hl
    000005CA 29               [11] 1693 	add	hl, hl
    000005CB 29               [11] 1694 	add	hl, hl
    000005CC 29               [11] 1695 	add	hl, hl
    000005CD 29               [11] 1696 	add	hl, hl
    000005CE 19               [11] 1697 	add	hl, de
    000005CF 29               [11] 1698 	add	hl, hl
    000005D0 7C               [ 4] 1699 	ld	a, h
    000005D1 07               [ 4] 1700 	rlca
    000005D2 9F               [ 4] 1701 	sbc	a, a
    000005D3 5F               [ 4] 1702 	ld	e, a
    000005D4 57               [ 4] 1703 	ld	d, a
    000005D5 7C               [ 4] 1704 	ld	a, h
    000005D6 C6 E0            [ 7] 1705 	add	a, #0xe0
    000005D8 67               [ 4] 1706 	ld	h, a
                                   1707 ;	spillPairReg hl
                                   1708 ;	spillPairReg hl
    000005D9 7B               [ 4] 1709 	ld	a, e
    000005DA CE 07            [ 7] 1710 	adc	a, #0x07
    000005DC 5F               [ 4] 1711 	ld	e, a
    000005DD 30 01            [12] 1712 	jr	NC, 00398$
    000005DF 14               [ 4] 1713 	inc	d
    000005E0                       1714 00398$:
                                   1715 ;E:/Dropbox/FAUSTO/SVILUPPI/MSX/CODE/C/MSXgl/engine/src/v9990.h:396: inline void V9_Poke16(u32 addr, u16 val) { V9_SetWriteAddress(addr); V9_Poke16_CurrentAddr(val); }
    000005E0 C5               [11] 1716 	push	bc
    000005E1 EB               [ 4] 1717 	ex	de, hl
    000005E2 CDr00r00         [17] 1718 	call	_V9_SetWriteAddress
    000005E5 C1               [10] 1719 	pop	bc
    000005E6 DD 6E FD         [19] 1720 	ld	l, -3 (ix)
                                   1721 ;	spillPairReg hl
                                   1722 ;	spillPairReg hl
    000005E9 DD 66 FE         [19] 1723 	ld	h, -2 (ix)
                                   1724 ;	spillPairReg hl
                                   1725 ;	spillPairReg hl
    000005EC CDr00r00         [17] 1726 	call	_V9_Poke16_CurrentAddr
                                   1727 ;E:\Dropbox\FAUSTO\SVILUPPI\MSX\CODE\C\MSXgl\projects\soccerlgSCC/soccerlg_s8_b3.c:322: tileId++;
    000005EF DD 34 FD         [23] 1728 	inc	-3 (ix)
    000005F2 20 03            [12] 1729 	jr	NZ, 00399$
    000005F4 DD 34 FE         [23] 1730 	inc	-2 (ix)
    000005F7                       1731 00399$:
                                   1732 ;E:\Dropbox\FAUSTO\SVILUPPI\MSX\CODE\C\MSXgl\projects\soccerlgSCC/soccerlg_s8_b3.c:319: for (u8 x=1;x<31;x++){
    000005F7 DD 34 FF         [23] 1733 	inc	-1 (ix)
    000005FA C3r6Dr05         [10] 1734 	jp	00172$
    000005FD                       1735 00176$:
                                   1736 ;E:\Dropbox\FAUSTO\SVILUPPI\MSX\CODE\C\MSXgl\projects\soccerlgSCC/soccerlg_s8_b3.c:317: for (u8 y=4;y<25;y++){
    000005FD 0C               [ 4] 1737 	inc	c
    000005FE C3r4Dr05         [10] 1738 	jp	00175$
    00000601                       1739 00105$:
                                   1740 ;E:\Dropbox\FAUSTO\SVILUPPI\MSX\CODE\C\MSXgl\projects\soccerlgSCC/soccerlg_s8_b3.c:325: V9990_LoadSprites();
    00000601 CDr00r00         [17] 1741 	call	_V9990_LoadSprites
                                   1742 ;E:\Dropbox\FAUSTO\SVILUPPI\MSX\CODE\C\MSXgl\projects\soccerlgSCC/soccerlg_s8_b3.c:327: loop (i, 125)
    00000604 0E 00            [ 7] 1743 	ld	c, #0x00
    00000606                       1744 00178$:
    00000606 79               [ 4] 1745 	ld	a, c
    00000607 D6 7D            [ 7] 1746 	sub	a, #0x7d
    00000609 30 4C            [12] 1747 	jr	NC, 00106$
                                   1748 ;E:/Dropbox/FAUSTO/SVILUPPI/MSX/CODE/C/MSXgl/engine/src/v9990.h:826: u8 val = V9_Peek(V9_P1_SPAT + 3 + (id * 4));
    0000060B 69               [ 4] 1749 	ld	l, c
                                   1750 ;	spillPairReg hl
                                   1751 ;	spillPairReg hl
    0000060C 26 00            [ 7] 1752 	ld	h, #0x00
                                   1753 ;	spillPairReg hl
                                   1754 ;	spillPairReg hl
    0000060E 29               [11] 1755 	add	hl, hl
    0000060F 29               [11] 1756 	add	hl, hl
    00000610 7C               [ 4] 1757 	ld	a, h
    00000611 07               [ 4] 1758 	rlca
    00000612 9F               [ 4] 1759 	sbc	a, a
    00000613 5F               [ 4] 1760 	ld	e, a
    00000614 57               [ 4] 1761 	ld	d, a
    00000615 D5               [11] 1762 	push	de
    00000616 11 03 FE         [10] 1763 	ld	de, #0xfe03
    00000619 19               [11] 1764 	add	hl, de
    0000061A D1               [10] 1765 	pop	de
    0000061B 7B               [ 4] 1766 	ld	a, e
    0000061C CE 03            [ 7] 1767 	adc	a, #0x03
    0000061E 5F               [ 4] 1768 	ld	e, a
    0000061F 30 01            [12] 1769 	jr	NC, 00400$
    00000621 14               [ 4] 1770 	inc	d
    00000622                       1771 00400$:
    00000622 DD 75 FC         [19] 1772 	ld	-4 (ix), l
    00000625 DD 74 FD         [19] 1773 	ld	-3 (ix), h
    00000628 DD 73 FE         [19] 1774 	ld	-2 (ix), e
    0000062B DD 72 FF         [19] 1775 	ld	-1 (ix), d
    0000062E E5               [11] 1776 	push	hl
    0000062F C5               [11] 1777 	push	bc
    00000630 D5               [11] 1778 	push	de
    00000631 DD 5E FC         [19] 1779 	ld	e, -4 (ix)
    00000634 DD 56 FD         [19] 1780 	ld	d, -3 (ix)
    00000637 DD 6E FE         [19] 1781 	ld	l, -2 (ix)
                                   1782 ;	spillPairReg hl
                                   1783 ;	spillPairReg hl
    0000063A DD 66 FF         [19] 1784 	ld	h, -1 (ix)
                                   1785 ;	spillPairReg hl
                                   1786 ;	spillPairReg hl
    0000063D CDr00r00         [17] 1787 	call	_V9_SetReadAddress
    00000640 D1               [10] 1788 	pop	de
    00000641 C1               [10] 1789 	pop	bc
    00000642 CDr00r00         [17] 1790 	call	_V9_Peek_CurrentAddr
    00000645 E1               [10] 1791 	pop	hl
                                   1792 ;E:/Dropbox/FAUSTO/SVILUPPI/MSX/CODE/C/MSXgl/engine/src/v9990.h:830: val |= V9_SPAT_DISABLE_MASK;
    00000646 47               [ 4] 1793 	ld	b, a
    00000647 CB E0            [ 8] 1794 	set	4, b
                                   1795 ;E:/Dropbox/FAUSTO/SVILUPPI/MSX/CODE/C/MSXgl/engine/src/v9990.h:388: inline void V9_Poke(u32 addr, u8 val) { V9_SetWriteAddress(addr); V9_Poke_CurrentAddr(val); }
    00000649 C5               [11] 1796 	push	bc
    0000064A EB               [ 4] 1797 	ex	de, hl
    0000064B CDr00r00         [17] 1798 	call	_V9_SetWriteAddress
    0000064E C1               [10] 1799 	pop	bc
    0000064F 78               [ 4] 1800 	ld	a, b
    00000650 CDr00r00         [17] 1801 	call	_V9_Poke_CurrentAddr
                                   1802 ;E:\Dropbox\FAUSTO\SVILUPPI\MSX\CODE\C\MSXgl\projects\soccerlgSCC/soccerlg_s8_b3.c:327: loop (i, 125)
    00000653 0C               [ 4] 1803 	inc	c
    00000654 C3r06r06         [10] 1804 	jp	00178$
    00000657                       1805 00106$:
                                   1806 ;E:/Dropbox/FAUSTO/SVILUPPI/MSX/CODE/C/MSXgl/engine/src/v9990.h:574: inline void V9_SetInterrupt(u8 flags) { V9_SetRegister(9, flags); }
    00000657 2E 01            [ 7] 1807 	ld	l, #0x01
                                   1808 ;	spillPairReg hl
                                   1809 ;	spillPairReg hl
    00000659 3E 09            [ 7] 1810 	ld	a, #0x09
    0000065B CDr00r00         [17] 1811 	call	_V9_SetRegister
                                   1812 ;E:/Dropbox/FAUSTO/SVILUPPI/MSX/CODE/C/MSXgl/engine/src/v9990.h:258: inline void V9_SetFlag(u8 reg, u8 mask, u8 flag) { V9_SetRegister(reg, V9_GetRegister(reg) & (~mask) | flag); }
    0000065E 3E 08            [ 7] 1813 	ld	a, #0x08
    00000660 CDr00r00         [17] 1814 	call	_V9_GetRegister
    00000663 CB BF            [ 8] 1815 	res	7, a
    00000665 6F               [ 4] 1816 	ld	l, a
                                   1817 ;	spillPairReg hl
                                   1818 ;	spillPairReg hl
    00000666 CB FD            [ 8] 1819 	set	7, l
    00000668 3E 08            [ 7] 1820 	ld	a, #0x08
    0000066A CDr00r00         [17] 1821 	call	_V9_SetRegister
                                   1822 ;E:\Dropbox\FAUSTO\SVILUPPI\MSX\CODE\C\MSXgl\projects\soccerlgSCC/soccerlg_s8_b3.c:333: V9990_PrintLayerAStringAtPos(4,0,"    PLAYER TEAM SELECT");
    0000066D 21r1Cr09         [10] 1823 	ld	hl, #___str_0
    00000670 E5               [11] 1824 	push	hl
    00000671 2E 00            [ 7] 1825 	ld	l, #0x00
                                   1826 ;	spillPairReg hl
                                   1827 ;	spillPairReg hl
    00000673 3E 04            [ 7] 1828 	ld	a, #0x04
    00000675 CDr00r00         [17] 1829 	call	_V9990_PrintLayerAStringAtPos
                                   1830 ;E:\Dropbox\FAUSTO\SVILUPPI\MSX\CODE\C\MSXgl\projects\soccerlgSCC/soccerlg_s8_b3.c:334: V9990_InitScrollText();
    00000678 CDr00r00         [17] 1831 	call	_V9990_InitScrollText
                                   1832 ;E:\Dropbox\FAUSTO\SVILUPPI\MSX\CODE\C\MSXgl\projects\soccerlgSCC/soccerlg_s8_b3.c:336: g_Team1PaletteId = SelectTeam(SPRITE_PLAYER, NO_VALUE);
    0000067B 2E FF            [ 7] 1833 	ld	l, #0xff
                                   1834 ;	spillPairReg hl
                                   1835 ;	spillPairReg hl
    0000067D 3E F5            [ 7] 1836 	ld	a, #0xf5
    0000067F CDr00r00         [17] 1837 	call	_SelectTeam
                                   1838 ;E:\Dropbox\FAUSTO\SVILUPPI\MSX\CODE\C\MSXgl\projects\soccerlgSCC/soccerlg_s8_b3.c:340: for(u8 y=g_TeamGrayPos[g_Team1PaletteId].y;y<g_TeamGrayPos[g_Team1PaletteId].y+9;y++){
    00000682 32r00r00         [13] 1839 	ld	(_g_Team1PaletteId+0), a
    00000685 6F               [ 4] 1840 	ld	l, a
                                   1841 ;	spillPairReg hl
                                   1842 ;	spillPairReg hl
    00000686 26 00            [ 7] 1843 	ld	h, #0x00
                                   1844 ;	spillPairReg hl
                                   1845 ;	spillPairReg hl
    00000688 29               [11] 1846 	add	hl, hl
    00000689 29               [11] 1847 	add	hl, hl
    0000068A 01rD8r02         [10] 1848 	ld	bc,#_g_TeamGrayPos
    0000068D 09               [11] 1849 	add	hl,bc
    0000068E EB               [ 4] 1850 	ex	de, hl
    0000068F 4B               [ 4] 1851 	ld	c, e
    00000690 42               [ 4] 1852 	ld	b, d
    00000691 03               [ 6] 1853 	inc	bc
    00000692 03               [ 6] 1854 	inc	bc
    00000693 0A               [ 7] 1855 	ld	a, (bc)
    00000694 DD 77 FF         [19] 1856 	ld	-1 (ix), a
    00000697                       1857 00184$:
    00000697 6B               [ 4] 1858 	ld	l, e
                                   1859 ;	spillPairReg hl
                                   1860 ;	spillPairReg hl
    00000698 62               [ 4] 1861 	ld	h, d
                                   1862 ;	spillPairReg hl
                                   1863 ;	spillPairReg hl
    00000699 23               [ 6] 1864 	inc	hl
    0000069A 23               [ 6] 1865 	inc	hl
    0000069B 4E               [ 7] 1866 	ld	c, (hl)
    0000069C 23               [ 6] 1867 	inc	hl
    0000069D 46               [ 7] 1868 	ld	b, (hl)
    0000069E 21 09 00         [10] 1869 	ld	hl, #0x0009
    000006A1 09               [11] 1870 	add	hl, bc
    000006A2 DD 7E FF         [19] 1871 	ld	a, -1 (ix)
    000006A5 06 00            [ 7] 1872 	ld	b, #0x00
    000006A7 95               [ 4] 1873 	sub	a, l
    000006A8 78               [ 4] 1874 	ld	a, b
    000006A9 9C               [ 4] 1875 	sbc	a, h
    000006AA 30 68            [12] 1876 	jr	NC, 00108$
                                   1877 ;E:\Dropbox\FAUSTO\SVILUPPI\MSX\CODE\C\MSXgl\projects\soccerlgSCC/soccerlg_s8_b3.c:341: for(u8 x=g_TeamGrayPos[g_Team1PaletteId].x;x<g_TeamGrayPos[g_Team1PaletteId].x+10;x++){
    000006AC 1A               [ 7] 1878 	ld	a, (de)
    000006AD 47               [ 4] 1879 	ld	b, a
    000006AE                       1880 00181$:
                                   1881 ;E:\Dropbox\FAUSTO\SVILUPPI\MSX\CODE\C\MSXgl\projects\soccerlgSCC/soccerlg_s8_b3.c:340: for(u8 y=g_TeamGrayPos[g_Team1PaletteId].y;y<g_TeamGrayPos[g_Team1PaletteId].y+9;y++){
    000006AE 3Ar00r00         [13] 1882 	ld	a, (_g_Team1PaletteId+0)
    000006B1 26 00            [ 7] 1883 	ld	h, #0x00
                                   1884 ;	spillPairReg hl
                                   1885 ;	spillPairReg hl
    000006B3 6F               [ 4] 1886 	ld	l, a
                                   1887 ;	spillPairReg hl
                                   1888 ;	spillPairReg hl
    000006B4 29               [11] 1889 	add	hl, hl
    000006B5 29               [11] 1890 	add	hl, hl
    000006B6 11rD8r02         [10] 1891 	ld	de, #_g_TeamGrayPos
    000006B9 19               [11] 1892 	add	hl, de
                                   1893 ;E:\Dropbox\FAUSTO\SVILUPPI\MSX\CODE\C\MSXgl\projects\soccerlgSCC/soccerlg_s8_b3.c:341: for(u8 x=g_TeamGrayPos[g_Team1PaletteId].x;x<g_TeamGrayPos[g_Team1PaletteId].x+10;x++){
    000006BA 5D               [ 4] 1894 	ld	e, l
    000006BB 54               [ 4] 1895 	ld	d, h
    000006BC 4E               [ 7] 1896 	ld	c, (hl)
    000006BD 23               [ 6] 1897 	inc	hl
    000006BE 6E               [ 7] 1898 	ld	l, (hl)
                                   1899 ;	spillPairReg hl
    000006BF 79               [ 4] 1900 	ld	a, c
    000006C0 C6 0A            [ 7] 1901 	add	a, #0x0a
    000006C2 DD 77 FB         [19] 1902 	ld	-5 (ix), a
    000006C5 7D               [ 4] 1903 	ld	a, l
    000006C6 CE 00            [ 7] 1904 	adc	a, #0x00
    000006C8 DD 77 FC         [19] 1905 	ld	-4 (ix), a
    000006CB DD 70 FD         [19] 1906 	ld	-3 (ix), b
    000006CE DD 36 FE 00      [19] 1907 	ld	-2 (ix), #0x00
    000006D2 DD 7E FD         [19] 1908 	ld	a, -3 (ix)
    000006D5 DD 96 FB         [19] 1909 	sub	a, -5 (ix)
    000006D8 DD 7E FE         [19] 1910 	ld	a, -2 (ix)
    000006DB DD 9E FC         [19] 1911 	sbc	a, -4 (ix)
    000006DE 30 2E            [12] 1912 	jr	NC, 00185$
                                   1913 ;E:/Dropbox/FAUSTO/SVILUPPI/MSX/CODE/C/MSXgl/engine/src/v9990.h:1426: inline u32 V9_CellAddrP1A(u8 x, u8 y) { return V9_P1_PNT_A + (((64 * y) + x) * 2); }
    000006E0 DD 6E FF         [19] 1914 	ld	l, -1 (ix)
                                   1915 ;	spillPairReg hl
                                   1916 ;	spillPairReg hl
    000006E3 26 00            [ 7] 1917 	ld	h, #0x00
                                   1918 ;	spillPairReg hl
                                   1919 ;	spillPairReg hl
    000006E5 29               [11] 1920 	add	hl, hl
    000006E6 29               [11] 1921 	add	hl, hl
    000006E7 29               [11] 1922 	add	hl, hl
    000006E8 29               [11] 1923 	add	hl, hl
    000006E9 29               [11] 1924 	add	hl, hl
    000006EA 29               [11] 1925 	add	hl, hl
    000006EB 58               [ 4] 1926 	ld	e, b
    000006EC 16 00            [ 7] 1927 	ld	d, #0x00
    000006EE 19               [11] 1928 	add	hl, de
    000006EF 29               [11] 1929 	add	hl, hl
    000006F0 7C               [ 4] 1930 	ld	a, h
    000006F1 07               [ 4] 1931 	rlca
    000006F2 9F               [ 4] 1932 	sbc	a, a
    000006F3 5F               [ 4] 1933 	ld	e, a
    000006F4 57               [ 4] 1934 	ld	d, a
    000006F5 7C               [ 4] 1935 	ld	a, h
    000006F6 C6 C0            [ 7] 1936 	add	a, #0xc0
    000006F8 67               [ 4] 1937 	ld	h, a
                                   1938 ;	spillPairReg hl
                                   1939 ;	spillPairReg hl
    000006F9 7B               [ 4] 1940 	ld	a, e
    000006FA CE 07            [ 7] 1941 	adc	a, #0x07
    000006FC 5F               [ 4] 1942 	ld	e, a
    000006FD 30 01            [12] 1943 	jr	NC, 00401$
    000006FF 14               [ 4] 1944 	inc	d
    00000700                       1945 00401$:
                                   1946 ;E:/Dropbox/FAUSTO/SVILUPPI/MSX/CODE/C/MSXgl/engine/src/v9990.h:396: inline void V9_Poke16(u32 addr, u16 val) { V9_SetWriteAddress(addr); V9_Poke16_CurrentAddr(val); }
    00000700 EB               [ 4] 1947 	ex	de, hl
    00000701 CDr00r00         [17] 1948 	call	_V9_SetWriteAddress
    00000704 21 00 00         [10] 1949 	ld	hl, #0x0000
    00000707 CDr00r00         [17] 1950 	call	_V9_Poke16_CurrentAddr
                                   1951 ;E:\Dropbox\FAUSTO\SVILUPPI\MSX\CODE\C\MSXgl\projects\soccerlgSCC/soccerlg_s8_b3.c:341: for(u8 x=g_TeamGrayPos[g_Team1PaletteId].x;x<g_TeamGrayPos[g_Team1PaletteId].x+10;x++){
    0000070A 04               [ 4] 1952 	inc	b
    0000070B C3rAEr06         [10] 1953 	jp	00181$
    0000070E                       1954 00185$:
                                   1955 ;E:\Dropbox\FAUSTO\SVILUPPI\MSX\CODE\C\MSXgl\projects\soccerlgSCC/soccerlg_s8_b3.c:340: for(u8 y=g_TeamGrayPos[g_Team1PaletteId].y;y<g_TeamGrayPos[g_Team1PaletteId].y+9;y++){
    0000070E DD 34 FF         [23] 1956 	inc	-1 (ix)
    00000711 C3r97r06         [10] 1957 	jp	00184$
    00000714                       1958 00108$:
                                   1959 ;E:\Dropbox\FAUSTO\SVILUPPI\MSX\CODE\C\MSXgl\projects\soccerlgSCC/soccerlg_s8_b3.c:346: V9_SetScrollingBY(-1);
    00000714 21 FF FF         [10] 1960 	ld	hl, #0xffff
    00000717 CDr00r00         [17] 1961 	call	_V9_SetScrollingBY
                                   1962 ;E:\Dropbox\FAUSTO\SVILUPPI\MSX\CODE\C\MSXgl\projects\soccerlgSCC/soccerlg_s8_b3.c:347: V9_SetScrollingY(-1);
    0000071A 21 FF FF         [10] 1963 	ld	hl, #0xffff
    0000071D CDr00r00         [17] 1964 	call	_V9_SetScrollingY
                                   1965 ;E:\Dropbox\FAUSTO\SVILUPPI\MSX\CODE\C\MSXgl\projects\soccerlgSCC/soccerlg_s8_b3.c:349: MenuSpriteBlinking();
    00000720 CDrF0r02         [17] 1966 	call	_MenuSpriteBlinking
                                   1967 ;E:\Dropbox\FAUSTO\SVILUPPI\MSX\CODE\C\MSXgl\projects\soccerlgSCC/soccerlg_s8_b3.c:352: V9990_PrintLayerAStringAtPos(4,0,"     CPU TEAM SELECT   ");
    00000723 21r33r09         [10] 1968 	ld	hl, #___str_1
    00000726 E5               [11] 1969 	push	hl
    00000727 2E 00            [ 7] 1970 	ld	l, #0x00
                                   1971 ;	spillPairReg hl
                                   1972 ;	spillPairReg hl
    00000729 3E 04            [ 7] 1973 	ld	a, #0x04
    0000072B CDr00r00         [17] 1974 	call	_V9990_PrintLayerAStringAtPos
                                   1975 ;E:\Dropbox\FAUSTO\SVILUPPI\MSX\CODE\C\MSXgl\projects\soccerlgSCC/soccerlg_s8_b3.c:354: g_Team2PaletteId = SelectTeam(SPRITE_CPU, g_Team1PaletteId);
    0000072E 3Ar00r00         [13] 1976 	ld	a, (_g_Team1PaletteId+0)
    00000731 6F               [ 4] 1977 	ld	l, a
                                   1978 ;	spillPairReg hl
                                   1979 ;	spillPairReg hl
    00000732 3E F5            [ 7] 1980 	ld	a, #0xf5
    00000734 CDr00r00         [17] 1981 	call	_SelectTeam
                                   1982 ;E:\Dropbox\FAUSTO\SVILUPPI\MSX\CODE\C\MSXgl\projects\soccerlgSCC/soccerlg_s8_b3.c:357: for(u8 y=g_TeamGrayPos[g_Team2PaletteId].y;y<g_TeamGrayPos[g_Team2PaletteId].y+9;y++){
    00000737 32r00r00         [13] 1983 	ld	(_g_Team2PaletteId+0), a
    0000073A 6F               [ 4] 1984 	ld	l, a
                                   1985 ;	spillPairReg hl
                                   1986 ;	spillPairReg hl
    0000073B 26 00            [ 7] 1987 	ld	h, #0x00
                                   1988 ;	spillPairReg hl
                                   1989 ;	spillPairReg hl
    0000073D 29               [11] 1990 	add	hl, hl
    0000073E 29               [11] 1991 	add	hl, hl
    0000073F 01rD8r02         [10] 1992 	ld	bc,#_g_TeamGrayPos
    00000742 09               [11] 1993 	add	hl,bc
    00000743 EB               [ 4] 1994 	ex	de, hl
    00000744 4B               [ 4] 1995 	ld	c, e
    00000745 42               [ 4] 1996 	ld	b, d
    00000746 03               [ 6] 1997 	inc	bc
    00000747 03               [ 6] 1998 	inc	bc
    00000748 0A               [ 7] 1999 	ld	a, (bc)
    00000749 DD 77 FF         [19] 2000 	ld	-1 (ix), a
    0000074C                       2001 00190$:
    0000074C 6B               [ 4] 2002 	ld	l, e
                                   2003 ;	spillPairReg hl
                                   2004 ;	spillPairReg hl
    0000074D 62               [ 4] 2005 	ld	h, d
                                   2006 ;	spillPairReg hl
                                   2007 ;	spillPairReg hl
    0000074E 23               [ 6] 2008 	inc	hl
    0000074F 23               [ 6] 2009 	inc	hl
    00000750 4E               [ 7] 2010 	ld	c, (hl)
    00000751 23               [ 6] 2011 	inc	hl
    00000752 46               [ 7] 2012 	ld	b, (hl)
    00000753 21 09 00         [10] 2013 	ld	hl, #0x0009
    00000756 09               [11] 2014 	add	hl, bc
    00000757 DD 7E FF         [19] 2015 	ld	a, -1 (ix)
    0000075A 06 00            [ 7] 2016 	ld	b, #0x00
    0000075C 95               [ 4] 2017 	sub	a, l
    0000075D 78               [ 4] 2018 	ld	a, b
    0000075E 9C               [ 4] 2019 	sbc	a, h
    0000075F 30 6A            [12] 2020 	jr	NC, 00110$
                                   2021 ;E:\Dropbox\FAUSTO\SVILUPPI\MSX\CODE\C\MSXgl\projects\soccerlgSCC/soccerlg_s8_b3.c:358: for(u8 x=g_TeamGrayPos[g_Team2PaletteId].x;x<g_TeamGrayPos[g_Team2PaletteId].x+10;x++){
    00000761 1A               [ 7] 2022 	ld	a, (de)
    00000762 4F               [ 4] 2023 	ld	c, a
    00000763                       2024 00187$:
                                   2025 ;E:\Dropbox\FAUSTO\SVILUPPI\MSX\CODE\C\MSXgl\projects\soccerlgSCC/soccerlg_s8_b3.c:357: for(u8 y=g_TeamGrayPos[g_Team2PaletteId].y;y<g_TeamGrayPos[g_Team2PaletteId].y+9;y++){
    00000763 3Ar00r00         [13] 2026 	ld	a, (_g_Team2PaletteId+0)
    00000766 26 00            [ 7] 2027 	ld	h, #0x00
                                   2028 ;	spillPairReg hl
                                   2029 ;	spillPairReg hl
    00000768 6F               [ 4] 2030 	ld	l, a
                                   2031 ;	spillPairReg hl
                                   2032 ;	spillPairReg hl
    00000769 29               [11] 2033 	add	hl, hl
    0000076A 29               [11] 2034 	add	hl, hl
    0000076B 11rD8r02         [10] 2035 	ld	de, #_g_TeamGrayPos
    0000076E 19               [11] 2036 	add	hl, de
                                   2037 ;E:\Dropbox\FAUSTO\SVILUPPI\MSX\CODE\C\MSXgl\projects\soccerlgSCC/soccerlg_s8_b3.c:358: for(u8 x=g_TeamGrayPos[g_Team2PaletteId].x;x<g_TeamGrayPos[g_Team2PaletteId].x+10;x++){
    0000076F 5D               [ 4] 2038 	ld	e, l
    00000770 54               [ 4] 2039 	ld	d, h
    00000771 46               [ 7] 2040 	ld	b, (hl)
    00000772 23               [ 6] 2041 	inc	hl
    00000773 6E               [ 7] 2042 	ld	l, (hl)
                                   2043 ;	spillPairReg hl
    00000774 78               [ 4] 2044 	ld	a, b
    00000775 C6 0A            [ 7] 2045 	add	a, #0x0a
    00000777 DD 77 FB         [19] 2046 	ld	-5 (ix), a
    0000077A 7D               [ 4] 2047 	ld	a, l
    0000077B CE 00            [ 7] 2048 	adc	a, #0x00
    0000077D DD 77 FC         [19] 2049 	ld	-4 (ix), a
    00000780 DD 71 FD         [19] 2050 	ld	-3 (ix), c
    00000783 DD 36 FE 00      [19] 2051 	ld	-2 (ix), #0x00
    00000787 DD 7E FD         [19] 2052 	ld	a, -3 (ix)
    0000078A DD 96 FB         [19] 2053 	sub	a, -5 (ix)
    0000078D DD 7E FE         [19] 2054 	ld	a, -2 (ix)
    00000790 DD 9E FC         [19] 2055 	sbc	a, -4 (ix)
    00000793 30 30            [12] 2056 	jr	NC, 00191$
                                   2057 ;E:/Dropbox/FAUSTO/SVILUPPI/MSX/CODE/C/MSXgl/engine/src/v9990.h:1426: inline u32 V9_CellAddrP1A(u8 x, u8 y) { return V9_P1_PNT_A + (((64 * y) + x) * 2); }
    00000795 DD 6E FF         [19] 2058 	ld	l, -1 (ix)
                                   2059 ;	spillPairReg hl
                                   2060 ;	spillPairReg hl
    00000798 26 00            [ 7] 2061 	ld	h, #0x00
                                   2062 ;	spillPairReg hl
                                   2063 ;	spillPairReg hl
    0000079A 29               [11] 2064 	add	hl, hl
    0000079B 29               [11] 2065 	add	hl, hl
    0000079C 29               [11] 2066 	add	hl, hl
    0000079D 29               [11] 2067 	add	hl, hl
    0000079E 29               [11] 2068 	add	hl, hl
    0000079F 29               [11] 2069 	add	hl, hl
    000007A0 59               [ 4] 2070 	ld	e, c
    000007A1 16 00            [ 7] 2071 	ld	d, #0x00
    000007A3 19               [11] 2072 	add	hl, de
    000007A4 29               [11] 2073 	add	hl, hl
    000007A5 EB               [ 4] 2074 	ex	de, hl
    000007A6 7A               [ 4] 2075 	ld	a, d
    000007A7 07               [ 4] 2076 	rlca
    000007A8 9F               [ 4] 2077 	sbc	a, a
    000007A9 47               [ 4] 2078 	ld	b, a
    000007AA 67               [ 4] 2079 	ld	h, a
                                   2080 ;	spillPairReg hl
                                   2081 ;	spillPairReg hl
    000007AB 7A               [ 4] 2082 	ld	a, d
    000007AC C6 C0            [ 7] 2083 	add	a, #0xc0
    000007AE 57               [ 4] 2084 	ld	d, a
    000007AF 78               [ 4] 2085 	ld	a, b
    000007B0 CE 07            [ 7] 2086 	adc	a, #0x07
    000007B2 6F               [ 4] 2087 	ld	l, a
                                   2088 ;	spillPairReg hl
                                   2089 ;	spillPairReg hl
    000007B3 30 01            [12] 2090 	jr	NC, 00402$
    000007B5 24               [ 4] 2091 	inc	h
    000007B6                       2092 00402$:
                                   2093 ;E:/Dropbox/FAUSTO/SVILUPPI/MSX/CODE/C/MSXgl/engine/src/v9990.h:396: inline void V9_Poke16(u32 addr, u16 val) { V9_SetWriteAddress(addr); V9_Poke16_CurrentAddr(val); }
    000007B6 C5               [11] 2094 	push	bc
    000007B7 CDr00r00         [17] 2095 	call	_V9_SetWriteAddress
    000007BA C1               [10] 2096 	pop	bc
    000007BB 21 00 00         [10] 2097 	ld	hl, #0x0000
    000007BE CDr00r00         [17] 2098 	call	_V9_Poke16_CurrentAddr
                                   2099 ;E:\Dropbox\FAUSTO\SVILUPPI\MSX\CODE\C\MSXgl\projects\soccerlgSCC/soccerlg_s8_b3.c:358: for(u8 x=g_TeamGrayPos[g_Team2PaletteId].x;x<g_TeamGrayPos[g_Team2PaletteId].x+10;x++){
    000007C1 0C               [ 4] 2100 	inc	c
    000007C2 C3r63r07         [10] 2101 	jp	00187$
    000007C5                       2102 00191$:
                                   2103 ;E:\Dropbox\FAUSTO\SVILUPPI\MSX\CODE\C\MSXgl\projects\soccerlgSCC/soccerlg_s8_b3.c:357: for(u8 y=g_TeamGrayPos[g_Team2PaletteId].y;y<g_TeamGrayPos[g_Team2PaletteId].y+9;y++){
    000007C5 DD 34 FF         [23] 2104 	inc	-1 (ix)
    000007C8 C3r4Cr07         [10] 2105 	jp	00190$
    000007CB                       2106 00110$:
                                   2107 ;E:\Dropbox\FAUSTO\SVILUPPI\MSX\CODE\C\MSXgl\projects\soccerlgSCC/soccerlg_s8_b3.c:363: V9_SetScrollingBY(-1);
    000007CB 21 FF FF         [10] 2108 	ld	hl, #0xffff
    000007CE CDr00r00         [17] 2109 	call	_V9_SetScrollingBY
                                   2110 ;E:\Dropbox\FAUSTO\SVILUPPI\MSX\CODE\C\MSXgl\projects\soccerlgSCC/soccerlg_s8_b3.c:364: V9_SetScrollingY(-1);
    000007D1 21 FF FF         [10] 2111 	ld	hl, #0xffff
    000007D4 CDr00r00         [17] 2112 	call	_V9_SetScrollingY
                                   2113 ;E:\Dropbox\FAUSTO\SVILUPPI\MSX\CODE\C\MSXgl\projects\soccerlgSCC/soccerlg_s8_b3.c:366: MenuSpriteBlinking();
    000007D7 CDrF0r02         [17] 2114 	call	_MenuSpriteBlinking
                                   2115 ;E:\Dropbox\FAUSTO\SVILUPPI\MSX\CODE\C\MSXgl\projects\soccerlgSCC/soccerlg_s8_b3.c:369: attr.D = 1; 
    000007DA 21 03 00         [10] 2116 	ld	hl, #3
    000007DD 39               [11] 2117 	add	hl, sp
    000007DE CB E6            [15] 2118 	set	4, (hl)
                                   2119 ;E:\Dropbox\FAUSTO\SVILUPPI\MSX\CODE\C\MSXgl\projects\soccerlgSCC/soccerlg_s8_b3.c:370: V9_SetSpriteP1(0, &attr);
                                   2120 ;E:/Dropbox/FAUSTO/SVILUPPI/MSX/CODE/C/MSXgl/engine/src/v9990.h:781: inline void V9_SetSpriteP1(u8 id, const V9_Sprite* attr) { V9_WriteVRAM(V9_P1_SPAT + (id * 4), (const u8*)attr, 4); }
                                   2121 ;E:/Dropbox/FAUSTO/SVILUPPI/MSX/CODE/C/MSXgl/engine/src/v9990.h:371: inline void V9_WriteVRAM(u32 addr, const u8* src, u16 count) { V9_SetWriteAddress(addr); V9_WriteVRAM_CurrentAddr(src, count); }
    000007E0 11 00 FE         [10] 2122 	ld	de, #0xfe00
    000007E3 21 03 00         [10] 2123 	ld	hl, #0x0003
    000007E6 CDr00r00         [17] 2124 	call	_V9_SetWriteAddress
    000007E9 11 04 00         [10] 2125 	ld	de, #0x0004
    000007EC 21 00 00         [10] 2126 	ld	hl, #0
    000007EF 39               [11] 2127 	add	hl, sp
    000007F0 CDr00r00         [17] 2128 	call	_V9_WriteVRAM_CurrentAddr
                                   2129 ;E:/Dropbox/FAUSTO/SVILUPPI/MSX/CODE/C/MSXgl/engine/src/v9990.h:258: inline void V9_SetFlag(u8 reg, u8 mask, u8 flag) { V9_SetRegister(reg, V9_GetRegister(reg) & (~mask) | flag); }
    000007F3 3E 08            [ 7] 2130 	ld	a, #0x08
    000007F5 CDr00r00         [17] 2131 	call	_V9_GetRegister
    000007F8 6F               [ 4] 2132 	ld	l, a
                                   2133 ;	spillPairReg hl
                                   2134 ;	spillPairReg hl
    000007F9 CB B5            [ 8] 2135 	res	6, l
    000007FB 3E 08            [ 7] 2136 	ld	a, #0x08
    000007FD CDr00r00         [17] 2137 	call	_V9_SetRegister
                                   2138 ;E:\Dropbox\FAUSTO\SVILUPPI\MSX\CODE\C\MSXgl\projects\soccerlgSCC/soccerlg_s8_b3.c:374: V9990_ClearTextFromLayerA(0, SCROLLTEXT_ROW, SCROLLTEXT_COLS);
    00000800 3E 20            [ 7] 2139 	ld	a, #0x20
    00000802 F5               [11] 2140 	push	af
    00000803 33               [ 6] 2141 	inc	sp
    00000804 2E 19            [ 7] 2142 	ld	l, #0x19
                                   2143 ;	spillPairReg hl
                                   2144 ;	spillPairReg hl
    00000806 AF               [ 4] 2145 	xor	a, a
    00000807 CDr00r00         [17] 2146 	call	_V9990_ClearTextFromLayerA
                                   2147 ;E:/Dropbox/FAUSTO/SVILUPPI/MSX/CODE/C/MSXgl/engine/src/v9990.h:258: inline void V9_SetFlag(u8 reg, u8 mask, u8 flag) { V9_SetRegister(reg, V9_GetRegister(reg) & (~mask) | flag); }
    0000080A 3E 08            [ 7] 2148 	ld	a, #0x08
    0000080C CDr00r00         [17] 2149 	call	_V9_GetRegister
    0000080F 6F               [ 4] 2150 	ld	l, a
                                   2151 ;	spillPairReg hl
                                   2152 ;	spillPairReg hl
    00000810 CB BD            [ 8] 2153 	res	7, l
    00000812 3E 08            [ 7] 2154 	ld	a, #0x08
    00000814 CDr00r00         [17] 2155 	call	_V9_SetRegister
                                   2156 ;E:\Dropbox\FAUSTO\SVILUPPI\MSX\CODE\C\MSXgl\projects\soccerlgSCC/soccerlg_s8_b3.c:379: V9990_StopScrollText();
    00000817 CDr00r00         [17] 2157 	call	_V9990_StopScrollText
                                   2158 ;E:\Dropbox\FAUSTO\SVILUPPI\MSX\CODE\C\MSXgl\projects\soccerlgSCC/soccerlg_s8_b3.c:380: if(g_ShowButtonsInfo){
    0000081A 3Ar00r00         [13] 2159 	ld	a, (_g_ShowButtonsInfo+0)
    0000081D B7               [ 4] 2160 	or	a, a
    0000081E CArE0r08         [10] 2161 	jp	Z, 00117$
                                   2162 ;E:\Dropbox\FAUSTO\SVILUPPI\MSX\CODE\C\MSXgl\projects\soccerlgSCC/soccerlg_s8_b3.c:381: g_ShowButtonsInfo=false;
    00000821 21r00r00         [10] 2163 	ld	hl, #_g_ShowButtonsInfo
                                   2164 ;E:/Dropbox/FAUSTO/SVILUPPI/MSX/CODE/C/MSXgl/engine/src/v9990.h:353: inline void V9_FillVRAM(u32 addr, u8 value, u16 count) { V9_SetWriteAddress(addr); V9_FillVRAM_CurrentAddr(value, count); }
    00000824 11 00 00         [10] 2165 	ld	de, #0x0000
    00000827 73               [ 7] 2166 	ld	(hl), e
    00000828 21 00 00         [10] 2167 	ld	hl, #0x0000
    0000082B CDr00r00         [17] 2168 	call	_V9_SetWriteAddress
    0000082E 11 00 6A         [10] 2169 	ld	de, #0x6a00
    00000831 AF               [ 4] 2170 	xor	a, a
    00000832 CDr00r00         [17] 2171 	call	_V9_FillVRAM_CurrentAddr
                                   2172 ;E:\Dropbox\FAUSTO\SVILUPPI\MSX\CODE\C\MSXgl\projects\soccerlgSCC/soccerlg_s8_b3.c:383: V9990_LoadButtonsImageData();
    00000835 CDr00r00         [17] 2173 	call	_V9990_LoadButtonsImageData
                                   2174 ;E:/Dropbox/FAUSTO/SVILUPPI/MSX/CODE/C/MSXgl/engine/src/v9990.h:1047: inline void V9_SelectPaletteP1(u8 a, u8 b) { V9_SetRegister(13, ((b & 0x3) << 2) + (a & 0x3)); }
    00000838 3E 01            [ 7] 2175 	ld	a, #0x01
    0000083A E6 03            [ 7] 2176 	and	a, #0x03
    0000083C 87               [ 4] 2177 	add	a, a
    0000083D 87               [ 4] 2178 	add	a, a
    0000083E 4F               [ 4] 2179 	ld	c, a
    0000083F AF               [ 4] 2180 	xor	a, a
    00000840 E6 03            [ 7] 2181 	and	a, #0x03
    00000842 81               [ 4] 2182 	add	a, c
    00000843 6F               [ 4] 2183 	ld	l, a
                                   2184 ;	spillPairReg hl
                                   2185 ;	spillPairReg hl
    00000844 3E 0D            [ 7] 2186 	ld	a, #0x0d
    00000846 CDr00r00         [17] 2187 	call	_V9_SetRegister
                                   2188 ;E:\Dropbox\FAUSTO\SVILUPPI\MSX\CODE\C\MSXgl\projects\soccerlgSCC/soccerlg_s8_b3.c:385: u16 tileId=0;
    00000849 01 00 00         [10] 2189 	ld	bc, #0x0000
                                   2190 ;E:\Dropbox\FAUSTO\SVILUPPI\MSX\CODE\C\MSXgl\projects\soccerlgSCC/soccerlg_s8_b3.c:387: for (u8 y=0;y<64;y++){
    0000084C DD 36 FE 00      [19] 2191 	ld	-2 (ix), #0x00
    00000850                       2192 00196$:
    00000850 DD 7E FE         [19] 2193 	ld	a, -2 (ix)
    00000853 D6 40            [ 7] 2194 	sub	a, #0x40
    00000855 30 4F            [12] 2195 	jr	NC, 00112$
                                   2196 ;E:\Dropbox\FAUSTO\SVILUPPI\MSX\CODE\C\MSXgl\projects\soccerlgSCC/soccerlg_s8_b3.c:388: for (u8 x=0;x<32;x++){
    00000857 DD 36 FF 00      [19] 2197 	ld	-1 (ix), #0x00
    0000085B                       2198 00193$:
    0000085B DD 7E FF         [19] 2199 	ld	a, -1 (ix)
    0000085E D6 20            [ 7] 2200 	sub	a, #0x20
    00000860 30 3E            [12] 2201 	jr	NC, 00255$
                                   2202 ;E:\Dropbox\FAUSTO\SVILUPPI\MSX\CODE\C\MSXgl\projects\soccerlgSCC/soccerlg_s8_b3.c:389: V9_Poke16(V9_CellAddrP1A(x,y), tileId++);
    00000862 DD 71 FC         [19] 2203 	ld	-4 (ix), c
    00000865 DD 70 FD         [19] 2204 	ld	-3 (ix), b
    00000868 03               [ 6] 2205 	inc	bc
                                   2206 ;E:/Dropbox/FAUSTO/SVILUPPI/MSX/CODE/C/MSXgl/engine/src/v9990.h:1426: inline u32 V9_CellAddrP1A(u8 x, u8 y) { return V9_P1_PNT_A + (((64 * y) + x) * 2); }
    00000869 DD 6E FE         [19] 2207 	ld	l, -2 (ix)
                                   2208 ;	spillPairReg hl
                                   2209 ;	spillPairReg hl
    0000086C 26 00            [ 7] 2210 	ld	h, #0x00
                                   2211 ;	spillPairReg hl
                                   2212 ;	spillPairReg hl
    0000086E 29               [11] 2213 	add	hl, hl
    0000086F 29               [11] 2214 	add	hl, hl
    00000870 29               [11] 2215 	add	hl, hl
    00000871 29               [11] 2216 	add	hl, hl
    00000872 29               [11] 2217 	add	hl, hl
    00000873 29               [11] 2218 	add	hl, hl
    00000874 DD 5E FF         [19] 2219 	ld	e, -1 (ix)
    00000877 16 00            [ 7] 2220 	ld	d, #0x00
    00000879 19               [11] 2221 	add	hl, de
    0000087A 29               [11] 2222 	add	hl, hl
    0000087B 7C               [ 4] 2223 	ld	a, h
    0000087C 07               [ 4] 2224 	rlca
    0000087D 9F               [ 4] 2225 	sbc	a, a
    0000087E 5F               [ 4] 2226 	ld	e, a
    0000087F 57               [ 4] 2227 	ld	d, a
    00000880 7C               [ 4] 2228 	ld	a, h
    00000881 C6 C0            [ 7] 2229 	add	a, #0xc0
    00000883 67               [ 4] 2230 	ld	h, a
                                   2231 ;	spillPairReg hl
                                   2232 ;	spillPairReg hl
    00000884 7B               [ 4] 2233 	ld	a, e
    00000885 CE 07            [ 7] 2234 	adc	a, #0x07
    00000887 5F               [ 4] 2235 	ld	e, a
    00000888 30 01            [12] 2236 	jr	NC, 00403$
    0000088A 14               [ 4] 2237 	inc	d
    0000088B                       2238 00403$:
                                   2239 ;E:/Dropbox/FAUSTO/SVILUPPI/MSX/CODE/C/MSXgl/engine/src/v9990.h:396: inline void V9_Poke16(u32 addr, u16 val) { V9_SetWriteAddress(addr); V9_Poke16_CurrentAddr(val); }
    0000088B C5               [11] 2240 	push	bc
    0000088C EB               [ 4] 2241 	ex	de, hl
    0000088D CDr00r00         [17] 2242 	call	_V9_SetWriteAddress
    00000890 C1               [10] 2243 	pop	bc
    00000891 DD 6E FC         [19] 2244 	ld	l, -4 (ix)
                                   2245 ;	spillPairReg hl
                                   2246 ;	spillPairReg hl
    00000894 DD 66 FD         [19] 2247 	ld	h, -3 (ix)
                                   2248 ;	spillPairReg hl
                                   2249 ;	spillPairReg hl
    00000897 CDr00r00         [17] 2250 	call	_V9_Poke16_CurrentAddr
                                   2251 ;E:\Dropbox\FAUSTO\SVILUPPI\MSX\CODE\C\MSXgl\projects\soccerlgSCC/soccerlg_s8_b3.c:388: for (u8 x=0;x<32;x++){
    0000089A DD 34 FF         [23] 2252 	inc	-1 (ix)
    0000089D C3r5Br08         [10] 2253 	jp	00193$
    000008A0                       2254 00255$:
                                   2255 ;E:\Dropbox\FAUSTO\SVILUPPI\MSX\CODE\C\MSXgl\projects\soccerlgSCC/soccerlg_s8_b3.c:387: for (u8 y=0;y<64;y++){
    000008A0 DD 34 FE         [23] 2256 	inc	-2 (ix)
    000008A3 C3r50r08         [10] 2257 	jp	00196$
    000008A6                       2258 00112$:
                                   2259 ;E:/Dropbox/FAUSTO/SVILUPPI/MSX/CODE/C/MSXgl/engine/src/v9990.h:574: inline void V9_SetInterrupt(u8 flags) { V9_SetRegister(9, flags); }
    000008A6 2E 01            [ 7] 2260 	ld	l, #0x01
                                   2261 ;	spillPairReg hl
                                   2262 ;	spillPairReg hl
    000008A8 3E 09            [ 7] 2263 	ld	a, #0x09
    000008AA CDr00r00         [17] 2264 	call	_V9_SetRegister
                                   2265 ;E:/Dropbox/FAUSTO/SVILUPPI/MSX/CODE/C/MSXgl/engine/src/v9990.h:258: inline void V9_SetFlag(u8 reg, u8 mask, u8 flag) { V9_SetRegister(reg, V9_GetRegister(reg) & (~mask) | flag); }
    000008AD 3E 08            [ 7] 2266 	ld	a, #0x08
    000008AF CDr00r00         [17] 2267 	call	_V9_GetRegister
    000008B2 CB BF            [ 8] 2268 	res	7, a
    000008B4 6F               [ 4] 2269 	ld	l, a
                                   2270 ;	spillPairReg hl
                                   2271 ;	spillPairReg hl
    000008B5 CB FD            [ 8] 2272 	set	7, l
    000008B7 3E 08            [ 7] 2273 	ld	a, #0x08
    000008B9 CDr00r00         [17] 2274 	call	_V9_SetRegister
                                   2275 ;E:\Dropbox\FAUSTO\SVILUPPI\MSX\CODE\C\MSXgl\projects\soccerlgSCC/soccerlg_s8_b3.c:394: bool joyTriggered=FALSE;
    000008BC 0E 00            [ 7] 2276 	ld	c, #0x00
                                   2277 ;E:\Dropbox\FAUSTO\SVILUPPI\MSX\CODE\C\MSXgl\projects\soccerlgSCC/soccerlg_s8_b3.c:395: while(!joyTriggered){
    000008BE                       2278 00113$:
    000008BE 79               [ 4] 2279 	ld	a, c
    000008BF B7               [ 4] 2280 	or	a, a
    000008C0 20 11            [12] 2281 	jr	NZ, 00210$
                                   2282 ;E:\Dropbox\FAUSTO\SVILUPPI\MSX\CODE\C\MSXgl\projects\soccerlgSCC/soccerlg_s8_b3.c:396: joyTriggered=CallFnc_U8(4,IsTeamJoystickTriggerPressed);
    000008C2 11r00r00         [10] 2283 	ld	de, #_IsTeamJoystickTriggerPressed
    000008C5 3E 04            [ 7] 2284 	ld	a, #0x04
    000008C7 CDr00r00         [17] 2285 	call	_CallFnc_U8
    000008CA 4F               [ 4] 2286 	ld	c, a
                                   2287 ;E:\Dropbox\FAUSTO\SVILUPPI\MSX\CODE\C\MSXgl\projects\soccerlgSCC/soccerlg_s8_b3.c:397: V9990_WaitSynch();
    000008CB C5               [11] 2288 	push	bc
    000008CC CDr00r00         [17] 2289 	call	_V9990_WaitSynch
    000008CF C1               [10] 2290 	pop	bc
    000008D0 C3rBEr08         [10] 2291 	jp	00113$
                                   2292 ;E:/Dropbox/FAUSTO/SVILUPPI/MSX/CODE/C/MSXgl/engine/src/v9990.h:473: inline void V9_SetDisplayEnable(bool enable) { V9_SetFlag(8, V9_R08_DISP_ON, enable ? V9_R08_DISP_ON : 0); }
    000008D3                       2293 00210$:
                                   2294 ;E:/Dropbox/FAUSTO/SVILUPPI/MSX/CODE/C/MSXgl/engine/src/v9990.h:258: inline void V9_SetFlag(u8 reg, u8 mask, u8 flag) { V9_SetRegister(reg, V9_GetRegister(reg) & (~mask) | flag); }
    000008D3 3E 08            [ 7] 2295 	ld	a, #0x08
    000008D5 CDr00r00         [17] 2296 	call	_V9_GetRegister
    000008D8 6F               [ 4] 2297 	ld	l, a
                                   2298 ;	spillPairReg hl
                                   2299 ;	spillPairReg hl
    000008D9 CB BD            [ 8] 2300 	res	7, l
    000008DB 3E 08            [ 7] 2301 	ld	a, #0x08
    000008DD CDr00r00         [17] 2302 	call	_V9_SetRegister
                                   2303 ;E:\Dropbox\FAUSTO\SVILUPPI\MSX\CODE\C\MSXgl\projects\soccerlgSCC/soccerlg_s8_b3.c:400: V9_SetDisplayEnable(FALSE);
    000008E0                       2304 00117$:
                                   2305 ;E:\Dropbox\FAUSTO\SVILUPPI\MSX\CODE\C\MSXgl\projects\soccerlgSCC/soccerlg_s8_b3.c:402: YSCC_Stop();
    000008E0 CDr00r00         [17] 2306 	call	_YSCC_Stop
                                   2307 ;E:\Dropbox\FAUSTO\SVILUPPI\MSX\CODE\C\MSXgl\projects\soccerlgSCC/soccerlg_s8_b3.c:403: g_MatchStatus=MATCH_NOT_STARTED;
    000008E3 21r00r00         [10] 2308 	ld	hl, #_g_MatchStatus
    000008E6 36 00            [10] 2309 	ld	(hl), #0x00
                                   2310 ;E:\Dropbox\FAUSTO\SVILUPPI\MSX\CODE\C\MSXgl\projects\soccerlgSCC/soccerlg_s8_b3.c:405: V9990_LoadP1LayerA();
    000008E8 CDr00r00         [17] 2311 	call	_V9990_LoadP1LayerA
                                   2312 ;E:\Dropbox\FAUSTO\SVILUPPI\MSX\CODE\C\MSXgl\projects\soccerlgSCC/soccerlg_s8_b3.c:406: V9990_LoadP1LayerB();
    000008EB CDr00r00         [17] 2313 	call	_V9990_LoadP1LayerB
                                   2314 ;E:\Dropbox\FAUSTO\SVILUPPI\MSX\CODE\C\MSXgl\projects\soccerlgSCC/soccerlg_s8_b3.c:410: CallFnc_VOID(6,V9990_InitPalette);
    000008EE 11r00r00         [10] 2315 	ld	de, #_V9990_InitPalette
    000008F1 3E 06            [ 7] 2316 	ld	a, #0x06
    000008F3 CDr00r00         [17] 2317 	call	_CallFnc_VOID
                                   2318 ;E:\Dropbox\FAUSTO\SVILUPPI\MSX\CODE\C\MSXgl\projects\soccerlgSCC/soccerlg_s8_b3.c:413: CallFnc_VOID(9,ShowField);
    000008F6 11r00r00         [10] 2319 	ld	de, #_ShowField
    000008F9 3E 09            [ 7] 2320 	ld	a, #0x09
    000008FB CDr00r00         [17] 2321 	call	_CallFnc_VOID
                                   2322 ;E:/Dropbox/FAUSTO/SVILUPPI/MSX/CODE/C/MSXgl/engine/src/v9990.h:258: inline void V9_SetFlag(u8 reg, u8 mask, u8 flag) { V9_SetRegister(reg, V9_GetRegister(reg) & (~mask) | flag); }
    000008FE 3E 08            [ 7] 2323 	ld	a, #0x08
    00000900 CDr00r00         [17] 2324 	call	_V9_GetRegister
    00000903 CB BF            [ 8] 2325 	res	7, a
    00000905 6F               [ 4] 2326 	ld	l, a
                                   2327 ;	spillPairReg hl
                                   2328 ;	spillPairReg hl
    00000906 CB FD            [ 8] 2329 	set	7, l
    00000908 3E 08            [ 7] 2330 	ld	a, #0x08
    0000090A CDr00r00         [17] 2331 	call	_V9_SetRegister
                                   2332 ;E:/Dropbox/FAUSTO/SVILUPPI/MSX/CODE/C/MSXgl/engine/src/v9990.h:574: inline void V9_SetInterrupt(u8 flags) { V9_SetRegister(9, flags); }
    0000090D 2E 01            [ 7] 2333 	ld	l, #0x01
                                   2334 ;	spillPairReg hl
                                   2335 ;	spillPairReg hl
    0000090F 3E 09            [ 7] 2336 	ld	a, #0x09
    00000911 CDr00r00         [17] 2337 	call	_V9_SetRegister
                                   2338 ;E:\Dropbox\FAUSTO\SVILUPPI\MSX\CODE\C\MSXgl\projects\soccerlgSCC/soccerlg_s8_b3.c:420: GameStart();
    00000914 CDrE0r09         [17] 2339 	call	_GameStart
                                   2340 ;E:\Dropbox\FAUSTO\SVILUPPI\MSX\CODE\C\MSXgl\projects\soccerlgSCC/soccerlg_s8_b3.c:421: }
    00000917 DD F9            [10] 2341 	ld	sp, ix
    00000919 DD E1            [14] 2342 	pop	ix
    0000091B C9               [10] 2343 	ret
    0000091C                       2344 ___str_0:
    0000091C 20 20 20 20 50 4C 41  2345 	.ascii "    PLAYER TEAM SELECT"
             59 45 52 20 54 45 41
             4D 20 53 45 4C 45 43
             54
    00000932 00                    2346 	.db 0x00
    00000933                       2347 ___str_1:
    00000933 20 20 20 20 20 43 50  2348 	.ascii "     CPU TEAM SELECT   "
             55 20 54 45 41 4D 20
             53 45 4C 45 43 54 20
             20 20
    0000094A 00                    2349 	.db 0x00
                                   2350 ;E:\Dropbox\FAUSTO\SVILUPPI\MSX\CODE\C\MSXgl\projects\soccerlgSCC/soccerlg_s8_b3.c:423: void SetTeam1Palette(){
                                   2351 ;	---------------------------------
                                   2352 ; Function SetTeam1Palette
                                   2353 ; ---------------------------------
    0000094B                       2354 _SetTeam1Palette::
                                   2355 ;E:\Dropbox\FAUSTO\SVILUPPI\MSX\CODE\C\MSXgl\projects\soccerlgSCC/soccerlg_s8_b3.c:424: V9_SetPalette(32, 16, GetTeamPaletteById(g_Team1PaletteId));
    0000094B 3Ar00r00         [13] 2356 	ld	a, (_g_Team1PaletteId+0)
    0000094E CDrA5r09         [17] 2357 	call	_GetTeamPaletteById
    00000951 EB               [ 4] 2358 	ex	de, hl
                                   2359 ;E:\Dropbox\FAUSTO\SVILUPPI\MSX\CODE\C\MSXgl\projects\soccerlgSCC/soccerlg_s8_b3.c:1028: ERROR: no line number 1028 in file E:\Dropbox\FAUSTO\SVILUPPI\MSX\CODE\C\MSXgl\projects\soccerlgSCC/soccerlg_s8_b3.c
    00000952 01 20 00         [10] 2360 	ld	bc, #0x20
    00000955                       2361 00104$:
    00000955 78               [ 4] 2362 	ld	a, b
    00000956 D6 10            [ 7] 2363 	sub	a, #0x10
    00000958 D0               [11] 2364 	ret	NC
    00000959 FD E5            [15] 2365 	push	iy
    0000095B E3               [19] 2366 	ex	(sp), hl
    0000095C 69               [ 4] 2367 	ld	l, c
                                   2368 ;	spillPairReg hl
                                   2369 ;	spillPairReg hl
    0000095D E3               [19] 2370 	ex	(sp), hl
    0000095E FD E1            [14] 2371 	pop	iy
    00000960 0C               [ 4] 2372 	inc	c
    00000961 E5               [11] 2373 	push	hl
    00000962 C5               [11] 2374 	push	bc
    00000963 5D               [ 4] 2375 	ld	e, l
    00000964 54               [ 4] 2376 	ld	d, h
    00000965 FD E5            [15] 2377 	push	iy
    00000967 E3               [19] 2378 	ex	(sp), hl
    00000968 7D               [ 4] 2379 	ld	a, l
    00000969 E3               [19] 2380 	ex	(sp), hl
    0000096A FD E1            [14] 2381 	pop	iy
    0000096C CDr00r00         [17] 2382 	call	_V9_SetPaletteEntry
    0000096F C1               [10] 2383 	pop	bc
    00000970 E1               [10] 2384 	pop	hl
    00000971 23               [ 6] 2385 	inc	hl
    00000972 23               [ 6] 2386 	inc	hl
    00000973 23               [ 6] 2387 	inc	hl
    00000974 04               [ 4] 2388 	inc	b
                                   2389 ;E:\Dropbox\FAUSTO\SVILUPPI\MSX\CODE\C\MSXgl\projects\soccerlgSCC/soccerlg_s8_b3.c:424: V9_SetPalette(32, 16, GetTeamPaletteById(g_Team1PaletteId));
                                   2390 ;E:\Dropbox\FAUSTO\SVILUPPI\MSX\CODE\C\MSXgl\projects\soccerlgSCC/soccerlg_s8_b3.c:425: }
    00000975 C3r55r09         [10] 2391 	jp	00104$
                                   2392 ;E:\Dropbox\FAUSTO\SVILUPPI\MSX\CODE\C\MSXgl\projects\soccerlgSCC/soccerlg_s8_b3.c:427: void SetTeam2Palette(){
                                   2393 ;	---------------------------------
                                   2394 ; Function SetTeam2Palette
                                   2395 ; ---------------------------------
    00000978                       2396 _SetTeam2Palette::
                                   2397 ;E:\Dropbox\FAUSTO\SVILUPPI\MSX\CODE\C\MSXgl\projects\soccerlgSCC/soccerlg_s8_b3.c:428: V9_SetPalette(48, 16, GetTeamPaletteById(g_Team2PaletteId));
    00000978 3Ar00r00         [13] 2398 	ld	a, (_g_Team2PaletteId+0)
    0000097B CDrA5r09         [17] 2399 	call	_GetTeamPaletteById
    0000097E EB               [ 4] 2400 	ex	de, hl
                                   2401 ;E:\Dropbox\FAUSTO\SVILUPPI\MSX\CODE\C\MSXgl\projects\soccerlgSCC/soccerlg_s8_b3.c:1028: ERROR: no line number 1028 in file E:\Dropbox\FAUSTO\SVILUPPI\MSX\CODE\C\MSXgl\projects\soccerlgSCC/soccerlg_s8_b3.c
    0000097F 01 30 00         [10] 2402 	ld	bc, #0x30
    00000982                       2403 00104$:
    00000982 78               [ 4] 2404 	ld	a, b
    00000983 D6 10            [ 7] 2405 	sub	a, #0x10
    00000985 D0               [11] 2406 	ret	NC
    00000986 FD E5            [15] 2407 	push	iy
    00000988 E3               [19] 2408 	ex	(sp), hl
    00000989 69               [ 4] 2409 	ld	l, c
                                   2410 ;	spillPairReg hl
                                   2411 ;	spillPairReg hl
    0000098A E3               [19] 2412 	ex	(sp), hl
    0000098B FD E1            [14] 2413 	pop	iy
    0000098D 0C               [ 4] 2414 	inc	c
    0000098E E5               [11] 2415 	push	hl
    0000098F C5               [11] 2416 	push	bc
    00000990 5D               [ 4] 2417 	ld	e, l
    00000991 54               [ 4] 2418 	ld	d, h
    00000992 FD E5            [15] 2419 	push	iy
    00000994 E3               [19] 2420 	ex	(sp), hl
    00000995 7D               [ 4] 2421 	ld	a, l
    00000996 E3               [19] 2422 	ex	(sp), hl
    00000997 FD E1            [14] 2423 	pop	iy
    00000999 CDr00r00         [17] 2424 	call	_V9_SetPaletteEntry
    0000099C C1               [10] 2425 	pop	bc
    0000099D E1               [10] 2426 	pop	hl
    0000099E 23               [ 6] 2427 	inc	hl
    0000099F 23               [ 6] 2428 	inc	hl
    000009A0 23               [ 6] 2429 	inc	hl
    000009A1 04               [ 4] 2430 	inc	b
                                   2431 ;E:\Dropbox\FAUSTO\SVILUPPI\MSX\CODE\C\MSXgl\projects\soccerlgSCC/soccerlg_s8_b3.c:428: V9_SetPalette(48, 16, GetTeamPaletteById(g_Team2PaletteId));
                                   2432 ;E:\Dropbox\FAUSTO\SVILUPPI\MSX\CODE\C\MSXgl\projects\soccerlgSCC/soccerlg_s8_b3.c:429: }
    000009A2 C3r82r09         [10] 2433 	jp	00104$
                                   2434 ;E:\Dropbox\FAUSTO\SVILUPPI\MSX\CODE\C\MSXgl\projects\soccerlgSCC/soccerlg_s8_b3.c:431: const u16* GetTeamPaletteById(u8 id){
                                   2435 ;	---------------------------------
                                   2436 ; Function GetTeamPaletteById
                                   2437 ; ---------------------------------
    000009A5                       2438 _GetTeamPaletteById::
    000009A5 4F               [ 4] 2439 	ld	c, a
                                   2440 ;E:\Dropbox\FAUSTO\SVILUPPI\MSX\CODE\C\MSXgl\projects\soccerlgSCC/soccerlg_s8_b3.c:432: const u16* palette=g_Data_Palette_Team_ITA;
    000009A6 11rA0r01         [10] 2441 	ld	de, #_g_Data_Palette_Team_ITA
                                   2442 ;E:\Dropbox\FAUSTO\SVILUPPI\MSX\CODE\C\MSXgl\projects\soccerlgSCC/soccerlg_s8_b3.c:433: switch (id){
    000009A9 3E 05            [ 7] 2443 	ld	a, #0x05
    000009AB 91               [ 4] 2444 	sub	a, c
    000009AC D8               [11] 2445 	ret	C
    000009AD 06 00            [ 7] 2446 	ld	b, #0x00
    000009AF 21rB6r09         [10] 2447 	ld	hl, #00115$
    000009B2 09               [11] 2448 	add	hl, bc
    000009B3 09               [11] 2449 	add	hl, bc
    000009B4 09               [11] 2450 	add	hl, bc
    000009B5 E9               [ 4] 2451 	jp	(hl)
    000009B6                       2452 00115$:
    000009B6 C3rC8r09         [10] 2453 	jp	00101$
    000009B9 C3rD8r09         [10] 2454 	jp	00105$
    000009BC C3rD0r09         [10] 2455 	jp	00103$
    000009BF C3rCCr09         [10] 2456 	jp	00102$
    000009C2 C3rDCr09         [10] 2457 	jp	00106$
    000009C5 C3rD4r09         [10] 2458 	jp	00104$
                                   2459 ;E:\Dropbox\FAUSTO\SVILUPPI\MSX\CODE\C\MSXgl\projects\soccerlgSCC/soccerlg_s8_b3.c:434: case TEAM_AUS:
    000009C8                       2460 00101$:
                                   2461 ;E:\Dropbox\FAUSTO\SVILUPPI\MSX\CODE\C\MSXgl\projects\soccerlgSCC/soccerlg_s8_b3.c:435: palette=g_Data_Palette_Team_AUS;
    000009C8 11rD0r01         [10] 2462 	ld	de, #_g_Data_Palette_Team_AUS
                                   2463 ;E:\Dropbox\FAUSTO\SVILUPPI\MSX\CODE\C\MSXgl\projects\soccerlgSCC/soccerlg_s8_b3.c:436: break; 
    000009CB C9               [10] 2464 	ret
                                   2465 ;E:\Dropbox\FAUSTO\SVILUPPI\MSX\CODE\C\MSXgl\projects\soccerlgSCC/soccerlg_s8_b3.c:437: case TEAM_BRA:
    000009CC                       2466 00102$:
                                   2467 ;E:\Dropbox\FAUSTO\SVILUPPI\MSX\CODE\C\MSXgl\projects\soccerlgSCC/soccerlg_s8_b3.c:438: palette=g_Data_Palette_Team_BRA;
    000009CC 11r90r02         [10] 2468 	ld	de, #_g_Data_Palette_Team_BRA
                                   2469 ;E:\Dropbox\FAUSTO\SVILUPPI\MSX\CODE\C\MSXgl\projects\soccerlgSCC/soccerlg_s8_b3.c:439: break;
    000009CF C9               [10] 2470 	ret
                                   2471 ;E:\Dropbox\FAUSTO\SVILUPPI\MSX\CODE\C\MSXgl\projects\soccerlgSCC/soccerlg_s8_b3.c:440: case TEAM_ITA:
    000009D0                       2472 00103$:
                                   2473 ;E:\Dropbox\FAUSTO\SVILUPPI\MSX\CODE\C\MSXgl\projects\soccerlgSCC/soccerlg_s8_b3.c:441: palette=g_Data_Palette_Team_ITA;
    000009D0 11rA0r01         [10] 2474 	ld	de, #_g_Data_Palette_Team_ITA
                                   2475 ;E:\Dropbox\FAUSTO\SVILUPPI\MSX\CODE\C\MSXgl\projects\soccerlgSCC/soccerlg_s8_b3.c:442: break;
    000009D3 C9               [10] 2476 	ret
                                   2477 ;E:\Dropbox\FAUSTO\SVILUPPI\MSX\CODE\C\MSXgl\projects\soccerlgSCC/soccerlg_s8_b3.c:443: case TEAM_GBR:
    000009D4                       2478 00104$:
                                   2479 ;E:\Dropbox\FAUSTO\SVILUPPI\MSX\CODE\C\MSXgl\projects\soccerlgSCC/soccerlg_s8_b3.c:444: palette=g_Data_Palette_Team_GBR;
    000009D4 11r60r02         [10] 2480 	ld	de, #_g_Data_Palette_Team_GBR
                                   2481 ;E:\Dropbox\FAUSTO\SVILUPPI\MSX\CODE\C\MSXgl\projects\soccerlgSCC/soccerlg_s8_b3.c:445: break;
    000009D7 C9               [10] 2482 	ret
                                   2483 ;E:\Dropbox\FAUSTO\SVILUPPI\MSX\CODE\C\MSXgl\projects\soccerlgSCC/soccerlg_s8_b3.c:446: case TEAM_GER:
    000009D8                       2484 00105$:
                                   2485 ;E:\Dropbox\FAUSTO\SVILUPPI\MSX\CODE\C\MSXgl\projects\soccerlgSCC/soccerlg_s8_b3.c:447: palette=g_Data_Palette_Team_GER;
    000009D8 11r30r02         [10] 2486 	ld	de, #_g_Data_Palette_Team_GER
                                   2487 ;E:\Dropbox\FAUSTO\SVILUPPI\MSX\CODE\C\MSXgl\projects\soccerlgSCC/soccerlg_s8_b3.c:448: break;
    000009DB C9               [10] 2488 	ret
                                   2489 ;E:\Dropbox\FAUSTO\SVILUPPI\MSX\CODE\C\MSXgl\projects\soccerlgSCC/soccerlg_s8_b3.c:449: case TEAM_FRA:
    000009DC                       2490 00106$:
                                   2491 ;E:\Dropbox\FAUSTO\SVILUPPI\MSX\CODE\C\MSXgl\projects\soccerlgSCC/soccerlg_s8_b3.c:450: palette=g_Data_Palette_Team_FRA;
    000009DC 11r00r02         [10] 2492 	ld	de, #_g_Data_Palette_Team_FRA
                                   2493 ;E:\Dropbox\FAUSTO\SVILUPPI\MSX\CODE\C\MSXgl\projects\soccerlgSCC/soccerlg_s8_b3.c:452: }
                                   2494 ;E:\Dropbox\FAUSTO\SVILUPPI\MSX\CODE\C\MSXgl\projects\soccerlgSCC/soccerlg_s8_b3.c:453: return palette;
                                   2495 ;E:\Dropbox\FAUSTO\SVILUPPI\MSX\CODE\C\MSXgl\projects\soccerlgSCC/soccerlg_s8_b3.c:454: }
    000009DF C9               [10] 2496 	ret
                                   2497 ;E:\Dropbox\FAUSTO\SVILUPPI\MSX\CODE\C\MSXgl\projects\soccerlgSCC/soccerlg_s8_b3.c:456: void GameStart(){
                                   2498 ;	---------------------------------
                                   2499 ; Function GameStart
                                   2500 ; ---------------------------------
    000009E0                       2501 _GameStart::
                                   2502 ;E:\Dropbox\FAUSTO\SVILUPPI\MSX\CODE\C\MSXgl\projects\soccerlgSCC/soccerlg_s8_b3.c:457: g_VblankSuspended=FALSE;
    000009E0 21r00r00         [10] 2503 	ld	hl, #_g_VblankSuspended
    000009E3 36 00            [10] 2504 	ld	(hl), #0x00
                                   2505 ;E:\Dropbox\FAUSTO\SVILUPPI\MSX\CODE\C\MSXgl\projects\soccerlgSCC/soccerlg_s8_b3.c:458: g_PonPonGirlsAreVisible=TRUE;
    000009E5 21r00r00         [10] 2506 	ld	hl, #_g_PonPonGirlsAreVisible
    000009E8 36 01            [10] 2507 	ld	(hl), #0x01
                                   2508 ;E:\Dropbox\FAUSTO\SVILUPPI\MSX\CODE\C\MSXgl\projects\soccerlgSCC/soccerlg_s8_b3.c:459: g_BallIsVisible=TRUE;
    000009EA 21r00r00         [10] 2509 	ld	hl, #_g_BallIsVisible
    000009ED 36 01            [10] 2510 	ld	(hl), #0x01
                                   2511 ;E:\Dropbox\FAUSTO\SVILUPPI\MSX\CODE\C\MSXgl\projects\soccerlgSCC/soccerlg_s8_b3.c:460: g_TimeCounter=0;
    000009EF 21 00 00         [10] 2512 	ld	hl, #0x0000
    000009F2 22r00r00         [16] 2513 	ld	(_g_TimeCounter), hl
                                   2514 ;E:\Dropbox\FAUSTO\SVILUPPI\MSX\CODE\C\MSXgl\projects\soccerlgSCC/soccerlg_s8_b3.c:461: g_LastTimeCounter=0;
    000009F5 22r00r00         [16] 2515 	ld	(_g_LastTimeCounter), hl
                                   2516 ;E:\Dropbox\FAUSTO\SVILUPPI\MSX\CODE\C\MSXgl\projects\soccerlgSCC/soccerlg_s8_b3.c:462: g_FirstKickOff=TRUE;
    000009F8 21r00r00         [10] 2517 	ld	hl, #_g_FirstKickOff
    000009FB 36 01            [10] 2518 	ld	(hl), #0x01
                                   2519 ;E:\Dropbox\FAUSTO\SVILUPPI\MSX\CODE\C\MSXgl\projects\soccerlgSCC/soccerlg_s8_b3.c:463: g_PcmStartPlaying=FALSE;
    000009FD 21r00r00         [10] 2520 	ld	hl, #_g_PcmStartPlaying
    00000A00 36 00            [10] 2521 	ld	(hl), #0x00
                                   2522 ;E:\Dropbox\FAUSTO\SVILUPPI\MSX\CODE\C\MSXgl\projects\soccerlgSCC/soccerlg_s8_b3.c:464: g_PmcSoundPlaying=NO_VALUE;
    00000A02 21r00r00         [10] 2523 	ld	hl, #_g_PmcSoundPlaying
    00000A05 36 FF            [10] 2524 	ld	(hl), #0xff
                                   2525 ;E:\Dropbox\FAUSTO\SVILUPPI\MSX\CODE\C\MSXgl\projects\soccerlgSCC/soccerlg_s8_b3.c:465: g_PassTargetPlayer=NO_VALUE;
    00000A07 21r00r00         [10] 2526 	ld	hl, #_g_PassTargetPlayer
    00000A0A 36 FF            [10] 2527 	ld	(hl), #0xff
                                   2528 ;E:\Dropbox\FAUSTO\SVILUPPI\MSX\CODE\C\MSXgl\projects\soccerlgSCC/soccerlg_s8_b3.c:466: g_Team1ActivePlayer=NO_VALUE;
    00000A0C 21r00r00         [10] 2529 	ld	hl, #_g_Team1ActivePlayer
    00000A0F 36 FF            [10] 2530 	ld	(hl), #0xff
                                   2531 ;E:/Dropbox/FAUSTO/SVILUPPI/MSX/CODE/C/MSXgl/engine/src/v9990.h:258: inline void V9_SetFlag(u8 reg, u8 mask, u8 flag) { V9_SetRegister(reg, V9_GetRegister(reg) & (~mask) | flag); }
    00000A11 3E 08            [ 7] 2532 	ld	a, #0x08
    00000A13 CDr00r00         [17] 2533 	call	_V9_GetRegister
    00000A16 6F               [ 4] 2534 	ld	l, a
                                   2535 ;	spillPairReg hl
                                   2536 ;	spillPairReg hl
    00000A17 CB BD            [ 8] 2537 	res	7, l
    00000A19 3E 08            [ 7] 2538 	ld	a, #0x08
    00000A1B CDr00r00         [17] 2539 	call	_V9_SetRegister
                                   2540 ;E:\Dropbox\FAUSTO\SVILUPPI\MSX\CODE\C\MSXgl\projects\soccerlgSCC/soccerlg_s8_b3.c:468: g_SecondsToEndOfMatch=MATCH_DURATION;
    00000A1E 21r00r00         [10] 2541 	ld	hl, #_g_SecondsToEndOfMatch
    00000A21 36 78            [10] 2542 	ld	(hl), #0x78
                                   2543 ;E:\Dropbox\FAUSTO\SVILUPPI\MSX\CODE\C\MSXgl\projects\soccerlgSCC/soccerlg_s8_b3.c:469: g_RestartKickTeamId=TEAM_1;
    00000A23 21r00r00         [10] 2544 	ld	hl, #_g_RestartKickTeamId
    00000A26 36 01            [10] 2545 	ld	(hl), #0x01
                                   2546 ;E:\Dropbox\FAUSTO\SVILUPPI\MSX\CODE\C\MSXgl\projects\soccerlgSCC/soccerlg_s8_b3.c:470: g_FieldScrollSpeed=FIELD_SCROLL_PRESENTATION_SPEED;
    00000A28 21r00r00         [10] 2547 	ld	hl, #_g_FieldScrollSpeed
    00000A2B 36 01            [10] 2548 	ld	(hl), #0x01
                                   2549 ;E:\Dropbox\FAUSTO\SVILUPPI\MSX\CODE\C\MSXgl\projects\soccerlgSCC/soccerlg_s8_b3.c:471: g_FieldScrollingActionInProgress=NO_VALUE;
    00000A2D 21r00r00         [10] 2550 	ld	hl, #_g_FieldScrollingActionInProgress
    00000A30 36 FF            [10] 2551 	ld	(hl), #0xff
                                   2552 ;E:\Dropbox\FAUSTO\SVILUPPI\MSX\CODE\C\MSXgl\projects\soccerlgSCC/soccerlg_s8_b3.c:472: g_FieldCurrentYPosition=FIELD_TOP_Y;
    00000A32 21 00 00         [10] 2553 	ld	hl, #0x0000
    00000A35 22r00r00         [16] 2554 	ld	(_g_FieldCurrentYPosition), hl
                                   2555 ;E:\Dropbox\FAUSTO\SVILUPPI\MSX\CODE\C\MSXgl\projects\soccerlgSCC/soccerlg_s8_b3.c:473: g_Team1Score=0;
    00000A38 AF               [ 4] 2556 	xor	a, a
    00000A39 32r00r00         [13] 2557 	ld	(#_g_Team1Score), a
                                   2558 ;E:\Dropbox\FAUSTO\SVILUPPI\MSX\CODE\C\MSXgl\projects\soccerlgSCC/soccerlg_s8_b3.c:474: g_Team2Score=0;
    00000A3C AF               [ 4] 2559 	xor	a, a
    00000A3D 32r00r00         [13] 2560 	ld	(#_g_Team2Score), a
                                   2561 ;E:\Dropbox\FAUSTO\SVILUPPI\MSX\CODE\C\MSXgl\projects\soccerlgSCC/soccerlg_s8_b3.c:475: V9_SetScrollingY(0);
    00000A40 CDr00r00         [17] 2562 	call	_V9_SetScrollingY
                                   2563 ;E:\Dropbox\FAUSTO\SVILUPPI\MSX\CODE\C\MSXgl\projects\soccerlgSCC/soccerlg_s8_b3.c:476: V9_SetScrollingBY(1);
    00000A43 21 01 00         [10] 2564 	ld	hl, #0x0001
    00000A46 CDr00r00         [17] 2565 	call	_V9_SetScrollingBY
                                   2566 ;E:\Dropbox\FAUSTO\SVILUPPI\MSX\CODE\C\MSXgl\projects\soccerlgSCC/soccerlg_s8_b3.c:477: SetTeam1Palette();
    00000A49 CDr4Br09         [17] 2567 	call	_SetTeam1Palette
                                   2568 ;E:\Dropbox\FAUSTO\SVILUPPI\MSX\CODE\C\MSXgl\projects\soccerlgSCC/soccerlg_s8_b3.c:478: SetTeam2Palette();
    00000A4C CDr78r09         [17] 2569 	call	_SetTeam2Palette
                                   2570 ;E:\Dropbox\FAUSTO\SVILUPPI\MSX\CODE\C\MSXgl\projects\soccerlgSCC/soccerlg_s8_b3.c:479: CallFnc_VOID(9,SetTeamsPresentationSpritesPosition);
    00000A4F 11r00r00         [10] 2571 	ld	de, #_SetTeamsPresentationSpritesPosition
    00000A52 3E 09            [ 7] 2572 	ld	a, #0x09
    00000A54 CDr00r00         [17] 2573 	call	_CallFnc_VOID
                                   2574 ;E:\Dropbox\FAUSTO\SVILUPPI\MSX\CODE\C\MSXgl\projects\soccerlgSCC/soccerlg_s8_b3.c:480: g_FieldScrollingActionInProgress=FIELD_CENTRAL_ZONE;
    00000A57 21r00r00         [10] 2575 	ld	hl, #_g_FieldScrollingActionInProgress
    00000A5A 36 01            [10] 2576 	ld	(hl), #0x01
                                   2577 ;E:\Dropbox\FAUSTO\SVILUPPI\MSX\CODE\C\MSXgl\projects\soccerlgSCC/soccerlg_s8_b3.c:481: CallFnc_VOID(9,ShowHeaderInfo);
    00000A5C 11r00r00         [10] 2578 	ld	de, #_ShowHeaderInfo
    00000A5F 3E 09            [ 7] 2579 	ld	a, #0x09
    00000A61 CDr00r00         [17] 2580 	call	_CallFnc_VOID
                                   2581 ;E:\Dropbox\FAUSTO\SVILUPPI\MSX\CODE\C\MSXgl\projects\soccerlgSCC/soccerlg_s8_b3.c:482: CallFnc_VOID(6,InitPonPonGirls);
    00000A64 11r00r00         [10] 2582 	ld	de, #_InitPonPonGirls
    00000A67 3E 06            [ 7] 2583 	ld	a, #0x06
    00000A69 CDr00r00         [17] 2584 	call	_CallFnc_VOID
                                   2585 ;E:/Dropbox/FAUSTO/SVILUPPI/MSX/CODE/C/MSXgl/engine/src/v9990.h:258: inline void V9_SetFlag(u8 reg, u8 mask, u8 flag) { V9_SetRegister(reg, V9_GetRegister(reg) & (~mask) | flag); }
    00000A6C 3E 08            [ 7] 2586 	ld	a, #0x08
    00000A6E CDr00r00         [17] 2587 	call	_V9_GetRegister
    00000A71 CB BF            [ 8] 2588 	res	7, a
    00000A73 6F               [ 4] 2589 	ld	l, a
                                   2590 ;	spillPairReg hl
                                   2591 ;	spillPairReg hl
    00000A74 CB FD            [ 8] 2592 	set	7, l
    00000A76 3E 08            [ 7] 2593 	ld	a, #0x08
    00000A78 CDr00r00         [17] 2594 	call	_V9_SetRegister
                                   2595 ;E:/Dropbox/FAUSTO/SVILUPPI/MSX/CODE/C/MSXgl/engine/src/v9990.h:574: inline void V9_SetInterrupt(u8 flags) { V9_SetRegister(9, flags); }
    00000A7B 2E 01            [ 7] 2596 	ld	l, #0x01
                                   2597 ;	spillPairReg hl
                                   2598 ;	spillPairReg hl
    00000A7D 3E 09            [ 7] 2599 	ld	a, #0x09
    00000A7F CDr00r00         [17] 2600 	call	_V9_SetRegister
                                   2601 ;E:\Dropbox\FAUSTO\SVILUPPI\MSX\CODE\C\MSXgl\projects\soccerlgSCC/soccerlg_s8_b3.c:485: YSCC_Play(SCC_PUBLIC_PRESENTATION_BIN_SEG,SCC_PUBLIC_PRESENTATION_BIN_SIZE);
    00000A82 21 00 00         [10] 2602 	ld	hl, #0x0000
    00000A85 E5               [11] 2603 	push	hl
    00000A86 26 CB            [ 7] 2604 	ld	h, #0xcb
    00000A88 E5               [11] 2605 	push	hl
    00000A89 3E F4            [ 7] 2606 	ld	a, #0xf4
    00000A8B CDr00r00         [17] 2607 	call	_YSCC_Play
                                   2608 ;E:\Dropbox\FAUSTO\SVILUPPI\MSX\CODE\C\MSXgl\projects\soccerlgSCC/soccerlg_s8_b3.c:486: }
    00000A8E C9               [10] 2609 	ret
                                   2610 ;E:\Dropbox\FAUSTO\SVILUPPI\MSX\CODE\C\MSXgl\projects\soccerlgSCC/soccerlg_s8_b3.c:488: u8 GetNoMovingPlayerPatternId(u8 direction){
                                   2611 ;	---------------------------------
                                   2612 ; Function GetNoMovingPlayerPatternId
                                   2613 ; ---------------------------------
    00000A8F                       2614 _GetNoMovingPlayerPatternId::
    00000A8F 5F               [ 4] 2615 	ld	e, a
                                   2616 ;E:\Dropbox\FAUSTO\SVILUPPI\MSX\CODE\C\MSXgl\projects\soccerlgSCC/soccerlg_s8_b3.c:489: u8 patternId=PLAYER_POSE_FRONT_PLAYING; // Default fallback
    00000A90 0E 13            [ 7] 2617 	ld	c, #0x13
                                   2618 ;E:\Dropbox\FAUSTO\SVILUPPI\MSX\CODE\C\MSXgl\projects\soccerlgSCC/soccerlg_s8_b3.c:490: switch (direction){
    00000A92 3E 08            [ 7] 2619 	ld	a, #0x08
    00000A94 93               [ 4] 2620 	sub	a, e
    00000A95 38 4E            [12] 2621 	jr	C, 00110$
    00000A97 16 00            [ 7] 2622 	ld	d, #0x00
    00000A99 21rA0r0A         [10] 2623 	ld	hl, #00118$
    00000A9C 19               [11] 2624 	add	hl, de
    00000A9D 19               [11] 2625 	add	hl, de
    00000A9E 19               [11] 2626 	add	hl, de
    00000A9F E9               [ 4] 2627 	jp	(hl)
    00000AA0                       2628 00118$:
    00000AA0 C3rE3r0A         [10] 2629 	jp	00109$
    00000AA3 C3rC0r0A         [10] 2630 	jp	00102$
    00000AA6 C3rD4r0A         [10] 2631 	jp	00106$
    00000AA9 C3rCAr0A         [10] 2632 	jp	00104$
    00000AAC C3rDEr0A         [10] 2633 	jp	00108$
    00000AAF C3rBBr0A         [10] 2634 	jp	00101$
    00000AB2 C3rD9r0A         [10] 2635 	jp	00107$
    00000AB5 C3rC5r0A         [10] 2636 	jp	00103$
    00000AB8 C3rCFr0A         [10] 2637 	jp	00105$
                                   2638 ;E:\Dropbox\FAUSTO\SVILUPPI\MSX\CODE\C\MSXgl\projects\soccerlgSCC/soccerlg_s8_b3.c:491: case DIRECTION_DOWN:
    00000ABB                       2639 00101$:
                                   2640 ;E:\Dropbox\FAUSTO\SVILUPPI\MSX\CODE\C\MSXgl\projects\soccerlgSCC/soccerlg_s8_b3.c:492: patternId=PLAYER_POSE_FRONT_PLAYING;
    00000ABB 0E 13            [ 7] 2641 	ld	c, #0x13
                                   2642 ;E:\Dropbox\FAUSTO\SVILUPPI\MSX\CODE\C\MSXgl\projects\soccerlgSCC/soccerlg_s8_b3.c:493: break;
    00000ABD C3rE5r0A         [10] 2643 	jp	00110$
                                   2644 ;E:\Dropbox\FAUSTO\SVILUPPI\MSX\CODE\C\MSXgl\projects\soccerlgSCC/soccerlg_s8_b3.c:494: case DIRECTION_UP:
    00000AC0                       2645 00102$:
                                   2646 ;E:\Dropbox\FAUSTO\SVILUPPI\MSX\CODE\C\MSXgl\projects\soccerlgSCC/soccerlg_s8_b3.c:495: patternId=PLAYER_POSE_BACK_PLAYING;
    00000AC0 0E 16            [ 7] 2647 	ld	c, #0x16
                                   2648 ;E:\Dropbox\FAUSTO\SVILUPPI\MSX\CODE\C\MSXgl\projects\soccerlgSCC/soccerlg_s8_b3.c:496: break;
    00000AC2 C3rE5r0A         [10] 2649 	jp	00110$
                                   2650 ;E:\Dropbox\FAUSTO\SVILUPPI\MSX\CODE\C\MSXgl\projects\soccerlgSCC/soccerlg_s8_b3.c:497: case DIRECTION_LEFT:
    00000AC5                       2651 00103$:
                                   2652 ;E:\Dropbox\FAUSTO\SVILUPPI\MSX\CODE\C\MSXgl\projects\soccerlgSCC/soccerlg_s8_b3.c:498: patternId=PLAYER_POSE_LEFT;
    00000AC5 0E 12            [ 7] 2653 	ld	c, #0x12
                                   2654 ;E:\Dropbox\FAUSTO\SVILUPPI\MSX\CODE\C\MSXgl\projects\soccerlgSCC/soccerlg_s8_b3.c:499: break;
    00000AC7 C3rE5r0A         [10] 2655 	jp	00110$
                                   2656 ;E:\Dropbox\FAUSTO\SVILUPPI\MSX\CODE\C\MSXgl\projects\soccerlgSCC/soccerlg_s8_b3.c:500: case DIRECTION_RIGHT:
    00000ACA                       2657 00104$:
                                   2658 ;E:\Dropbox\FAUSTO\SVILUPPI\MSX\CODE\C\MSXgl\projects\soccerlgSCC/soccerlg_s8_b3.c:501: patternId=PLAYER_POSE_RIGHT;
    00000ACA 0E 9D            [ 7] 2659 	ld	c, #0x9d
                                   2660 ;E:\Dropbox\FAUSTO\SVILUPPI\MSX\CODE\C\MSXgl\projects\soccerlgSCC/soccerlg_s8_b3.c:502: break;
    00000ACC C3rE5r0A         [10] 2661 	jp	00110$
                                   2662 ;E:\Dropbox\FAUSTO\SVILUPPI\MSX\CODE\C\MSXgl\projects\soccerlgSCC/soccerlg_s8_b3.c:503: case DIRECTION_UP_LEFT:
    00000ACF                       2663 00105$:
                                   2664 ;E:\Dropbox\FAUSTO\SVILUPPI\MSX\CODE\C\MSXgl\projects\soccerlgSCC/soccerlg_s8_b3.c:504: patternId=PLAYER_POSE_MOVE_UP_LEFT_2;
    00000ACF 0E 82            [ 7] 2665 	ld	c, #0x82
                                   2666 ;E:\Dropbox\FAUSTO\SVILUPPI\MSX\CODE\C\MSXgl\projects\soccerlgSCC/soccerlg_s8_b3.c:505: break;
    00000AD1 C3rE5r0A         [10] 2667 	jp	00110$
                                   2668 ;E:\Dropbox\FAUSTO\SVILUPPI\MSX\CODE\C\MSXgl\projects\soccerlgSCC/soccerlg_s8_b3.c:506: case DIRECTION_UP_RIGHT:
    00000AD4                       2669 00106$:
                                   2670 ;E:\Dropbox\FAUSTO\SVILUPPI\MSX\CODE\C\MSXgl\projects\soccerlgSCC/soccerlg_s8_b3.c:507: patternId=PLAYER_POSE_MOVE_UP_RIGHT_1;
    00000AD4 0E 0D            [ 7] 2671 	ld	c, #0x0d
                                   2672 ;E:\Dropbox\FAUSTO\SVILUPPI\MSX\CODE\C\MSXgl\projects\soccerlgSCC/soccerlg_s8_b3.c:508: break;
    00000AD6 C3rE5r0A         [10] 2673 	jp	00110$
                                   2674 ;E:\Dropbox\FAUSTO\SVILUPPI\MSX\CODE\C\MSXgl\projects\soccerlgSCC/soccerlg_s8_b3.c:509: case DIRECTION_DOWN_LEFT:
    00000AD9                       2675 00107$:
                                   2676 ;E:\Dropbox\FAUSTO\SVILUPPI\MSX\CODE\C\MSXgl\projects\soccerlgSCC/soccerlg_s8_b3.c:510: patternId=PLAYER_POSE_MOVE_DOWN_LEFT_1;
    00000AD9 0E 09            [ 7] 2677 	ld	c, #0x09
                                   2678 ;E:\Dropbox\FAUSTO\SVILUPPI\MSX\CODE\C\MSXgl\projects\soccerlgSCC/soccerlg_s8_b3.c:511: break;
    00000ADB C3rE5r0A         [10] 2679 	jp	00110$
                                   2680 ;E:\Dropbox\FAUSTO\SVILUPPI\MSX\CODE\C\MSXgl\projects\soccerlgSCC/soccerlg_s8_b3.c:512: case DIRECTION_DOWN_RIGHT:
    00000ADE                       2681 00108$:
                                   2682 ;E:\Dropbox\FAUSTO\SVILUPPI\MSX\CODE\C\MSXgl\projects\soccerlgSCC/soccerlg_s8_b3.c:513: patternId=PLAYER_POSE_MOVE_DOWN_RIGHT_2;
    00000ADE 0E 86            [ 7] 2683 	ld	c, #0x86
                                   2684 ;E:\Dropbox\FAUSTO\SVILUPPI\MSX\CODE\C\MSXgl\projects\soccerlgSCC/soccerlg_s8_b3.c:514: break;
    00000AE0 C3rE5r0A         [10] 2685 	jp	00110$
                                   2686 ;E:\Dropbox\FAUSTO\SVILUPPI\MSX\CODE\C\MSXgl\projects\soccerlgSCC/soccerlg_s8_b3.c:515: case DIRECTION_NONE:
    00000AE3                       2687 00109$:
                                   2688 ;E:\Dropbox\FAUSTO\SVILUPPI\MSX\CODE\C\MSXgl\projects\soccerlgSCC/soccerlg_s8_b3.c:518: patternId=PLAYER_POSE_FRONT_PLAYING;
    00000AE3 0E 13            [ 7] 2689 	ld	c, #0x13
                                   2690 ;E:\Dropbox\FAUSTO\SVILUPPI\MSX\CODE\C\MSXgl\projects\soccerlgSCC/soccerlg_s8_b3.c:520: }
    00000AE5                       2691 00110$:
                                   2692 ;E:\Dropbox\FAUSTO\SVILUPPI\MSX\CODE\C\MSXgl\projects\soccerlgSCC/soccerlg_s8_b3.c:521: return patternId;
    00000AE5 79               [ 4] 2693 	ld	a, c
                                   2694 ;E:\Dropbox\FAUSTO\SVILUPPI\MSX\CODE\C\MSXgl\projects\soccerlgSCC/soccerlg_s8_b3.c:522: }
    00000AE6 C9               [10] 2695 	ret
                                   2696 ;E:\Dropbox\FAUSTO\SVILUPPI\MSX\CODE\C\MSXgl\projects\soccerlgSCC/soccerlg_s8_b3.c:524: void PerformShot(u16 targetX, u16 targetY) {
                                   2697 ;	---------------------------------
                                   2698 ; Function PerformShot
                                   2699 ; ---------------------------------
    00000AE7                       2700 _PerformShot::
    00000AE7 DD E5            [15] 2701 	push	ix
    00000AE9 DD 21 00 00      [14] 2702 	ld	ix,#0
    00000AED DD 39            [15] 2703 	add	ix,sp
    00000AEF FD 21 EC FF      [14] 2704 	ld	iy, #-20
    00000AF3 FD 39            [15] 2705 	add	iy, sp
    00000AF5 FD F9            [10] 2706 	ld	sp, iy
    00000AF7 DD 75 FE         [19] 2707 	ld	-2 (ix), l
    00000AFA DD 74 FF         [19] 2708 	ld	-1 (ix), h
    00000AFD DD 73 FC         [19] 2709 	ld	-4 (ix), e
    00000B00 DD 72 FD         [19] 2710 	ld	-3 (ix), d
                                   2711 ;E:\Dropbox\FAUSTO\SVILUPPI\MSX\CODE\C\MSXgl\projects\soccerlgSCC/soccerlg_s8_b3.c:525: u8 fromId = g_Ball.PossessionPlayerId;
    00000B03 3Ar06r00         [13] 2712 	ld	a, (#(_g_Ball + 6) + 0)
                                   2713 ;E:\Dropbox\FAUSTO\SVILUPPI\MSX\CODE\C\MSXgl\projects\soccerlgSCC/soccerlg_s8_b3.c:526: if (fromId == NO_VALUE) return;
    00000B06 DD 77 FB         [19] 2714 	ld	-5 (ix), a
    00000B09 3C               [ 4] 2715 	inc	a
    00000B0A CArBEr0D         [10] 2716 	jp	Z,00132$
    00000B0D C3r10r0B         [10] 2717 	jp	00102$
    00000B10                       2718 00102$:
                                   2719 ;E:\Dropbox\FAUSTO\SVILUPPI\MSX\CODE\C\MSXgl\projects\soccerlgSCC/soccerlg_s8_b3.c:532: dx = (i16)targetX - (i16)g_Players[fromId].X;
    00000B10 DD 4E FE         [19] 2720 	ld	c, -2 (ix)
    00000B13 DD 46 FF         [19] 2721 	ld	b, -1 (ix)
    00000B16 DD 5E FB         [19] 2722 	ld	e, -5 (ix)
    00000B19 16 00            [ 7] 2723 	ld	d, #0x00
    00000B1B 6B               [ 4] 2724 	ld	l, e
    00000B1C 62               [ 4] 2725 	ld	h, d
    00000B1D 29               [11] 2726 	add	hl, hl
    00000B1E 29               [11] 2727 	add	hl, hl
    00000B1F 19               [11] 2728 	add	hl, de
    00000B20 29               [11] 2729 	add	hl, hl
    00000B21 29               [11] 2730 	add	hl, hl
    00000B22 19               [11] 2731 	add	hl, de
    00000B23 11r00r00         [10] 2732 	ld	de, #_g_Players
    00000B26 19               [11] 2733 	add	hl, de
    00000B27 E3               [19] 2734 	ex	(sp), hl
    00000B28 DD 7E EC         [19] 2735 	ld	a, -20 (ix)
    00000B2B C6 02            [ 7] 2736 	add	a, #0x02
    00000B2D DD 77 EE         [19] 2737 	ld	-18 (ix), a
    00000B30 DD 7E ED         [19] 2738 	ld	a, -19 (ix)
    00000B33 CE 00            [ 7] 2739 	adc	a, #0x00
    00000B35 DD 77 EF         [19] 2740 	ld	-17 (ix), a
    00000B38 DD 6E EE         [19] 2741 	ld	l, -18 (ix)
    00000B3B DD 66 EF         [19] 2742 	ld	h, -17 (ix)
    00000B3E 5E               [ 7] 2743 	ld	e, (hl)
    00000B3F 23               [ 6] 2744 	inc	hl
    00000B40 56               [ 7] 2745 	ld	d, (hl)
    00000B41 79               [ 4] 2746 	ld	a, c
    00000B42 93               [ 4] 2747 	sub	a, e
    00000B43 4F               [ 4] 2748 	ld	c, a
    00000B44 78               [ 4] 2749 	ld	a, b
    00000B45 9A               [ 4] 2750 	sbc	a, d
    00000B46 DD 71 F0         [19] 2751 	ld	-16 (ix), c
    00000B49 DD 77 F1         [19] 2752 	ld	-15 (ix), a
                                   2753 ;E:\Dropbox\FAUSTO\SVILUPPI\MSX\CODE\C\MSXgl\projects\soccerlgSCC/soccerlg_s8_b3.c:533: dy = (i16)targetY - (i16)g_Players[fromId].Y;
    00000B4C DD 4E FC         [19] 2754 	ld	c, -4 (ix)
    00000B4F DD 46 FD         [19] 2755 	ld	b, -3 (ix)
    00000B52 E1               [10] 2756 	pop	hl
    00000B53 E5               [11] 2757 	push	hl
    00000B54 5E               [ 7] 2758 	ld	e, (hl)
    00000B55 23               [ 6] 2759 	inc	hl
    00000B56 56               [ 7] 2760 	ld	d, (hl)
    00000B57 79               [ 4] 2761 	ld	a, c
    00000B58 93               [ 4] 2762 	sub	a, e
    00000B59 4F               [ 4] 2763 	ld	c, a
    00000B5A 78               [ 4] 2764 	ld	a, b
    00000B5B 9A               [ 4] 2765 	sbc	a, d
    00000B5C DD 71 F2         [19] 2766 	ld	-14 (ix), c
    00000B5F DD 77 F3         [19] 2767 	ld	-13 (ix), a
                                   2768 ;E:\Dropbox\FAUSTO\SVILUPPI\MSX\CODE\C\MSXgl\projects\soccerlgSCC/soccerlg_s8_b3.c:534: adx = (dx < 0) ? -dx : dx;
    00000B62 DD 7E F0         [19] 2769 	ld	a, -16 (ix)
    00000B65 DD 77 F4         [19] 2770 	ld	-12 (ix), a
    00000B68 DD 7E F1         [19] 2771 	ld	a, -15 (ix)
    00000B6B DD 77 F5         [19] 2772 	ld	-11 (ix), a
    00000B6E DD CB F5 7E      [20] 2773 	bit	7, -11 (ix)
    00000B72 28 0C            [12] 2774 	jr	Z, 00134$
    00000B74 AF               [ 4] 2775 	xor	a, a
    00000B75 DD 96 F0         [19] 2776 	sub	a, -16 (ix)
    00000B78 4F               [ 4] 2777 	ld	c, a
    00000B79 9F               [ 4] 2778 	sbc	a, a
    00000B7A DD 96 F1         [19] 2779 	sub	a, -15 (ix)
    00000B7D C3r86r0B         [10] 2780 	jp	00135$
    00000B80                       2781 00134$:
    00000B80 DD 4E F0         [19] 2782 	ld	c, -16 (ix)
    00000B83 DD 7E F1         [19] 2783 	ld	a, -15 (ix)
    00000B86                       2784 00135$:
    00000B86 DD 71 F6         [19] 2785 	ld	-10 (ix), c
    00000B89 DD 77 F7         [19] 2786 	ld	-9 (ix), a
                                   2787 ;E:\Dropbox\FAUSTO\SVILUPPI\MSX\CODE\C\MSXgl\projects\soccerlgSCC/soccerlg_s8_b3.c:535: ady = (dy < 0) ? -dy : dy;
    00000B8C DD 7E F2         [19] 2788 	ld	a, -14 (ix)
    00000B8F DD 77 F8         [19] 2789 	ld	-8 (ix), a
    00000B92 DD 7E F3         [19] 2790 	ld	a, -13 (ix)
    00000B95 DD 77 F9         [19] 2791 	ld	-7 (ix), a
    00000B98 DD CB F9 7E      [20] 2792 	bit	7, -7 (ix)
    00000B9C 28 11            [12] 2793 	jr	Z, 00136$
    00000B9E AF               [ 4] 2794 	xor	a, a
    00000B9F DD 96 F2         [19] 2795 	sub	a, -14 (ix)
    00000BA2 DD 77 FA         [19] 2796 	ld	-6 (ix), a
    00000BA5 9F               [ 4] 2797 	sbc	a, a
    00000BA6 DD 96 F3         [19] 2798 	sub	a, -13 (ix)
    00000BA9 DD 77 FB         [19] 2799 	ld	-5 (ix), a
    00000BAC C3rBBr0B         [10] 2800 	jp	00137$
    00000BAF                       2801 00136$:
    00000BAF DD 7E F2         [19] 2802 	ld	a, -14 (ix)
    00000BB2 DD 77 FA         [19] 2803 	ld	-6 (ix), a
    00000BB5 DD 7E F3         [19] 2804 	ld	a, -13 (ix)
    00000BB8 DD 77 FB         [19] 2805 	ld	-5 (ix), a
    00000BBB                       2806 00137$:
    00000BBB DD 4E FA         [19] 2807 	ld	c, -6 (ix)
    00000BBE DD 46 FB         [19] 2808 	ld	b, -5 (ix)
                                   2809 ;E:\Dropbox\FAUSTO\SVILUPPI\MSX\CODE\C\MSXgl\projects\soccerlgSCC/soccerlg_s8_b3.c:537: if (adx > ady * 2) {
    00000BC1 69               [ 4] 2810 	ld	l, c
    00000BC2 60               [ 4] 2811 	ld	h, b
    00000BC3 29               [11] 2812 	add	hl, hl
    00000BC4 DD 5E F6         [19] 2813 	ld	e, -10 (ix)
    00000BC7 DD 56 F7         [19] 2814 	ld	d, -9 (ix)
    00000BCA 7D               [ 4] 2815 	ld	a, l
    00000BCB 93               [ 4] 2816 	sub	a, e
    00000BCC 7C               [ 4] 2817 	ld	a, h
    00000BCD 9A               [ 4] 2818 	sbc	a, d
    00000BCE E2rD3r0B         [10] 2819 	jp	PO, 00238$
    00000BD1 EE 80            [ 7] 2820 	xor	a, #0x80
    00000BD3                       2821 00238$:
    00000BD3 F2rF4r0B         [10] 2822 	jp	P, 00110$
                                   2823 ;E:\Dropbox\FAUSTO\SVILUPPI\MSX\CODE\C\MSXgl\projects\soccerlgSCC/soccerlg_s8_b3.c:538: newDir = (dx > 0) ? DIRECTION_RIGHT : DIRECTION_LEFT;
    00000BD6 AF               [ 4] 2824 	xor	a, a
    00000BD7 DD BE F4         [19] 2825 	cp	a, -12 (ix)
    00000BDA DD 9E F5         [19] 2826 	sbc	a, -11 (ix)
    00000BDD E2rE2r0B         [10] 2827 	jp	PO, 00239$
    00000BE0 EE 80            [ 7] 2828 	xor	a, #0x80
    00000BE2                       2829 00239$:
    00000BE2 F2rEBr0B         [10] 2830 	jp	P, 00138$
    00000BE5 01 03 00         [10] 2831 	ld	bc, #0x0003
    00000BE8 C3rEEr0B         [10] 2832 	jp	00139$
    00000BEB                       2833 00138$:
    00000BEB 01 07 00         [10] 2834 	ld	bc, #0x0007
    00000BEE                       2835 00139$:
    00000BEE DD 71 FB         [19] 2836 	ld	-5 (ix), c
    00000BF1 C3r58r0C         [10] 2837 	jp	00111$
    00000BF4                       2838 00110$:
                                   2839 ;E:\Dropbox\FAUSTO\SVILUPPI\MSX\CODE\C\MSXgl\projects\soccerlgSCC/soccerlg_s8_b3.c:539: } else if (ady > adx * 2) {
    00000BF4 EB               [ 4] 2840 	ex	de, hl
    00000BF5 29               [11] 2841 	add	hl, hl
    00000BF6 EB               [ 4] 2842 	ex	de, hl
                                   2843 ;E:\Dropbox\FAUSTO\SVILUPPI\MSX\CODE\C\MSXgl\projects\soccerlgSCC/soccerlg_s8_b3.c:540: newDir = (dy > 0) ? DIRECTION_DOWN : DIRECTION_UP;
    00000BF7 AF               [ 4] 2844 	xor	a, a
    00000BF8 DD BE F8         [19] 2845 	cp	a, -8 (ix)
    00000BFB DD 9E F9         [19] 2846 	sbc	a, -7 (ix)
    00000BFE E2r03r0C         [10] 2847 	jp	PO, 00240$
    00000C01 EE 80            [ 7] 2848 	xor	a, #0x80
    00000C03                       2849 00240$:
    00000C03 07               [ 4] 2850 	rlca
    00000C04 E6 01            [ 7] 2851 	and	a,#0x01
    00000C06 6F               [ 4] 2852 	ld	l, a
                                   2853 ;	spillPairReg hl
                                   2854 ;	spillPairReg hl
                                   2855 ;E:\Dropbox\FAUSTO\SVILUPPI\MSX\CODE\C\MSXgl\projects\soccerlgSCC/soccerlg_s8_b3.c:539: } else if (ady > adx * 2) {
    00000C07 7B               [ 4] 2856 	ld	a, e
    00000C08 91               [ 4] 2857 	sub	a, c
    00000C09 7A               [ 4] 2858 	ld	a, d
    00000C0A 98               [ 4] 2859 	sbc	a, b
    00000C0B E2r10r0C         [10] 2860 	jp	PO, 00241$
    00000C0E EE 80            [ 7] 2861 	xor	a, #0x80
    00000C10                       2862 00241$:
    00000C10 F2r26r0C         [10] 2863 	jp	P, 00107$
                                   2864 ;E:\Dropbox\FAUSTO\SVILUPPI\MSX\CODE\C\MSXgl\projects\soccerlgSCC/soccerlg_s8_b3.c:540: newDir = (dy > 0) ? DIRECTION_DOWN : DIRECTION_UP;
    00000C13 7D               [ 4] 2865 	ld	a, l
    00000C14 B7               [ 4] 2866 	or	a, a
    00000C15 28 06            [12] 2867 	jr	Z, 00140$
    00000C17 01 05 00         [10] 2868 	ld	bc, #0x0005
    00000C1A C3r20r0C         [10] 2869 	jp	00141$
    00000C1D                       2870 00140$:
    00000C1D 01 01 00         [10] 2871 	ld	bc, #0x0001
    00000C20                       2872 00141$:
    00000C20 DD 71 FB         [19] 2873 	ld	-5 (ix), c
    00000C23 C3r58r0C         [10] 2874 	jp	00111$
    00000C26                       2875 00107$:
                                   2876 ;E:\Dropbox\FAUSTO\SVILUPPI\MSX\CODE\C\MSXgl\projects\soccerlgSCC/soccerlg_s8_b3.c:542: if (dx > 0) newDir = (dy > 0) ? DIRECTION_DOWN_RIGHT : DIRECTION_UP_RIGHT;
    00000C26 AF               [ 4] 2877 	xor	a, a
    00000C27 DD BE F4         [19] 2878 	cp	a, -12 (ix)
    00000C2A DD 9E F5         [19] 2879 	sbc	a, -11 (ix)
    00000C2D E2r32r0C         [10] 2880 	jp	PO, 00242$
    00000C30 EE 80            [ 7] 2881 	xor	a, #0x80
    00000C32                       2882 00242$:
    00000C32 F2r48r0C         [10] 2883 	jp	P, 00104$
    00000C35 7D               [ 4] 2884 	ld	a, l
    00000C36 B7               [ 4] 2885 	or	a, a
    00000C37 28 06            [12] 2886 	jr	Z, 00142$
    00000C39 01 04 00         [10] 2887 	ld	bc, #0x0004
    00000C3C C3r42r0C         [10] 2888 	jp	00143$
    00000C3F                       2889 00142$:
    00000C3F 01 02 00         [10] 2890 	ld	bc, #0x0002
    00000C42                       2891 00143$:
    00000C42 DD 71 FB         [19] 2892 	ld	-5 (ix), c
    00000C45 C3r58r0C         [10] 2893 	jp	00111$
    00000C48                       2894 00104$:
                                   2895 ;E:\Dropbox\FAUSTO\SVILUPPI\MSX\CODE\C\MSXgl\projects\soccerlgSCC/soccerlg_s8_b3.c:543: else newDir = (dy > 0) ? DIRECTION_DOWN_LEFT : DIRECTION_UP_LEFT;
    00000C48 7D               [ 4] 2896 	ld	a, l
    00000C49 B7               [ 4] 2897 	or	a, a
    00000C4A 28 06            [12] 2898 	jr	Z, 00144$
    00000C4C 01 06 00         [10] 2899 	ld	bc, #0x0006
    00000C4F C3r55r0C         [10] 2900 	jp	00145$
    00000C52                       2901 00144$:
    00000C52 01 08 00         [10] 2902 	ld	bc, #0x0008
    00000C55                       2903 00145$:
    00000C55 DD 71 FB         [19] 2904 	ld	-5 (ix), c
    00000C58                       2905 00111$:
                                   2906 ;E:\Dropbox\FAUSTO\SVILUPPI\MSX\CODE\C\MSXgl\projects\soccerlgSCC/soccerlg_s8_b3.c:545: g_Players[fromId].Direction = newDir;
    00000C58 E1               [10] 2907 	pop	hl
    00000C59 E5               [11] 2908 	push	hl
    00000C5A 11 0A 00         [10] 2909 	ld	de, #0x000a
    00000C5D 19               [11] 2910 	add	hl, de
    00000C5E DD 7E FB         [19] 2911 	ld	a, -5 (ix)
    00000C61 77               [ 7] 2912 	ld	(hl), a
                                   2913 ;E:\Dropbox\FAUSTO\SVILUPPI\MSX\CODE\C\MSXgl\projects\soccerlgSCC/soccerlg_s8_b3.c:548: if (newDir == DIRECTION_UP || newDir == DIRECTION_UP_LEFT || newDir == DIRECTION_UP_RIGHT) g_Players[fromId].PatternId = PLAYER_POSE_SHOT_FRONT;
    00000C62 DD 7E FB         [19] 2914 	ld	a, -5 (ix)
    00000C65 3D               [ 4] 2915 	dec	a
    00000C66 28 0E            [12] 2916 	jr	Z, 00122$
    00000C68 DD 7E FB         [19] 2917 	ld	a, -5 (ix)
    00000C6B D6 08            [ 7] 2918 	sub	a, #0x08
    00000C6D 28 07            [12] 2919 	jr	Z, 00122$
    00000C6F DD 7E FB         [19] 2920 	ld	a, -5 (ix)
    00000C72 D6 02            [ 7] 2921 	sub	a, #0x02
    00000C74 20 1B            [12] 2922 	jr	NZ, 00123$
    00000C76                       2923 00122$:
    00000C76 DD 7E EC         [19] 2924 	ld	a, -20 (ix)
    00000C79 C6 08            [ 7] 2925 	add	a, #0x08
    00000C7B DD 77 FA         [19] 2926 	ld	-6 (ix), a
    00000C7E DD 7E ED         [19] 2927 	ld	a, -19 (ix)
    00000C81 CE 00            [ 7] 2928 	adc	a, #0x00
    00000C83 DD 77 FB         [19] 2929 	ld	-5 (ix), a
    00000C86 DD 6E FA         [19] 2930 	ld	l, -6 (ix)
    00000C89 DD 66 FB         [19] 2931 	ld	h, -5 (ix)
    00000C8C 36 18            [10] 2932 	ld	(hl), #0x18
    00000C8E C3rD2r0C         [10] 2933 	jp	00124$
    00000C91                       2934 00123$:
                                   2935 ;E:\Dropbox\FAUSTO\SVILUPPI\MSX\CODE\C\MSXgl\projects\soccerlgSCC/soccerlg_s8_b3.c:549: else if (newDir == DIRECTION_DOWN || newDir == DIRECTION_DOWN_LEFT || newDir == DIRECTION_DOWN_RIGHT) g_Players[fromId].PatternId = PLAYER_POSE_SHOT_BACK;
    00000C91 DD 7E FB         [19] 2936 	ld	a, -5 (ix)
    00000C94 D6 05            [ 7] 2937 	sub	a, #0x05
    00000C96 28 0E            [12] 2938 	jr	Z, 00117$
    00000C98 DD 7E FB         [19] 2939 	ld	a, -5 (ix)
    00000C9B D6 06            [ 7] 2940 	sub	a, #0x06
    00000C9D 28 07            [12] 2941 	jr	Z, 00117$
    00000C9F DD 7E FB         [19] 2942 	ld	a, -5 (ix)
    00000CA2 D6 04            [ 7] 2943 	sub	a, #0x04
    00000CA4 20 0B            [12] 2944 	jr	NZ, 00118$
    00000CA6                       2945 00117$:
    00000CA6 E1               [10] 2946 	pop	hl
    00000CA7 E5               [11] 2947 	push	hl
    00000CA8 11 08 00         [10] 2948 	ld	de, #0x0008
    00000CAB 19               [11] 2949 	add	hl, de
    00000CAC 36 15            [10] 2950 	ld	(hl), #0x15
    00000CAE C3rD2r0C         [10] 2951 	jp	00124$
    00000CB1                       2952 00118$:
                                   2953 ;E:\Dropbox\FAUSTO\SVILUPPI\MSX\CODE\C\MSXgl\projects\soccerlgSCC/soccerlg_s8_b3.c:550: else if (newDir == DIRECTION_LEFT) g_Players[fromId].PatternId = PLAYER_POSE_SHOT_LEFT;
    00000CB1 DD 7E FB         [19] 2954 	ld	a, -5 (ix)
    00000CB4 D6 07            [ 7] 2955 	sub	a, #0x07
    00000CB6 20 0B            [12] 2956 	jr	NZ, 00115$
    00000CB8 E1               [10] 2957 	pop	hl
    00000CB9 E5               [11] 2958 	push	hl
    00000CBA 11 08 00         [10] 2959 	ld	de, #0x0008
    00000CBD 19               [11] 2960 	add	hl, de
    00000CBE 36 A4            [10] 2961 	ld	(hl), #0xa4
    00000CC0 C3rD2r0C         [10] 2962 	jp	00124$
    00000CC3                       2963 00115$:
                                   2964 ;E:\Dropbox\FAUSTO\SVILUPPI\MSX\CODE\C\MSXgl\projects\soccerlgSCC/soccerlg_s8_b3.c:551: else if (newDir == DIRECTION_RIGHT) g_Players[fromId].PatternId = PLAYER_POSE_SHOT_RIGHT;
    00000CC3 DD 7E FB         [19] 2965 	ld	a, -5 (ix)
    00000CC6 D6 03            [ 7] 2966 	sub	a, #0x03
    00000CC8 20 08            [12] 2967 	jr	NZ, 00124$
    00000CCA E1               [10] 2968 	pop	hl
    00000CCB E5               [11] 2969 	push	hl
    00000CCC 11 08 00         [10] 2970 	ld	de, #0x0008
    00000CCF 19               [11] 2971 	add	hl, de
    00000CD0 36 1B            [10] 2972 	ld	(hl), #0x1b
    00000CD2                       2973 00124$:
                                   2974 ;E:\Dropbox\FAUSTO\SVILUPPI\MSX\CODE\C\MSXgl\projects\soccerlgSCC/soccerlg_s8_b3.c:553: g_Players[fromId].Status = PLAYER_STATUS_POSITIONED; // Lock pose
    00000CD2 E1               [10] 2975 	pop	hl
    00000CD3 E5               [11] 2976 	push	hl
    00000CD4 11 12 00         [10] 2977 	ld	de, #0x0012
    00000CD7 19               [11] 2978 	add	hl, de
    00000CD8 36 04            [10] 2979 	ld	(hl), #0x04
    00000CDA 23               [ 6] 2980 	inc	hl
    00000CDB 36 00            [10] 2981 	ld	(hl), #0x00
                                   2982 ;E:\Dropbox\FAUSTO\SVILUPPI\MSX\CODE\C\MSXgl\projects\soccerlgSCC/soccerlg_s8_b3.c:556: g_Players[fromId].TargetX = g_Players[fromId].X;
    00000CDD DD 7E EC         [19] 2983 	ld	a, -20 (ix)
    00000CE0 C6 10            [ 7] 2984 	add	a, #0x10
    00000CE2 4F               [ 4] 2985 	ld	c, a
    00000CE3 DD 7E ED         [19] 2986 	ld	a, -19 (ix)
    00000CE6 CE 00            [ 7] 2987 	adc	a, #0x00
    00000CE8 47               [ 4] 2988 	ld	b, a
    00000CE9 DD 6E EE         [19] 2989 	ld	l, -18 (ix)
    00000CEC DD 66 EF         [19] 2990 	ld	h, -17 (ix)
    00000CEF 5E               [ 7] 2991 	ld	e, (hl)
    00000CF0 23               [ 6] 2992 	inc	hl
    00000CF1 56               [ 7] 2993 	ld	d, (hl)
    00000CF2 7B               [ 4] 2994 	ld	a, e
    00000CF3 02               [ 7] 2995 	ld	(bc), a
    00000CF4 03               [ 6] 2996 	inc	bc
    00000CF5 7A               [ 4] 2997 	ld	a, d
    00000CF6 02               [ 7] 2998 	ld	(bc), a
                                   2999 ;E:\Dropbox\FAUSTO\SVILUPPI\MSX\CODE\C\MSXgl\projects\soccerlgSCC/soccerlg_s8_b3.c:557: g_Players[fromId].TargetY = g_Players[fromId].Y;
    00000CF7 DD 7E EC         [19] 3000 	ld	a, -20 (ix)
    00000CFA C6 0E            [ 7] 3001 	add	a, #0x0e
    00000CFC 4F               [ 4] 3002 	ld	c, a
    00000CFD DD 7E ED         [19] 3003 	ld	a, -19 (ix)
    00000D00 CE 00            [ 7] 3004 	adc	a, #0x00
    00000D02 47               [ 4] 3005 	ld	b, a
    00000D03 E1               [10] 3006 	pop	hl
    00000D04 E5               [11] 3007 	push	hl
    00000D05 5E               [ 7] 3008 	ld	e, (hl)
    00000D06 23               [ 6] 3009 	inc	hl
    00000D07 56               [ 7] 3010 	ld	d, (hl)
    00000D08 7B               [ 4] 3011 	ld	a, e
    00000D09 02               [ 7] 3012 	ld	(bc), a
    00000D0A 03               [ 6] 3013 	inc	bc
    00000D0B 7A               [ 4] 3014 	ld	a, d
    00000D0C 02               [ 7] 3015 	ld	(bc), a
                                   3016 ;E:\Dropbox\FAUSTO\SVILUPPI\MSX\CODE\C\MSXgl\projects\soccerlgSCC/soccerlg_s8_b3.c:559: CallFnc_VOID_P1(4,SetPlayerBallPossession,NO_VALUE);
    00000D0D 3E FF            [ 7] 3017 	ld	a, #0xff
    00000D0F F5               [11] 3018 	push	af
    00000D10 33               [ 6] 3019 	inc	sp
    00000D11 11r00r00         [10] 3020 	ld	de, #_SetPlayerBallPossession
    00000D14 3E 04            [ 7] 3021 	ld	a, #0x04
    00000D16 CDr00r00         [17] 3022 	call	_CallFnc_VOID_P1
                                   3023 ;E:\Dropbox\FAUSTO\SVILUPPI\MSX\CODE\C\MSXgl\projects\soccerlgSCC/soccerlg_s8_b3.c:560: g_Ball.PossessionPlayerId = NO_VALUE;
    00000D19 21r06r00         [10] 3024 	ld	hl, #(_g_Ball + 6)
    00000D1C 36 FF            [10] 3025 	ld	(hl), #0xff
                                   3026 ;E:\Dropbox\FAUSTO\SVILUPPI\MSX\CODE\C\MSXgl\projects\soccerlgSCC/soccerlg_s8_b3.c:561: g_Ball.PassTargetPlayerId = NO_VALUE;
    00000D1E 21r10r00         [10] 3027 	ld	hl, #(_g_Ball + 16)
    00000D21 36 FF            [10] 3028 	ld	(hl), #0xff
                                   3029 ;E:\Dropbox\FAUSTO\SVILUPPI\MSX\CODE\C\MSXgl\projects\soccerlgSCC/soccerlg_s8_b3.c:562: g_Ball.ShotActive = 1;
    00000D23 21r1Br00         [10] 3030 	ld	hl, #(_g_Ball + 27)
    00000D26 36 01            [10] 3031 	ld	(hl), #0x01
                                   3032 ;E:\Dropbox\FAUSTO\SVILUPPI\MSX\CODE\C\MSXgl\projects\soccerlgSCC/soccerlg_s8_b3.c:563: g_Ball.TargetX = targetX;
    00000D28 21r17r00         [10] 3033 	ld	hl, #(_g_Ball + 23)
    00000D2B DD 7E FE         [19] 3034 	ld	a, -2 (ix)
    00000D2E 77               [ 7] 3035 	ld	(hl), a
    00000D2F 23               [ 6] 3036 	inc	hl
    00000D30 DD 7E FF         [19] 3037 	ld	a, -1 (ix)
    00000D33 77               [ 7] 3038 	ld	(hl), a
                                   3039 ;E:\Dropbox\FAUSTO\SVILUPPI\MSX\CODE\C\MSXgl\projects\soccerlgSCC/soccerlg_s8_b3.c:564: g_Ball.TargetY = targetY;
    00000D34 21r19r00         [10] 3040 	ld	hl, #(_g_Ball + 25)
    00000D37 DD 7E FC         [19] 3041 	ld	a, -4 (ix)
    00000D3A 77               [ 7] 3042 	ld	(hl), a
    00000D3B 23               [ 6] 3043 	inc	hl
    00000D3C DD 7E FD         [19] 3044 	ld	a, -3 (ix)
    00000D3F 77               [ 7] 3045 	ld	(hl), a
                                   3046 ;E:\Dropbox\FAUSTO\SVILUPPI\MSX\CODE\C\MSXgl\projects\soccerlgSCC/soccerlg_s8_b3.c:565: g_Ball.PassStartX = g_Ball.X;
    00000D40 ED 4Br02r00      [20] 3047 	ld	bc, (#_g_Ball + 2)
    00000D44 ED 43r11r00      [20] 3048 	ld	((_g_Ball + 17)), bc
                                   3049 ;E:\Dropbox\FAUSTO\SVILUPPI\MSX\CODE\C\MSXgl\projects\soccerlgSCC/soccerlg_s8_b3.c:566: g_Ball.PassStartY = g_Ball.Y;
    00000D48 ED 4Br00r00      [20] 3050 	ld	bc, (#_g_Ball + 0)
    00000D4C ED 43r13r00      [20] 3051 	ld	((_g_Ball + 19)), bc
                                   3052 ;E:\Dropbox\FAUSTO\SVILUPPI\MSX\CODE\C\MSXgl\projects\soccerlgSCC/soccerlg_s8_b3.c:569: i16 arcDy = dy;
    00000D50 DD 4E F2         [19] 3053 	ld	c, -14 (ix)
    00000D53 DD 46 F3         [19] 3054 	ld	b, -13 (ix)
                                   3055 ;E:\Dropbox\FAUSTO\SVILUPPI\MSX\CODE\C\MSXgl\projects\soccerlgSCC/soccerlg_s8_b3.c:570: if (targetY < FIELD_BOUND_Y_TOP) { // Shooting UP
    00000D56 DD 5E FC         [19] 3056 	ld	e, -4 (ix)
    00000D59 DD 56 FD         [19] 3057 	ld	d, -3 (ix)
    00000D5C 7B               [ 4] 3058 	ld	a, e
    00000D5D D6 32            [ 7] 3059 	sub	a, #0x32
    00000D5F 7A               [ 4] 3060 	ld	a, d
    00000D60 DE 00            [ 7] 3061 	sbc	a, #0x00
    00000D62 30 0F            [12] 3062 	jr	NC, 00130$
                                   3063 ;E:\Dropbox\FAUSTO\SVILUPPI\MSX\CODE\C\MSXgl\projects\soccerlgSCC/soccerlg_s8_b3.c:571: arcDy = (i16)FIELD_BOUND_Y_TOP - (i16)g_Players[fromId].Y;
    00000D64 E1               [10] 3064 	pop	hl
    00000D65 E5               [11] 3065 	push	hl
    00000D66 4E               [ 7] 3066 	ld	c, (hl)
    00000D67 23               [ 6] 3067 	inc	hl
    00000D68 46               [ 7] 3068 	ld	b, (hl)
    00000D69 3E 32            [ 7] 3069 	ld	a, #0x32
    00000D6B 91               [ 4] 3070 	sub	a, c
    00000D6C 4F               [ 4] 3071 	ld	c, a
    00000D6D 9F               [ 4] 3072 	sbc	a, a
    00000D6E 90               [ 4] 3073 	sub	a, b
    00000D6F 47               [ 4] 3074 	ld	b, a
    00000D70 C3r88r0D         [10] 3075 	jp	00131$
    00000D73                       3076 00130$:
                                   3077 ;E:\Dropbox\FAUSTO\SVILUPPI\MSX\CODE\C\MSXgl\projects\soccerlgSCC/soccerlg_s8_b3.c:572: } else if (targetY > FIELD_BOUND_Y_BOTTOM) { // Shooting DOWN
    00000D73 3E B3            [ 7] 3078 	ld	a, #0xb3
    00000D75 BB               [ 4] 3079 	cp	a, e
    00000D76 3E 01            [ 7] 3080 	ld	a, #0x01
    00000D78 9A               [ 4] 3081 	sbc	a, d
    00000D79 30 0D            [12] 3082 	jr	NC, 00131$
                                   3083 ;E:\Dropbox\FAUSTO\SVILUPPI\MSX\CODE\C\MSXgl\projects\soccerlgSCC/soccerlg_s8_b3.c:573: arcDy = (i16)FIELD_BOUND_Y_BOTTOM - (i16)g_Players[fromId].Y;
    00000D7B E1               [10] 3084 	pop	hl
    00000D7C E5               [11] 3085 	push	hl
    00000D7D 4E               [ 7] 3086 	ld	c, (hl)
    00000D7E 23               [ 6] 3087 	inc	hl
    00000D7F 46               [ 7] 3088 	ld	b, (hl)
    00000D80 3E B3            [ 7] 3089 	ld	a, #0xb3
    00000D82 91               [ 4] 3090 	sub	a, c
    00000D83 4F               [ 4] 3091 	ld	c, a
    00000D84 3E 01            [ 7] 3092 	ld	a, #0x01
    00000D86 98               [ 4] 3093 	sbc	a, b
    00000D87 47               [ 4] 3094 	ld	b, a
    00000D88                       3095 00131$:
                                   3096 ;E:\Dropbox\FAUSTO\SVILUPPI\MSX\CODE\C\MSXgl\projects\soccerlgSCC/soccerlg_s8_b3.c:575: g_Ball.PassTotalDist = (u16)(Math_Abs32(dx) + Math_Abs32(arcDy));
    00000D88 DD 5E F0         [19] 3097 	ld	e, -16 (ix)
    00000D8B DD 7E F1         [19] 3098 	ld	a, -15 (ix)
    00000D8E 57               [ 4] 3099 	ld	d, a
    00000D8F 07               [ 4] 3100 	rlca
    00000D90 ED 62            [15] 3101 	sbc	hl, hl
    00000D92 C5               [11] 3102 	push	bc
    00000D93 CDr00r00         [17] 3103 	call	_Math_Abs32
    00000D96 DD 73 F8         [19] 3104 	ld	-8 (ix), e
    00000D99 DD 72 F9         [19] 3105 	ld	-7 (ix), d
    00000D9C DD 75 FA         [19] 3106 	ld	-6 (ix), l
    00000D9F DD 74 FB         [19] 3107 	ld	-5 (ix), h
    00000DA2 C1               [10] 3108 	pop	bc
    00000DA3 78               [ 4] 3109 	ld	a, b
    00000DA4 07               [ 4] 3110 	rlca
    00000DA5 ED 62            [15] 3111 	sbc	hl, hl
    00000DA7 59               [ 4] 3112 	ld	e, c
    00000DA8 50               [ 4] 3113 	ld	d, b
    00000DA9 CDr00r00         [17] 3114 	call	_Math_Abs32
    00000DAC DD 4E F8         [19] 3115 	ld	c, -8 (ix)
    00000DAF DD 46 F9         [19] 3116 	ld	b, -7 (ix)
    00000DB2 EB               [ 4] 3117 	ex	de, hl
    00000DB3 09               [11] 3118 	add	hl, bc
    00000DB4 EB               [ 4] 3119 	ex	de, hl
    00000DB5 ED 53r15r00      [20] 3120 	ld	((_g_Ball + 21)), de
                                   3121 ;E:\Dropbox\FAUSTO\SVILUPPI\MSX\CODE\C\MSXgl\projects\soccerlgSCC/soccerlg_s8_b3.c:576: PlayAyFx(AYFX_BALL);
    00000DB9 3E 05            [ 7] 3122 	ld	a, #0x05
    00000DBB CDr00r00         [17] 3123 	call	_PlayAyFx
    00000DBE                       3124 00132$:
                                   3125 ;E:\Dropbox\FAUSTO\SVILUPPI\MSX\CODE\C\MSXgl\projects\soccerlgSCC/soccerlg_s8_b3.c:577: }
    00000DBE DD F9            [10] 3126 	ld	sp, ix
    00000DC0 DD E1            [14] 3127 	pop	ix
    00000DC2 C9               [10] 3128 	ret
                                   3129 ;E:\Dropbox\FAUSTO\SVILUPPI\MSX\CODE\C\MSXgl\projects\soccerlgSCC/soccerlg_s8_b3.c:579: void TickBallFlying() {
                                   3130 ;	---------------------------------
                                   3131 ; Function TickBallFlying
                                   3132 ; ---------------------------------
    00000DC3                       3133 _TickBallFlying::
    00000DC3 DD E5            [15] 3134 	push	ix
    00000DC5 DD 21 00 00      [14] 3135 	ld	ix,#0
    00000DC9 DD 39            [15] 3136 	add	ix,sp
    00000DCB 21 E8 FF         [10] 3137 	ld	hl, #-24
    00000DCE 39               [11] 3138 	add	hl, sp
    00000DCF F9               [ 6] 3139 	ld	sp, hl
                                   3140 ;E:\Dropbox\FAUSTO\SVILUPPI\MSX\CODE\C\MSXgl\projects\soccerlgSCC/soccerlg_s8_b3.c:581: if(g_MatchStatus == MATCH_BEFORE_THROW_IN || g_MatchStatus == MATCH_THROW_IN || 
    00000DD0 3Ar00r00         [13] 3141 	ld	a,(_g_MatchStatus+0)
    00000DD3 FE 03            [ 7] 3142 	cp	a,#0x03
    00000DD5 CAr8Dr17         [10] 3143 	jp	Z,00220$
                                   3144 ;E:\Dropbox\FAUSTO\SVILUPPI\MSX\CODE\C\MSXgl\projects\soccerlgSCC/soccerlg_s8_b3.c:582: g_MatchStatus == MATCH_BEFORE_GOAL_KICK || g_MatchStatus == MATCH_GOAL_KICK ||
    00000DD8 FE 08            [ 7] 3145 	cp	a,#0x08
    00000DDA CAr8Dr17         [10] 3146 	jp	Z,00220$
    00000DDD FE 05            [ 7] 3147 	cp	a,#0x05
    00000DDF CAr8Dr17         [10] 3148 	jp	Z,00220$
                                   3149 ;E:\Dropbox\FAUSTO\SVILUPPI\MSX\CODE\C\MSXgl\projects\soccerlgSCC/soccerlg_s8_b3.c:583: g_MatchStatus == MATCH_BEFORE_CORNER_KICK || g_MatchStatus == MATCH_CORNER_KICK ||
    00000DE2 FE 0A            [ 7] 3150 	cp	a,#0x0a
    00000DE4 CAr8Dr17         [10] 3151 	jp	Z,00220$
    00000DE7 FE 02            [ 7] 3152 	cp	a,#0x02
    00000DE9 CAr8Dr17         [10] 3153 	jp	Z,00220$
                                   3154 ;E:\Dropbox\FAUSTO\SVILUPPI\MSX\CODE\C\MSXgl\projects\soccerlgSCC/soccerlg_s8_b3.c:584: g_MatchStatus == MATCH_BEFORE_KICK_OFF) {
    00000DEC FE 09            [ 7] 3155 	cp	a,#0x09
    00000DEE CAr8Dr17         [10] 3156 	jp	Z,00220$
    00000DF1 3D               [ 4] 3157 	dec	a
                                   3158 ;E:\Dropbox\FAUSTO\SVILUPPI\MSX\CODE\C\MSXgl\projects\soccerlgSCC/soccerlg_s8_b3.c:585: return;
    00000DF2 CAr8Dr17         [10] 3159 	jp	Z,00220$
                                   3160 ;E:\Dropbox\FAUSTO\SVILUPPI\MSX\CODE\C\MSXgl\projects\soccerlgSCC/soccerlg_s8_b3.c:589: if (g_Ball.PossessionPlayerId != NO_VALUE) return;
    00000DF5 3Ar06r00         [13] 3161 	ld	a, (#(_g_Ball + 6) + 0)
    00000DF8 3C               [ 4] 3162 	inc	a
    00000DF9 C2r8Dr17         [10] 3163 	jp	NZ,00220$
                                   3164 ;E:\Dropbox\FAUSTO\SVILUPPI\MSX\CODE\C\MSXgl\projects\soccerlgSCC/soccerlg_s8_b3.c:592: bool isMovingToPlayer = (g_Ball.PassTargetPlayerId != NO_VALUE);
    00000DFC 21r10r00         [10] 3165 	ld	hl, #(_g_Ball + 16)
    00000DFF 4E               [ 7] 3166 	ld	c, (hl)
    00000E00 79               [ 4] 3167 	ld	a, c
    00000E01 3C               [ 4] 3168 	inc	a
    00000E02 3E 01            [ 7] 3169 	ld	a, #0x01
    00000E04 28 01            [12] 3170 	jr	Z, 00535$
    00000E06 AF               [ 4] 3171 	xor	a, a
    00000E07                       3172 00535$:
    00000E07 EE 01            [ 7] 3173 	xor	a, #0x01
    00000E09 DD 77 EA         [19] 3174 	ld	-22 (ix), a
                                   3175 ;E:\Dropbox\FAUSTO\SVILUPPI\MSX\CODE\C\MSXgl\projects\soccerlgSCC/soccerlg_s8_b3.c:593: bool isFreeMoving = (g_Ball.ShotActive != 0);
    00000E0C 3Ar1Br00         [13] 3176 	ld	a, (#(_g_Ball + 27) + 0)
    00000E0F DD 77 EB         [19] 3177 	ld	-21 (ix), a
    00000E12 D6 01            [ 7] 3178 	sub	a,#0x01
    00000E14 3E 00            [ 7] 3179 	ld	a, #0x00
    00000E16 17               [ 4] 3180 	rla
    00000E17 EE 01            [ 7] 3181 	xor	a, #0x01
    00000E19 47               [ 4] 3182 	ld	b, a
                                   3183 ;E:\Dropbox\FAUSTO\SVILUPPI\MSX\CODE\C\MSXgl\projects\soccerlgSCC/soccerlg_s8_b3.c:595: if (!isMovingToPlayer && !isFreeMoving) return;
    00000E1A DD 7E EA         [19] 3184 	ld	a, -22 (ix)
    00000E1D B7               [ 4] 3185 	or	a,a
    00000E1E 20 04            [12] 3186 	jr	NZ, 00112$
    00000E20 B0               [ 4] 3187 	or	a,b
    00000E21 CAr8Dr17         [10] 3188 	jp	Z,00220$
    00000E24                       3189 00112$:
                                   3190 ;E:\Dropbox\FAUSTO\SVILUPPI\MSX\CODE\C\MSXgl\projects\soccerlgSCC/soccerlg_s8_b3.c:599: if (isMovingToPlayer) {
    00000E24 DD 7E EA         [19] 3191 	ld	a, -22 (ix)
    00000E27 B7               [ 4] 3192 	or	a, a
    00000E28 28 21            [12] 3193 	jr	Z, 00115$
                                   3194 ;E:\Dropbox\FAUSTO\SVILUPPI\MSX\CODE\C\MSXgl\projects\soccerlgSCC/soccerlg_s8_b3.c:600: tx = g_Players[g_Ball.PassTargetPlayerId].X;
    00000E2A 11r00r00         [10] 3195 	ld	de, #_g_Players+0
    00000E2D 06 00            [ 7] 3196 	ld	b, #0x00
    00000E2F 69               [ 4] 3197 	ld	l, c
    00000E30 60               [ 4] 3198 	ld	h, b
    00000E31 29               [11] 3199 	add	hl, hl
    00000E32 29               [11] 3200 	add	hl, hl
    00000E33 09               [11] 3201 	add	hl, bc
    00000E34 29               [11] 3202 	add	hl, hl
    00000E35 29               [11] 3203 	add	hl, hl
    00000E36 09               [11] 3204 	add	hl, bc
    00000E37 19               [11] 3205 	add	hl, de
                                   3206 ;	spillPairReg hl
                                   3207 ;	spillPairReg hl
    00000E38 5D               [ 4] 3208 	ld	e, l
    00000E39 54               [ 4] 3209 	ld	d, h
                                   3210 ;	spillPairReg hl
                                   3211 ;	spillPairReg hl
    00000E3A 23               [ 6] 3212 	inc	hl
    00000E3B 23               [ 6] 3213 	inc	hl
    00000E3C 4E               [ 7] 3214 	ld	c, (hl)
    00000E3D 23               [ 6] 3215 	inc	hl
    00000E3E 46               [ 7] 3216 	ld	b, (hl)
                                   3217 ;E:\Dropbox\FAUSTO\SVILUPPI\MSX\CODE\C\MSXgl\projects\soccerlgSCC/soccerlg_s8_b3.c:601: ty = g_Players[g_Ball.PassTargetPlayerId].Y;
    00000E3F 1A               [ 7] 3218 	ld	a, (de)
    00000E40 DD 77 EC         [19] 3219 	ld	-20 (ix), a
    00000E43 13               [ 6] 3220 	inc	de
    00000E44 1A               [ 7] 3221 	ld	a, (de)
    00000E45 DD 77 ED         [19] 3222 	ld	-19 (ix), a
    00000E48 C3r5Br0E         [10] 3223 	jp	00116$
    00000E4B                       3224 00115$:
                                   3225 ;E:\Dropbox\FAUSTO\SVILUPPI\MSX\CODE\C\MSXgl\projects\soccerlgSCC/soccerlg_s8_b3.c:603: tx = g_Ball.TargetX;
    00000E4B ED 4Br17r00      [20] 3226 	ld	bc, (#_g_Ball + 23)
                                   3227 ;E:\Dropbox\FAUSTO\SVILUPPI\MSX\CODE\C\MSXgl\projects\soccerlgSCC/soccerlg_s8_b3.c:604: ty = g_Ball.TargetY;
    00000E4F 21r19r00         [10] 3228 	ld	hl, #_g_Ball + 25
    00000E52 7E               [ 7] 3229 	ld	a, (hl)
    00000E53 DD 77 EC         [19] 3230 	ld	-20 (ix), a
    00000E56 23               [ 6] 3231 	inc	hl
    00000E57 7E               [ 7] 3232 	ld	a, (hl)
    00000E58 DD 77 ED         [19] 3233 	ld	-19 (ix), a
    00000E5B                       3234 00116$:
                                   3235 ;E:\Dropbox\FAUSTO\SVILUPPI\MSX\CODE\C\MSXgl\projects\soccerlgSCC/soccerlg_s8_b3.c:608: i16 dx = tx - (i16)g_Ball.X;
    00000E5B 21r02r00         [10] 3236 	ld	hl, #(_g_Ball + 2)
    00000E5E 7E               [ 7] 3237 	ld	a, (hl)
    00000E5F DD 77 EE         [19] 3238 	ld	-18 (ix), a
    00000E62 23               [ 6] 3239 	inc	hl
    00000E63 7E               [ 7] 3240 	ld	a, (hl)
    00000E64 DD 77 EF         [19] 3241 	ld	-17 (ix), a
    00000E67 DD 5E EE         [19] 3242 	ld	e, -18 (ix)
    00000E6A DD 56 EF         [19] 3243 	ld	d, -17 (ix)
    00000E6D 79               [ 4] 3244 	ld	a, c
    00000E6E 93               [ 4] 3245 	sub	a, e
    00000E6F 4F               [ 4] 3246 	ld	c, a
    00000E70 78               [ 4] 3247 	ld	a, b
    00000E71 9A               [ 4] 3248 	sbc	a, d
    00000E72 DD 71 F0         [19] 3249 	ld	-16 (ix), c
    00000E75 DD 77 F1         [19] 3250 	ld	-15 (ix), a
                                   3251 ;E:\Dropbox\FAUSTO\SVILUPPI\MSX\CODE\C\MSXgl\projects\soccerlgSCC/soccerlg_s8_b3.c:609: i16 dy = ty - (i16)g_Ball.Y;
    00000E78 2Ar00r00         [16] 3252 	ld	hl, (#_g_Ball + 0)
    00000E7B DD 7E EC         [19] 3253 	ld	a, -20 (ix)
    00000E7E 95               [ 4] 3254 	sub	a, l
    00000E7F 4F               [ 4] 3255 	ld	c, a
    00000E80 DD 7E ED         [19] 3256 	ld	a, -19 (ix)
    00000E83 9C               [ 4] 3257 	sbc	a, h
    00000E84 DD 71 F2         [19] 3258 	ld	-14 (ix), c
    00000E87 DD 77 F3         [19] 3259 	ld	-13 (ix), a
                                   3260 ;E:\Dropbox\FAUSTO\SVILUPPI\MSX\CODE\C\MSXgl\projects\soccerlgSCC/soccerlg_s8_b3.c:612: u8 speed = 3; 
    00000E8A DD 36 F4 03      [19] 3261 	ld	-12 (ix), #0x03
                                   3262 ;E:\Dropbox\FAUSTO\SVILUPPI\MSX\CODE\C\MSXgl\projects\soccerlgSCC/soccerlg_s8_b3.c:613: if (g_Ball.ShotActive == 1) speed = 5; // Fast High Shot/Kick
    00000E8E DD 7E EB         [19] 3263 	ld	a, -21 (ix)
    00000E91 3D               [ 4] 3264 	dec	a
    00000E92 3E 01            [ 7] 3265 	ld	a, #0x01
    00000E94 28 01            [12] 3266 	jr	Z, 00537$
    00000E96 AF               [ 4] 3267 	xor	a, a
    00000E97                       3268 00537$:
    00000E97 DD 77 F5         [19] 3269 	ld	-11 (ix), a
    00000E9A B7               [ 4] 3270 	or	a, a
    00000E9B 28 07            [12] 3271 	jr	Z, 00123$
    00000E9D DD 36 F4 05      [19] 3272 	ld	-12 (ix), #0x05
    00000EA1 C3rBDr0E         [10] 3273 	jp	00124$
    00000EA4                       3274 00123$:
                                   3275 ;E:\Dropbox\FAUSTO\SVILUPPI\MSX\CODE\C\MSXgl\projects\soccerlgSCC/soccerlg_s8_b3.c:614: else if (g_Ball.ShotActive == 2) speed = 3; // Slower Bounce
    00000EA4 DD 7E EB         [19] 3276 	ld	a, -21 (ix)
    00000EA7 D6 02            [ 7] 3277 	sub	a, #0x02
    00000EA9 20 07            [12] 3278 	jr	NZ, 00120$
    00000EAB DD 36 F4 03      [19] 3279 	ld	-12 (ix), #0x03
    00000EAF C3rBDr0E         [10] 3280 	jp	00124$
    00000EB2                       3281 00120$:
                                   3282 ;E:\Dropbox\FAUSTO\SVILUPPI\MSX\CODE\C\MSXgl\projects\soccerlgSCC/soccerlg_s8_b3.c:615: else if (g_Ball.ShotActive == 3) speed = 2; // Rolling
    00000EB2 DD 7E EB         [19] 3283 	ld	a, -21 (ix)
    00000EB5 D6 03            [ 7] 3284 	sub	a, #0x03
    00000EB7 20 04            [12] 3285 	jr	NZ, 00124$
    00000EB9 DD 36 F4 02      [19] 3286 	ld	-12 (ix), #0x02
    00000EBD                       3287 00124$:
                                   3288 ;E:\Dropbox\FAUSTO\SVILUPPI\MSX\CODE\C\MSXgl\projects\soccerlgSCC/soccerlg_s8_b3.c:618: if (dx > -speed && dx < speed && dy > -speed && dy < speed) {
    00000EBD DD 7E F4         [19] 3289 	ld	a, -12 (ix)
    00000EC0 DD 77 F6         [19] 3290 	ld	-10 (ix), a
    00000EC3 DD 36 F7 00      [19] 3291 	ld	-9 (ix), #0x00
    00000EC7 AF               [ 4] 3292 	xor	a, a
    00000EC8 DD 96 F6         [19] 3293 	sub	a, -10 (ix)
    00000ECB DD 77 F8         [19] 3294 	ld	-8 (ix), a
    00000ECE 9F               [ 4] 3295 	sbc	a, a
    00000ECF DD 96 F7         [19] 3296 	sub	a, -9 (ix)
    00000ED2 DD 77 F9         [19] 3297 	ld	-7 (ix), a
    00000ED5 DD 7E F0         [19] 3298 	ld	a, -16 (ix)
    00000ED8 DD 77 FA         [19] 3299 	ld	-6 (ix), a
    00000EDB DD 7E F1         [19] 3300 	ld	a, -15 (ix)
    00000EDE DD 77 FB         [19] 3301 	ld	-5 (ix), a
    00000EE1 DD 7E F8         [19] 3302 	ld	a, -8 (ix)
    00000EE4 DD 96 FA         [19] 3303 	sub	a, -6 (ix)
    00000EE7 DD 7E F9         [19] 3304 	ld	a, -7 (ix)
    00000EEA DD 9E FB         [19] 3305 	sbc	a, -5 (ix)
    00000EED E2rF2r0E         [10] 3306 	jp	PO, 00542$
    00000EF0 EE 80            [ 7] 3307 	xor	a, #0x80
    00000EF2                       3308 00542$:
    00000EF2 F2r15r14         [10] 3309 	jp	P, 00160$
    00000EF5 DD 7E F4         [19] 3310 	ld	a, -12 (ix)
    00000EF8 DD 77 FC         [19] 3311 	ld	-4 (ix), a
    00000EFB DD 36 FD 00      [19] 3312 	ld	-3 (ix), #0x00
    00000EFF DD 7E F0         [19] 3313 	ld	a, -16 (ix)
    00000F02 DD 96 FC         [19] 3314 	sub	a, -4 (ix)
    00000F05 DD 7E F1         [19] 3315 	ld	a, -15 (ix)
    00000F08 DD 9E FD         [19] 3316 	sbc	a, -3 (ix)
    00000F0B E2r10r0F         [10] 3317 	jp	PO, 00543$
    00000F0E EE 80            [ 7] 3318 	xor	a, #0x80
    00000F10                       3319 00543$:
    00000F10 F2r15r14         [10] 3320 	jp	P, 00160$
    00000F13 DD 7E F2         [19] 3321 	ld	a, -14 (ix)
    00000F16 DD 77 FE         [19] 3322 	ld	-2 (ix), a
    00000F19 DD 7E F3         [19] 3323 	ld	a, -13 (ix)
    00000F1C DD 77 FF         [19] 3324 	ld	-1 (ix), a
    00000F1F DD 7E F8         [19] 3325 	ld	a, -8 (ix)
    00000F22 DD 96 FE         [19] 3326 	sub	a, -2 (ix)
    00000F25 DD 7E F9         [19] 3327 	ld	a, -7 (ix)
    00000F28 DD 9E FF         [19] 3328 	sbc	a, -1 (ix)
    00000F2B E2r30r0F         [10] 3329 	jp	PO, 00544$
    00000F2E EE 80            [ 7] 3330 	xor	a, #0x80
    00000F30                       3331 00544$:
    00000F30 F2r15r14         [10] 3332 	jp	P, 00160$
    00000F33 DD 7E F2         [19] 3333 	ld	a, -14 (ix)
    00000F36 DD 96 FC         [19] 3334 	sub	a, -4 (ix)
    00000F39 DD 7E F3         [19] 3335 	ld	a, -13 (ix)
    00000F3C DD 9E FD         [19] 3336 	sbc	a, -3 (ix)
    00000F3F E2r44r0F         [10] 3337 	jp	PO, 00545$
    00000F42 EE 80            [ 7] 3338 	xor	a, #0x80
    00000F44                       3339 00545$:
    00000F44 F2r15r14         [10] 3340 	jp	P, 00160$
                                   3341 ;E:\Dropbox\FAUSTO\SVILUPPI\MSX\CODE\C\MSXgl\projects\soccerlgSCC/soccerlg_s8_b3.c:622: if (isMovingToPlayer) {
    00000F47 DD 7E EA         [19] 3342 	ld	a, -22 (ix)
    00000F4A B7               [ 4] 3343 	or	a, a
    00000F4B 28 1F            [12] 3344 	jr	Z, 00157$
                                   3345 ;E:\Dropbox\FAUSTO\SVILUPPI\MSX\CODE\C\MSXgl\projects\soccerlgSCC/soccerlg_s8_b3.c:624: g_Ball.KickMoveState = 3; // Force ball to snap to feet immediately (No visual lag)
    00000F4D 21r0Dr00         [10] 3346 	ld	hl, #(_g_Ball + 13)
    00000F50 36 03            [10] 3347 	ld	(hl), #0x03
                                   3348 ;E:\Dropbox\FAUSTO\SVILUPPI\MSX\CODE\C\MSXgl\projects\soccerlgSCC/soccerlg_s8_b3.c:625: CallFnc_VOID_P1(4,PutBallOnPlayerFeet,g_Ball.PassTargetPlayerId);
    00000F52 3Ar10r00         [13] 3349 	ld	a, (#(_g_Ball + 16) + 0)
    00000F55 F5               [11] 3350 	push	af
    00000F56 33               [ 6] 3351 	inc	sp
    00000F57 11r00r00         [10] 3352 	ld	de, #_PutBallOnPlayerFeet
    00000F5A 3E 04            [ 7] 3353 	ld	a, #0x04
    00000F5C CDr00r00         [17] 3354 	call	_CallFnc_VOID_P1
                                   3355 ;E:\Dropbox\FAUSTO\SVILUPPI\MSX\CODE\C\MSXgl\projects\soccerlgSCC/soccerlg_s8_b3.c:626: g_Ball.PassTargetPlayerId = NO_VALUE;
    00000F5F 21r10r00         [10] 3356 	ld	hl, #(_g_Ball + 16)
    00000F62 36 FF            [10] 3357 	ld	(hl), #0xff
                                   3358 ;E:\Dropbox\FAUSTO\SVILUPPI\MSX\CODE\C\MSXgl\projects\soccerlgSCC/soccerlg_s8_b3.c:627: g_Ball.Size = 1;
    00000F64 21r04r00         [10] 3359 	ld	hl, #(_g_Ball + 4)
    00000F67 36 01            [10] 3360 	ld	(hl), #0x01
                                   3361 ;E:\Dropbox\FAUSTO\SVILUPPI\MSX\CODE\C\MSXgl\projects\soccerlgSCC/soccerlg_s8_b3.c:628: return;
    00000F69 C3r8Dr17         [10] 3362 	jp	00220$
    00000F6C                       3363 00157$:
                                   3364 ;E:\Dropbox\FAUSTO\SVILUPPI\MSX\CODE\C\MSXgl\projects\soccerlgSCC/soccerlg_s8_b3.c:634: if (g_Ball.ShotActive == 1) {
    00000F6C DD 7E F5         [19] 3365 	ld	a, -11 (ix)
    00000F6F B7               [ 4] 3366 	or	a, a
    00000F70 CAr2Dr12         [10] 3367 	jp	Z, 00154$
                                   3368 ;E:\Dropbox\FAUSTO\SVILUPPI\MSX\CODE\C\MSXgl\projects\soccerlgSCC/soccerlg_s8_b3.c:638: bool isInsideField = (ty >= FIELD_BOUND_Y_TOP && ty <= FIELD_BOUND_Y_BOTTOM);
    00000F73 DD 7E EC         [19] 3369 	ld	a, -20 (ix)
    00000F76 DD 77 FE         [19] 3370 	ld	-2 (ix), a
    00000F79 DD 7E ED         [19] 3371 	ld	a, -19 (ix)
    00000F7C DD 77 FF         [19] 3372 	ld	-1 (ix), a
    00000F7F DD 7E FE         [19] 3373 	ld	a, -2 (ix)
    00000F82 D6 32            [ 7] 3374 	sub	a, #0x32
    00000F84 DD 7E FF         [19] 3375 	ld	a, -1 (ix)
    00000F87 17               [ 4] 3376 	rla
    00000F88 3F               [ 4] 3377 	ccf
    00000F89 1F               [ 4] 3378 	rra
    00000F8A DE 80            [ 7] 3379 	sbc	a, #0x80
    00000F8C 38 12            [12] 3380 	jr	C, 00222$
    00000F8E 3E B3            [ 7] 3381 	ld	a, #0xb3
    00000F90 DD BE FE         [19] 3382 	cp	a, -2 (ix)
    00000F93 3E 01            [ 7] 3383 	ld	a, #0x01
    00000F95 DD 9E FF         [19] 3384 	sbc	a, -1 (ix)
    00000F98 E2r9Dr0F         [10] 3385 	jp	PO, 00546$
    00000F9B EE 80            [ 7] 3386 	xor	a, #0x80
    00000F9D                       3387 00546$:
    00000F9D F2rA7r0F         [10] 3388 	jp	P, 00223$
    00000FA0                       3389 00222$:
    00000FA0 DD 36 FF 00      [19] 3390 	ld	-1 (ix), #0x00
    00000FA4 C3rABr0F         [10] 3391 	jp	00224$
    00000FA7                       3392 00223$:
    00000FA7 DD 36 FF 01      [19] 3393 	ld	-1 (ix), #0x01
    00000FAB                       3394 00224$:
                                   3395 ;E:\Dropbox\FAUSTO\SVILUPPI\MSX\CODE\C\MSXgl\projects\soccerlgSCC/soccerlg_s8_b3.c:640: if (isInsideField) {
    00000FAB DD 7E FF         [19] 3396 	ld	a, -1 (ix)
    00000FAE B7               [ 4] 3397 	or	a, a
    00000FAF CArFEr13         [10] 3398 	jp	Z, 00155$
                                   3399 ;E:\Dropbox\FAUSTO\SVILUPPI\MSX\CODE\C\MSXgl\projects\soccerlgSCC/soccerlg_s8_b3.c:644: i16 totalVectorX = (i16)g_Ball.TargetX - (i16)g_Ball.PassStartX;
    00000FB2 21r17r00         [10] 3400 	ld	hl, #(_g_Ball + 23)
    00000FB5 7E               [ 7] 3401 	ld	a, (hl)
    00000FB6 DD 77 FE         [19] 3402 	ld	-2 (ix), a
    00000FB9 23               [ 6] 3403 	inc	hl
    00000FBA 7E               [ 7] 3404 	ld	a, (hl)
    00000FBB DD 77 FF         [19] 3405 	ld	-1 (ix), a
    00000FBE DD 7E FE         [19] 3406 	ld	a, -2 (ix)
    00000FC1 DD 77 FA         [19] 3407 	ld	-6 (ix), a
    00000FC4 DD 7E FF         [19] 3408 	ld	a, -1 (ix)
    00000FC7 DD 77 FB         [19] 3409 	ld	-5 (ix), a
    00000FCA 21r11r00         [10] 3410 	ld	hl, #(_g_Ball + 17)
    00000FCD 7E               [ 7] 3411 	ld	a, (hl)
    00000FCE DD 77 FE         [19] 3412 	ld	-2 (ix), a
    00000FD1 23               [ 6] 3413 	inc	hl
    00000FD2 7E               [ 7] 3414 	ld	a, (hl)
    00000FD3 DD 77 FF         [19] 3415 	ld	-1 (ix), a
    00000FD6 DD 7E FE         [19] 3416 	ld	a, -2 (ix)
    00000FD9 DD 77 FC         [19] 3417 	ld	-4 (ix), a
    00000FDC DD 7E FF         [19] 3418 	ld	a, -1 (ix)
    00000FDF DD 77 FD         [19] 3419 	ld	-3 (ix), a
    00000FE2 DD 7E FA         [19] 3420 	ld	a, -6 (ix)
    00000FE5 DD 96 FC         [19] 3421 	sub	a, -4 (ix)
    00000FE8 DD 77 FE         [19] 3422 	ld	-2 (ix), a
    00000FEB DD 7E FB         [19] 3423 	ld	a, -5 (ix)
    00000FEE DD 9E FD         [19] 3424 	sbc	a, -3 (ix)
    00000FF1 DD 77 FF         [19] 3425 	ld	-1 (ix), a
    00000FF4 DD 7E FE         [19] 3426 	ld	a, -2 (ix)
    00000FF7 DD 77 FC         [19] 3427 	ld	-4 (ix), a
    00000FFA DD 7E FF         [19] 3428 	ld	a, -1 (ix)
    00000FFD DD 77 FD         [19] 3429 	ld	-3 (ix), a
                                   3430 ;E:\Dropbox\FAUSTO\SVILUPPI\MSX\CODE\C\MSXgl\projects\soccerlgSCC/soccerlg_s8_b3.c:645: i16 totalVectorY = (i16)g_Ball.TargetY - (i16)g_Ball.PassStartY;
    00001000 21r19r00         [10] 3431 	ld	hl, #(_g_Ball + 25)
    00001003 7E               [ 7] 3432 	ld	a, (hl)
    00001004 DD 77 FE         [19] 3433 	ld	-2 (ix), a
    00001007 23               [ 6] 3434 	inc	hl
    00001008 7E               [ 7] 3435 	ld	a, (hl)
    00001009 DD 77 FF         [19] 3436 	ld	-1 (ix), a
    0000100C DD 7E FE         [19] 3437 	ld	a, -2 (ix)
    0000100F DD 77 F8         [19] 3438 	ld	-8 (ix), a
    00001012 DD 7E FF         [19] 3439 	ld	a, -1 (ix)
    00001015 DD 77 F9         [19] 3440 	ld	-7 (ix), a
    00001018 21r13r00         [10] 3441 	ld	hl, #(_g_Ball + 19)
    0000101B 7E               [ 7] 3442 	ld	a, (hl)
    0000101C DD 77 FE         [19] 3443 	ld	-2 (ix), a
    0000101F 23               [ 6] 3444 	inc	hl
    00001020 7E               [ 7] 3445 	ld	a, (hl)
    00001021 DD 77 FF         [19] 3446 	ld	-1 (ix), a
    00001024 DD 7E FE         [19] 3447 	ld	a, -2 (ix)
    00001027 DD 77 FA         [19] 3448 	ld	-6 (ix), a
    0000102A DD 7E FF         [19] 3449 	ld	a, -1 (ix)
    0000102D DD 77 FB         [19] 3450 	ld	-5 (ix), a
    00001030 DD 7E F8         [19] 3451 	ld	a, -8 (ix)
    00001033 DD 96 FA         [19] 3452 	sub	a, -6 (ix)
    00001036 DD 77 FE         [19] 3453 	ld	-2 (ix), a
    00001039 DD 7E F9         [19] 3454 	ld	a, -7 (ix)
    0000103C DD 9E FB         [19] 3455 	sbc	a, -5 (ix)
    0000103F DD 77 FF         [19] 3456 	ld	-1 (ix), a
                                   3457 ;E:\Dropbox\FAUSTO\SVILUPPI\MSX\CODE\C\MSXgl\projects\soccerlgSCC/soccerlg_s8_b3.c:648: g_Ball.PassStartX = g_Ball.X;
    00001042 21r11r00         [10] 3458 	ld	hl, #(_g_Ball + 17)
    00001045 DD 7E EE         [19] 3459 	ld	a, -18 (ix)
    00001048 77               [ 7] 3460 	ld	(hl), a
    00001049 23               [ 6] 3461 	inc	hl
    0000104A DD 7E EF         [19] 3462 	ld	a, -17 (ix)
    0000104D 77               [ 7] 3463 	ld	(hl), a
                                   3464 ;E:\Dropbox\FAUSTO\SVILUPPI\MSX\CODE\C\MSXgl\projects\soccerlgSCC/soccerlg_s8_b3.c:649: g_Ball.PassStartY = g_Ball.Y;
    0000104E 21r00r00         [10] 3465 	ld	hl, #_g_Ball
    00001051 7E               [ 7] 3466 	ld	a, (hl)
    00001052 DD 77 FA         [19] 3467 	ld	-6 (ix), a
    00001055 23               [ 6] 3468 	inc	hl
    00001056 7E               [ 7] 3469 	ld	a, (hl)
    00001057 DD 77 FB         [19] 3470 	ld	-5 (ix), a
    0000105A 21r13r00         [10] 3471 	ld	hl, #(_g_Ball + 19)
    0000105D DD 7E FA         [19] 3472 	ld	a, -6 (ix)
    00001060 77               [ 7] 3473 	ld	(hl), a
    00001061 23               [ 6] 3474 	inc	hl
    00001062 DD 7E FB         [19] 3475 	ld	a, -5 (ix)
    00001065 77               [ 7] 3476 	ld	(hl), a
                                   3477 ;E:\Dropbox\FAUSTO\SVILUPPI\MSX\CODE\C\MSXgl\projects\soccerlgSCC/soccerlg_s8_b3.c:652: i16 bounceDx = totalVectorX / 4; 
    00001066 DD 7E FC         [19] 3478 	ld	a, -4 (ix)
    00001069 DD 77 F9         [19] 3479 	ld	-7 (ix), a
    0000106C DD 7E FD         [19] 3480 	ld	a, -3 (ix)
    0000106F DD 77 FA         [19] 3481 	ld	-6 (ix), a
    00001072 DD 7E F9         [19] 3482 	ld	a, -7 (ix)
    00001075 DD 77 FC         [19] 3483 	ld	-4 (ix), a
    00001078 DD 7E FA         [19] 3484 	ld	a, -6 (ix)
    0000107B DD 77 FD         [19] 3485 	ld	-3 (ix), a
    0000107E DD CB FA 7E      [20] 3486 	bit	7, -6 (ix)
    00001082 28 10            [12] 3487 	jr	Z, 00225$
    00001084 DD 7E F9         [19] 3488 	ld	a, -7 (ix)
    00001087 C6 03            [ 7] 3489 	add	a, #0x03
    00001089 DD 77 FC         [19] 3490 	ld	-4 (ix), a
    0000108C DD 7E FA         [19] 3491 	ld	a, -6 (ix)
    0000108F CE 00            [ 7] 3492 	adc	a, #0x00
    00001091 DD 77 FD         [19] 3493 	ld	-3 (ix), a
    00001094                       3494 00225$:
    00001094 DD CB FD 2E      [23] 3495 	sra	-3 (ix)
    00001098 DD CB FC 1E      [23] 3496 	rr	-4 (ix)
    0000109C DD CB FD 2E      [23] 3497 	sra	-3 (ix)
    000010A0 DD CB FC 1E      [23] 3498 	rr	-4 (ix)
    000010A4 DD 7E FC         [19] 3499 	ld	a, -4 (ix)
    000010A7 DD 77 F6         [19] 3500 	ld	-10 (ix), a
    000010AA DD 7E FD         [19] 3501 	ld	a, -3 (ix)
    000010AD DD 77 F7         [19] 3502 	ld	-9 (ix), a
                                   3503 ;E:\Dropbox\FAUSTO\SVILUPPI\MSX\CODE\C\MSXgl\projects\soccerlgSCC/soccerlg_s8_b3.c:653: i16 bounceDy = totalVectorY / 4; 
    000010B0 DD 7E FE         [19] 3504 	ld	a, -2 (ix)
    000010B3 DD 77 FB         [19] 3505 	ld	-5 (ix), a
    000010B6 DD 7E FF         [19] 3506 	ld	a, -1 (ix)
    000010B9 DD 77 FC         [19] 3507 	ld	-4 (ix), a
    000010BC DD 7E FB         [19] 3508 	ld	a, -5 (ix)
    000010BF DD 77 FE         [19] 3509 	ld	-2 (ix), a
    000010C2 DD 7E FC         [19] 3510 	ld	a, -4 (ix)
    000010C5 DD 77 FF         [19] 3511 	ld	-1 (ix), a
    000010C8 DD CB FC 7E      [20] 3512 	bit	7, -4 (ix)
    000010CC 28 10            [12] 3513 	jr	Z, 00226$
    000010CE DD 7E FB         [19] 3514 	ld	a, -5 (ix)
    000010D1 C6 03            [ 7] 3515 	add	a, #0x03
    000010D3 DD 77 FE         [19] 3516 	ld	-2 (ix), a
    000010D6 DD 7E FC         [19] 3517 	ld	a, -4 (ix)
    000010D9 CE 00            [ 7] 3518 	adc	a, #0x00
    000010DB DD 77 FF         [19] 3519 	ld	-1 (ix), a
    000010DE                       3520 00226$:
    000010DE DD CB FF 2E      [23] 3521 	sra	-1 (ix)
    000010E2 DD CB FE 1E      [23] 3522 	rr	-2 (ix)
    000010E6 DD CB FF 2E      [23] 3523 	sra	-1 (ix)
    000010EA DD CB FE 1E      [23] 3524 	rr	-2 (ix)
    000010EE DD 7E FE         [19] 3525 	ld	a, -2 (ix)
    000010F1 DD 77 F8         [19] 3526 	ld	-8 (ix), a
    000010F4 DD 7E FF         [19] 3527 	ld	a, -1 (ix)
    000010F7 DD 77 F9         [19] 3528 	ld	-7 (ix), a
                                   3529 ;E:\Dropbox\FAUSTO\SVILUPPI\MSX\CODE\C\MSXgl\projects\soccerlgSCC/soccerlg_s8_b3.c:656: i16 newTx = (i16)g_Ball.X + bounceDx;
    000010FA 21r02r00         [10] 3530 	ld	hl, #(_g_Ball + 2)
    000010FD 7E               [ 7] 3531 	ld	a, (hl)
    000010FE DD 77 FE         [19] 3532 	ld	-2 (ix), a
    00001101 23               [ 6] 3533 	inc	hl
    00001102 7E               [ 7] 3534 	ld	a, (hl)
    00001103 DD 77 FF         [19] 3535 	ld	-1 (ix), a
    00001106 DD 7E FE         [19] 3536 	ld	a, -2 (ix)
    00001109 DD 77 FC         [19] 3537 	ld	-4 (ix), a
    0000110C DD 7E FF         [19] 3538 	ld	a, -1 (ix)
    0000110F DD 77 FD         [19] 3539 	ld	-3 (ix), a
    00001112 DD 7E F6         [19] 3540 	ld	a, -10 (ix)
    00001115 DD 86 FC         [19] 3541 	add	a, -4 (ix)
    00001118 DD 77 FE         [19] 3542 	ld	-2 (ix), a
    0000111B DD 7E F7         [19] 3543 	ld	a, -9 (ix)
    0000111E DD 8E FD         [19] 3544 	adc	a, -3 (ix)
    00001121 DD 77 FF         [19] 3545 	ld	-1 (ix), a
    00001124 DD 7E FE         [19] 3546 	ld	a, -2 (ix)
    00001127 DD 77 FA         [19] 3547 	ld	-6 (ix), a
    0000112A DD 7E FF         [19] 3548 	ld	a, -1 (ix)
    0000112D DD 77 FB         [19] 3549 	ld	-5 (ix), a
                                   3550 ;E:\Dropbox\FAUSTO\SVILUPPI\MSX\CODE\C\MSXgl\projects\soccerlgSCC/soccerlg_s8_b3.c:657: i16 newTy = (i16)g_Ball.Y + bounceDy;
    00001130 21r00r00         [10] 3551 	ld	hl, #_g_Ball
    00001133 7E               [ 7] 3552 	ld	a, (hl)
    00001134 DD 77 FE         [19] 3553 	ld	-2 (ix), a
    00001137 23               [ 6] 3554 	inc	hl
    00001138 7E               [ 7] 3555 	ld	a, (hl)
    00001139 DD 77 FF         [19] 3556 	ld	-1 (ix), a
    0000113C DD 7E FE         [19] 3557 	ld	a, -2 (ix)
    0000113F DD 77 FC         [19] 3558 	ld	-4 (ix), a
    00001142 DD 7E FF         [19] 3559 	ld	a, -1 (ix)
    00001145 DD 77 FD         [19] 3560 	ld	-3 (ix), a
    00001148 DD 7E F8         [19] 3561 	ld	a, -8 (ix)
    0000114B DD 86 FC         [19] 3562 	add	a, -4 (ix)
    0000114E DD 77 FE         [19] 3563 	ld	-2 (ix), a
    00001151 DD 7E F9         [19] 3564 	ld	a, -7 (ix)
    00001154 DD 8E FD         [19] 3565 	adc	a, -3 (ix)
    00001157 DD 77 FF         [19] 3566 	ld	-1 (ix), a
    0000115A DD 7E FE         [19] 3567 	ld	a, -2 (ix)
    0000115D DD 77 FC         [19] 3568 	ld	-4 (ix), a
    00001160 DD 7E FF         [19] 3569 	ld	a, -1 (ix)
    00001163 DD 77 FD         [19] 3570 	ld	-3 (ix), a
                                   3571 ;E:\Dropbox\FAUSTO\SVILUPPI\MSX\CODE\C\MSXgl\projects\soccerlgSCC/soccerlg_s8_b3.c:660: if (newTx < FIELD_BOUND_X_LEFT) newTx = FIELD_BOUND_X_LEFT;
    00001166 DD 7E FA         [19] 3572 	ld	a, -6 (ix)
    00001169 DD 77 FE         [19] 3573 	ld	-2 (ix), a
    0000116C DD 7E FB         [19] 3574 	ld	a, -5 (ix)
    0000116F DD 77 FF         [19] 3575 	ld	-1 (ix), a
    00001172 DD 7E FE         [19] 3576 	ld	a, -2 (ix)
    00001175 D6 0A            [ 7] 3577 	sub	a, #0x0a
    00001177 DD 7E FF         [19] 3578 	ld	a, -1 (ix)
    0000117A 17               [ 4] 3579 	rla
    0000117B 3F               [ 4] 3580 	ccf
    0000117C 1F               [ 4] 3581 	rra
    0000117D DE 80            [ 7] 3582 	sbc	a, #0x80
    0000117F 30 0B            [12] 3583 	jr	NC, 00128$
    00001181 DD 36 FA 0A      [19] 3584 	ld	-6 (ix), #0x0a
    00001185 DD 36 FB 00      [19] 3585 	ld	-5 (ix), #0
    00001189 C3rA6r11         [10] 3586 	jp	00129$
    0000118C                       3587 00128$:
                                   3588 ;E:\Dropbox\FAUSTO\SVILUPPI\MSX\CODE\C\MSXgl\projects\soccerlgSCC/soccerlg_s8_b3.c:661: else if (newTx > FIELD_BOUND_X_RIGHT) newTx = FIELD_BOUND_X_RIGHT;
    0000118C 3E EC            [ 7] 3589 	ld	a, #0xec
    0000118E DD BE FE         [19] 3590 	cp	a, -2 (ix)
    00001191 3E 00            [ 7] 3591 	ld	a, #0x00
    00001193 DD 9E FF         [19] 3592 	sbc	a, -1 (ix)
    00001196 E2r9Br11         [10] 3593 	jp	PO, 00547$
    00001199 EE 80            [ 7] 3594 	xor	a, #0x80
    0000119B                       3595 00547$:
    0000119B F2rA6r11         [10] 3596 	jp	P, 00129$
    0000119E DD 36 FA EC      [19] 3597 	ld	-6 (ix), #0xec
    000011A2 DD 36 FB 00      [19] 3598 	ld	-5 (ix), #0
    000011A6                       3599 00129$:
                                   3600 ;E:\Dropbox\FAUSTO\SVILUPPI\MSX\CODE\C\MSXgl\projects\soccerlgSCC/soccerlg_s8_b3.c:663: if (newTy < FIELD_BOUND_Y_TOP) newTy = FIELD_BOUND_Y_TOP;
    000011A6 DD 4E FC         [19] 3601 	ld	c, -4 (ix)
    000011A9 DD 46 FD         [19] 3602 	ld	b, -3 (ix)
    000011AC 79               [ 4] 3603 	ld	a, c
    000011AD D6 32            [ 7] 3604 	sub	a, #0x32
    000011AF 78               [ 4] 3605 	ld	a, b
    000011B0 17               [ 4] 3606 	rla
    000011B1 3F               [ 4] 3607 	ccf
    000011B2 1F               [ 4] 3608 	rra
    000011B3 DE 80            [ 7] 3609 	sbc	a, #0x80
    000011B5 30 0B            [12] 3610 	jr	NC, 00133$
    000011B7 DD 36 FC 32      [19] 3611 	ld	-4 (ix), #0x32
    000011BB DD 36 FD 00      [19] 3612 	ld	-3 (ix), #0
    000011BF C3rD8r11         [10] 3613 	jp	00134$
    000011C2                       3614 00133$:
                                   3615 ;E:\Dropbox\FAUSTO\SVILUPPI\MSX\CODE\C\MSXgl\projects\soccerlgSCC/soccerlg_s8_b3.c:664: else if (newTy > FIELD_BOUND_Y_BOTTOM) newTy = FIELD_BOUND_Y_BOTTOM;
    000011C2 3E B3            [ 7] 3616 	ld	a, #0xb3
    000011C4 B9               [ 4] 3617 	cp	a, c
    000011C5 3E 01            [ 7] 3618 	ld	a, #0x01
    000011C7 98               [ 4] 3619 	sbc	a, b
    000011C8 E2rCDr11         [10] 3620 	jp	PO, 00548$
    000011CB EE 80            [ 7] 3621 	xor	a, #0x80
    000011CD                       3622 00548$:
    000011CD F2rD8r11         [10] 3623 	jp	P, 00134$
    000011D0 DD 36 FC B3      [19] 3624 	ld	-4 (ix), #0xb3
    000011D4 DD 36 FD 01      [19] 3625 	ld	-3 (ix), #0x01
    000011D8                       3626 00134$:
                                   3627 ;E:\Dropbox\FAUSTO\SVILUPPI\MSX\CODE\C\MSXgl\projects\soccerlgSCC/soccerlg_s8_b3.c:666: g_Ball.TargetX = newTx;
    000011D8 21r17r00         [10] 3628 	ld	hl, #(_g_Ball + 23)
    000011DB DD 7E FA         [19] 3629 	ld	a, -6 (ix)
    000011DE 77               [ 7] 3630 	ld	(hl), a
    000011DF 23               [ 6] 3631 	inc	hl
    000011E0 DD 7E FB         [19] 3632 	ld	a, -5 (ix)
    000011E3 77               [ 7] 3633 	ld	(hl), a
                                   3634 ;E:\Dropbox\FAUSTO\SVILUPPI\MSX\CODE\C\MSXgl\projects\soccerlgSCC/soccerlg_s8_b3.c:667: g_Ball.TargetY = newTy;
    000011E4 21r19r00         [10] 3635 	ld	hl, #(_g_Ball + 25)
    000011E7 DD 7E FC         [19] 3636 	ld	a, -4 (ix)
    000011EA 77               [ 7] 3637 	ld	(hl), a
    000011EB 23               [ 6] 3638 	inc	hl
    000011EC DD 7E FD         [19] 3639 	ld	a, -3 (ix)
    000011EF 77               [ 7] 3640 	ld	(hl), a
                                   3641 ;E:\Dropbox\FAUSTO\SVILUPPI\MSX\CODE\C\MSXgl\projects\soccerlgSCC/soccerlg_s8_b3.c:670: g_Ball.PassTotalDist = (u16)(Math_Abs32(bounceDx) + Math_Abs32(bounceDy));
    000011F0 DD 5E F6         [19] 3642 	ld	e, -10 (ix)
    000011F3 DD 7E F7         [19] 3643 	ld	a, -9 (ix)
    000011F6 57               [ 4] 3644 	ld	d, a
    000011F7 07               [ 4] 3645 	rlca
    000011F8 ED 62            [15] 3646 	sbc	hl, hl
    000011FA CDr00r00         [17] 3647 	call	_Math_Abs32
    000011FD E5               [11] 3648 	push	hl
    000011FE FD E1            [14] 3649 	pop	iy
    00001200 4B               [ 4] 3650 	ld	c, e
    00001201 42               [ 4] 3651 	ld	b, d
    00001202 DD 5E F8         [19] 3652 	ld	e, -8 (ix)
    00001205 DD 7E F9         [19] 3653 	ld	a, -7 (ix)
    00001208 57               [ 4] 3654 	ld	d, a
    00001209 07               [ 4] 3655 	rlca
    0000120A ED 62            [15] 3656 	sbc	hl, hl
    0000120C C5               [11] 3657 	push	bc
    0000120D FD E5            [15] 3658 	push	iy
    0000120F CDr00r00         [17] 3659 	call	_Math_Abs32
    00001212 FD E1            [14] 3660 	pop	iy
    00001214 C1               [10] 3661 	pop	bc
    00001215 EB               [ 4] 3662 	ex	de, hl
    00001216 09               [11] 3663 	add	hl, bc
    00001217 EB               [ 4] 3664 	ex	de, hl
    00001218 ED 53r15r00      [20] 3665 	ld	((_g_Ball + 21)), de
                                   3666 ;E:\Dropbox\FAUSTO\SVILUPPI\MSX\CODE\C\MSXgl\projects\soccerlgSCC/soccerlg_s8_b3.c:672: if (g_Ball.PassTotalDist > 5) {
    0000121C 3E 05            [ 7] 3667 	ld	a, #0x05
    0000121E BB               [ 4] 3668 	cp	a, e
    0000121F 3E 00            [ 7] 3669 	ld	a, #0x00
    00001221 9A               [ 4] 3670 	sbc	a, d
    00001222 D2rFEr13         [10] 3671 	jp	NC, 00155$
                                   3672 ;E:\Dropbox\FAUSTO\SVILUPPI\MSX\CODE\C\MSXgl\projects\soccerlgSCC/soccerlg_s8_b3.c:673: g_Ball.ShotActive = 2; // Enter Bounce State
    00001225 21r1Br00         [10] 3673 	ld	hl, #(_g_Ball + 27)
    00001228 36 02            [10] 3674 	ld	(hl), #0x02
                                   3675 ;E:\Dropbox\FAUSTO\SVILUPPI\MSX\CODE\C\MSXgl\projects\soccerlgSCC/soccerlg_s8_b3.c:674: return; 
    0000122A C3r8Dr17         [10] 3676 	jp	00220$
    0000122D                       3677 00154$:
                                   3678 ;E:\Dropbox\FAUSTO\SVILUPPI\MSX\CODE\C\MSXgl\projects\soccerlgSCC/soccerlg_s8_b3.c:677: } else if (g_Ball.ShotActive == 2) {
    0000122D DD 7E EB         [19] 3679 	ld	a, -21 (ix)
    00001230 D6 02            [ 7] 3680 	sub	a, #0x02
    00001232 C2rFEr13         [10] 3681 	jp	NZ,00155$
                                   3682 ;E:\Dropbox\FAUSTO\SVILUPPI\MSX\CODE\C\MSXgl\projects\soccerlgSCC/soccerlg_s8_b3.c:681: i16 vecX = (i16)g_Ball.TargetX - (i16)g_Ball.PassStartX;
    00001235 ED 4Br17r00      [20] 3683 	ld	bc, (#(_g_Ball + 23) + 0)
    00001239 2Ar11r00         [16] 3684 	ld	hl, (#(_g_Ball + 17) + 0)
    0000123C 79               [ 4] 3685 	ld	a, c
    0000123D 95               [ 4] 3686 	sub	a, l
    0000123E 4F               [ 4] 3687 	ld	c, a
    0000123F 78               [ 4] 3688 	ld	a, b
    00001240 9C               [ 4] 3689 	sbc	a, h
    00001241 47               [ 4] 3690 	ld	b, a
                                   3691 ;E:\Dropbox\FAUSTO\SVILUPPI\MSX\CODE\C\MSXgl\projects\soccerlgSCC/soccerlg_s8_b3.c:682: i16 vecY = (i16)g_Ball.TargetY - (i16)g_Ball.PassStartY;
    00001242 ED 5Br19r00      [20] 3692 	ld	de, (#(_g_Ball + 25) + 0)
    00001246 2Ar13r00         [16] 3693 	ld	hl, (#(_g_Ball + 19) + 0)
    00001249 7B               [ 4] 3694 	ld	a, e
    0000124A 95               [ 4] 3695 	sub	a, l
    0000124B 5F               [ 4] 3696 	ld	e, a
    0000124C 7A               [ 4] 3697 	ld	a, d
    0000124D 9C               [ 4] 3698 	sbc	a, h
    0000124E 57               [ 4] 3699 	ld	d, a
    0000124F DD 73 FE         [19] 3700 	ld	-2 (ix), e
    00001252 DD 72 FF         [19] 3701 	ld	-1 (ix), d
                                   3702 ;E:\Dropbox\FAUSTO\SVILUPPI\MSX\CODE\C\MSXgl\projects\soccerlgSCC/soccerlg_s8_b3.c:684: g_Ball.PassStartX = g_Ball.X;
    00001255 21r11r00         [10] 3703 	ld	hl, #(_g_Ball + 17)
    00001258 DD 7E EE         [19] 3704 	ld	a, -18 (ix)
    0000125B 77               [ 7] 3705 	ld	(hl), a
    0000125C 23               [ 6] 3706 	inc	hl
    0000125D DD 7E EF         [19] 3707 	ld	a, -17 (ix)
    00001260 77               [ 7] 3708 	ld	(hl), a
                                   3709 ;E:\Dropbox\FAUSTO\SVILUPPI\MSX\CODE\C\MSXgl\projects\soccerlgSCC/soccerlg_s8_b3.c:685: g_Ball.PassStartY = g_Ball.Y;
    00001261 ED 5Br00r00      [20] 3710 	ld	de, (#_g_Ball + 0)
    00001265 ED 53r13r00      [20] 3711 	ld	((_g_Ball + 19)), de
                                   3712 ;E:\Dropbox\FAUSTO\SVILUPPI\MSX\CODE\C\MSXgl\projects\soccerlgSCC/soccerlg_s8_b3.c:688: i16 rollDx = vecX / 4; 
    00001269 59               [ 4] 3713 	ld	e, c
    0000126A 50               [ 4] 3714 	ld	d, b
    0000126B CB 78            [ 8] 3715 	bit	7, b
    0000126D 28 05            [12] 3716 	jr	Z, 00227$
    0000126F 59               [ 4] 3717 	ld	e, c
    00001270 50               [ 4] 3718 	ld	d, b
    00001271 13               [ 6] 3719 	inc	de
    00001272 13               [ 6] 3720 	inc	de
    00001273 13               [ 6] 3721 	inc	de
    00001274                       3722 00227$:
    00001274 CB 2A            [ 8] 3723 	sra	d
    00001276 CB 1B            [ 8] 3724 	rr	e
    00001278 CB 2A            [ 8] 3725 	sra	d
    0000127A CB 1B            [ 8] 3726 	rr	e
    0000127C DD 73 F6         [19] 3727 	ld	-10 (ix), e
    0000127F DD 72 F7         [19] 3728 	ld	-9 (ix), d
                                   3729 ;E:\Dropbox\FAUSTO\SVILUPPI\MSX\CODE\C\MSXgl\projects\soccerlgSCC/soccerlg_s8_b3.c:689: i16 rollDy = vecY / 4; 
    00001282 DD 7E FE         [19] 3730 	ld	a, -2 (ix)
    00001285 DD 77 FC         [19] 3731 	ld	-4 (ix), a
    00001288 DD 7E FF         [19] 3732 	ld	a, -1 (ix)
    0000128B DD 77 FD         [19] 3733 	ld	-3 (ix), a
    0000128E DD 7E FC         [19] 3734 	ld	a, -4 (ix)
    00001291 DD 77 FE         [19] 3735 	ld	-2 (ix), a
    00001294 DD 7E FD         [19] 3736 	ld	a, -3 (ix)
    00001297 DD 77 FF         [19] 3737 	ld	-1 (ix), a
    0000129A DD CB FD 7E      [20] 3738 	bit	7, -3 (ix)
    0000129E 28 10            [12] 3739 	jr	Z, 00228$
    000012A0 DD 7E FC         [19] 3740 	ld	a, -4 (ix)
    000012A3 C6 03            [ 7] 3741 	add	a, #0x03
    000012A5 DD 77 FE         [19] 3742 	ld	-2 (ix), a
    000012A8 DD 7E FD         [19] 3743 	ld	a, -3 (ix)
    000012AB CE 00            [ 7] 3744 	adc	a, #0x00
    000012AD DD 77 FF         [19] 3745 	ld	-1 (ix), a
    000012B0                       3746 00228$:
    000012B0 DD CB FF 2E      [23] 3747 	sra	-1 (ix)
    000012B4 DD CB FE 1E      [23] 3748 	rr	-2 (ix)
    000012B8 DD CB FF 2E      [23] 3749 	sra	-1 (ix)
    000012BC DD CB FE 1E      [23] 3750 	rr	-2 (ix)
    000012C0 DD 7E FE         [19] 3751 	ld	a, -2 (ix)
    000012C3 DD 77 F8         [19] 3752 	ld	-8 (ix), a
    000012C6 DD 7E FF         [19] 3753 	ld	a, -1 (ix)
    000012C9 DD 77 F9         [19] 3754 	ld	-7 (ix), a
                                   3755 ;E:\Dropbox\FAUSTO\SVILUPPI\MSX\CODE\C\MSXgl\projects\soccerlgSCC/soccerlg_s8_b3.c:694: i16 rollTx = (i16)g_Ball.X + rollDx;
    000012CC 21r02r00         [10] 3756 	ld	hl, #(_g_Ball + 2)
    000012CF 7E               [ 7] 3757 	ld	a, (hl)
    000012D0 DD 77 FE         [19] 3758 	ld	-2 (ix), a
    000012D3 23               [ 6] 3759 	inc	hl
    000012D4 7E               [ 7] 3760 	ld	a, (hl)
    000012D5 DD 77 FF         [19] 3761 	ld	-1 (ix), a
    000012D8 DD 7E FE         [19] 3762 	ld	a, -2 (ix)
    000012DB DD 77 FC         [19] 3763 	ld	-4 (ix), a
    000012DE DD 7E FF         [19] 3764 	ld	a, -1 (ix)
    000012E1 DD 77 FD         [19] 3765 	ld	-3 (ix), a
    000012E4 DD 7E F6         [19] 3766 	ld	a, -10 (ix)
    000012E7 DD 86 FC         [19] 3767 	add	a, -4 (ix)
    000012EA DD 77 FE         [19] 3768 	ld	-2 (ix), a
    000012ED DD 7E F7         [19] 3769 	ld	a, -9 (ix)
    000012F0 DD 8E FD         [19] 3770 	adc	a, -3 (ix)
    000012F3 DD 77 FF         [19] 3771 	ld	-1 (ix), a
    000012F6 DD 7E FE         [19] 3772 	ld	a, -2 (ix)
    000012F9 DD 77 FA         [19] 3773 	ld	-6 (ix), a
    000012FC DD 7E FF         [19] 3774 	ld	a, -1 (ix)
    000012FF DD 77 FB         [19] 3775 	ld	-5 (ix), a
                                   3776 ;E:\Dropbox\FAUSTO\SVILUPPI\MSX\CODE\C\MSXgl\projects\soccerlgSCC/soccerlg_s8_b3.c:695: i16 rollTy = (i16)g_Ball.Y + rollDy;
    00001302 21r00r00         [10] 3777 	ld	hl, #_g_Ball
    00001305 7E               [ 7] 3778 	ld	a, (hl)
    00001306 DD 77 FE         [19] 3779 	ld	-2 (ix), a
    00001309 23               [ 6] 3780 	inc	hl
    0000130A 7E               [ 7] 3781 	ld	a, (hl)
    0000130B DD 77 FF         [19] 3782 	ld	-1 (ix), a
    0000130E DD 7E FE         [19] 3783 	ld	a, -2 (ix)
    00001311 DD 77 FC         [19] 3784 	ld	-4 (ix), a
    00001314 DD 7E FF         [19] 3785 	ld	a, -1 (ix)
    00001317 DD 77 FD         [19] 3786 	ld	-3 (ix), a
    0000131A DD 7E F8         [19] 3787 	ld	a, -8 (ix)
    0000131D DD 86 FC         [19] 3788 	add	a, -4 (ix)
    00001320 DD 77 FE         [19] 3789 	ld	-2 (ix), a
    00001323 DD 7E F9         [19] 3790 	ld	a, -7 (ix)
    00001326 DD 8E FD         [19] 3791 	adc	a, -3 (ix)
    00001329 DD 77 FF         [19] 3792 	ld	-1 (ix), a
    0000132C DD 7E FE         [19] 3793 	ld	a, -2 (ix)
    0000132F DD 77 FC         [19] 3794 	ld	-4 (ix), a
    00001332 DD 7E FF         [19] 3795 	ld	a, -1 (ix)
    00001335 DD 77 FD         [19] 3796 	ld	-3 (ix), a
                                   3797 ;E:\Dropbox\FAUSTO\SVILUPPI\MSX\CODE\C\MSXgl\projects\soccerlgSCC/soccerlg_s8_b3.c:698: if (rollTx < FIELD_BOUND_X_LEFT) rollTx = FIELD_BOUND_X_LEFT;
    00001338 DD 7E FA         [19] 3798 	ld	a, -6 (ix)
    0000133B DD 77 FE         [19] 3799 	ld	-2 (ix), a
    0000133E DD 7E FB         [19] 3800 	ld	a, -5 (ix)
    00001341 DD 77 FF         [19] 3801 	ld	-1 (ix), a
    00001344 DD 7E FE         [19] 3802 	ld	a, -2 (ix)
    00001347 D6 0A            [ 7] 3803 	sub	a, #0x0a
    00001349 DD 7E FF         [19] 3804 	ld	a, -1 (ix)
    0000134C 17               [ 4] 3805 	rla
    0000134D 3F               [ 4] 3806 	ccf
    0000134E 1F               [ 4] 3807 	rra
    0000134F DE 80            [ 7] 3808 	sbc	a, #0x80
    00001351 30 0B            [12] 3809 	jr	NC, 00142$
    00001353 DD 36 FA 0A      [19] 3810 	ld	-6 (ix), #0x0a
    00001357 DD 36 FB 00      [19] 3811 	ld	-5 (ix), #0
    0000135B C3r78r13         [10] 3812 	jp	00143$
    0000135E                       3813 00142$:
                                   3814 ;E:\Dropbox\FAUSTO\SVILUPPI\MSX\CODE\C\MSXgl\projects\soccerlgSCC/soccerlg_s8_b3.c:699: else if (rollTx > FIELD_BOUND_X_RIGHT) rollTx = FIELD_BOUND_X_RIGHT;
    0000135E 3E EC            [ 7] 3815 	ld	a, #0xec
    00001360 DD BE FE         [19] 3816 	cp	a, -2 (ix)
    00001363 3E 00            [ 7] 3817 	ld	a, #0x00
    00001365 DD 9E FF         [19] 3818 	sbc	a, -1 (ix)
    00001368 E2r6Dr13         [10] 3819 	jp	PO, 00551$
    0000136B EE 80            [ 7] 3820 	xor	a, #0x80
    0000136D                       3821 00551$:
    0000136D F2r78r13         [10] 3822 	jp	P, 00143$
    00001370 DD 36 FA EC      [19] 3823 	ld	-6 (ix), #0xec
    00001374 DD 36 FB 00      [19] 3824 	ld	-5 (ix), #0
    00001378                       3825 00143$:
                                   3826 ;E:\Dropbox\FAUSTO\SVILUPPI\MSX\CODE\C\MSXgl\projects\soccerlgSCC/soccerlg_s8_b3.c:700: if (rollTy < FIELD_BOUND_Y_TOP) rollTy = FIELD_BOUND_Y_TOP;
    00001378 DD 4E FC         [19] 3827 	ld	c, -4 (ix)
    0000137B DD 46 FD         [19] 3828 	ld	b, -3 (ix)
    0000137E 79               [ 4] 3829 	ld	a, c
    0000137F D6 32            [ 7] 3830 	sub	a, #0x32
    00001381 78               [ 4] 3831 	ld	a, b
    00001382 17               [ 4] 3832 	rla
    00001383 3F               [ 4] 3833 	ccf
    00001384 1F               [ 4] 3834 	rra
    00001385 DE 80            [ 7] 3835 	sbc	a, #0x80
    00001387 30 0B            [12] 3836 	jr	NC, 00147$
    00001389 DD 36 FC 32      [19] 3837 	ld	-4 (ix), #0x32
    0000138D DD 36 FD 00      [19] 3838 	ld	-3 (ix), #0
    00001391 C3rAAr13         [10] 3839 	jp	00148$
    00001394                       3840 00147$:
                                   3841 ;E:\Dropbox\FAUSTO\SVILUPPI\MSX\CODE\C\MSXgl\projects\soccerlgSCC/soccerlg_s8_b3.c:701: else if (rollTy > FIELD_BOUND_Y_BOTTOM) rollTy = FIELD_BOUND_Y_BOTTOM;
    00001394 3E B3            [ 7] 3842 	ld	a, #0xb3
    00001396 B9               [ 4] 3843 	cp	a, c
    00001397 3E 01            [ 7] 3844 	ld	a, #0x01
    00001399 98               [ 4] 3845 	sbc	a, b
    0000139A E2r9Fr13         [10] 3846 	jp	PO, 00552$
    0000139D EE 80            [ 7] 3847 	xor	a, #0x80
    0000139F                       3848 00552$:
    0000139F F2rAAr13         [10] 3849 	jp	P, 00148$
    000013A2 DD 36 FC B3      [19] 3850 	ld	-4 (ix), #0xb3
    000013A6 DD 36 FD 01      [19] 3851 	ld	-3 (ix), #0x01
    000013AA                       3852 00148$:
                                   3853 ;E:\Dropbox\FAUSTO\SVILUPPI\MSX\CODE\C\MSXgl\projects\soccerlgSCC/soccerlg_s8_b3.c:703: g_Ball.TargetX = rollTx;
    000013AA 21r17r00         [10] 3854 	ld	hl, #(_g_Ball + 23)
    000013AD DD 7E FA         [19] 3855 	ld	a, -6 (ix)
    000013B0 77               [ 7] 3856 	ld	(hl), a
    000013B1 23               [ 6] 3857 	inc	hl
    000013B2 DD 7E FB         [19] 3858 	ld	a, -5 (ix)
    000013B5 77               [ 7] 3859 	ld	(hl), a
                                   3860 ;E:\Dropbox\FAUSTO\SVILUPPI\MSX\CODE\C\MSXgl\projects\soccerlgSCC/soccerlg_s8_b3.c:704: g_Ball.TargetY = rollTy;
    000013B6 21r19r00         [10] 3861 	ld	hl, #(_g_Ball + 25)
    000013B9 DD 7E FC         [19] 3862 	ld	a, -4 (ix)
    000013BC 77               [ 7] 3863 	ld	(hl), a
    000013BD 23               [ 6] 3864 	inc	hl
    000013BE DD 7E FD         [19] 3865 	ld	a, -3 (ix)
    000013C1 77               [ 7] 3866 	ld	(hl), a
                                   3867 ;E:\Dropbox\FAUSTO\SVILUPPI\MSX\CODE\C\MSXgl\projects\soccerlgSCC/soccerlg_s8_b3.c:705: g_Ball.PassTotalDist = (u16)(Math_Abs32(rollDx) + Math_Abs32(rollDy));
    000013C2 DD 5E F6         [19] 3868 	ld	e, -10 (ix)
    000013C5 DD 7E F7         [19] 3869 	ld	a, -9 (ix)
    000013C8 57               [ 4] 3870 	ld	d, a
    000013C9 07               [ 4] 3871 	rlca
    000013CA ED 62            [15] 3872 	sbc	hl, hl
    000013CC CDr00r00         [17] 3873 	call	_Math_Abs32
    000013CF E5               [11] 3874 	push	hl
    000013D0 FD E1            [14] 3875 	pop	iy
    000013D2 4B               [ 4] 3876 	ld	c, e
    000013D3 42               [ 4] 3877 	ld	b, d
    000013D4 DD 5E F8         [19] 3878 	ld	e, -8 (ix)
    000013D7 DD 7E F9         [19] 3879 	ld	a, -7 (ix)
    000013DA 57               [ 4] 3880 	ld	d, a
    000013DB 07               [ 4] 3881 	rlca
    000013DC ED 62            [15] 3882 	sbc	hl, hl
    000013DE C5               [11] 3883 	push	bc
    000013DF FD E5            [15] 3884 	push	iy
    000013E1 CDr00r00         [17] 3885 	call	_Math_Abs32
    000013E4 FD E1            [14] 3886 	pop	iy
    000013E6 C1               [10] 3887 	pop	bc
    000013E7 EB               [ 4] 3888 	ex	de, hl
    000013E8 09               [11] 3889 	add	hl, bc
    000013E9 EB               [ 4] 3890 	ex	de, hl
    000013EA ED 53r15r00      [20] 3891 	ld	((_g_Ball + 21)), de
                                   3892 ;E:\Dropbox\FAUSTO\SVILUPPI\MSX\CODE\C\MSXgl\projects\soccerlgSCC/soccerlg_s8_b3.c:707: if (g_Ball.PassTotalDist > 2) {
    000013EE 3E 02            [ 7] 3893 	ld	a, #0x02
    000013F0 BB               [ 4] 3894 	cp	a, e
    000013F1 3E 00            [ 7] 3895 	ld	a, #0x00
    000013F3 9A               [ 4] 3896 	sbc	a, d
    000013F4 30 08            [12] 3897 	jr	NC, 00155$
                                   3898 ;E:\Dropbox\FAUSTO\SVILUPPI\MSX\CODE\C\MSXgl\projects\soccerlgSCC/soccerlg_s8_b3.c:708: g_Ball.ShotActive = 3; // ROLLING
    000013F6 21r1Br00         [10] 3899 	ld	hl, #(_g_Ball + 27)
    000013F9 36 03            [10] 3900 	ld	(hl), #0x03
                                   3901 ;E:\Dropbox\FAUSTO\SVILUPPI\MSX\CODE\C\MSXgl\projects\soccerlgSCC/soccerlg_s8_b3.c:709: return;
    000013FB C3r8Dr17         [10] 3902 	jp	00220$
    000013FE                       3903 00155$:
                                   3904 ;E:\Dropbox\FAUSTO\SVILUPPI\MSX\CODE\C\MSXgl\projects\soccerlgSCC/soccerlg_s8_b3.c:714: g_Ball.ShotActive = 0;
    000013FE 21r1Br00         [10] 3905 	ld	hl, #(_g_Ball + 27)
    00001401 36 00            [10] 3906 	ld	(hl), #0x00
                                   3907 ;E:\Dropbox\FAUSTO\SVILUPPI\MSX\CODE\C\MSXgl\projects\soccerlgSCC/soccerlg_s8_b3.c:715: g_Ball.PassTargetPlayerId = NO_VALUE;
    00001403 21r10r00         [10] 3908 	ld	hl, #(_g_Ball + 16)
    00001406 36 FF            [10] 3909 	ld	(hl), #0xff
                                   3910 ;E:\Dropbox\FAUSTO\SVILUPPI\MSX\CODE\C\MSXgl\projects\soccerlgSCC/soccerlg_s8_b3.c:716: g_Ball.PossessionPlayerId = NO_VALUE;
    00001408 21r06r00         [10] 3911 	ld	hl, #(_g_Ball + 6)
    0000140B 36 FF            [10] 3912 	ld	(hl), #0xff
                                   3913 ;E:\Dropbox\FAUSTO\SVILUPPI\MSX\CODE\C\MSXgl\projects\soccerlgSCC/soccerlg_s8_b3.c:717: g_Ball.Size = 1;
    0000140D 21r04r00         [10] 3914 	ld	hl, #(_g_Ball + 4)
    00001410 36 01            [10] 3915 	ld	(hl), #0x01
                                   3916 ;E:\Dropbox\FAUSTO\SVILUPPI\MSX\CODE\C\MSXgl\projects\soccerlgSCC/soccerlg_s8_b3.c:719: return;
    00001412 C3r8Dr17         [10] 3917 	jp	00220$
    00001415                       3918 00160$:
                                   3919 ;E:\Dropbox\FAUSTO\SVILUPPI\MSX\CODE\C\MSXgl\projects\soccerlgSCC/soccerlg_s8_b3.c:724: if (Math_Abs32(dx) > Math_Abs32(dy)) {
    00001415 DD 7E F0         [19] 3920 	ld	a, -16 (ix)
    00001418 DD 77 E8         [19] 3921 	ld	-24 (ix), a
    0000141B DD 7E F1         [19] 3922 	ld	a, -15 (ix)
    0000141E DD 77 E9         [19] 3923 	ld	-23 (ix), a
    00001421 07               [ 4] 3924 	rlca
    00001422 9F               [ 4] 3925 	sbc	a, a
    00001423 DD 77 EA         [19] 3926 	ld	-22 (ix), a
    00001426 DD 77 EB         [19] 3927 	ld	-21 (ix), a
    00001429 D1               [10] 3928 	pop	de
    0000142A D5               [11] 3929 	push	de
    0000142B DD 6E EA         [19] 3930 	ld	l, -22 (ix)
                                   3931 ;	spillPairReg hl
                                   3932 ;	spillPairReg hl
    0000142E DD 66 EB         [19] 3933 	ld	h, -21 (ix)
                                   3934 ;	spillPairReg hl
                                   3935 ;	spillPairReg hl
    00001431 CDr00r00         [17] 3936 	call	_Math_Abs32
    00001434 4B               [ 4] 3937 	ld	c, e
    00001435 42               [ 4] 3938 	ld	b, d
    00001436 DD 7E F2         [19] 3939 	ld	a, -14 (ix)
    00001439 DD 77 EC         [19] 3940 	ld	-20 (ix), a
    0000143C DD 7E F3         [19] 3941 	ld	a, -13 (ix)
    0000143F DD 77 ED         [19] 3942 	ld	-19 (ix), a
    00001442 07               [ 4] 3943 	rlca
    00001443 9F               [ 4] 3944 	sbc	a, a
    00001444 DD 77 EE         [19] 3945 	ld	-18 (ix), a
    00001447 DD 77 EF         [19] 3946 	ld	-17 (ix), a
    0000144A E5               [11] 3947 	push	hl
    0000144B C5               [11] 3948 	push	bc
    0000144C DD 5E EC         [19] 3949 	ld	e, -20 (ix)
    0000144F DD 56 ED         [19] 3950 	ld	d, -19 (ix)
    00001452 DD 6E EE         [19] 3951 	ld	l, -18 (ix)
                                   3952 ;	spillPairReg hl
                                   3953 ;	spillPairReg hl
    00001455 DD 66 EF         [19] 3954 	ld	h, -17 (ix)
                                   3955 ;	spillPairReg hl
                                   3956 ;	spillPairReg hl
    00001458 CDr00r00         [17] 3957 	call	_Math_Abs32
    0000145B DD 73 FC         [19] 3958 	ld	-4 (ix), e
    0000145E DD 72 FD         [19] 3959 	ld	-3 (ix), d
    00001461 DD 75 FE         [19] 3960 	ld	-2 (ix), l
    00001464 DD 74 FF         [19] 3961 	ld	-1 (ix), h
    00001467 C1               [10] 3962 	pop	bc
    00001468 E1               [10] 3963 	pop	hl
    00001469 DD 7E FC         [19] 3964 	ld	a, -4 (ix)
    0000146C 91               [ 4] 3965 	sub	a, c
    0000146D DD 7E FD         [19] 3966 	ld	a, -3 (ix)
    00001470 98               [ 4] 3967 	sbc	a, b
    00001471 DD 7E FE         [19] 3968 	ld	a, -2 (ix)
    00001474 9D               [ 4] 3969 	sbc	a, l
    00001475 DD 7E FF         [19] 3970 	ld	a, -1 (ix)
    00001478 9C               [ 4] 3971 	sbc	a, h
    00001479 E2r7Er14         [10] 3972 	jp	PO, 00553$
    0000147C EE 80            [ 7] 3973 	xor	a, #0x80
    0000147E                       3974 00553$:
    0000147E F2r0Ar15         [10] 3975 	jp	P, 00169$
                                   3976 ;E:\Dropbox\FAUSTO\SVILUPPI\MSX\CODE\C\MSXgl\projects\soccerlgSCC/soccerlg_s8_b3.c:725: g_Ball.X += (dx > 0 ? speed : -speed);
    00001481 ED 4Br02r00      [20] 3977 	ld	bc, (#(_g_Ball + 2) + 0)
    00001485 AF               [ 4] 3978 	xor	a, a
    00001486 DD BE FA         [19] 3979 	cp	a, -6 (ix)
    00001489 DD 9E FB         [19] 3980 	sbc	a, -5 (ix)
    0000148C E2r91r14         [10] 3981 	jp	PO, 00554$
    0000148F EE 80            [ 7] 3982 	xor	a, #0x80
    00001491                       3983 00554$:
    00001491 F2r9Dr14         [10] 3984 	jp	P, 00229$
    00001494 DD 5E F6         [19] 3985 	ld	e, -10 (ix)
    00001497 DD 56 F7         [19] 3986 	ld	d, -9 (ix)
    0000149A C3rA3r14         [10] 3987 	jp	00230$
    0000149D                       3988 00229$:
    0000149D DD 5E F8         [19] 3989 	ld	e, -8 (ix)
    000014A0 DD 56 F9         [19] 3990 	ld	d, -7 (ix)
    000014A3                       3991 00230$:
    000014A3 EB               [ 4] 3992 	ex	de, hl
    000014A4 09               [11] 3993 	add	hl, bc
    000014A5 EB               [ 4] 3994 	ex	de, hl
    000014A6 ED 53r02r00      [20] 3995 	ld	((_g_Ball + 2)), de
                                   3996 ;E:\Dropbox\FAUSTO\SVILUPPI\MSX\CODE\C\MSXgl\projects\soccerlgSCC/soccerlg_s8_b3.c:726: if (dx != 0) g_Ball.Y += (dy * speed) / Math_Abs32(dx);
    000014AA DD 7E F1         [19] 3997 	ld	a, -15 (ix)
    000014AD DD B6 F0         [19] 3998 	or	a, -16 (ix)
    000014B0 CArA3r15         [10] 3999 	jp	Z, 00170$
    000014B3 ED 4Br00r00      [20] 4000 	ld	bc, (#_g_Ball + 0)
    000014B7 DD 5E F4         [19] 4001 	ld	e, -12 (ix)
    000014BA 16 00            [ 7] 4002 	ld	d, #0x00
    000014BC C5               [11] 4003 	push	bc
    000014BD DD 6E F2         [19] 4004 	ld	l, -14 (ix)
                                   4005 ;	spillPairReg hl
                                   4006 ;	spillPairReg hl
    000014C0 DD 66 F3         [19] 4007 	ld	h, -13 (ix)
                                   4008 ;	spillPairReg hl
                                   4009 ;	spillPairReg hl
    000014C3 CDr00r00         [17] 4010 	call	__mulint
    000014C6 D5               [11] 4011 	push	de
    000014C7 DD 5E E8         [19] 4012 	ld	e, -24 (ix)
    000014CA DD 56 E9         [19] 4013 	ld	d, -23 (ix)
    000014CD DD 6E EA         [19] 4014 	ld	l, -22 (ix)
                                   4015 ;	spillPairReg hl
                                   4016 ;	spillPairReg hl
    000014D0 DD 66 EB         [19] 4017 	ld	h, -21 (ix)
                                   4018 ;	spillPairReg hl
                                   4019 ;	spillPairReg hl
    000014D3 CDr00r00         [17] 4020 	call	_Math_Abs32
    000014D6 D5               [11] 4021 	push	de
    000014D7 FD E1            [14] 4022 	pop	iy
    000014D9 D1               [10] 4023 	pop	de
    000014DA C1               [10] 4024 	pop	bc
    000014DB DD 73 FC         [19] 4025 	ld	-4 (ix), e
    000014DE 7A               [ 4] 4026 	ld	a, d
    000014DF DD 77 FD         [19] 4027 	ld	-3 (ix), a
    000014E2 07               [ 4] 4028 	rlca
    000014E3 9F               [ 4] 4029 	sbc	a, a
    000014E4 DD 77 FE         [19] 4030 	ld	-2 (ix), a
    000014E7 DD 77 FF         [19] 4031 	ld	-1 (ix), a
    000014EA C5               [11] 4032 	push	bc
    000014EB E5               [11] 4033 	push	hl
    000014EC FD E5            [15] 4034 	push	iy
    000014EE DD 5E FC         [19] 4035 	ld	e, -4 (ix)
    000014F1 DD 56 FD         [19] 4036 	ld	d, -3 (ix)
    000014F4 DD 6E FE         [19] 4037 	ld	l, -2 (ix)
                                   4038 ;	spillPairReg hl
                                   4039 ;	spillPairReg hl
    000014F7 DD 66 FF         [19] 4040 	ld	h, -1 (ix)
                                   4041 ;	spillPairReg hl
                                   4042 ;	spillPairReg hl
    000014FA CDr00r00         [17] 4043 	call	__divslong
    000014FD F1               [10] 4044 	pop	af
    000014FE F1               [10] 4045 	pop	af
    000014FF C1               [10] 4046 	pop	bc
    00001500 EB               [ 4] 4047 	ex	de, hl
    00001501 09               [11] 4048 	add	hl, bc
    00001502 EB               [ 4] 4049 	ex	de, hl
    00001503 ED 53r00r00      [20] 4050 	ld	(_g_Ball), de
    00001507 C3rA3r15         [10] 4051 	jp	00170$
    0000150A                       4052 00169$:
                                   4053 ;E:\Dropbox\FAUSTO\SVILUPPI\MSX\CODE\C\MSXgl\projects\soccerlgSCC/soccerlg_s8_b3.c:728: g_Ball.Y += (dy > 0 ? speed : -speed);
    0000150A 11r00r00         [10] 4054 	ld	de, #_g_Ball
    0000150D 21r00r00         [10] 4055 	ld	hl, #_g_Ball
    00001510 7E               [ 7] 4056 	ld	a, (hl)
    00001511 DD 77 FE         [19] 4057 	ld	-2 (ix), a
    00001514 23               [ 6] 4058 	inc	hl
    00001515 7E               [ 7] 4059 	ld	a, (hl)
    00001516 DD 77 FF         [19] 4060 	ld	-1 (ix), a
    00001519 DD 4E F2         [19] 4061 	ld	c, -14 (ix)
    0000151C DD 46 F3         [19] 4062 	ld	b, -13 (ix)
    0000151F AF               [ 4] 4063 	xor	a, a
    00001520 B9               [ 4] 4064 	cp	a, c
    00001521 98               [ 4] 4065 	sbc	a, b
    00001522 E2r27r15         [10] 4066 	jp	PO, 00555$
    00001525 EE 80            [ 7] 4067 	xor	a, #0x80
    00001527                       4068 00555$:
    00001527 F2r33r15         [10] 4069 	jp	P, 00231$
    0000152A DD 6E F6         [19] 4070 	ld	l, -10 (ix)
                                   4071 ;	spillPairReg hl
                                   4072 ;	spillPairReg hl
    0000152D DD 66 F7         [19] 4073 	ld	h, -9 (ix)
                                   4074 ;	spillPairReg hl
                                   4075 ;	spillPairReg hl
    00001530 C3r39r15         [10] 4076 	jp	00232$
    00001533                       4077 00231$:
    00001533 DD 6E F8         [19] 4078 	ld	l, -8 (ix)
                                   4079 ;	spillPairReg hl
                                   4080 ;	spillPairReg hl
    00001536 DD 66 F9         [19] 4081 	ld	h, -7 (ix)
                                   4082 ;	spillPairReg hl
                                   4083 ;	spillPairReg hl
    00001539                       4084 00232$:
    00001539 DD 4E FE         [19] 4085 	ld	c, -2 (ix)
    0000153C DD 46 FF         [19] 4086 	ld	b, -1 (ix)
    0000153F 09               [11] 4087 	add	hl, bc
    00001540 4D               [ 4] 4088 	ld	c, l
    00001541 44               [ 4] 4089 	ld	b, h
    00001542 79               [ 4] 4090 	ld	a, c
    00001543 12               [ 7] 4091 	ld	(de), a
    00001544 13               [ 6] 4092 	inc	de
    00001545 78               [ 4] 4093 	ld	a, b
    00001546 12               [ 7] 4094 	ld	(de), a
                                   4095 ;E:\Dropbox\FAUSTO\SVILUPPI\MSX\CODE\C\MSXgl\projects\soccerlgSCC/soccerlg_s8_b3.c:729: if (dy != 0) g_Ball.X += (dx * speed) / Math_Abs32(dy);
    00001547 DD 7E F3         [19] 4096 	ld	a, -13 (ix)
    0000154A DD B6 F2         [19] 4097 	or	a, -14 (ix)
    0000154D 28 54            [12] 4098 	jr	Z, 00170$
    0000154F ED 4Br02r00      [20] 4099 	ld	bc, (#(_g_Ball + 2) + 0)
    00001553 DD 5E F4         [19] 4100 	ld	e, -12 (ix)
    00001556 16 00            [ 7] 4101 	ld	d, #0x00
    00001558 C5               [11] 4102 	push	bc
    00001559 DD 6E F0         [19] 4103 	ld	l, -16 (ix)
                                   4104 ;	spillPairReg hl
                                   4105 ;	spillPairReg hl
    0000155C DD 66 F1         [19] 4106 	ld	h, -15 (ix)
                                   4107 ;	spillPairReg hl
                                   4108 ;	spillPairReg hl
    0000155F CDr00r00         [17] 4109 	call	__mulint
    00001562 D5               [11] 4110 	push	de
    00001563 DD 5E EC         [19] 4111 	ld	e, -20 (ix)
    00001566 DD 56 ED         [19] 4112 	ld	d, -19 (ix)
    00001569 DD 6E EE         [19] 4113 	ld	l, -18 (ix)
                                   4114 ;	spillPairReg hl
                                   4115 ;	spillPairReg hl
    0000156C DD 66 EF         [19] 4116 	ld	h, -17 (ix)
                                   4117 ;	spillPairReg hl
                                   4118 ;	spillPairReg hl
    0000156F CDr00r00         [17] 4119 	call	_Math_Abs32
    00001572 D5               [11] 4120 	push	de
    00001573 FD E1            [14] 4121 	pop	iy
    00001575 D1               [10] 4122 	pop	de
    00001576 C1               [10] 4123 	pop	bc
    00001577 DD 73 FC         [19] 4124 	ld	-4 (ix), e
    0000157A 7A               [ 4] 4125 	ld	a, d
    0000157B DD 77 FD         [19] 4126 	ld	-3 (ix), a
    0000157E 07               [ 4] 4127 	rlca
    0000157F 9F               [ 4] 4128 	sbc	a, a
    00001580 DD 77 FE         [19] 4129 	ld	-2 (ix), a
    00001583 DD 77 FF         [19] 4130 	ld	-1 (ix), a
    00001586 C5               [11] 4131 	push	bc
    00001587 E5               [11] 4132 	push	hl
    00001588 FD E5            [15] 4133 	push	iy
    0000158A DD 5E FC         [19] 4134 	ld	e, -4 (ix)
    0000158D DD 56 FD         [19] 4135 	ld	d, -3 (ix)
    00001590 DD 6E FE         [19] 4136 	ld	l, -2 (ix)
                                   4137 ;	spillPairReg hl
                                   4138 ;	spillPairReg hl
    00001593 DD 66 FF         [19] 4139 	ld	h, -1 (ix)
                                   4140 ;	spillPairReg hl
                                   4141 ;	spillPairReg hl
    00001596 CDr00r00         [17] 4142 	call	__divslong
    00001599 F1               [10] 4143 	pop	af
    0000159A F1               [10] 4144 	pop	af
    0000159B C1               [10] 4145 	pop	bc
    0000159C EB               [ 4] 4146 	ex	de, hl
    0000159D 09               [11] 4147 	add	hl, bc
    0000159E EB               [ 4] 4148 	ex	de, hl
    0000159F ED 53r02r00      [20] 4149 	ld	((_g_Ball + 2)), de
    000015A3                       4150 00170$:
                                   4151 ;E:\Dropbox\FAUSTO\SVILUPPI\MSX\CODE\C\MSXgl\projects\soccerlgSCC/soccerlg_s8_b3.c:733: i16 diffStartX = (i16)g_Ball.X - (i16)g_Ball.PassStartX;
    000015A3 ED 4Br02r00      [20] 4152 	ld	bc, (#(_g_Ball + 2) + 0)
    000015A7 2Ar11r00         [16] 4153 	ld	hl, (#_g_Ball + 17)
    000015AA 79               [ 4] 4154 	ld	a, c
    000015AB 95               [ 4] 4155 	sub	a, l
    000015AC 4F               [ 4] 4156 	ld	c, a
    000015AD 78               [ 4] 4157 	ld	a, b
    000015AE 9C               [ 4] 4158 	sbc	a, h
    000015AF 47               [ 4] 4159 	ld	b, a
                                   4160 ;E:\Dropbox\FAUSTO\SVILUPPI\MSX\CODE\C\MSXgl\projects\soccerlgSCC/soccerlg_s8_b3.c:734: i16 diffStartY = (i16)g_Ball.Y - (i16)g_Ball.PassStartY;
    000015B0 ED 5Br00r00      [20] 4161 	ld	de, (#_g_Ball + 0)
    000015B4 2Ar13r00         [16] 4162 	ld	hl, (#_g_Ball + 19)
    000015B7 7B               [ 4] 4163 	ld	a, e
    000015B8 95               [ 4] 4164 	sub	a, l
    000015B9 5F               [ 4] 4165 	ld	e, a
    000015BA 7A               [ 4] 4166 	ld	a, d
    000015BB 9C               [ 4] 4167 	sbc	a, h
    000015BC 57               [ 4] 4168 	ld	d, a
                                   4169 ;E:\Dropbox\FAUSTO\SVILUPPI\MSX\CODE\C\MSXgl\projects\soccerlgSCC/soccerlg_s8_b3.c:735: u16 distCovered = (u16)(Math_Abs32(diffStartX) + Math_Abs32(diffStartY));
    000015BD 78               [ 4] 4170 	ld	a, b
    000015BE 07               [ 4] 4171 	rlca
    000015BF ED 62            [15] 4172 	sbc	hl, hl
    000015C1 D5               [11] 4173 	push	de
    000015C2 59               [ 4] 4174 	ld	e, c
    000015C3 50               [ 4] 4175 	ld	d, b
    000015C4 CDr00r00         [17] 4176 	call	_Math_Abs32
    000015C7 E5               [11] 4177 	push	hl
    000015C8 FD E1            [14] 4178 	pop	iy
    000015CA 4B               [ 4] 4179 	ld	c, e
    000015CB 42               [ 4] 4180 	ld	b, d
    000015CC D1               [10] 4181 	pop	de
    000015CD 7A               [ 4] 4182 	ld	a, d
    000015CE 07               [ 4] 4183 	rlca
    000015CF ED 62            [15] 4184 	sbc	hl, hl
    000015D1 C5               [11] 4185 	push	bc
    000015D2 FD E5            [15] 4186 	push	iy
    000015D4 CDr00r00         [17] 4187 	call	_Math_Abs32
    000015D7 FD E1            [14] 4188 	pop	iy
    000015D9 C1               [10] 4189 	pop	bc
    000015DA EB               [ 4] 4190 	ex	de, hl
    000015DB 09               [11] 4191 	add	hl, bc
    000015DC DD 75 F6         [19] 4192 	ld	-10 (ix), l
    000015DF DD 74 F7         [19] 4193 	ld	-9 (ix), h
                                   4194 ;E:\Dropbox\FAUSTO\SVILUPPI\MSX\CODE\C\MSXgl\projects\soccerlgSCC/soccerlg_s8_b3.c:737: u16 totalDist = g_Ball.PassTotalDist;
    000015E2 21r15r00         [10] 4195 	ld	hl, #_g_Ball + 21
    000015E5 7E               [ 7] 4196 	ld	a, (hl)
    000015E6 DD 77 F8         [19] 4197 	ld	-8 (ix), a
    000015E9 23               [ 6] 4198 	inc	hl
    000015EA 7E               [ 7] 4199 	ld	a, (hl)
                                   4200 ;E:\Dropbox\FAUSTO\SVILUPPI\MSX\CODE\C\MSXgl\projects\soccerlgSCC/soccerlg_s8_b3.c:738: if (totalDist == 0) totalDist = 1; // Safety
    000015EB DD 77 F9         [19] 4201 	ld	-7 (ix), a
    000015EE DD B6 F8         [19] 4202 	or	a, -8 (ix)
    000015F1 20 08            [12] 4203 	jr	NZ, 00172$
    000015F3 DD 36 F8 01      [19] 4204 	ld	-8 (ix), #0x01
    000015F7 DD 36 F9 00      [19] 4205 	ld	-7 (ix), #0
    000015FB                       4206 00172$:
                                   4207 ;E:\Dropbox\FAUSTO\SVILUPPI\MSX\CODE\C\MSXgl\projects\soccerlgSCC/soccerlg_s8_b3.c:608: i16 dx = tx - (i16)g_Ball.X;
    000015FB ED 4Br02r00      [20] 4208 	ld	bc, (#(_g_Ball + 2) + 0)
                                   4209 ;E:\Dropbox\FAUSTO\SVILUPPI\MSX\CODE\C\MSXgl\projects\soccerlgSCC/soccerlg_s8_b3.c:609: i16 dy = ty - (i16)g_Ball.Y;
    000015FF 21r00r00         [10] 4210 	ld	hl, #_g_Ball
    00001602 7E               [ 7] 4211 	ld	a, (hl)
    00001603 DD 77 FA         [19] 4212 	ld	-6 (ix), a
    00001606 23               [ 6] 4213 	inc	hl
    00001607 7E               [ 7] 4214 	ld	a, (hl)
    00001608 DD 77 FB         [19] 4215 	ld	-5 (ix), a
                                   4216 ;E:\Dropbox\FAUSTO\SVILUPPI\MSX\CODE\C\MSXgl\projects\soccerlgSCC/soccerlg_s8_b3.c:741: if (g_Ball.X == 0 || g_Ball.X > 255 || g_Ball.Y == 0 || g_Ball.Y > 211) {
    0000160B DD 7E FA         [19] 4217 	ld	a, -6 (ix)
    0000160E DD 77 FC         [19] 4218 	ld	-4 (ix), a
    00001611 DD 7E FB         [19] 4219 	ld	a, -5 (ix)
    00001614 DD 77 FD         [19] 4220 	ld	-3 (ix), a
    00001617 78               [ 4] 4221 	ld	a, b
    00001618 B1               [ 4] 4222 	or	a, c
    00001619 28 27            [12] 4223 	jr	Z, 00174$
    0000161B DD 71 FE         [19] 4224 	ld	-2 (ix), c
    0000161E DD 70 FF         [19] 4225 	ld	-1 (ix), b
    00001621 3E FF            [ 7] 4226 	ld	a, #0xff
    00001623 DD BE FE         [19] 4227 	cp	a, -2 (ix)
    00001626 3E 00            [ 7] 4228 	ld	a, #0x00
    00001628 DD 9E FF         [19] 4229 	sbc	a, -1 (ix)
    0000162B 38 15            [12] 4230 	jr	C, 00174$
    0000162D DD 7E FB         [19] 4231 	ld	a, -5 (ix)
    00001630 DD B6 FA         [19] 4232 	or	a, -6 (ix)
    00001633 28 0D            [12] 4233 	jr	Z, 00174$
    00001635 3E D3            [ 7] 4234 	ld	a, #0xd3
    00001637 DD BE FC         [19] 4235 	cp	a, -4 (ix)
    0000163A 3E 00            [ 7] 4236 	ld	a, #0x00
    0000163C DD 9E FD         [19] 4237 	sbc	a, -3 (ix)
    0000163F 3E 00            [ 7] 4238 	ld	a, #0x00
    00001641 17               [ 4] 4239 	rla
                                   4240 ;E:\Dropbox\FAUSTO\SVILUPPI\MSX\CODE\C\MSXgl\projects\soccerlgSCC/soccerlg_s8_b3.c:744: if(g_Ball.Y > 230 || g_Ball.Y < 20) {
    00001642                       4241 00174$:
                                   4242 ;E:\Dropbox\FAUSTO\SVILUPPI\MSX\CODE\C\MSXgl\projects\soccerlgSCC/soccerlg_s8_b3.c:750: if (g_Ball.ShotActive == 2) {
    00001642 21r1Br00         [10] 4243 	ld	hl, #(_g_Ball + 27)
    00001645 5E               [ 7] 4244 	ld	e, (hl)
                                   4245 ;E:\Dropbox\FAUSTO\SVILUPPI\MSX\CODE\C\MSXgl\projects\soccerlgSCC/soccerlg_s8_b3.c:627: g_Ball.Size = 1;
    00001646 01r04r00         [10] 4246 	ld	bc, #_g_Ball + 4
                                   4247 ;E:\Dropbox\FAUSTO\SVILUPPI\MSX\CODE\C\MSXgl\projects\soccerlgSCC/soccerlg_s8_b3.c:750: if (g_Ball.ShotActive == 2) {
    00001649 7B               [ 4] 4248 	ld	a, e
    0000164A D6 02            [ 7] 4249 	sub	a, #0x02
    0000164C 20 37            [12] 4250 	jr	NZ, 00218$
                                   4251 ;E:\Dropbox\FAUSTO\SVILUPPI\MSX\CODE\C\MSXgl\projects\soccerlgSCC/soccerlg_s8_b3.c:752: u16 ratio = (distCovered * 100) / totalDist;
    0000164E DD 5E F6         [19] 4252 	ld	e, -10 (ix)
    00001651 DD 56 F7         [19] 4253 	ld	d, -9 (ix)
    00001654 6B               [ 4] 4254 	ld	l, e
    00001655 62               [ 4] 4255 	ld	h, d
    00001656 29               [11] 4256 	add	hl, hl
    00001657 19               [11] 4257 	add	hl, de
    00001658 29               [11] 4258 	add	hl, hl
    00001659 29               [11] 4259 	add	hl, hl
    0000165A 29               [11] 4260 	add	hl, hl
    0000165B 19               [11] 4261 	add	hl, de
    0000165C 29               [11] 4262 	add	hl, hl
    0000165D 29               [11] 4263 	add	hl, hl
    0000165E C5               [11] 4264 	push	bc
    0000165F DD 5E F8         [19] 4265 	ld	e, -8 (ix)
    00001662 DD 56 F9         [19] 4266 	ld	d, -7 (ix)
    00001665 CDr00r00         [17] 4267 	call	__divuint
    00001668 C1               [10] 4268 	pop	bc
                                   4269 ;E:\Dropbox\FAUSTO\SVILUPPI\MSX\CODE\C\MSXgl\projects\soccerlgSCC/soccerlg_s8_b3.c:753: if (ratio < 20 || ratio > 80) g_Ball.Size = 2;
    00001669 7B               [ 4] 4270 	ld	a, e
    0000166A D6 14            [ 7] 4271 	sub	a, #0x14
    0000166C 7A               [ 4] 4272 	ld	a, d
    0000166D DE 00            [ 7] 4273 	sbc	a, #0x00
    0000166F 38 08            [12] 4274 	jr	C, 00178$
    00001671 3E 50            [ 7] 4275 	ld	a, #0x50
    00001673 BB               [ 4] 4276 	cp	a, e
    00001674 3E 00            [ 7] 4277 	ld	a, #0x00
    00001676 9A               [ 4] 4278 	sbc	a, d
    00001677 30 06            [12] 4279 	jr	NC, 00179$
    00001679                       4280 00178$:
    00001679 3E 02            [ 7] 4281 	ld	a, #0x02
    0000167B 02               [ 7] 4282 	ld	(bc), a
    0000167C C3r8Dr17         [10] 4283 	jp	00220$
    0000167F                       4284 00179$:
                                   4285 ;E:\Dropbox\FAUSTO\SVILUPPI\MSX\CODE\C\MSXgl\projects\soccerlgSCC/soccerlg_s8_b3.c:754: else g_Ball.Size = 3;
    0000167F 3E 03            [ 7] 4286 	ld	a, #0x03
    00001681 02               [ 7] 4287 	ld	(bc), a
    00001682 C3r8Dr17         [10] 4288 	jp	00220$
    00001685                       4289 00218$:
                                   4290 ;E:\Dropbox\FAUSTO\SVILUPPI\MSX\CODE\C\MSXgl\projects\soccerlgSCC/soccerlg_s8_b3.c:756: else if (g_Ball.ShotActive == 3) {
    00001685 7B               [ 4] 4291 	ld	a, e
    00001686 D6 03            [ 7] 4292 	sub	a, #0x03
    00001688 20 06            [12] 4293 	jr	NZ, 00215$
                                   4294 ;E:\Dropbox\FAUSTO\SVILUPPI\MSX\CODE\C\MSXgl\projects\soccerlgSCC/soccerlg_s8_b3.c:758: g_Ball.Size = 1;
    0000168A 3E 01            [ 7] 4295 	ld	a, #0x01
    0000168C 02               [ 7] 4296 	ld	(bc), a
    0000168D C3r8Dr17         [10] 4297 	jp	00220$
    00001690                       4298 00215$:
                                   4299 ;E:\Dropbox\FAUSTO\SVILUPPI\MSX\CODE\C\MSXgl\projects\soccerlgSCC/soccerlg_s8_b3.c:762: if (totalDist > 140) {
    00001690 DD 6E F8         [19] 4300 	ld	l, -8 (ix)
                                   4301 ;	spillPairReg hl
                                   4302 ;	spillPairReg hl
    00001693 DD 66 F9         [19] 4303 	ld	h, -7 (ix)
                                   4304 ;	spillPairReg hl
                                   4305 ;	spillPairReg hl
    00001696 3E 8C            [ 7] 4306 	ld	a, #0x8c
    00001698 BD               [ 4] 4307 	cp	a, l
    00001699 3E 00            [ 7] 4308 	ld	a, #0x00
    0000169B 9C               [ 4] 4309 	sbc	a, h
    0000169C 3E 00            [ 7] 4310 	ld	a, #0x00
    0000169E 17               [ 4] 4311 	rla
    0000169F 57               [ 4] 4312 	ld	d, a
                                   4313 ;E:\Dropbox\FAUSTO\SVILUPPI\MSX\CODE\C\MSXgl\projects\soccerlgSCC/soccerlg_s8_b3.c:760: else if (g_Ball.ShotActive == 1) {
    000016A0 1D               [ 4] 4314 	dec	e
    000016A1 20 57            [12] 4315 	jr	NZ, 00212$
                                   4316 ;E:\Dropbox\FAUSTO\SVILUPPI\MSX\CODE\C\MSXgl\projects\soccerlgSCC/soccerlg_s8_b3.c:762: if (totalDist > 140) {
    000016A3 7A               [ 4] 4317 	ld	a, d
    000016A4 B7               [ 4] 4318 	or	a, a
    000016A5 28 4D            [12] 4319 	jr	Z, 00191$
                                   4320 ;E:\Dropbox\FAUSTO\SVILUPPI\MSX\CODE\C\MSXgl\projects\soccerlgSCC/soccerlg_s8_b3.c:764: u16 ratio = (distCovered * 100) / totalDist;
    000016A7 DD 5E F6         [19] 4321 	ld	e, -10 (ix)
    000016AA DD 56 F7         [19] 4322 	ld	d, -9 (ix)
    000016AD 6B               [ 4] 4323 	ld	l, e
    000016AE 62               [ 4] 4324 	ld	h, d
    000016AF 29               [11] 4325 	add	hl, hl
    000016B0 19               [11] 4326 	add	hl, de
    000016B1 29               [11] 4327 	add	hl, hl
    000016B2 29               [11] 4328 	add	hl, hl
    000016B3 29               [11] 4329 	add	hl, hl
    000016B4 19               [11] 4330 	add	hl, de
    000016B5 29               [11] 4331 	add	hl, hl
    000016B6 29               [11] 4332 	add	hl, hl
    000016B7 C5               [11] 4333 	push	bc
    000016B8 DD 5E F8         [19] 4334 	ld	e, -8 (ix)
    000016BB DD 56 F9         [19] 4335 	ld	d, -7 (ix)
    000016BE CDr00r00         [17] 4336 	call	__divuint
    000016C1 C1               [10] 4337 	pop	bc
                                   4338 ;E:\Dropbox\FAUSTO\SVILUPPI\MSX\CODE\C\MSXgl\projects\soccerlgSCC/soccerlg_s8_b3.c:765: if (ratio < 15 || ratio > 85) g_Ball.Size = 2;
    000016C2 7B               [ 4] 4339 	ld	a, e
    000016C3 D6 0F            [ 7] 4340 	sub	a, #0x0f
    000016C5 7A               [ 4] 4341 	ld	a, d
    000016C6 DE 00            [ 7] 4342 	sbc	a, #0x00
    000016C8 38 08            [12] 4343 	jr	C, 00186$
    000016CA 3E 55            [ 7] 4344 	ld	a, #0x55
    000016CC BB               [ 4] 4345 	cp	a, e
    000016CD 3E 00            [ 7] 4346 	ld	a, #0x00
    000016CF 9A               [ 4] 4347 	sbc	a, d
    000016D0 30 06            [12] 4348 	jr	NC, 00187$
    000016D2                       4349 00186$:
    000016D2 3E 02            [ 7] 4350 	ld	a, #0x02
    000016D4 02               [ 7] 4351 	ld	(bc), a
    000016D5 C3r8Dr17         [10] 4352 	jp	00220$
    000016D8                       4353 00187$:
                                   4354 ;E:\Dropbox\FAUSTO\SVILUPPI\MSX\CODE\C\MSXgl\projects\soccerlgSCC/soccerlg_s8_b3.c:766: else if (ratio < 30 || ratio > 70) g_Ball.Size = 3;
    000016D8 7B               [ 4] 4355 	ld	a, e
    000016D9 D6 1E            [ 7] 4356 	sub	a, #0x1e
    000016DB 7A               [ 4] 4357 	ld	a, d
    000016DC DE 00            [ 7] 4358 	sbc	a, #0x00
    000016DE 38 08            [12] 4359 	jr	C, 00182$
    000016E0 3E 46            [ 7] 4360 	ld	a, #0x46
    000016E2 BB               [ 4] 4361 	cp	a, e
    000016E3 3E 00            [ 7] 4362 	ld	a, #0x00
    000016E5 9A               [ 4] 4363 	sbc	a, d
    000016E6 30 06            [12] 4364 	jr	NC, 00183$
    000016E8                       4365 00182$:
    000016E8 3E 03            [ 7] 4366 	ld	a, #0x03
    000016EA 02               [ 7] 4367 	ld	(bc), a
    000016EB C3r8Dr17         [10] 4368 	jp	00220$
    000016EE                       4369 00183$:
                                   4370 ;E:\Dropbox\FAUSTO\SVILUPPI\MSX\CODE\C\MSXgl\projects\soccerlgSCC/soccerlg_s8_b3.c:767: else g_Ball.Size = 5; // Size 5 = Impossible to reach
    000016EE 3E 05            [ 7] 4371 	ld	a, #0x05
    000016F0 02               [ 7] 4372 	ld	(bc), a
    000016F1 C3r8Dr17         [10] 4373 	jp	00220$
    000016F4                       4374 00191$:
                                   4375 ;E:\Dropbox\FAUSTO\SVILUPPI\MSX\CODE\C\MSXgl\projects\soccerlgSCC/soccerlg_s8_b3.c:770: g_Ball.Size = 2;
    000016F4 3E 02            [ 7] 4376 	ld	a, #0x02
    000016F6 02               [ 7] 4377 	ld	(bc), a
    000016F7 C3r8Dr17         [10] 4378 	jp	00220$
    000016FA                       4379 00212$:
                                   4380 ;E:\Dropbox\FAUSTO\SVILUPPI\MSX\CODE\C\MSXgl\projects\soccerlgSCC/soccerlg_s8_b3.c:775: if (totalDist > 140) {
    000016FA 7A               [ 4] 4381 	ld	a, d
    000016FB B7               [ 4] 4382 	or	a, a
    000016FC 28 4D            [12] 4383 	jr	Z, 00209$
                                   4384 ;E:\Dropbox\FAUSTO\SVILUPPI\MSX\CODE\C\MSXgl\projects\soccerlgSCC/soccerlg_s8_b3.c:777: u16 ratio = (distCovered * 100) / totalDist;
    000016FE DD 5E F6         [19] 4385 	ld	e, -10 (ix)
    00001701 DD 56 F7         [19] 4386 	ld	d, -9 (ix)
    00001704 6B               [ 4] 4387 	ld	l, e
    00001705 62               [ 4] 4388 	ld	h, d
    00001706 29               [11] 4389 	add	hl, hl
    00001707 19               [11] 4390 	add	hl, de
    00001708 29               [11] 4391 	add	hl, hl
    00001709 29               [11] 4392 	add	hl, hl
    0000170A 29               [11] 4393 	add	hl, hl
    0000170B 19               [11] 4394 	add	hl, de
    0000170C 29               [11] 4395 	add	hl, hl
    0000170D 29               [11] 4396 	add	hl, hl
    0000170E C5               [11] 4397 	push	bc
    0000170F DD 5E F8         [19] 4398 	ld	e, -8 (ix)
    00001712 DD 56 F9         [19] 4399 	ld	d, -7 (ix)
    00001715 CDr00r00         [17] 4400 	call	__divuint
    00001718 C1               [10] 4401 	pop	bc
                                   4402 ;E:\Dropbox\FAUSTO\SVILUPPI\MSX\CODE\C\MSXgl\projects\soccerlgSCC/soccerlg_s8_b3.c:778: if (ratio < 15 || ratio > 85) g_Ball.Size = 2;
    00001719 7B               [ 4] 4403 	ld	a, e
    0000171A D6 0F            [ 7] 4404 	sub	a, #0x0f
    0000171C 7A               [ 4] 4405 	ld	a, d
    0000171D DE 00            [ 7] 4406 	sbc	a, #0x00
    0000171F 38 08            [12] 4407 	jr	C, 00197$
    00001721 3E 55            [ 7] 4408 	ld	a, #0x55
    00001723 BB               [ 4] 4409 	cp	a, e
    00001724 3E 00            [ 7] 4410 	ld	a, #0x00
    00001726 9A               [ 4] 4411 	sbc	a, d
    00001727 30 06            [12] 4412 	jr	NC, 00198$
    00001729                       4413 00197$:
    00001729 3E 02            [ 7] 4414 	ld	a, #0x02
    0000172B 02               [ 7] 4415 	ld	(bc), a
    0000172C C3r8Dr17         [10] 4416 	jp	00220$
    0000172F                       4417 00198$:
                                   4418 ;E:\Dropbox\FAUSTO\SVILUPPI\MSX\CODE\C\MSXgl\projects\soccerlgSCC/soccerlg_s8_b3.c:779: else if (ratio < 30 || ratio > 70) g_Ball.Size = 3;
    0000172F 7B               [ 4] 4419 	ld	a, e
    00001730 D6 1E            [ 7] 4420 	sub	a, #0x1e
    00001732 7A               [ 4] 4421 	ld	a, d
    00001733 DE 00            [ 7] 4422 	sbc	a, #0x00
    00001735 38 08            [12] 4423 	jr	C, 00193$
    00001737 3E 46            [ 7] 4424 	ld	a, #0x46
    00001739 BB               [ 4] 4425 	cp	a, e
    0000173A 3E 00            [ 7] 4426 	ld	a, #0x00
    0000173C 9A               [ 4] 4427 	sbc	a, d
    0000173D 30 06            [12] 4428 	jr	NC, 00194$
    0000173F                       4429 00193$:
    0000173F 3E 03            [ 7] 4430 	ld	a, #0x03
    00001741 02               [ 7] 4431 	ld	(bc), a
    00001742 C3r8Dr17         [10] 4432 	jp	00220$
    00001745                       4433 00194$:
                                   4434 ;E:\Dropbox\FAUSTO\SVILUPPI\MSX\CODE\C\MSXgl\projects\soccerlgSCC/soccerlg_s8_b3.c:780: else g_Ball.Size = 5; // Size 5 = Impossible to reach
    00001745 3E 05            [ 7] 4435 	ld	a, #0x05
    00001747 02               [ 7] 4436 	ld	(bc), a
    00001748 C3r8Dr17         [10] 4437 	jp	00220$
    0000174B                       4438 00209$:
                                   4439 ;E:\Dropbox\FAUSTO\SVILUPPI\MSX\CODE\C\MSXgl\projects\soccerlgSCC/soccerlg_s8_b3.c:782: else if (totalDist > 40) {
    0000174B 3E 28            [ 7] 4440 	ld	a, #0x28
    0000174D BD               [ 4] 4441 	cp	a, l
    0000174E 3E 00            [ 7] 4442 	ld	a, #0x00
    00001750 9C               [ 4] 4443 	sbc	a, h
    00001751 30 37            [12] 4444 	jr	NC, 00206$
                                   4445 ;E:\Dropbox\FAUSTO\SVILUPPI\MSX\CODE\C\MSXgl\projects\soccerlgSCC/soccerlg_s8_b3.c:783: u16 ratio = (distCovered * 100) / totalDist;
    00001753 DD 5E F6         [19] 4446 	ld	e, -10 (ix)
    00001756 DD 56 F7         [19] 4447 	ld	d, -9 (ix)
    00001759 6B               [ 4] 4448 	ld	l, e
    0000175A 62               [ 4] 4449 	ld	h, d
    0000175B 29               [11] 4450 	add	hl, hl
    0000175C 19               [11] 4451 	add	hl, de
    0000175D 29               [11] 4452 	add	hl, hl
    0000175E 29               [11] 4453 	add	hl, hl
    0000175F 29               [11] 4454 	add	hl, hl
    00001760 19               [11] 4455 	add	hl, de
    00001761 29               [11] 4456 	add	hl, hl
    00001762 29               [11] 4457 	add	hl, hl
    00001763 C5               [11] 4458 	push	bc
    00001764 DD 5E F8         [19] 4459 	ld	e, -8 (ix)
    00001767 DD 56 F9         [19] 4460 	ld	d, -7 (ix)
    0000176A CDr00r00         [17] 4461 	call	__divuint
    0000176D C1               [10] 4462 	pop	bc
                                   4463 ;E:\Dropbox\FAUSTO\SVILUPPI\MSX\CODE\C\MSXgl\projects\soccerlgSCC/soccerlg_s8_b3.c:784: if (ratio < 15 || ratio > 85) g_Ball.Size = 2;
    0000176E 7B               [ 4] 4464 	ld	a, e
    0000176F D6 0F            [ 7] 4465 	sub	a, #0x0f
    00001771 7A               [ 4] 4466 	ld	a, d
    00001772 DE 00            [ 7] 4467 	sbc	a, #0x00
    00001774 38 08            [12] 4468 	jr	C, 00201$
    00001776 3E 55            [ 7] 4469 	ld	a, #0x55
    00001778 BB               [ 4] 4470 	cp	a, e
    00001779 3E 00            [ 7] 4471 	ld	a, #0x00
    0000177B 9A               [ 4] 4472 	sbc	a, d
    0000177C 30 06            [12] 4473 	jr	NC, 00202$
    0000177E                       4474 00201$:
    0000177E 3E 02            [ 7] 4475 	ld	a, #0x02
    00001780 02               [ 7] 4476 	ld	(bc), a
    00001781 C3r8Dr17         [10] 4477 	jp	00220$
    00001784                       4478 00202$:
                                   4479 ;E:\Dropbox\FAUSTO\SVILUPPI\MSX\CODE\C\MSXgl\projects\soccerlgSCC/soccerlg_s8_b3.c:785: else g_Ball.Size = 3;
    00001784 3E 03            [ 7] 4480 	ld	a, #0x03
    00001786 02               [ 7] 4481 	ld	(bc), a
    00001787 C3r8Dr17         [10] 4482 	jp	00220$
    0000178A                       4483 00206$:
                                   4484 ;E:\Dropbox\FAUSTO\SVILUPPI\MSX\CODE\C\MSXgl\projects\soccerlgSCC/soccerlg_s8_b3.c:787: g_Ball.Size = 2;
    0000178A 3E 02            [ 7] 4485 	ld	a, #0x02
    0000178C 02               [ 7] 4486 	ld	(bc), a
    0000178D                       4487 00220$:
                                   4488 ;E:\Dropbox\FAUSTO\SVILUPPI\MSX\CODE\C\MSXgl\projects\soccerlgSCC/soccerlg_s8_b3.c:791: }
    0000178D DD F9            [10] 4489 	ld	sp, ix
    0000178F DD E1            [14] 4490 	pop	ix
    00001791 C9               [10] 4491 	ret
                                   4492 ;E:\Dropbox\FAUSTO\SVILUPPI\MSX\CODE\C\MSXgl\projects\soccerlgSCC/soccerlg_s8_b3.c:793: void TickActiveFieldZone(){
                                   4493 ;	---------------------------------
                                   4494 ; Function TickActiveFieldZone
                                   4495 ; ---------------------------------
    00001792                       4496 _TickActiveFieldZone::
    00001792 DD E5            [15] 4497 	push	ix
    00001794 DD 21 00 00      [14] 4498 	ld	ix,#0
    00001798 DD 39            [15] 4499 	add	ix,sp
    0000179A 21 FA FF         [10] 4500 	ld	hl, #-6
    0000179D 39               [11] 4501 	add	hl, sp
    0000179E F9               [ 6] 4502 	ld	sp, hl
                                   4503 ;E:\Dropbox\FAUSTO\SVILUPPI\MSX\CODE\C\MSXgl\projects\soccerlgSCC/soccerlg_s8_b3.c:796: if (g_FieldScrollingActionInProgress != NO_VALUE) return;
    0000179F 3Ar00r00         [13] 4504 	ld	a, (_g_FieldScrollingActionInProgress+0)
    000017A2 3C               [ 4] 4505 	inc	a
    000017A3 C2r43r19         [10] 4506 	jp	NZ,00136$
                                   4507 ;E:\Dropbox\FAUSTO\SVILUPPI\MSX\CODE\C\MSXgl\projects\soccerlgSCC/soccerlg_s8_b3.c:800: if (g_MatchStatus == MATCH_IN_ACTION || g_MatchStatus == MATCH_BALL_ON_GOALKEEPER || g_MatchStatus == MATCH_BEFORE_KICK_OFF) {
    000017A6 3Ar00r00         [13] 4508 	ld	a, (_g_MatchStatus+0)
    000017A9 3D               [ 4] 4509 	dec	a
    000017AA 3E 01            [ 7] 4510 	ld	a, #0x01
    000017AC 28 01            [12] 4511 	jr	Z, 00233$
    000017AE AF               [ 4] 4512 	xor	a, a
    000017AF                       4513 00233$:
    000017AF 4F               [ 4] 4514 	ld	c, a
    000017B0 3Ar00r00         [13] 4515 	ld	a,(_g_MatchStatus+0)
    000017B3 FE 0C            [ 7] 4516 	cp	a,#0x0c
    000017B5 28 09            [12] 4517 	jr	Z, 00132$
    000017B7 D6 0D            [ 7] 4518 	sub	a, #0x0d
    000017B9 28 05            [12] 4519 	jr	Z, 00132$
    000017BB 79               [ 4] 4520 	ld	a, c
    000017BC B7               [ 4] 4521 	or	a, a
    000017BD CAr3Br19         [10] 4522 	jp	Z, 00133$
    000017C0                       4523 00132$:
                                   4524 ;E:\Dropbox\FAUSTO\SVILUPPI\MSX\CODE\C\MSXgl\projects\soccerlgSCC/soccerlg_s8_b3.c:804: i16 targetY = (i16)g_Ball.Y - 106;
    000017C0 2Ar00r00         [16] 4525 	ld	hl, (#_g_Ball + 0)
    000017C3 11 96 FF         [10] 4526 	ld	de, #0xff96
    000017C6 19               [11] 4527 	add	hl, de
    000017C7 EB               [ 4] 4528 	ex	de,hl
                                   4529 ;E:\Dropbox\FAUSTO\SVILUPPI\MSX\CODE\C\MSXgl\projects\soccerlgSCC/soccerlg_s8_b3.c:807: if (targetY < FIELD_TOP_Y) targetY = FIELD_TOP_Y;
    000017C8 6A               [ 4] 4530 	ld	l, d
                                   4531 ;	spillPairReg hl
                                   4532 ;	spillPairReg hl
    000017C9 CB 7D            [ 8] 4533 	bit	7, l
    000017CB 28 03            [12] 4534 	jr	Z, 00104$
    000017CD 11 00 00         [10] 4535 	ld	de, #0x0000
    000017D0                       4536 00104$:
                                   4537 ;E:\Dropbox\FAUSTO\SVILUPPI\MSX\CODE\C\MSXgl\projects\soccerlgSCC/soccerlg_s8_b3.c:808: if (targetY > FIELD_BOTTOM_Y) targetY = FIELD_BOTTOM_Y;
    000017D0 43               [ 4] 4538 	ld	b, e
    000017D1 6A               [ 4] 4539 	ld	l, d
                                   4540 ;	spillPairReg hl
                                   4541 ;	spillPairReg hl
    000017D2 3E 18            [ 7] 4542 	ld	a, #0x18
    000017D4 B8               [ 4] 4543 	cp	a, b
    000017D5 3E 01            [ 7] 4544 	ld	a, #0x01
    000017D7 9D               [ 4] 4545 	sbc	a, l
    000017D8 E2rDDr17         [10] 4546 	jp	PO, 00236$
    000017DB EE 80            [ 7] 4547 	xor	a, #0x80
    000017DD                       4548 00236$:
    000017DD F2rE3r17         [10] 4549 	jp	P, 00106$
    000017E0 11 18 01         [10] 4550 	ld	de, #0x0118
    000017E3                       4551 00106$:
                                   4552 ;E:\Dropbox\FAUSTO\SVILUPPI\MSX\CODE\C\MSXgl\projects\soccerlgSCC/soccerlg_s8_b3.c:811: i16 diff = targetY - (i16)g_FieldCurrentYPosition;
    000017E3 2Ar00r00         [16] 4553 	ld	hl, (_g_FieldCurrentYPosition)
    000017E6 E3               [19] 4554 	ex	(sp), hl
    000017E7 7B               [ 4] 4555 	ld	a, e
    000017E8 DD 96 FA         [19] 4556 	sub	a, -6 (ix)
    000017EB 47               [ 4] 4557 	ld	b, a
    000017EC 7A               [ 4] 4558 	ld	a, d
    000017ED DD 9E FB         [19] 4559 	sbc	a, -5 (ix)
    000017F0 DD 70 FC         [19] 4560 	ld	-4 (ix), b
    000017F3 DD 77 FD         [19] 4561 	ld	-3 (ix), a
                                   4562 ;E:\Dropbox\FAUSTO\SVILUPPI\MSX\CODE\C\MSXgl\projects\soccerlgSCC/soccerlg_s8_b3.c:814: if (g_MatchStatus == MATCH_BEFORE_KICK_OFF && diff > -2 && diff < 2) {
    000017F6 DD 7E FC         [19] 4563 	ld	a, -4 (ix)
    000017F9 DD 77 FE         [19] 4564 	ld	-2 (ix), a
    000017FC DD 7E FD         [19] 4565 	ld	a, -3 (ix)
    000017FF DD 77 FF         [19] 4566 	ld	-1 (ix), a
    00001802 79               [ 4] 4567 	ld	a, c
    00001803 B7               [ 4] 4568 	or	a, a
    00001804 28 62            [12] 4569 	jr	Z, 00114$
    00001806 3E FE            [ 7] 4570 	ld	a, #0xfe
    00001808 DD BE FC         [19] 4571 	cp	a, -4 (ix)
    0000180B 3E FF            [ 7] 4572 	ld	a, #0xff
    0000180D DD 9E FD         [19] 4573 	sbc	a, -3 (ix)
    00001810 E2r15r18         [10] 4574 	jp	PO, 00237$
    00001813 EE 80            [ 7] 4575 	xor	a, #0x80
    00001815                       4576 00237$:
    00001815 F2r68r18         [10] 4577 	jp	P, 00114$
    00001818 DD 7E FE         [19] 4578 	ld	a, -2 (ix)
    0000181B D6 02            [ 7] 4579 	sub	a, #0x02
    0000181D DD 7E FF         [19] 4580 	ld	a, -1 (ix)
    00001820 17               [ 4] 4581 	rla
    00001821 3F               [ 4] 4582 	ccf
    00001822 1F               [ 4] 4583 	rra
    00001823 DE 80            [ 7] 4584 	sbc	a, #0x80
    00001825 30 41            [12] 4585 	jr	NC, 00114$
                                   4586 ;E:\Dropbox\FAUSTO\SVILUPPI\MSX\CODE\C\MSXgl\projects\soccerlgSCC/soccerlg_s8_b3.c:815: g_FieldCurrentYPosition = targetY;
    00001827 ED 53r00r00      [20] 4587 	ld	(_g_FieldCurrentYPosition), de
                                   4588 ;E:\Dropbox\FAUSTO\SVILUPPI\MSX\CODE\C\MSXgl\projects\soccerlgSCC/soccerlg_s8_b3.c:817: if (g_FieldCurrentYPosition < 80) g_ActiveFieldZone = FIELD_NORTH_ZONE;
    0000182B 3Ar00r00         [13] 4589 	ld	a, (_g_FieldCurrentYPosition+0)
    0000182E D6 50            [ 7] 4590 	sub	a, #0x50
    00001830 3Ar01r00         [13] 4591 	ld	a, (_g_FieldCurrentYPosition+1)
    00001833 17               [ 4] 4592 	rla
    00001834 3F               [ 4] 4593 	ccf
    00001835 1F               [ 4] 4594 	rra
    00001836 DE 80            [ 7] 4595 	sbc	a, #0x80
    00001838 30 08            [12] 4596 	jr	NC, 00111$
    0000183A 21r00r00         [10] 4597 	ld	hl, #_g_ActiveFieldZone
    0000183D 36 00            [10] 4598 	ld	(hl), #0x00
    0000183F C3r43r19         [10] 4599 	jp	00136$
    00001842                       4600 00111$:
                                   4601 ;E:\Dropbox\FAUSTO\SVILUPPI\MSX\CODE\C\MSXgl\projects\soccerlgSCC/soccerlg_s8_b3.c:818: else if (g_FieldCurrentYPosition > 170) g_ActiveFieldZone = FIELD_SOUTH_ZONE;
    00001842 3E AA            [ 7] 4602 	ld	a, #0xaa
    00001844 FD 21r00r00      [14] 4603 	ld	iy, #_g_FieldCurrentYPosition
    00001848 FD BE 00         [19] 4604 	cp	a, 0 (iy)
    0000184B 3E 00            [ 7] 4605 	ld	a, #0x00
    0000184D FD 9E 01         [19] 4606 	sbc	a, 1 (iy)
    00001850 E2r55r18         [10] 4607 	jp	PO, 00238$
    00001853 EE 80            [ 7] 4608 	xor	a, #0x80
    00001855                       4609 00238$:
    00001855 F2r60r18         [10] 4610 	jp	P, 00108$
    00001858 21r00r00         [10] 4611 	ld	hl, #_g_ActiveFieldZone
    0000185B 36 02            [10] 4612 	ld	(hl), #0x02
    0000185D C3r43r19         [10] 4613 	jp	00136$
    00001860                       4614 00108$:
                                   4615 ;E:\Dropbox\FAUSTO\SVILUPPI\MSX\CODE\C\MSXgl\projects\soccerlgSCC/soccerlg_s8_b3.c:819: else g_ActiveFieldZone = FIELD_CENTRAL_ZONE;
    00001860 21r00r00         [10] 4616 	ld	hl, #_g_ActiveFieldZone
    00001863 36 01            [10] 4617 	ld	(hl), #0x01
                                   4618 ;E:\Dropbox\FAUSTO\SVILUPPI\MSX\CODE\C\MSXgl\projects\soccerlgSCC/soccerlg_s8_b3.c:820: return;
    00001865 C3r43r19         [10] 4619 	jp	00136$
    00001868                       4620 00114$:
                                   4621 ;E:\Dropbox\FAUSTO\SVILUPPI\MSX\CODE\C\MSXgl\projects\soccerlgSCC/soccerlg_s8_b3.c:824: if (diff > 6 || diff < -6) {
    00001868 3E 06            [ 7] 4622 	ld	a, #0x06
    0000186A DD BE FE         [19] 4623 	cp	a, -2 (ix)
    0000186D 3E 00            [ 7] 4624 	ld	a, #0x00
    0000186F DD 9E FF         [19] 4625 	sbc	a, -1 (ix)
    00001872 E2r77r18         [10] 4626 	jp	PO, 00239$
    00001875 EE 80            [ 7] 4627 	xor	a, #0x80
    00001877                       4628 00239$:
    00001877 FAr89r18         [10] 4629 	jp	M, 00119$
    0000187A DD 7E FC         [19] 4630 	ld	a, -4 (ix)
    0000187D D6 FA            [ 7] 4631 	sub	a, #0xfa
    0000187F DD 7E FD         [19] 4632 	ld	a, -3 (ix)
    00001882 17               [ 4] 4633 	rla
    00001883 3F               [ 4] 4634 	ccf
    00001884 1F               [ 4] 4635 	rra
    00001885 DE 7F            [ 7] 4636 	sbc	a, #0x7f
    00001887 30 46            [12] 4637 	jr	NC, 00120$
    00001889                       4638 00119$:
                                   4639 ;E:\Dropbox\FAUSTO\SVILUPPI\MSX\CODE\C\MSXgl\projects\soccerlgSCC/soccerlg_s8_b3.c:825: i16 move = diff / 8;
    00001889 DD 6E FE         [19] 4640 	ld	l, -2 (ix)
                                   4641 ;	spillPairReg hl
                                   4642 ;	spillPairReg hl
    0000188C DD 66 FF         [19] 4643 	ld	h, -1 (ix)
                                   4644 ;	spillPairReg hl
                                   4645 ;	spillPairReg hl
    0000188F DD CB FF 7E      [20] 4646 	bit	7, -1 (ix)
    00001893 28 0A            [12] 4647 	jr	Z, 00138$
    00001895 DD 6E FE         [19] 4648 	ld	l, -2 (ix)
    00001898 DD 66 FF         [19] 4649 	ld	h, -1 (ix)
    0000189B 11 07 00         [10] 4650 	ld	de, #0x0007
    0000189E 19               [11] 4651 	add	hl, de
    0000189F                       4652 00138$:
    0000189F CB 2C            [ 8] 4653 	sra	h
    000018A1 CB 1D            [ 8] 4654 	rr	l
    000018A3 CB 2C            [ 8] 4655 	sra	h
    000018A5 CB 1D            [ 8] 4656 	rr	l
    000018A7 CB 2C            [ 8] 4657 	sra	h
    000018A9 CB 1D            [ 8] 4658 	rr	l
    000018AB EB               [ 4] 4659 	ex	de, hl
    000018AC 4B               [ 4] 4660 	ld	c, e
                                   4661 ;E:\Dropbox\FAUSTO\SVILUPPI\MSX\CODE\C\MSXgl\projects\soccerlgSCC/soccerlg_s8_b3.c:827: if (move == 0) move = (diff > 0) ? 1 : -1;
    000018AD 7A               [ 4] 4662 	ld	a,d
    000018AE 47               [ 4] 4663 	ld	b,a
    000018AF B3               [ 4] 4664 	or	a,e
    000018B0 20 17            [12] 4665 	jr	NZ, 00118$
    000018B2 DD BE FE         [19] 4666 	cp	a, -2 (ix)
    000018B5 DD 9E FF         [19] 4667 	sbc	a, -1 (ix)
    000018B8 E2rBDr18         [10] 4668 	jp	PO, 00240$
    000018BB EE 80            [ 7] 4669 	xor	a, #0x80
    000018BD                       4670 00240$:
    000018BD F2rC6r18         [10] 4671 	jp	P, 00139$
    000018C0 01 01 00         [10] 4672 	ld	bc, #0x0001
    000018C3 C3rC9r18         [10] 4673 	jp	00140$
    000018C6                       4674 00139$:
    000018C6 01 FF FF         [10] 4675 	ld	bc, #0xffff
    000018C9                       4676 00140$:
    000018C9                       4677 00118$:
                                   4678 ;E:\Dropbox\FAUSTO\SVILUPPI\MSX\CODE\C\MSXgl\projects\soccerlgSCC/soccerlg_s8_b3.c:829: g_FieldCurrentYPosition += move;
    000018C9 E1               [10] 4679 	pop	hl
    000018CA E5               [11] 4680 	push	hl
    000018CB 09               [11] 4681 	add	hl, bc
    000018CC 22r00r00         [16] 4682 	ld	(_g_FieldCurrentYPosition), hl
    000018CF                       4683 00120$:
                                   4684 ;E:\Dropbox\FAUSTO\SVILUPPI\MSX\CODE\C\MSXgl\projects\soccerlgSCC/soccerlg_s8_b3.c:833: if (g_FieldCurrentYPosition < FIELD_TOP_Y) g_FieldCurrentYPosition = FIELD_TOP_Y;
    000018CF 3Ar01r00         [13] 4685 	ld	a, (_g_FieldCurrentYPosition+1)
    000018D2 CB 7F            [ 8] 4686 	bit	7, a
    000018D4 28 06            [12] 4687 	jr	Z, 00123$
    000018D6 21 00 00         [10] 4688 	ld	hl, #0x0000
    000018D9 22r00r00         [16] 4689 	ld	(_g_FieldCurrentYPosition), hl
    000018DC                       4690 00123$:
                                   4691 ;E:\Dropbox\FAUSTO\SVILUPPI\MSX\CODE\C\MSXgl\projects\soccerlgSCC/soccerlg_s8_b3.c:834: if (g_FieldCurrentYPosition > FIELD_BOTTOM_Y) g_FieldCurrentYPosition = FIELD_BOTTOM_Y;
    000018DC 3E 18            [ 7] 4692 	ld	a, #0x18
    000018DE FD 21r00r00      [14] 4693 	ld	iy, #_g_FieldCurrentYPosition
    000018E2 FD BE 00         [19] 4694 	cp	a, 0 (iy)
    000018E5 3E 01            [ 7] 4695 	ld	a, #0x01
    000018E7 FD 9E 01         [19] 4696 	sbc	a, 1 (iy)
    000018EA E2rEFr18         [10] 4697 	jp	PO, 00241$
    000018ED EE 80            [ 7] 4698 	xor	a, #0x80
    000018EF                       4699 00241$:
    000018EF F2rF8r18         [10] 4700 	jp	P, 00125$
    000018F2 21 18 01         [10] 4701 	ld	hl, #0x0118
    000018F5 22r00r00         [16] 4702 	ld	(_g_FieldCurrentYPosition), hl
    000018F8                       4703 00125$:
                                   4704 ;E:\Dropbox\FAUSTO\SVILUPPI\MSX\CODE\C\MSXgl\projects\soccerlgSCC/soccerlg_s8_b3.c:840: if (g_FieldCurrentYPosition < 80) g_ActiveFieldZone = FIELD_NORTH_ZONE;
    000018F8 3Ar00r00         [13] 4705 	ld	a, (_g_FieldCurrentYPosition+0)
    000018FB D6 50            [ 7] 4706 	sub	a, #0x50
    000018FD 3Ar01r00         [13] 4707 	ld	a, (_g_FieldCurrentYPosition+1)
    00001900 17               [ 4] 4708 	rla
    00001901 3F               [ 4] 4709 	ccf
    00001902 1F               [ 4] 4710 	rra
    00001903 DE 80            [ 7] 4711 	sbc	a, #0x80
    00001905 30 0B            [12] 4712 	jr	NC, 00130$
    00001907 FD 21r00r00      [14] 4713 	ld	iy, #_g_ActiveFieldZone
    0000190B FD 36 00 00      [19] 4714 	ld	0 (iy), #0x00
    0000190F C3r3Br19         [10] 4715 	jp	00133$
    00001912                       4716 00130$:
                                   4717 ;E:\Dropbox\FAUSTO\SVILUPPI\MSX\CODE\C\MSXgl\projects\soccerlgSCC/soccerlg_s8_b3.c:841: else if (g_FieldCurrentYPosition > 170) g_ActiveFieldZone = FIELD_SOUTH_ZONE;
    00001912 3E AA            [ 7] 4718 	ld	a, #0xaa
    00001914 FD 21r00r00      [14] 4719 	ld	iy, #_g_FieldCurrentYPosition
    00001918 FD BE 00         [19] 4720 	cp	a, 0 (iy)
    0000191B 3E 00            [ 7] 4721 	ld	a, #0x00
    0000191D FD 9E 01         [19] 4722 	sbc	a, 1 (iy)
    00001920 E2r25r19         [10] 4723 	jp	PO, 00242$
    00001923 EE 80            [ 7] 4724 	xor	a, #0x80
    00001925                       4725 00242$:
    00001925 F2r33r19         [10] 4726 	jp	P, 00127$
    00001928 FD 21r00r00      [14] 4727 	ld	iy, #_g_ActiveFieldZone
    0000192C FD 36 00 02      [19] 4728 	ld	0 (iy), #0x02
    00001930 C3r3Br19         [10] 4729 	jp	00133$
    00001933                       4730 00127$:
                                   4731 ;E:\Dropbox\FAUSTO\SVILUPPI\MSX\CODE\C\MSXgl\projects\soccerlgSCC/soccerlg_s8_b3.c:842: else g_ActiveFieldZone = FIELD_CENTRAL_ZONE;
    00001933 FD 21r00r00      [14] 4732 	ld	iy, #_g_ActiveFieldZone
    00001937 FD 36 00 01      [19] 4733 	ld	0 (iy), #0x01
    0000193B                       4734 00133$:
                                   4735 ;E:\Dropbox\FAUSTO\SVILUPPI\MSX\CODE\C\MSXgl\projects\soccerlgSCC/soccerlg_s8_b3.c:845: g_Ball.PreviousY=g_Ball.Y;
    0000193B ED 4Br00r00      [20] 4736 	ld	bc, (#_g_Ball + 0)
    0000193F ED 43r07r00      [20] 4737 	ld	((_g_Ball + 7)), bc
    00001943                       4738 00136$:
                                   4739 ;E:\Dropbox\FAUSTO\SVILUPPI\MSX\CODE\C\MSXgl\projects\soccerlgSCC/soccerlg_s8_b3.c:846: }
    00001943 DD F9            [10] 4740 	ld	sp, ix
    00001945 DD E1            [14] 4741 	pop	ix
    00001947 C9               [10] 4742 	ret
                                   4743 ;E:\Dropbox\FAUSTO\SVILUPPI\MSX\CODE\C\MSXgl\projects\soccerlgSCC/soccerlg_s8_b3.c:847: void TickUpdateTime(){
                                   4744 ;	---------------------------------
                                   4745 ; Function TickUpdateTime
                                   4746 ; ---------------------------------
    00001948                       4747 _TickUpdateTime::
                                   4748 ;E:\Dropbox\FAUSTO\SVILUPPI\MSX\CODE\C\MSXgl\projects\soccerlgSCC/soccerlg_s8_b3.c:848: if(g_MatchStatus==MATCH_IN_ACTION){
    00001948 3Ar00r00         [13] 4749 	ld	a, (_g_MatchStatus+0)
    0000194B D6 0C            [ 7] 4750 	sub	a, #0x0c
    0000194D 20 3C            [12] 4751 	jr	NZ, 00106$
                                   4752 ;E:\Dropbox\FAUSTO\SVILUPPI\MSX\CODE\C\MSXgl\projects\soccerlgSCC/soccerlg_s8_b3.c:849: if(g_TimeCounter!=g_LastTimeCounter){
    0000194F 3Ar00r00         [13] 4753 	ld	a, (_g_TimeCounter+0)
    00001952 FD 21r00r00      [14] 4754 	ld	iy, #_g_LastTimeCounter
    00001956 FD 96 00         [19] 4755 	sub	a, 0 (iy)
    00001959 20 08            [12] 4756 	jr	NZ, 00140$
    0000195B 3Ar01r00         [13] 4757 	ld	a, (_g_TimeCounter+1)
    0000195E FD 96 01         [19] 4758 	sub	a, 1 (iy)
    00001961 28 28            [12] 4759 	jr	Z, 00106$
    00001963                       4760 00140$:
                                   4761 ;E:\Dropbox\FAUSTO\SVILUPPI\MSX\CODE\C\MSXgl\projects\soccerlgSCC/soccerlg_s8_b3.c:850: g_LastTimeCounter=g_TimeCounter;
    00001963 2Ar00r00         [16] 4762 	ld	hl, (_g_TimeCounter)
    00001966 22r00r00         [16] 4763 	ld	(_g_LastTimeCounter), hl
                                   4764 ;E:\Dropbox\FAUSTO\SVILUPPI\MSX\CODE\C\MSXgl\projects\soccerlgSCC/soccerlg_s8_b3.c:851: g_SecondsToEndOfMatch--;
    00001969 21r00r00         [10] 4765 	ld	hl, #_g_SecondsToEndOfMatch
    0000196C 35               [11] 4766 	dec	(hl)
                                   4767 ;E:\Dropbox\FAUSTO\SVILUPPI\MSX\CODE\C\MSXgl\projects\soccerlgSCC/soccerlg_s8_b3.c:852: CallFnc_VOID(9,ShowHeaderInfo);
    0000196D 11r00r00         [10] 4768 	ld	de, #_ShowHeaderInfo
    00001970 3E 09            [ 7] 4769 	ld	a, #0x09
    00001972 CDr00r00         [17] 4770 	call	_CallFnc_VOID
                                   4771 ;E:\Dropbox\FAUSTO\SVILUPPI\MSX\CODE\C\MSXgl\projects\soccerlgSCC/soccerlg_s8_b3.c:853: if(g_SecondsToEndOfMatch==0){
    00001975 3Ar00r00         [13] 4772 	ld	a, (_g_SecondsToEndOfMatch+0)
    00001978 B7               [ 4] 4773 	or	a, a
    00001979 20 10            [12] 4774 	jr	NZ, 00106$
                                   4775 ;E:\Dropbox\FAUSTO\SVILUPPI\MSX\CODE\C\MSXgl\projects\soccerlgSCC/soccerlg_s8_b3.c:854: YSCC_Stop();
    0000197B CDr00r00         [17] 4776 	call	_YSCC_Stop
                                   4777 ;E:\Dropbox\FAUSTO\SVILUPPI\MSX\CODE\C\MSXgl\projects\soccerlgSCC/soccerlg_s8_b3.c:855: PlayPCM(PCM_REFEREER);
    0000197E 3E 05            [ 7] 4778 	ld	a, #0x05
    00001980 CDr00r00         [17] 4779 	call	_PlayPCM
                                   4780 ;E:\Dropbox\FAUSTO\SVILUPPI\MSX\CODE\C\MSXgl\projects\soccerlgSCC/soccerlg_s8_b3.c:856: CallFnc_VOID(11,TimeUp);
    00001983 11r00r00         [10] 4781 	ld	de, #_TimeUp
    00001986 3E 0B            [ 7] 4782 	ld	a, #0x0b
    00001988 CDr00r00         [17] 4783 	call	_CallFnc_VOID
    0000198B                       4784 00106$:
                                   4785 ;E:\Dropbox\FAUSTO\SVILUPPI\MSX\CODE\C\MSXgl\projects\soccerlgSCC/soccerlg_s8_b3.c:860: if(g_Timer!=NO_VALUE){
    0000198B 3Ar00r00         [13] 4786 	ld	a, (_g_Timer+0)
    0000198E 3C               [ 4] 4787 	inc	a
    0000198F C8               [11] 4788 	ret	Z
                                   4789 ;E:\Dropbox\FAUSTO\SVILUPPI\MSX\CODE\C\MSXgl\projects\soccerlgSCC/soccerlg_s8_b3.c:861: if(g_FrameCounter==38){
    00001990 3Ar00r00         [13] 4790 	ld	a, (_g_FrameCounter+0)
    00001993 D6 26            [ 7] 4791 	sub	a, #0x26
    00001995 C0               [11] 4792 	ret	NZ
                                   4793 ;E:\Dropbox\FAUSTO\SVILUPPI\MSX\CODE\C\MSXgl\projects\soccerlgSCC/soccerlg_s8_b3.c:862: g_Timer++;
    00001996 21r00r00         [10] 4794 	ld	hl, #_g_Timer
    00001999 34               [11] 4795 	inc	(hl)
                                   4796 ;E:\Dropbox\FAUSTO\SVILUPPI\MSX\CODE\C\MSXgl\projects\soccerlgSCC/soccerlg_s8_b3.c:866: }
    0000199A C9               [10] 4797 	ret
                                   4798 ;E:\Dropbox\FAUSTO\SVILUPPI\MSX\CODE\C\MSXgl\projects\soccerlgSCC/soccerlg_s8_b3.c:867: void BallInGoal(u8 teamScored){
                                   4799 ;	---------------------------------
                                   4800 ; Function BallInGoal
                                   4801 ; ---------------------------------
    0000199B                       4802 _BallInGoal::
    0000199B DD E5            [15] 4803 	push	ix
    0000199D DD 21 00 00      [14] 4804 	ld	ix,#0
    000019A1 DD 39            [15] 4805 	add	ix,sp
    000019A3 3B               [ 6] 4806 	dec	sp
    000019A4 47               [ 4] 4807 	ld	b, a
                                   4808 ;E:\Dropbox\FAUSTO\SVILUPPI\MSX\CODE\C\MSXgl\projects\soccerlgSCC/soccerlg_s8_b3.c:868: g_VblankSuspended=TRUE; 
    000019A5 21r00r00         [10] 4809 	ld	hl, #_g_VblankSuspended
    000019A8 36 01            [10] 4810 	ld	(hl), #0x01
                                   4811 ;E:\Dropbox\FAUSTO\SVILUPPI\MSX\CODE\C\MSXgl\projects\soccerlgSCC/soccerlg_s8_b3.c:869: g_Ball.Size=1;
    000019AA 21r04r00         [10] 4812 	ld	hl, #(_g_Ball + 4)
    000019AD 36 01            [10] 4813 	ld	(hl), #0x01
                                   4814 ;E:\Dropbox\FAUSTO\SVILUPPI\MSX\CODE\C\MSXgl\projects\soccerlgSCC/soccerlg_s8_b3.c:871: V9990_PrintLayerAStringAtPos(12,18,"IN  GOAL");
    000019AF C5               [11] 4815 	push	bc
    000019B0 21r57r1A         [10] 4816 	ld	hl, #___str_2
    000019B3 E5               [11] 4817 	push	hl
    000019B4 2E 12            [ 7] 4818 	ld	l, #0x12
                                   4819 ;	spillPairReg hl
                                   4820 ;	spillPairReg hl
    000019B6 3E 0C            [ 7] 4821 	ld	a, #0x0c
    000019B8 CDr00r00         [17] 4822 	call	_V9990_PrintLayerAStringAtPos
    000019BB C1               [10] 4823 	pop	bc
                                   4824 ;E:\Dropbox\FAUSTO\SVILUPPI\MSX\CODE\C\MSXgl\projects\soccerlgSCC/soccerlg_s8_b3.c:873: g_GoalScorerId = g_Ball.PossessionPlayerId;
    000019BC 21r06r00         [10] 4825 	ld	hl, #(_g_Ball + 6)
    000019BF 7E               [ 7] 4826 	ld	a, (hl)
                                   4827 ;E:\Dropbox\FAUSTO\SVILUPPI\MSX\CODE\C\MSXgl\projects\soccerlgSCC/soccerlg_s8_b3.c:876: if (g_GoalScorerId == NO_VALUE) {
    000019C0 32r00r00         [13] 4828 	ld	(_g_GoalScorerId+0), a
    000019C3 3C               [ 4] 4829 	inc	a
    000019C4 20 13            [12] 4830 	jr	NZ, 00102$
                                   4831 ;E:\Dropbox\FAUSTO\SVILUPPI\MSX\CODE\C\MSXgl\projects\soccerlgSCC/soccerlg_s8_b3.c:877: g_GoalScorerId = CallFnc_U8_P2(4,GetClosestPlayerToBall, teamScored, NO_VALUE);
    000019C6 C5               [11] 4832 	push	bc
    000019C7 3E FF            [ 7] 4833 	ld	a, #0xff
    000019C9 F5               [11] 4834 	push	af
    000019CA 33               [ 6] 4835 	inc	sp
    000019CB C5               [11] 4836 	push	bc
    000019CC 33               [ 6] 4837 	inc	sp
    000019CD 11r00r00         [10] 4838 	ld	de, #_GetClosestPlayerToBall
    000019D0 3E 04            [ 7] 4839 	ld	a, #0x04
    000019D2 CDr00r00         [17] 4840 	call	_CallFnc_U8_P2
    000019D5 C1               [10] 4841 	pop	bc
    000019D6 32r00r00         [13] 4842 	ld	(_g_GoalScorerId+0), a
    000019D9                       4843 00102$:
                                   4844 ;E:\Dropbox\FAUSTO\SVILUPPI\MSX\CODE\C\MSXgl\projects\soccerlgSCC/soccerlg_s8_b3.c:880: if(teamScored==TEAM_1){
    000019D9 05               [ 4] 4845 	dec	b
    000019DA 3E 01            [ 7] 4846 	ld	a, #0x01
    000019DC 28 01            [12] 4847 	jr	Z, 00128$
    000019DE AF               [ 4] 4848 	xor	a, a
    000019DF                       4849 00128$:
    000019DF DD 77 FF         [19] 4850 	ld	-1 (ix), a
    000019E2 B7               [ 4] 4851 	or	a, a
    000019E3 28 0D            [12] 4852 	jr	Z, 00104$
                                   4853 ;E:\Dropbox\FAUSTO\SVILUPPI\MSX\CODE\C\MSXgl\projects\soccerlgSCC/soccerlg_s8_b3.c:882: g_Ball.Y = FIELD_BOUND_Y_TOP - 12;
    000019E5 21 26 00         [10] 4854 	ld	hl, #0x0026
    000019E8 22r00r00         [16] 4855 	ld	(_g_Ball), hl
                                   4856 ;E:\Dropbox\FAUSTO\SVILUPPI\MSX\CODE\C\MSXgl\projects\soccerlgSCC/soccerlg_s8_b3.c:883: g_Team1Score++;
    000019EB 21r00r00         [10] 4857 	ld	hl, #_g_Team1Score
    000019EE 34               [11] 4858 	inc	(hl)
    000019EF C3rFCr19         [10] 4859 	jp	00105$
    000019F2                       4860 00104$:
                                   4861 ;E:\Dropbox\FAUSTO\SVILUPPI\MSX\CODE\C\MSXgl\projects\soccerlgSCC/soccerlg_s8_b3.c:887: g_Ball.Y = FIELD_BOUND_Y_BOTTOM + 12L;
    000019F2 21 BF 01         [10] 4862 	ld	hl, #0x01bf
    000019F5 22r00r00         [16] 4863 	ld	(_g_Ball), hl
                                   4864 ;E:\Dropbox\FAUSTO\SVILUPPI\MSX\CODE\C\MSXgl\projects\soccerlgSCC/soccerlg_s8_b3.c:888: g_Team2Score++;
    000019F8 21r00r00         [10] 4865 	ld	hl, #_g_Team2Score
    000019FB 34               [11] 4866 	inc	(hl)
    000019FC                       4867 00105$:
                                   4868 ;E:\Dropbox\FAUSTO\SVILUPPI\MSX\CODE\C\MSXgl\projects\soccerlgSCC/soccerlg_s8_b3.c:890: CallFnc_VOID(9,ShowHeaderInfo);
    000019FC 11r00r00         [10] 4869 	ld	de, #_ShowHeaderInfo
    000019FF 3E 09            [ 7] 4870 	ld	a, #0x09
    00001A01 CDr00r00         [17] 4871 	call	_CallFnc_VOID
                                   4872 ;E:\Dropbox\FAUSTO\SVILUPPI\MSX\CODE\C\MSXgl\projects\soccerlgSCC/soccerlg_s8_b3.c:891: CallFnc_VOID(6,PutBallSprite);
    00001A04 11r00r00         [10] 4873 	ld	de, #_PutBallSprite
    00001A07 3E 06            [ 7] 4874 	ld	a, #0x06
    00001A09 CDr00r00         [17] 4875 	call	_CallFnc_VOID
                                   4876 ;E:\Dropbox\FAUSTO\SVILUPPI\MSX\CODE\C\MSXgl\projects\soccerlgSCC/soccerlg_s8_b3.c:893: PlayPCM(PCM_INGOAL);
    00001A0C 3E 02            [ 7] 4877 	ld	a, #0x02
    00001A0E CDr00r00         [17] 4878 	call	_PlayPCM
                                   4879 ;E:\Dropbox\FAUSTO\SVILUPPI\MSX\CODE\C\MSXgl\projects\soccerlgSCC/soccerlg_s8_b3.c:894: YSCC_Stop();
    00001A11 CDr00r00         [17] 4880 	call	_YSCC_Stop
                                   4881 ;E:\Dropbox\FAUSTO\SVILUPPI\MSX\CODE\C\MSXgl\projects\soccerlgSCC/soccerlg_s8_b3.c:895: YSCC_Play(SCC_PUBLIC_GOAL_BIN_SEG,SCC_PUBLIC_GOAL_BIN_SIZE);
    00001A14 21 00 00         [10] 4882 	ld	hl, #0x0000
    00001A17 E5               [11] 4883 	push	hl
    00001A18 21 80 AB         [10] 4884 	ld	hl, #0xab80
    00001A1B E5               [11] 4885 	push	hl
    00001A1C 3E 4B            [ 7] 4886 	ld	a, #0x4b
    00001A1E CDr00r00         [17] 4887 	call	_YSCC_Play
                                   4888 ;E:\Dropbox\FAUSTO\SVILUPPI\MSX\CODE\C\MSXgl\projects\soccerlgSCC/soccerlg_s8_b3.c:897: g_MatchStatus=MATCH_AFTER_IN_GOAL;
    00001A21 21r00r00         [10] 4889 	ld	hl, #_g_MatchStatus
    00001A24 36 06            [10] 4890 	ld	(hl), #0x06
                                   4891 ;E:\Dropbox\FAUSTO\SVILUPPI\MSX\CODE\C\MSXgl\projects\soccerlgSCC/soccerlg_s8_b3.c:898: g_RestartKickTeamId = (teamScored == TEAM_1) ? TEAM_2 : TEAM_1;
    00001A26 DD 7E FF         [19] 4892 	ld	a, -1 (ix)
    00001A29 B7               [ 4] 4893 	or	a, a
    00001A2A 28 07            [12] 4894 	jr	Z, 00108$
    00001A2C 3E 02            [ 7] 4895 	ld	a, #0x02
    00001A2E 0E 00            [ 7] 4896 	ld	c, #0x00
    00001A30 C3r37r1A         [10] 4897 	jp	00109$
    00001A33                       4898 00108$:
    00001A33 3E 01            [ 7] 4899 	ld	a, #0x01
    00001A35 0E 00            [ 7] 4900 	ld	c, #0x00
    00001A37                       4901 00109$:
    00001A37 32r00r00         [13] 4902 	ld	(_g_RestartKickTeamId+0), a
                                   4903 ;E:\Dropbox\FAUSTO\SVILUPPI\MSX\CODE\C\MSXgl\projects\soccerlgSCC/soccerlg_s8_b3.c:899: g_Timer = 0; // Start timer for celebration/reset
    00001A3A 21r00r00         [10] 4904 	ld	hl, #_g_Timer
    00001A3D 36 00            [10] 4905 	ld	(hl), #0x00
                                   4906 ;E:\Dropbox\FAUSTO\SVILUPPI\MSX\CODE\C\MSXgl\projects\soccerlgSCC/soccerlg_s8_b3.c:900: g_Ball.ShotActive = 0;
    00001A3F 21r1Br00         [10] 4907 	ld	hl, #(_g_Ball + 27)
    00001A42 36 00            [10] 4908 	ld	(hl), #0x00
                                   4909 ;E:\Dropbox\FAUSTO\SVILUPPI\MSX\CODE\C\MSXgl\projects\soccerlgSCC/soccerlg_s8_b3.c:901: g_Ball.PassTargetPlayerId = NO_VALUE;
    00001A44 21r10r00         [10] 4910 	ld	hl, #(_g_Ball + 16)
    00001A47 36 FF            [10] 4911 	ld	(hl), #0xff
                                   4912 ;E:\Dropbox\FAUSTO\SVILUPPI\MSX\CODE\C\MSXgl\projects\soccerlgSCC/soccerlg_s8_b3.c:902: g_Ball.PossessionPlayerId = NO_VALUE;
    00001A49 21r06r00         [10] 4913 	ld	hl, #(_g_Ball + 6)
    00001A4C 36 FF            [10] 4914 	ld	(hl), #0xff
                                   4915 ;E:\Dropbox\FAUSTO\SVILUPPI\MSX\CODE\C\MSXgl\projects\soccerlgSCC/soccerlg_s8_b3.c:903: g_VblankSuspended=FALSE;
    00001A4E 21r00r00         [10] 4916 	ld	hl, #_g_VblankSuspended
    00001A51 36 00            [10] 4917 	ld	(hl), #0x00
                                   4918 ;E:\Dropbox\FAUSTO\SVILUPPI\MSX\CODE\C\MSXgl\projects\soccerlgSCC/soccerlg_s8_b3.c:904: }
    00001A53 33               [ 6] 4919 	inc	sp
    00001A54 DD E1            [14] 4920 	pop	ix
    00001A56 C9               [10] 4921 	ret
    00001A57                       4922 ___str_2:
    00001A57 49 4E 20 20 47 4F 41  4923 	.ascii "IN  GOAL"
             4C
    00001A5F 00                    4924 	.db 0x00
                                   4925 	.area _SEG8
                                   4926 	.area _INITIALIZER
                                   4927 	.area _CABS (ABS)
