                                      1 ;--------------------------------------------------------
                                      2 ; File Created by SDCC : free open source ANSI-C Compiler
                                      3 ; Version 4.2.0 #13081 (MINGW64)
                                      4 ;--------------------------------------------------------
                                      5 	.module soccerlg_s14_b3
                                      6 	.optsdcc -mz80
                                      7 	
                                      8 ;--------------------------------------------------------
                                      9 ; Public variables in this module
                                     10 ;--------------------------------------------------------
                                     11 	.globl _g_SLTSL
                                     12 	.globl _g_GRPACY
                                     13 	.globl _g_GRPACX
                                     14 	.globl _g_LOGOPR
                                     15 	.globl _g_CMASK
                                     16 	.globl _g_CLOC
                                     17 	.globl _g_FNKSTR
                                     18 	.globl _g_ATRBYT
                                     19 	.globl _g_BDRCLR
                                     20 	.globl _g_BAKCLR
                                     21 	.globl _g_FORCLR
                                     22 	.globl _g_CSRX
                                     23 	.globl _g_CSRY
                                     24 	.globl _g_CLIKSW
                                     25 	.globl _g_MLTPAT
                                     26 	.globl _g_MLTATR
                                     27 	.globl _g_MLTCGP
                                     28 	.globl _g_MLTCOL
                                     29 	.globl _g_MLTNAM
                                     30 	.globl _g_GRPPAT
                                     31 	.globl _g_GRPATR
                                     32 	.globl _g_GRPCGP
                                     33 	.globl _g_GRPCOL
                                     34 	.globl _g_GRPNAM
                                     35 	.globl _g_T32PAT
                                     36 	.globl _g_T32ATR
                                     37 	.globl _g_T32CGP
                                     38 	.globl _g_T32COL
                                     39 	.globl _g_T32NAM
                                     40 	.globl _g_TXTPAT
                                     41 	.globl _g_TXTATR
                                     42 	.globl _g_TXTCGP
                                     43 	.globl _g_TXTCOL
                                     44 	.globl _g_TXTNAM
                                     45 	.globl _g_CLMLST
                                     46 	.globl _g_CRTCNT
                                     47 	.globl _g_LINLEN
                                     48 	.globl _g_LINL32
                                     49 	.globl _g_LINL40
                                     50 	.globl _g_BDOS
                                     51 	.globl _g_MASTER
                                     52 	.globl _g_RAMAD3
                                     53 	.globl _g_RAMAD2
                                     54 	.globl _g_RAMAD1
                                     55 	.globl _g_RAMAD0
                                     56 	.globl _g_BREAKV
                                     57 	.globl _g_DISKVE
                                     58 	.globl _g_KANJTABLE
                                     59 	.globl _g_STRSRC
                                     60 	.globl _g_SUBRID
                                     61 	.globl _g_CHAR_16
                                     62 	.globl _g_MSXMID
                                     63 	.globl _g_MSXVER
                                     64 	.globl _g_ROMVersion
                                     65 	.globl _g_BASRVN
                                     66 	.globl _g_VDP_DW
                                     67 	.globl _g_VDP_DR
                                     68 	.globl _g_CGTABL
                                     69 	.globl _g_SVFFFD
                                     70 	.globl _g_RG27SAV
                                     71 	.globl _g_RG26SAV
                                     72 	.globl _g_RG25SAV
                                     73 	.globl _g_SVFFF8
                                     74 	.globl _g_MINROM
                                     75 	.globl _g_RG23SAV
                                     76 	.globl _g_RG22SAV
                                     77 	.globl _g_RG21SAV
                                     78 	.globl _g_RG20SAV
                                     79 	.globl _g_RG19SAV
                                     80 	.globl _g_RG18SAV
                                     81 	.globl _g_RG17SAV
                                     82 	.globl _g_RG16SAV
                                     83 	.globl _g_RG15SAV
                                     84 	.globl _g_RG14SAV
                                     85 	.globl _g_RG13SAV
                                     86 	.globl _g_RG12SAV
                                     87 	.globl _g_RG11SAV
                                     88 	.globl _g_RG10SAV
                                     89 	.globl _g_RG09SAV
                                     90 	.globl _g_RG08SAV
                                     91 	.globl _g_PROCNM
                                     92 	.globl _g_SLTWRK
                                     93 	.globl _g_SLTATR
                                     94 	.globl _g_SLTTBL
                                     95 	.globl _g_EXPTBL
                                     96 	.globl _g_MNROM
                                     97 	.globl _g_DRWANG
                                     98 	.globl _g_DRWSCL
                                     99 	.globl _g_DRWFLG
                                    100 	.globl _g_GYPOS
                                    101 	.globl _g_GXPOS
                                    102 	.globl _g_BRDATR
                                    103 	.globl _g_CASPRV
                                    104 	.globl _g_OLDSCR
                                    105 	.globl _g_SCRMOD
                                    106 	.globl _g_FLBMEM
                                    107 	.globl _g_KANAMD
                                    108 	.globl _g_KANAST
                                    109 	.globl _g_CAPST
                                    110 	.globl _g_CSTYLE
                                    111 	.globl _g_CSRSW
                                    112 	.globl _g_INSFLG
                                    113 	.globl _g_ESCCNT
                                    114 	.globl _g_GRPHED
                                    115 	.globl _g_WINWID
                                    116 	.globl _g_LOWLIM
                                    117 	.globl _g_INTCNT
                                    118 	.globl _g_INTVAL
                                    119 	.globl _g_JIFFY
                                    120 	.globl _g_PADX
                                    121 	.globl _g_PADY
                                    122 	.globl _g_INTFLG
                                    123 	.globl _g_RTYCNT
                                    124 	.globl _g_TRPTBL
                                    125 	.globl _g_HIMEM
                                    126 	.globl _g_BOTTOM
                                    127 	.globl _g_PATWRK
                                    128 	.globl _g_LINWRK
                                    129 	.globl _g_KEYBUF
                                    130 	.globl _g_NEWKEY
                                    131 	.globl _g_OLDKEY
                                    132 	.globl _g_CLIKFL
                                    133 	.globl _g_ONGSBF
                                    134 	.globl _g_FNKFLG
                                    135 	.globl _g_FNKSWI
                                    136 	.globl _g_CODSAV
                                    137 	.globl _g_FSTPOS
                                    138 	.globl _g_LINTTB
                                    139 	.globl _g_BASROM
                                    140 	.globl _g_ENSTOP
                                    141 	.globl _g_VCBC
                                    142 	.globl _g_VCBB
                                    143 	.globl _g_VCBA
                                    144 	.globl _g_PLYCNT
                                    145 	.globl _g_MUSICF
                                    146 	.globl _g_QUEUEN
                                    147 	.globl _g_MCLPTR
                                    148 	.globl _g_MCLLEN
                                    149 	.globl _g_SAVVOL
                                    150 	.globl _g_VOICEN
                                    151 	.globl _g_SAVSP
                                    152 	.globl _g_PRSCNT
                                    153 	.globl _g_LSTMOD
                                    154 	.globl _g_LSTCOM
                                    155 	.globl _g_COMMSK
                                    156 	.globl _g_ESTBLS
                                    157 	.globl _g_FLAGS
                                    158 	.globl _g_ERRORS
                                    159 	.globl _g_DATCNT
                                    160 	.globl _g_DEVNUM
                                    161 	.globl _g_OLDINT
                                    162 	.globl _g_OLDSTT
                                    163 	.globl _g_MEXBIh
                                    164 	.globl _g_RSIQLN
                                    165 	.globl _g_RSFCB
                                    166 	.globl _g_TOCNT
                                    167 	.globl _g_RSTMP
                                    168 	.globl _g_YSAVE
                                    169 	.globl _g_XSAVE
                                    170 	.globl _g_NORUSE
                                    171 	.globl _g_MODE
                                    172 	.globl _g_ROMA
                                    173 	.globl _g_CHRCNT
                                    174 	.globl _g_EXBRSA
                                    175 	.globl _g_AVCSAV
                                    176 	.globl _g_ACPAGE
                                    177 	.globl _g_DPPAGE
                                    178 	.globl _g_RS2IQ
                                    179 	.globl _g_VOICCQ
                                    180 	.globl _g_VOICBQ
                                    181 	.globl _g_VOICAQ
                                    182 	.globl _g_QUEBAK
                                    183 	.globl _g_QUETAB
                                    184 	.globl _g_ASPCT2
                                    185 	.globl _g_ASPCT1
                                    186 	.globl _g_HEADER
                                    187 	.globl _g_HIGH
                                    188 	.globl _g_LOW
                                    189 	.globl _g_CS240
                                    190 	.globl _g_CS120
                                    191 	.globl _g_GETPNT
                                    192 	.globl _g_PUTPNT
                                    193 	.globl _g_REPCNT
                                    194 	.globl _g_SCNCNT
                                    195 	.globl _g_FRCNEW
                                    196 	.globl _g_QUEUES
                                    197 	.globl _g_MINUPD
                                    198 	.globl _g_MAXUPD
                                    199 	.globl _g_TRGFLG
                                    200 	.globl _g_STATFL
                                    201 	.globl _g_RG7SAV
                                    202 	.globl _g_RG6SAV
                                    203 	.globl _g_RG5SAV
                                    204 	.globl _g_RG4SAV
                                    205 	.globl _g_RG3SAV
                                    206 	.globl _g_RG2SAV
                                    207 	.globl _g_RG1SAV
                                    208 	.globl _g_RG0SAV
                                    209 	.globl _g_CNSDFG
                                    210 	.globl _g_USRTAB
                                    211 	.globl _g_CLPRIM
                                    212 	.globl _g_WRPRIM
                                    213 	.globl _g_RDPRIM
                                    214 	.globl _TickReferee
                                    215 ;--------------------------------------------------------
                                    216 ; special function registers
                                    217 ;--------------------------------------------------------
                         000000A8   218 _g_PortPrimarySlot	=	0x00a8
                         000000A9   219 _g_PortReadKeyboard	=	0x00a9
                         000000AA   220 _g_PortAccessKeyboard	=	0x00aa
                         000000AB   221 _g_PortControl	=	0x00ab
                         00000098   222 _g_VDP_DataPort	=	0x0098
                         00000099   223 _g_VDP_RegPort	=	0x0099
                         00000099   224 _g_VDP_AddrPort	=	0x0099
                         00000099   225 _g_VDP_StatPort	=	0x0099
                         000000A0   226 _g_PSG_RegPort	=	0x00a0
                         000000A1   227 _g_PSG_DataPort	=	0x00a1
                         000000A2   228 _g_PSG_StatPort	=	0x00a2
                         00000010   229 _g_PSG_Ext_RegPort	=	0x0010
                         00000011   230 _g_PSG_Ext_DataPort	=	0x0011
                         00000012   231 _g_PSG_Ext_StatPort	=	0x0012
                         0000007C   232 _g_MSXMusic_IndexPort	=	0x007c
                         0000007D   233 _g_MSXMusic_DataPort	=	0x007d
                         000000C0   234 _g_MSXAudio_IndexPort	=	0x00c0
                         000000C1   235 _g_MSXAudio_DataPort	=	0x00c1
                         000000C2   236 _g_MSXAudio_IndexPort2	=	0x00c2
                         000000C3   237 _g_MSXAudio_DataPort2	=	0x00c3
                         000000B4   238 _g_RTC_AddrPort	=	0x00b4
                         000000B5   239 _g_RTC_DataPort	=	0x00b5
                         00000060   240 _g_V9_VRAMPort	=	0x0060
                         00000061   241 _g_V9_PalettePort	=	0x0061
                         00000062   242 _g_V9_CmdDataPort	=	0x0062
                         00000063   243 _g_V9_RegDataPort	=	0x0063
                         00000064   244 _g_V9_RegSelectPort	=	0x0064
                         00000065   245 _g_V9_SatusPort	=	0x0065
                         00000066   246 _g_V9_IntFlagPort	=	0x0066
                         00000067   247 _g_V9_SysCtrlPort	=	0x0067
                         00000068   248 _g_V9_KanjiAddrLPort	=	0x0068
                         00000069   249 _g_V9_KanjiAddrHPort	=	0x0069
                         00000069   250 _g_V9_KanjiDataPort	=	0x0069
                         0000006A   251 _g_V9_Kanji2AddrLPort	=	0x006a
                         0000006B   252 _g_V9_Kanji2AddrHPort	=	0x006b
                         0000006B   253 _g_V9_Kanji2DataPort	=	0x006b
                         0000006F   254 _g_V9_OutputCtrPort	=	0x006f
                                    255 ;--------------------------------------------------------
                                    256 ; ram data
                                    257 ;--------------------------------------------------------
                                    258 	.area _DATA
                         0000F3AE   259 _g_LINL40	=	0xf3ae
                         0000F3AF   260 _g_LINL32	=	0xf3af
                         0000F3B0   261 _g_LINLEN	=	0xf3b0
                         0000F3B1   262 _g_CRTCNT	=	0xf3b1
                         0000F3B2   263 _g_CLMLST	=	0xf3b2
                         0000F3B3   264 _g_TXTNAM	=	0xf3b3
                         0000F3B5   265 _g_TXTCOL	=	0xf3b5
                         0000F3B7   266 _g_TXTCGP	=	0xf3b7
                         0000F3B9   267 _g_TXTATR	=	0xf3b9
                         0000F3BB   268 _g_TXTPAT	=	0xf3bb
                         0000F3BD   269 _g_T32NAM	=	0xf3bd
                         0000F3BF   270 _g_T32COL	=	0xf3bf
                         0000F3C1   271 _g_T32CGP	=	0xf3c1
                         0000F3C3   272 _g_T32ATR	=	0xf3c3
                         0000F3C5   273 _g_T32PAT	=	0xf3c5
                         0000F3C7   274 _g_GRPNAM	=	0xf3c7
                         0000F3C9   275 _g_GRPCOL	=	0xf3c9
                         0000F3CB   276 _g_GRPCGP	=	0xf3cb
                         0000F3CD   277 _g_GRPATR	=	0xf3cd
                         0000F3CF   278 _g_GRPPAT	=	0xf3cf
                         0000F3D1   279 _g_MLTNAM	=	0xf3d1
                         0000F3D3   280 _g_MLTCOL	=	0xf3d3
                         0000F3D5   281 _g_MLTCGP	=	0xf3d5
                         0000F3D7   282 _g_MLTATR	=	0xf3d7
                         0000F3D9   283 _g_MLTPAT	=	0xf3d9
                         0000F3DB   284 _g_CLIKSW	=	0xf3db
                         0000F3DC   285 _g_CSRY	=	0xf3dc
                         0000F3DD   286 _g_CSRX	=	0xf3dd
                         0000F3E9   287 _g_FORCLR	=	0xf3e9
                         0000F3EA   288 _g_BAKCLR	=	0xf3ea
                         0000F3EB   289 _g_BDRCLR	=	0xf3eb
                         0000F3F2   290 _g_ATRBYT	=	0xf3f2
                         0000F87F   291 _g_FNKSTR	=	0xf87f
                         0000F92A   292 _g_CLOC	=	0xf92a
                         0000F92C   293 _g_CMASK	=	0xf92c
                         0000FB02   294 _g_LOGOPR	=	0xfb02
                         0000FCB7   295 _g_GRPACX	=	0xfcb7
                         0000FCB9   296 _g_GRPACY	=	0xfcb9
                         0000FFFF   297 _g_SLTSL	=	0xffff
                                    298 ;--------------------------------------------------------
                                    299 ; ram data
                                    300 ;--------------------------------------------------------
                                    301 	.area _INITIALIZED
                                    302 ;--------------------------------------------------------
                                    303 ; absolute external ram data
                                    304 ;--------------------------------------------------------
                                    305 	.area _DABS (ABS)
                                    306 ;--------------------------------------------------------
                                    307 ; global & static initialisations
                                    308 ;--------------------------------------------------------
                                    309 	.area _HOME
                                    310 	.area _GSINIT
                                    311 	.area _GSFINAL
                                    312 	.area _GSINIT
                                    313 ;--------------------------------------------------------
                                    314 ; Home
                                    315 ;--------------------------------------------------------
                                    316 	.area _HOME
                                    317 	.area _HOME
                                    318 ;--------------------------------------------------------
                                    319 ; code
                                    320 ;--------------------------------------------------------
                                    321 	.area _SEG14
                                    322 ;E:\Dropbox\FAUSTO\SVILUPPI\MSX\CODE\C\MSXgl\projects\soccerlgSCC/soccerlg_s14_b3.c:22: void TickReferee(u8 playerId) {
                                    323 ;	---------------------------------
                                    324 ; Function TickReferee
                                    325 ; ---------------------------------
    00000000                        326 _TickReferee::
    00000000 DD E5            [15]  327 	push	ix
    00000002 DD 21 00 00      [14]  328 	ld	ix,#0
    00000006 DD 39            [15]  329 	add	ix,sp
    00000008 21 F1 FF         [10]  330 	ld	hl, #-15
    0000000B 39               [11]  331 	add	hl, sp
    0000000C F9               [ 6]  332 	ld	sp, hl
    0000000D 4F               [ 4]  333 	ld	c, a
                                    334 ;E:\Dropbox\FAUSTO\SVILUPPI\MSX\CODE\C\MSXgl\projects\soccerlgSCC/soccerlg_s14_b3.c:23: u16 ballX = g_Ball.X;
    0000000E 21r02r00         [10]  335 	ld	hl, #_g_Ball + 2
    00000011 7E               [ 7]  336 	ld	a, (hl)
    00000012 DD 77 FE         [19]  337 	ld	-2 (ix), a
    00000015 23               [ 6]  338 	inc	hl
    00000016 7E               [ 7]  339 	ld	a, (hl)
    00000017 DD 77 FF         [19]  340 	ld	-1 (ix), a
                                    341 ;E:\Dropbox\FAUSTO\SVILUPPI\MSX\CODE\C\MSXgl\projects\soccerlgSCC/soccerlg_s14_b3.c:24: u16 ballY = g_Ball.Y;
    0000001A ED 5Br00r00      [20]  342 	ld	de, (#_g_Ball + 0)
                                    343 ;E:\Dropbox\FAUSTO\SVILUPPI\MSX\CODE\C\MSXgl\projects\soccerlgSCC/soccerlg_s14_b3.c:27: u16 targetY = ballY;
    0000001E 33               [ 6]  344 	inc	sp
    0000001F 33               [ 6]  345 	inc	sp
    00000020 D5               [11]  346 	push	de
                                    347 ;E:\Dropbox\FAUSTO\SVILUPPI\MSX\CODE\C\MSXgl\projects\soccerlgSCC/soccerlg_s14_b3.c:28: if (ballY > 230 && ballY < 260 && ballX > 110 && ballX < 140) {
    00000021 42               [ 4]  348 	ld	b, d
    00000022 DD 6E FE         [19]  349 	ld	l, -2 (ix)
                                    350 ;	spillPairReg hl
                                    351 ;	spillPairReg hl
    00000025 DD 66 FF         [19]  352 	ld	h, -1 (ix)
                                    353 ;	spillPairReg hl
                                    354 ;	spillPairReg hl
    00000028 3E E6            [ 7]  355 	ld	a, #0xe6
    0000002A BB               [ 4]  356 	cp	a, e
    0000002B 3E 00            [ 7]  357 	ld	a, #0x00
    0000002D 98               [ 4]  358 	sbc	a, b
    0000002E 30 31            [12]  359 	jr	NC, 00102$
    00000030 7B               [ 4]  360 	ld	a, e
    00000031 D6 04            [ 7]  361 	sub	a, #0x04
    00000033 78               [ 4]  362 	ld	a, b
    00000034 DE 01            [ 7]  363 	sbc	a, #0x01
    00000036 30 29            [12]  364 	jr	NC, 00102$
    00000038 3E 6E            [ 7]  365 	ld	a, #0x6e
    0000003A BD               [ 4]  366 	cp	a, l
    0000003B 3E 00            [ 7]  367 	ld	a, #0x00
    0000003D 9C               [ 4]  368 	sbc	a, h
    0000003E 30 21            [12]  369 	jr	NC, 00102$
    00000040 7D               [ 4]  370 	ld	a, l
    00000041 D6 8C            [ 7]  371 	sub	a, #0x8c
    00000043 7C               [ 4]  372 	ld	a, h
    00000044 DE 00            [ 7]  373 	sbc	a, #0x00
    00000046 30 19            [12]  374 	jr	NC, 00102$
                                    375 ;E:\Dropbox\FAUSTO\SVILUPPI\MSX\CODE\C\MSXgl\projects\soccerlgSCC/soccerlg_s14_b3.c:29: targetY = (ballY > 40) ? ballY - 40 : FIELD_BOUND_Y_TOP;
    00000048 3E 28            [ 7]  376 	ld	a, #0x28
    0000004A BB               [ 4]  377 	cp	a, e
    0000004B 3E 00            [ 7]  378 	ld	a, #0x00
    0000004D 98               [ 4]  379 	sbc	a, b
    0000004E 30 0B            [12]  380 	jr	NC, 00170$
    00000050 7B               [ 4]  381 	ld	a, e
    00000051 C6 D8            [ 7]  382 	add	a, #0xd8
    00000053 5F               [ 4]  383 	ld	e, a
    00000054 78               [ 4]  384 	ld	a, b
    00000055 CE FF            [ 7]  385 	adc	a, #0xff
    00000057 57               [ 4]  386 	ld	d, a
    00000058 C3r5Er00         [10]  387 	jp	00171$
    0000005B                        388 00170$:
    0000005B 11 32 00         [10]  389 	ld	de, #0x0032
    0000005E                        390 00171$:
    0000005E 33               [ 6]  391 	inc	sp
    0000005F 33               [ 6]  392 	inc	sp
    00000060 D5               [11]  393 	push	de
    00000061                        394 00102$:
                                    395 ;E:\Dropbox\FAUSTO\SVILUPPI\MSX\CODE\C\MSXgl\projects\soccerlgSCC/soccerlg_s14_b3.c:31: if (targetY < FIELD_BOUND_Y_TOP) targetY = FIELD_BOUND_Y_TOP;
    00000061 DD 7E F1         [19]  396 	ld	a, -15 (ix)
    00000064 DD 5E F2         [19]  397 	ld	e, -14 (ix)
    00000067 D6 32            [ 7]  398 	sub	a, #0x32
    00000069 7B               [ 4]  399 	ld	a, e
    0000006A DE 00            [ 7]  400 	sbc	a, #0x00
    0000006C 30 08            [12]  401 	jr	NC, 00107$
    0000006E DD 36 F1 32      [19]  402 	ld	-15 (ix), #0x32
    00000072 DD 36 F2 00      [19]  403 	ld	-14 (ix), #0
    00000076                        404 00107$:
                                    405 ;E:\Dropbox\FAUSTO\SVILUPPI\MSX\CODE\C\MSXgl\projects\soccerlgSCC/soccerlg_s14_b3.c:32: if (targetY > FIELD_BOUND_Y_BOTTOM) targetY = FIELD_BOUND_Y_BOTTOM;
    00000076 DD 46 F1         [19]  406 	ld	b, -15 (ix)
    00000079 DD 5E F2         [19]  407 	ld	e, -14 (ix)
    0000007C 3E B3            [ 7]  408 	ld	a, #0xb3
    0000007E B8               [ 4]  409 	cp	a, b
    0000007F 3E 01            [ 7]  410 	ld	a, #0x01
    00000081 9B               [ 4]  411 	sbc	a, e
    00000082 30 08            [12]  412 	jr	NC, 00109$
    00000084 DD 36 F1 B3      [19]  413 	ld	-15 (ix), #0xb3
    00000088 DD 36 F2 01      [19]  414 	ld	-14 (ix), #0x01
    0000008C                        415 00109$:
                                    416 ;E:\Dropbox\FAUSTO\SVILUPPI\MSX\CODE\C\MSXgl\projects\soccerlgSCC/soccerlg_s14_b3.c:35: u16 targetX = (ballX < 128) ? ballX + 50 : ballX - 50;
    0000008C 7D               [ 4]  417 	ld	a, l
    0000008D D6 80            [ 7]  418 	sub	a, #0x80
    0000008F 7C               [ 4]  419 	ld	a, h
    00000090 DE 00            [ 7]  420 	sbc	a, #0x00
    00000092 30 07            [12]  421 	jr	NC, 00172$
    00000094 11 32 00         [10]  422 	ld	de, #0x0032
    00000097 19               [11]  423 	add	hl, de
    00000098 C3rA3r00         [10]  424 	jp	00173$
    0000009B                        425 00172$:
    0000009B 7D               [ 4]  426 	ld	a, l
    0000009C C6 CE            [ 7]  427 	add	a, #0xce
    0000009E 6F               [ 4]  428 	ld	l, a
                                    429 ;	spillPairReg hl
                                    430 ;	spillPairReg hl
    0000009F 7C               [ 4]  431 	ld	a, h
    000000A0 CE FF            [ 7]  432 	adc	a, #0xff
    000000A2 67               [ 4]  433 	ld	h, a
                                    434 ;	spillPairReg hl
                                    435 ;	spillPairReg hl
    000000A3                        436 00173$:
    000000A3 EB               [ 4]  437 	ex	de, hl
                                    438 ;E:\Dropbox\FAUSTO\SVILUPPI\MSX\CODE\C\MSXgl\projects\soccerlgSCC/soccerlg_s14_b3.c:36: if (targetX < FIELD_BOUND_X_LEFT + 10) targetX = FIELD_BOUND_X_LEFT + 10;
    000000A4 7B               [ 4]  439 	ld	a, e
    000000A5 D6 14            [ 7]  440 	sub	a, #0x14
    000000A7 7A               [ 4]  441 	ld	a, d
    000000A8 DE 00            [ 7]  442 	sbc	a, #0x00
    000000AA 30 03            [12]  443 	jr	NC, 00111$
    000000AC 11 14 00         [10]  444 	ld	de, #0x0014
    000000AF                        445 00111$:
                                    446 ;E:\Dropbox\FAUSTO\SVILUPPI\MSX\CODE\C\MSXgl\projects\soccerlgSCC/soccerlg_s14_b3.c:37: if (targetX > FIELD_BOUND_X_RIGHT - 10) targetX = FIELD_BOUND_X_RIGHT - 10;
    000000AF 3E E2            [ 7]  447 	ld	a, #0xe2
    000000B1 BB               [ 4]  448 	cp	a, e
    000000B2 3E 00            [ 7]  449 	ld	a, #0x00
    000000B4 9A               [ 4]  450 	sbc	a, d
    000000B5 30 03            [12]  451 	jr	NC, 00113$
    000000B7 11 E2 00         [10]  452 	ld	de, #0x00e2
    000000BA                        453 00113$:
                                    454 ;E:\Dropbox\FAUSTO\SVILUPPI\MSX\CODE\C\MSXgl\projects\soccerlgSCC/soccerlg_s14_b3.c:39: i16 diffY = (i16)targetY - (i16)g_Players[playerId].Y;
    000000BA DD 7E F1         [19]  455 	ld	a, -15 (ix)
    000000BD DD 77 FD         [19]  456 	ld	-3 (ix), a
    000000C0 DD 7E F2         [19]  457 	ld	a, -14 (ix)
    000000C3 DD 77 FE         [19]  458 	ld	-2 (ix), a
    000000C6 06 00            [ 7]  459 	ld	b, #0x00
    000000C8 69               [ 4]  460 	ld	l, c
    000000C9 60               [ 4]  461 	ld	h, b
    000000CA 29               [11]  462 	add	hl, hl
    000000CB 29               [11]  463 	add	hl, hl
    000000CC 09               [11]  464 	add	hl, bc
    000000CD 29               [11]  465 	add	hl, hl
    000000CE 29               [11]  466 	add	hl, hl
    000000CF 09               [11]  467 	add	hl, bc
    000000D0 01r00r00         [10]  468 	ld	bc,#_g_Players
    000000D3 09               [11]  469 	add	hl,bc
    000000D4 DD 75 F3         [19]  470 	ld	-13 (ix), l
    000000D7 DD 74 F4         [19]  471 	ld	-12 (ix), h
    000000DA 4E               [ 7]  472 	ld	c, (hl)
    000000DB 23               [ 6]  473 	inc	hl
    000000DC 46               [ 7]  474 	ld	b, (hl)
    000000DD DD 7E FD         [19]  475 	ld	a, -3 (ix)
    000000E0 91               [ 4]  476 	sub	a, c
    000000E1 4F               [ 4]  477 	ld	c, a
    000000E2 DD 7E FE         [19]  478 	ld	a, -2 (ix)
    000000E5 98               [ 4]  479 	sbc	a, b
    000000E6 47               [ 4]  480 	ld	b, a
                                    481 ;E:\Dropbox\FAUSTO\SVILUPPI\MSX\CODE\C\MSXgl\projects\soccerlgSCC/soccerlg_s14_b3.c:40: i16 diffX = (i16)targetX - (i16)g_Players[playerId].X;
    000000E7 DD 7E F3         [19]  482 	ld	a, -13 (ix)
    000000EA C6 02            [ 7]  483 	add	a, #0x02
    000000EC DD 77 F5         [19]  484 	ld	-11 (ix), a
    000000EF DD 7E F4         [19]  485 	ld	a, -12 (ix)
    000000F2 CE 00            [ 7]  486 	adc	a, #0x00
    000000F4 DD 77 F6         [19]  487 	ld	-10 (ix), a
    000000F7 DD 6E F5         [19]  488 	ld	l, -11 (ix)
    000000FA DD 66 F6         [19]  489 	ld	h, -10 (ix)
    000000FD 7E               [ 7]  490 	ld	a, (hl)
    000000FE 23               [ 6]  491 	inc	hl
    000000FF 66               [ 7]  492 	ld	h, (hl)
                                    493 ;	spillPairReg hl
    00000100 6F               [ 4]  494 	ld	l, a
                                    495 ;	spillPairReg hl
                                    496 ;	spillPairReg hl
    00000101 7B               [ 4]  497 	ld	a, e
    00000102 95               [ 4]  498 	sub	a, l
    00000103 5F               [ 4]  499 	ld	e, a
    00000104 7A               [ 4]  500 	ld	a, d
    00000105 9C               [ 4]  501 	sbc	a, h
    00000106 57               [ 4]  502 	ld	d, a
                                    503 ;E:\Dropbox\FAUSTO\SVILUPPI\MSX\CODE\C\MSXgl\projects\soccerlgSCC/soccerlg_s14_b3.c:43: u8 stepY = 1;
    00000107 DD 36 FF 01      [19]  504 	ld	-1 (ix), #0x01
                                    505 ;E:\Dropbox\FAUSTO\SVILUPPI\MSX\CODE\C\MSXgl\projects\soccerlgSCC/soccerlg_s14_b3.c:44: if (diffY > 40 || diffY < -40) stepY = 4;
    0000010B 69               [ 4]  506 	ld	l, c
                                    507 ;	spillPairReg hl
                                    508 ;	spillPairReg hl
    0000010C 60               [ 4]  509 	ld	h, b
                                    510 ;	spillPairReg hl
                                    511 ;	spillPairReg hl
    0000010D 3E 28            [ 7]  512 	ld	a, #0x28
    0000010F BD               [ 4]  513 	cp	a, l
    00000110 3E 00            [ 7]  514 	ld	a, #0x00
    00000112 9C               [ 4]  515 	sbc	a, h
    00000113 E2r18r01         [10]  516 	jp	PO, 00355$
    00000116 EE 80            [ 7]  517 	xor	a, #0x80
    00000118                        518 00355$:
    00000118 FAr26r01         [10]  519 	jp	M, 00117$
    0000011B 79               [ 4]  520 	ld	a, c
    0000011C D6 D8            [ 7]  521 	sub	a, #0xd8
    0000011E 78               [ 4]  522 	ld	a, b
    0000011F 17               [ 4]  523 	rla
    00000120 3F               [ 4]  524 	ccf
    00000121 1F               [ 4]  525 	rra
    00000122 DE 7F            [ 7]  526 	sbc	a, #0x7f
    00000124 30 07            [12]  527 	jr	NC, 00118$
    00000126                        528 00117$:
    00000126 DD 36 FF 04      [19]  529 	ld	-1 (ix), #0x04
    0000012A C3r4Ar01         [10]  530 	jp	00119$
    0000012D                        531 00118$:
                                    532 ;E:\Dropbox\FAUSTO\SVILUPPI\MSX\CODE\C\MSXgl\projects\soccerlgSCC/soccerlg_s14_b3.c:45: else if (diffY > 20 || diffY < -20) stepY = 2;
    0000012D 3E 14            [ 7]  533 	ld	a, #0x14
    0000012F BD               [ 4]  534 	cp	a, l
    00000130 3E 00            [ 7]  535 	ld	a, #0x00
    00000132 9C               [ 4]  536 	sbc	a, h
    00000133 E2r38r01         [10]  537 	jp	PO, 00356$
    00000136 EE 80            [ 7]  538 	xor	a, #0x80
    00000138                        539 00356$:
    00000138 FAr46r01         [10]  540 	jp	M, 00114$
    0000013B 79               [ 4]  541 	ld	a, c
    0000013C D6 EC            [ 7]  542 	sub	a, #0xec
    0000013E 78               [ 4]  543 	ld	a, b
    0000013F 17               [ 4]  544 	rla
    00000140 3F               [ 4]  545 	ccf
    00000141 1F               [ 4]  546 	rra
    00000142 DE 7F            [ 7]  547 	sbc	a, #0x7f
    00000144 30 04            [12]  548 	jr	NC, 00119$
    00000146                        549 00114$:
    00000146 DD 36 FF 02      [19]  550 	ld	-1 (ix), #0x02
    0000014A                        551 00119$:
                                    552 ;E:\Dropbox\FAUSTO\SVILUPPI\MSX\CODE\C\MSXgl\projects\soccerlgSCC/soccerlg_s14_b3.c:47: u8 moveDir = DIRECTION_NONE;
    0000014A DD 36 F7 00      [19]  553 	ld	-9 (ix), #0x00
                                    554 ;E:\Dropbox\FAUSTO\SVILUPPI\MSX\CODE\C\MSXgl\projects\soccerlgSCC/soccerlg_s14_b3.c:48: if (diffY < -4) moveDir = DIRECTION_UP;
    0000014E 79               [ 4]  555 	ld	a, c
    0000014F D6 FC            [ 7]  556 	sub	a, #0xfc
    00000151 78               [ 4]  557 	ld	a, b
    00000152 17               [ 4]  558 	rla
    00000153 3F               [ 4]  559 	ccf
    00000154 1F               [ 4]  560 	rra
    00000155 DE 7F            [ 7]  561 	sbc	a, #0x7f
    00000157 30 07            [12]  562 	jr	NC, 00124$
    00000159 DD 36 F7 01      [19]  563 	ld	-9 (ix), #0x01
    0000015D C3r72r01         [10]  564 	jp	00125$
    00000160                        565 00124$:
                                    566 ;E:\Dropbox\FAUSTO\SVILUPPI\MSX\CODE\C\MSXgl\projects\soccerlgSCC/soccerlg_s14_b3.c:49: else if (diffY > 4) moveDir = DIRECTION_DOWN;
    00000160 3E 04            [ 7]  567 	ld	a, #0x04
    00000162 BD               [ 4]  568 	cp	a, l
    00000163 3E 00            [ 7]  569 	ld	a, #0x00
    00000165 9C               [ 4]  570 	sbc	a, h
    00000166 E2r6Br01         [10]  571 	jp	PO, 00357$
    00000169 EE 80            [ 7]  572 	xor	a, #0x80
    0000016B                        573 00357$:
    0000016B F2r72r01         [10]  574 	jp	P, 00125$
    0000016E DD 36 F7 05      [19]  575 	ld	-9 (ix), #0x05
    00000172                        576 00125$:
                                    577 ;E:\Dropbox\FAUSTO\SVILUPPI\MSX\CODE\C\MSXgl\projects\soccerlgSCC/soccerlg_s14_b3.c:51: if (diffX < -12 || diffX > 12) {
    00000172 4B               [ 4]  578 	ld	c, e
    00000173 42               [ 4]  579 	ld	b, d
    00000174 7B               [ 4]  580 	ld	a, e
    00000175 D6 F4            [ 7]  581 	sub	a, #0xf4
    00000177 7A               [ 4]  582 	ld	a, d
    00000178 17               [ 4]  583 	rla
    00000179 3F               [ 4]  584 	ccf
    0000017A 1F               [ 4]  585 	rra
    0000017B DE 7F            [ 7]  586 	sbc	a, #0x7f
    0000017D 38 0E            [12]  587 	jr	C, 00132$
    0000017F 3E 0C            [ 7]  588 	ld	a, #0x0c
    00000181 B9               [ 4]  589 	cp	a, c
    00000182 3E 00            [ 7]  590 	ld	a, #0x00
    00000184 98               [ 4]  591 	sbc	a, b
    00000185 E2r8Ar01         [10]  592 	jp	PO, 00358$
    00000188 EE 80            [ 7]  593 	xor	a, #0x80
    0000018A                        594 00358$:
    0000018A F2rE8r01         [10]  595 	jp	P, 00133$
    0000018D                        596 00132$:
                                    597 ;E:\Dropbox\FAUSTO\SVILUPPI\MSX\CODE\C\MSXgl\projects\soccerlgSCC/soccerlg_s14_b3.c:52: if (moveDir == DIRECTION_UP) moveDir = (diffX > 0) ? DIRECTION_UP_RIGHT : DIRECTION_UP_LEFT;
    0000018D AF               [ 4]  598 	xor	a, a
    0000018E B9               [ 4]  599 	cp	a, c
    0000018F 98               [ 4]  600 	sbc	a, b
    00000190 E2r95r01         [10]  601 	jp	PO, 00359$
    00000193 EE 80            [ 7]  602 	xor	a, #0x80
    00000195                        603 00359$:
    00000195 07               [ 4]  604 	rlca
    00000196 E6 01            [ 7]  605 	and	a,#0x01
    00000198 4F               [ 4]  606 	ld	c, a
    00000199 DD 7E F7         [19]  607 	ld	a, -9 (ix)
    0000019C 3D               [ 4]  608 	dec	a
    0000019D 20 13            [12]  609 	jr	NZ, 00130$
    0000019F 79               [ 4]  610 	ld	a, c
    000001A0 B7               [ 4]  611 	or	a, a
    000001A1 28 06            [12]  612 	jr	Z, 00174$
    000001A3 01 02 00         [10]  613 	ld	bc, #0x0002
    000001A6 C3rACr01         [10]  614 	jp	00175$
    000001A9                        615 00174$:
    000001A9 01 08 00         [10]  616 	ld	bc, #0x0008
    000001AC                        617 00175$:
    000001AC DD 71 F7         [19]  618 	ld	-9 (ix), c
    000001AF C3rE8r01         [10]  619 	jp	00133$
    000001B2                        620 00130$:
                                    621 ;E:\Dropbox\FAUSTO\SVILUPPI\MSX\CODE\C\MSXgl\projects\soccerlgSCC/soccerlg_s14_b3.c:53: else if (moveDir == DIRECTION_DOWN) moveDir = (diffX > 0) ? DIRECTION_DOWN_RIGHT : DIRECTION_DOWN_LEFT;
    000001B2 DD 7E F7         [19]  622 	ld	a, -9 (ix)
    000001B5 D6 05            [ 7]  623 	sub	a,#0x05
    000001B7 20 12            [12]  624 	jr	NZ, 00127$
    000001B9 B1               [ 4]  625 	or	a,c
    000001BA 28 06            [12]  626 	jr	Z, 00176$
    000001BC 01 04 00         [10]  627 	ld	bc, #0x0004
    000001BF C3rC5r01         [10]  628 	jp	00177$
    000001C2                        629 00176$:
    000001C2 01 06 00         [10]  630 	ld	bc, #0x0006
    000001C5                        631 00177$:
    000001C5 DD 71 F7         [19]  632 	ld	-9 (ix), c
    000001C8 C3rE8r01         [10]  633 	jp	00133$
    000001CB                        634 00127$:
                                    635 ;E:\Dropbox\FAUSTO\SVILUPPI\MSX\CODE\C\MSXgl\projects\soccerlgSCC/soccerlg_s14_b3.c:54: else moveDir = (diffX > 0) ? DIRECTION_RIGHT : DIRECTION_LEFT;
    000001CB 79               [ 4]  636 	ld	a, c
    000001CC B7               [ 4]  637 	or	a, a
    000001CD 28 0B            [12]  638 	jr	Z, 00178$
    000001CF DD 36 FB 03      [19]  639 	ld	-5 (ix), #0x03
    000001D3 DD 36 FC 00      [19]  640 	ld	-4 (ix), #0
    000001D7 C3rE2r01         [10]  641 	jp	00179$
    000001DA                        642 00178$:
    000001DA DD 36 FB 07      [19]  643 	ld	-5 (ix), #0x07
    000001DE DD 36 FC 00      [19]  644 	ld	-4 (ix), #0
    000001E2                        645 00179$:
    000001E2 DD 7E FB         [19]  646 	ld	a, -5 (ix)
    000001E5 DD 77 F7         [19]  647 	ld	-9 (ix), a
    000001E8                        648 00133$:
                                    649 ;E:\Dropbox\FAUSTO\SVILUPPI\MSX\CODE\C\MSXgl\projects\soccerlgSCC/soccerlg_s14_b3.c:57: g_Players[playerId].Direction = moveDir;
    000001E8 DD 6E F3         [19]  650 	ld	l, -13 (ix)
    000001EB DD 66 F4         [19]  651 	ld	h, -12 (ix)
    000001EE 11 0A 00         [10]  652 	ld	de, #0x000a
    000001F1 19               [11]  653 	add	hl, de
    000001F2 DD 7E F7         [19]  654 	ld	a, -9 (ix)
    000001F5 77               [ 7]  655 	ld	(hl), a
                                    656 ;E:\Dropbox\FAUSTO\SVILUPPI\MSX\CODE\C\MSXgl\projects\soccerlgSCC/soccerlg_s14_b3.c:79: g_Players[playerId].Status = PLAYER_STATUS_NONE;
    000001F6 DD 7E F3         [19]  657 	ld	a, -13 (ix)
    000001F9 C6 12            [ 7]  658 	add	a, #0x12
    000001FB DD 77 F8         [19]  659 	ld	-8 (ix), a
    000001FE DD 7E F4         [19]  660 	ld	a, -12 (ix)
    00000201 CE 00            [ 7]  661 	adc	a, #0x00
    00000203 DD 77 F9         [19]  662 	ld	-7 (ix), a
                                    663 ;E:\Dropbox\FAUSTO\SVILUPPI\MSX\CODE\C\MSXgl\projects\soccerlgSCC/soccerlg_s14_b3.c:59: if (moveDir != DIRECTION_NONE) {
    00000206 DD 7E F7         [19]  664 	ld	a, -9 (ix)
    00000209 B7               [ 4]  665 	or	a, a
    0000020A CAr7Br03         [10]  666 	jp	Z, 00158$
                                    667 ;E:\Dropbox\FAUSTO\SVILUPPI\MSX\CODE\C\MSXgl\projects\soccerlgSCC/soccerlg_s14_b3.c:61: if (moveDir == DIRECTION_UP || moveDir == DIRECTION_UP_RIGHT || moveDir == DIRECTION_UP_LEFT) {
    0000020D DD 7E F7         [19]  668 	ld	a, -9 (ix)
    00000210 3D               [ 4]  669 	dec	a
    00000211 28 0E            [12]  670 	jr	Z, 00138$
    00000213 DD 7E F7         [19]  671 	ld	a, -9 (ix)
    00000216 D6 02            [ 7]  672 	sub	a, #0x02
    00000218 28 07            [12]  673 	jr	Z, 00138$
    0000021A DD 7E F7         [19]  674 	ld	a, -9 (ix)
    0000021D D6 08            [ 7]  675 	sub	a, #0x08
    0000021F 20 44            [12]  676 	jr	NZ, 00139$
    00000221                        677 00138$:
                                    678 ;E:\Dropbox\FAUSTO\SVILUPPI\MSX\CODE\C\MSXgl\projects\soccerlgSCC/soccerlg_s14_b3.c:62: if ((i16)g_Players[playerId].Y - (i16)stepY >= (i16)targetY)
    00000221 DD 6E F3         [19]  679 	ld	l, -13 (ix)
    00000224 DD 66 F4         [19]  680 	ld	h, -12 (ix)
    00000227 5E               [ 7]  681 	ld	e, (hl)
    00000228 23               [ 6]  682 	inc	hl
    00000229 56               [ 7]  683 	ld	d, (hl)
    0000022A 6B               [ 4]  684 	ld	l, e
                                    685 ;	spillPairReg hl
                                    686 ;	spillPairReg hl
    0000022B 62               [ 4]  687 	ld	h, d
                                    688 ;	spillPairReg hl
                                    689 ;	spillPairReg hl
    0000022C DD 4E FF         [19]  690 	ld	c, -1 (ix)
    0000022F 06 00            [ 7]  691 	ld	b, #0x00
    00000231 BF               [ 4]  692 	cp	a, a
    00000232 ED 42            [15]  693 	sbc	hl, bc
    00000234 7D               [ 4]  694 	ld	a, l
    00000235 DD 96 FD         [19]  695 	sub	a, -3 (ix)
    00000238 7C               [ 4]  696 	ld	a, h
    00000239 DD 9E FE         [19]  697 	sbc	a, -2 (ix)
    0000023C E2r41r02         [10]  698 	jp	PO, 00368$
    0000023F EE 80            [ 7]  699 	xor	a, #0x80
    00000241                        700 00368$:
    00000241 FAr58r02         [10]  701 	jp	M, 00136$
                                    702 ;E:\Dropbox\FAUSTO\SVILUPPI\MSX\CODE\C\MSXgl\projects\soccerlgSCC/soccerlg_s14_b3.c:63: g_Players[playerId].Y -= stepY;
    00000244 DD 4E FF         [19]  703 	ld	c, -1 (ix)
    00000247 06 00            [ 7]  704 	ld	b, #0x00
    00000249 EB               [ 4]  705 	ex	de, hl
    0000024A BF               [ 4]  706 	cp	a, a
    0000024B ED 42            [15]  707 	sbc	hl, bc
    0000024D EB               [ 4]  708 	ex	de, hl
    0000024E C1               [10]  709 	pop	bc
    0000024F E1               [10]  710 	pop	hl
    00000250 E5               [11]  711 	push	hl
    00000251 C5               [11]  712 	push	bc
    00000252 73               [ 7]  713 	ld	(hl), e
    00000253 23               [ 6]  714 	inc	hl
    00000254 72               [ 7]  715 	ld	(hl), d
    00000255 C3r65r02         [10]  716 	jp	00139$
    00000258                        717 00136$:
                                    718 ;E:\Dropbox\FAUSTO\SVILUPPI\MSX\CODE\C\MSXgl\projects\soccerlgSCC/soccerlg_s14_b3.c:65: g_Players[playerId].Y = targetY;
    00000258 C1               [10]  719 	pop	bc
    00000259 E1               [10]  720 	pop	hl
    0000025A E5               [11]  721 	push	hl
    0000025B C5               [11]  722 	push	bc
    0000025C DD 7E F1         [19]  723 	ld	a, -15 (ix)
    0000025F 77               [ 7]  724 	ld	(hl), a
    00000260 23               [ 6]  725 	inc	hl
    00000261 DD 7E F2         [19]  726 	ld	a, -14 (ix)
    00000264 77               [ 7]  727 	ld	(hl), a
    00000265                        728 00139$:
                                    729 ;E:\Dropbox\FAUSTO\SVILUPPI\MSX\CODE\C\MSXgl\projects\soccerlgSCC/soccerlg_s14_b3.c:67: if (moveDir == DIRECTION_DOWN || moveDir == DIRECTION_DOWN_RIGHT || moveDir == DIRECTION_DOWN_LEFT) {
    00000265 DD 7E F7         [19]  730 	ld	a, -9 (ix)
    00000268 D6 05            [ 7]  731 	sub	a, #0x05
    0000026A 28 0E            [12]  732 	jr	Z, 00145$
    0000026C DD 7E F7         [19]  733 	ld	a, -9 (ix)
    0000026F D6 04            [ 7]  734 	sub	a, #0x04
    00000271 28 07            [12]  735 	jr	Z, 00145$
    00000273 DD 7E F7         [19]  736 	ld	a, -9 (ix)
    00000276 D6 06            [ 7]  737 	sub	a, #0x06
    00000278 20 6E            [12]  738 	jr	NZ, 00146$
    0000027A                        739 00145$:
                                    740 ;E:\Dropbox\FAUSTO\SVILUPPI\MSX\CODE\C\MSXgl\projects\soccerlgSCC/soccerlg_s14_b3.c:62: if ((i16)g_Players[playerId].Y - (i16)stepY >= (i16)targetY)
    0000027A DD 6E F3         [19]  741 	ld	l, -13 (ix)
    0000027D DD 66 F4         [19]  742 	ld	h, -12 (ix)
    00000280 7E               [ 7]  743 	ld	a, (hl)
    00000281 DD 77 FC         [19]  744 	ld	-4 (ix), a
    00000284 23               [ 6]  745 	inc	hl
    00000285 7E               [ 7]  746 	ld	a, (hl)
    00000286 DD 77 FD         [19]  747 	ld	-3 (ix), a
                                    748 ;E:\Dropbox\FAUSTO\SVILUPPI\MSX\CODE\C\MSXgl\projects\soccerlgSCC/soccerlg_s14_b3.c:68: if (g_Players[playerId].Y + stepY <= targetY)
    00000289 DD 7E FF         [19]  749 	ld	a, -1 (ix)
    0000028C DD 77 FE         [19]  750 	ld	-2 (ix), a
    0000028F DD 36 FF 00      [19]  751 	ld	-1 (ix), #0x00
    00000293 DD 7E FC         [19]  752 	ld	a, -4 (ix)
    00000296 DD 77 FA         [19]  753 	ld	-6 (ix), a
    00000299 DD 7E FD         [19]  754 	ld	a, -3 (ix)
    0000029C DD 77 FB         [19]  755 	ld	-5 (ix), a
    0000029F DD 7E FE         [19]  756 	ld	a, -2 (ix)
    000002A2 DD 77 FC         [19]  757 	ld	-4 (ix), a
    000002A5 DD 7E FF         [19]  758 	ld	a, -1 (ix)
    000002A8 DD 77 FD         [19]  759 	ld	-3 (ix), a
    000002AB DD 7E FC         [19]  760 	ld	a, -4 (ix)
    000002AE DD 86 FA         [19]  761 	add	a, -6 (ix)
    000002B1 DD 77 FE         [19]  762 	ld	-2 (ix), a
    000002B4 DD 7E FD         [19]  763 	ld	a, -3 (ix)
    000002B7 DD 8E FB         [19]  764 	adc	a, -5 (ix)
    000002BA DD 77 FF         [19]  765 	ld	-1 (ix), a
    000002BD DD 7E F1         [19]  766 	ld	a, -15 (ix)
    000002C0 DD 96 FE         [19]  767 	sub	a, -2 (ix)
    000002C3 DD 7E F2         [19]  768 	ld	a, -14 (ix)
    000002C6 DD 9E FF         [19]  769 	sbc	a, -1 (ix)
    000002C9 38 10            [12]  770 	jr	C, 00143$
                                    771 ;E:\Dropbox\FAUSTO\SVILUPPI\MSX\CODE\C\MSXgl\projects\soccerlgSCC/soccerlg_s14_b3.c:69: g_Players[playerId].Y += stepY;
    000002CB C1               [10]  772 	pop	bc
    000002CC E1               [10]  773 	pop	hl
    000002CD E5               [11]  774 	push	hl
    000002CE C5               [11]  775 	push	bc
    000002CF DD 7E FE         [19]  776 	ld	a, -2 (ix)
    000002D2 77               [ 7]  777 	ld	(hl), a
    000002D3 23               [ 6]  778 	inc	hl
    000002D4 DD 7E FF         [19]  779 	ld	a, -1 (ix)
    000002D7 77               [ 7]  780 	ld	(hl), a
    000002D8 C3rE8r02         [10]  781 	jp	00146$
    000002DB                        782 00143$:
                                    783 ;E:\Dropbox\FAUSTO\SVILUPPI\MSX\CODE\C\MSXgl\projects\soccerlgSCC/soccerlg_s14_b3.c:71: g_Players[playerId].Y = targetY;
    000002DB C1               [10]  784 	pop	bc
    000002DC E1               [10]  785 	pop	hl
    000002DD E5               [11]  786 	push	hl
    000002DE C5               [11]  787 	push	bc
    000002DF DD 7E F1         [19]  788 	ld	a, -15 (ix)
    000002E2 77               [ 7]  789 	ld	(hl), a
    000002E3 23               [ 6]  790 	inc	hl
    000002E4 DD 7E F2         [19]  791 	ld	a, -14 (ix)
    000002E7 77               [ 7]  792 	ld	(hl), a
    000002E8                        793 00146$:
                                    794 ;E:\Dropbox\FAUSTO\SVILUPPI\MSX\CODE\C\MSXgl\projects\soccerlgSCC/soccerlg_s14_b3.c:74: if (moveDir == DIRECTION_RIGHT || moveDir == DIRECTION_UP_RIGHT || moveDir == DIRECTION_DOWN_RIGHT)
    000002E8 DD 7E F7         [19]  795 	ld	a, -9 (ix)
    000002EB D6 03            [ 7]  796 	sub	a, #0x03
    000002ED 28 0E            [12]  797 	jr	Z, 00149$
    000002EF DD 7E F7         [19]  798 	ld	a, -9 (ix)
    000002F2 D6 02            [ 7]  799 	sub	a, #0x02
    000002F4 28 07            [12]  800 	jr	Z, 00149$
    000002F6 DD 7E F7         [19]  801 	ld	a, -9 (ix)
    000002F9 D6 04            [ 7]  802 	sub	a, #0x04
    000002FB 20 2E            [12]  803 	jr	NZ, 00150$
    000002FD                        804 00149$:
                                    805 ;E:\Dropbox\FAUSTO\SVILUPPI\MSX\CODE\C\MSXgl\projects\soccerlgSCC/soccerlg_s14_b3.c:75: g_Players[playerId].X++;
    000002FD DD 6E F5         [19]  806 	ld	l, -11 (ix)
    00000300 DD 66 F6         [19]  807 	ld	h, -10 (ix)
    00000303 7E               [ 7]  808 	ld	a, (hl)
    00000304 DD 77 FC         [19]  809 	ld	-4 (ix), a
    00000307 23               [ 6]  810 	inc	hl
    00000308 7E               [ 7]  811 	ld	a, (hl)
    00000309 DD 77 FD         [19]  812 	ld	-3 (ix), a
    0000030C DD 7E FC         [19]  813 	ld	a, -4 (ix)
    0000030F C6 01            [ 7]  814 	add	a, #0x01
    00000311 DD 77 FE         [19]  815 	ld	-2 (ix), a
    00000314 DD 7E FD         [19]  816 	ld	a, -3 (ix)
    00000317 CE 00            [ 7]  817 	adc	a, #0x00
    00000319 DD 77 FF         [19]  818 	ld	-1 (ix), a
    0000031C DD 6E F5         [19]  819 	ld	l, -11 (ix)
    0000031F DD 66 F6         [19]  820 	ld	h, -10 (ix)
    00000322 DD 7E FE         [19]  821 	ld	a, -2 (ix)
    00000325 77               [ 7]  822 	ld	(hl), a
    00000326 23               [ 6]  823 	inc	hl
    00000327 DD 7E FF         [19]  824 	ld	a, -1 (ix)
    0000032A 77               [ 7]  825 	ld	(hl), a
    0000032B                        826 00150$:
                                    827 ;E:\Dropbox\FAUSTO\SVILUPPI\MSX\CODE\C\MSXgl\projects\soccerlgSCC/soccerlg_s14_b3.c:76: if (moveDir == DIRECTION_LEFT || moveDir == DIRECTION_UP_LEFT || moveDir == DIRECTION_DOWN_LEFT)
    0000032B DD 7E F7         [19]  828 	ld	a, -9 (ix)
    0000032E D6 07            [ 7]  829 	sub	a, #0x07
    00000330 28 0E            [12]  830 	jr	Z, 00153$
    00000332 DD 7E F7         [19]  831 	ld	a, -9 (ix)
    00000335 D6 08            [ 7]  832 	sub	a, #0x08
    00000337 28 07            [12]  833 	jr	Z, 00153$
    00000339 DD 7E F7         [19]  834 	ld	a, -9 (ix)
    0000033C D6 06            [ 7]  835 	sub	a, #0x06
    0000033E 20 2E            [12]  836 	jr	NZ, 00154$
    00000340                        837 00153$:
                                    838 ;E:\Dropbox\FAUSTO\SVILUPPI\MSX\CODE\C\MSXgl\projects\soccerlgSCC/soccerlg_s14_b3.c:77: g_Players[playerId].X--;
    00000340 DD 6E F5         [19]  839 	ld	l, -11 (ix)
    00000343 DD 66 F6         [19]  840 	ld	h, -10 (ix)
    00000346 7E               [ 7]  841 	ld	a, (hl)
    00000347 DD 77 FC         [19]  842 	ld	-4 (ix), a
    0000034A 23               [ 6]  843 	inc	hl
    0000034B 7E               [ 7]  844 	ld	a, (hl)
    0000034C DD 77 FD         [19]  845 	ld	-3 (ix), a
    0000034F DD 7E FC         [19]  846 	ld	a, -4 (ix)
    00000352 C6 FF            [ 7]  847 	add	a, #0xff
    00000354 DD 77 FE         [19]  848 	ld	-2 (ix), a
    00000357 DD 7E FD         [19]  849 	ld	a, -3 (ix)
    0000035A CE FF            [ 7]  850 	adc	a, #0xff
    0000035C DD 77 FF         [19]  851 	ld	-1 (ix), a
    0000035F DD 6E F5         [19]  852 	ld	l, -11 (ix)
    00000362 DD 66 F6         [19]  853 	ld	h, -10 (ix)
    00000365 DD 7E FE         [19]  854 	ld	a, -2 (ix)
    00000368 77               [ 7]  855 	ld	(hl), a
    00000369 23               [ 6]  856 	inc	hl
    0000036A DD 7E FF         [19]  857 	ld	a, -1 (ix)
    0000036D 77               [ 7]  858 	ld	(hl), a
    0000036E                        859 00154$:
                                    860 ;E:\Dropbox\FAUSTO\SVILUPPI\MSX\CODE\C\MSXgl\projects\soccerlgSCC/soccerlg_s14_b3.c:79: g_Players[playerId].Status = PLAYER_STATUS_NONE;
    0000036E DD 6E F8         [19]  861 	ld	l, -8 (ix)
    00000371 DD 66 F9         [19]  862 	ld	h, -7 (ix)
    00000374 AF               [ 4]  863 	xor	a, a
    00000375 77               [ 7]  864 	ld	(hl), a
    00000376 23               [ 6]  865 	inc	hl
    00000377 77               [ 7]  866 	ld	(hl), a
    00000378 C3r86r03         [10]  867 	jp	00159$
    0000037B                        868 00158$:
                                    869 ;E:\Dropbox\FAUSTO\SVILUPPI\MSX\CODE\C\MSXgl\projects\soccerlgSCC/soccerlg_s14_b3.c:81: g_Players[playerId].Status = PLAYER_STATUS_POSITIONED;
    0000037B DD 6E F8         [19]  870 	ld	l, -8 (ix)
    0000037E DD 66 F9         [19]  871 	ld	h, -7 (ix)
    00000381 36 04            [10]  872 	ld	(hl), #0x04
    00000383 23               [ 6]  873 	inc	hl
    00000384 36 00            [10]  874 	ld	(hl), #0x00
    00000386                        875 00159$:
                                    876 ;E:\Dropbox\FAUSTO\SVILUPPI\MSX\CODE\C\MSXgl\projects\soccerlgSCC/soccerlg_s14_b3.c:85: if(g_Players[playerId].Y < FIELD_BOUND_Y_TOP) g_Players[playerId].Y = FIELD_BOUND_Y_TOP;
    00000386 DD 6E F3         [19]  877 	ld	l, -13 (ix)
    00000389 DD 66 F4         [19]  878 	ld	h, -12 (ix)
    0000038C 4E               [ 7]  879 	ld	c, (hl)
    0000038D 23               [ 6]  880 	inc	hl
    0000038E 46               [ 7]  881 	ld	b, (hl)
    0000038F 79               [ 4]  882 	ld	a, c
    00000390 D6 32            [ 7]  883 	sub	a, #0x32
    00000392 78               [ 4]  884 	ld	a, b
    00000393 DE 00            [ 7]  885 	sbc	a, #0x00
    00000395 30 09            [12]  886 	jr	NC, 00161$
    00000397 C1               [10]  887 	pop	bc
    00000398 E1               [10]  888 	pop	hl
    00000399 E5               [11]  889 	push	hl
    0000039A C5               [11]  890 	push	bc
    0000039B 36 32            [10]  891 	ld	(hl), #0x32
    0000039D 23               [ 6]  892 	inc	hl
    0000039E 36 00            [10]  893 	ld	(hl), #0x00
    000003A0                        894 00161$:
                                    895 ;E:\Dropbox\FAUSTO\SVILUPPI\MSX\CODE\C\MSXgl\projects\soccerlgSCC/soccerlg_s14_b3.c:86: if(g_Players[playerId].Y > FIELD_BOUND_Y_BOTTOM) g_Players[playerId].Y = FIELD_BOUND_Y_BOTTOM;
    000003A0 DD 6E F3         [19]  896 	ld	l, -13 (ix)
    000003A3 DD 66 F4         [19]  897 	ld	h, -12 (ix)
    000003A6 4E               [ 7]  898 	ld	c, (hl)
    000003A7 23               [ 6]  899 	inc	hl
    000003A8 46               [ 7]  900 	ld	b, (hl)
    000003A9 3E B3            [ 7]  901 	ld	a, #0xb3
    000003AB B9               [ 4]  902 	cp	a, c
    000003AC 3E 01            [ 7]  903 	ld	a, #0x01
    000003AE 98               [ 4]  904 	sbc	a, b
    000003AF 30 09            [12]  905 	jr	NC, 00163$
    000003B1 C1               [10]  906 	pop	bc
    000003B2 E1               [10]  907 	pop	hl
    000003B3 E5               [11]  908 	push	hl
    000003B4 C5               [11]  909 	push	bc
    000003B5 36 B3            [10]  910 	ld	(hl), #0xb3
    000003B7 23               [ 6]  911 	inc	hl
    000003B8 36 01            [10]  912 	ld	(hl), #0x01
    000003BA                        913 00163$:
                                    914 ;E:\Dropbox\FAUSTO\SVILUPPI\MSX\CODE\C\MSXgl\projects\soccerlgSCC/soccerlg_s14_b3.c:87: if(g_Players[playerId].X < FIELD_BOUND_X_LEFT) g_Players[playerId].X = FIELD_BOUND_X_LEFT;
    000003BA DD 6E F5         [19]  915 	ld	l, -11 (ix)
    000003BD DD 66 F6         [19]  916 	ld	h, -10 (ix)
    000003C0 4E               [ 7]  917 	ld	c, (hl)
    000003C1 23               [ 6]  918 	inc	hl
    000003C2 46               [ 7]  919 	ld	b, (hl)
    000003C3 79               [ 4]  920 	ld	a, c
    000003C4 D6 0A            [ 7]  921 	sub	a, #0x0a
    000003C6 78               [ 4]  922 	ld	a, b
    000003C7 DE 00            [ 7]  923 	sbc	a, #0x00
    000003C9 30 0B            [12]  924 	jr	NC, 00165$
    000003CB DD 6E F5         [19]  925 	ld	l, -11 (ix)
    000003CE DD 66 F6         [19]  926 	ld	h, -10 (ix)
    000003D1 36 0A            [10]  927 	ld	(hl), #0x0a
    000003D3 23               [ 6]  928 	inc	hl
    000003D4 36 00            [10]  929 	ld	(hl), #0x00
    000003D6                        930 00165$:
                                    931 ;E:\Dropbox\FAUSTO\SVILUPPI\MSX\CODE\C\MSXgl\projects\soccerlgSCC/soccerlg_s14_b3.c:88: if(g_Players[playerId].X > FIELD_BOUND_X_RIGHT) g_Players[playerId].X = FIELD_BOUND_X_RIGHT;
    000003D6 DD 6E F5         [19]  932 	ld	l, -11 (ix)
    000003D9 DD 66 F6         [19]  933 	ld	h, -10 (ix)
    000003DC 4E               [ 7]  934 	ld	c, (hl)
    000003DD 23               [ 6]  935 	inc	hl
    000003DE 46               [ 7]  936 	ld	b, (hl)
    000003DF 3E EC            [ 7]  937 	ld	a, #0xec
    000003E1 B9               [ 4]  938 	cp	a, c
    000003E2 3E 00            [ 7]  939 	ld	a, #0x00
    000003E4 98               [ 4]  940 	sbc	a, b
    000003E5 30 0B            [12]  941 	jr	NC, 00168$
    000003E7 DD 6E F5         [19]  942 	ld	l, -11 (ix)
    000003EA DD 66 F6         [19]  943 	ld	h, -10 (ix)
    000003ED 36 EC            [10]  944 	ld	(hl), #0xec
    000003EF 23               [ 6]  945 	inc	hl
    000003F0 36 00            [10]  946 	ld	(hl), #0x00
    000003F2                        947 00168$:
                                    948 ;E:\Dropbox\FAUSTO\SVILUPPI\MSX\CODE\C\MSXgl\projects\soccerlgSCC/soccerlg_s14_b3.c:89: }
    000003F2 DD F9            [10]  949 	ld	sp, ix
    000003F4 DD E1            [14]  950 	pop	ix
    000003F6 C9               [10]  951 	ret
                         0000F380   952 _g_RDPRIM	=	0xf380
                         0000F385   953 _g_WRPRIM	=	0xf385
                         0000F38C   954 _g_CLPRIM	=	0xf38c
                         0000F39A   955 _g_USRTAB	=	0xf39a
                         0000F3DE   956 _g_CNSDFG	=	0xf3de
                         0000F3DF   957 _g_RG0SAV	=	0xf3df
                         0000F3E0   958 _g_RG1SAV	=	0xf3e0
                         0000F3E1   959 _g_RG2SAV	=	0xf3e1
                         0000F3E2   960 _g_RG3SAV	=	0xf3e2
                         0000F3E3   961 _g_RG4SAV	=	0xf3e3
                         0000F3E4   962 _g_RG5SAV	=	0xf3e4
                         0000F3E5   963 _g_RG6SAV	=	0xf3e5
                         0000F3E6   964 _g_RG7SAV	=	0xf3e6
                         0000F3E7   965 _g_STATFL	=	0xf3e7
                         0000F3E8   966 _g_TRGFLG	=	0xf3e8
                         0000F3EC   967 _g_MAXUPD	=	0xf3ec
                         0000F3EF   968 _g_MINUPD	=	0xf3ef
                         0000F3F3   969 _g_QUEUES	=	0xf3f3
                         0000F3F5   970 _g_FRCNEW	=	0xf3f5
                         0000F3F6   971 _g_SCNCNT	=	0xf3f6
                         0000F3F7   972 _g_REPCNT	=	0xf3f7
                         0000F3F8   973 _g_PUTPNT	=	0xf3f8
                         0000F3FA   974 _g_GETPNT	=	0xf3fa
                         0000F3FC   975 _g_CS120	=	0xf3fc
                         0000F401   976 _g_CS240	=	0xf401
                         0000F406   977 _g_LOW	=	0xf406
                         0000F408   978 _g_HIGH	=	0xf408
                         0000F40A   979 _g_HEADER	=	0xf40a
                         0000F40B   980 _g_ASPCT1	=	0xf40b
                         0000F40D   981 _g_ASPCT2	=	0xf40d
                         0000F959   982 _g_QUETAB	=	0xf959
                         0000F971   983 _g_QUEBAK	=	0xf971
                         0000F975   984 _g_VOICAQ	=	0xf975
                         0000F9F5   985 _g_VOICBQ	=	0xf9f5
                         0000FA75   986 _g_VOICCQ	=	0xfa75
                         0000FAF5   987 _g_RS2IQ	=	0xfaf5
                         0000FAF5   988 _g_DPPAGE	=	0xfaf5
                         0000FAF6   989 _g_ACPAGE	=	0xfaf6
                         0000FAF7   990 _g_AVCSAV	=	0xfaf7
                         0000FAF8   991 _g_EXBRSA	=	0xfaf8
                         0000FAF9   992 _g_CHRCNT	=	0xfaf9
                         0000FAFA   993 _g_ROMA	=	0xfafa
                         0000FAFC   994 _g_MODE	=	0xfafc
                         0000FAFD   995 _g_NORUSE	=	0xfafd
                         0000FAFE   996 _g_XSAVE	=	0xfafe
                         0000FB00   997 _g_YSAVE	=	0xfb00
                         0000FB03   998 _g_RSTMP	=	0xfb03
                         0000FB03   999 _g_TOCNT	=	0xfb03
                         0000FB04  1000 _g_RSFCB	=	0xfb04
                         0000FB06  1001 _g_RSIQLN	=	0xfb06
                         0000FB07  1002 _g_MEXBIh	=	0xfb07
                         0000FB0C  1003 _g_OLDSTT	=	0xfb0c
                         0000FB0C  1004 _g_OLDINT	=	0xfb0c
                         0000FB16  1005 _g_DEVNUM	=	0xfb16
                         0000FB17  1006 _g_DATCNT	=	0xfb17
                         0000FB1A  1007 _g_ERRORS	=	0xfb1a
                         0000FB1B  1008 _g_FLAGS	=	0xfb1b
                         0000FB1C  1009 _g_ESTBLS	=	0xfb1c
                         0000FB1D  1010 _g_COMMSK	=	0xfb1d
                         0000FB1E  1011 _g_LSTCOM	=	0xfb1e
                         0000FB1F  1012 _g_LSTMOD	=	0xfb1f
                         0000FB35  1013 _g_PRSCNT	=	0xfb35
                         0000FB36  1014 _g_SAVSP	=	0xfb36
                         0000FB38  1015 _g_VOICEN	=	0xfb38
                         0000FB39  1016 _g_SAVVOL	=	0xfb39
                         0000FB3B  1017 _g_MCLLEN	=	0xfb3b
                         0000FB3C  1018 _g_MCLPTR	=	0xfb3c
                         0000FB3E  1019 _g_QUEUEN	=	0xfb3e
                         0000FB3F  1020 _g_MUSICF	=	0xfb3f
                         0000FB40  1021 _g_PLYCNT	=	0xfb40
                         0000FB41  1022 _g_VCBA	=	0xfb41
                         0000FB66  1023 _g_VCBB	=	0xfb66
                         0000FB8B  1024 _g_VCBC	=	0xfb8b
                         0000FBB0  1025 _g_ENSTOP	=	0xfbb0
                         0000FBB1  1026 _g_BASROM	=	0xfbb1
                         0000FBB2  1027 _g_LINTTB	=	0xfbb2
                         0000FBCA  1028 _g_FSTPOS	=	0xfbca
                         0000FBCC  1029 _g_CODSAV	=	0xfbcc
                         0000FBCD  1030 _g_FNKSWI	=	0xfbcd
                         0000FBCE  1031 _g_FNKFLG	=	0xfbce
                         0000FBD8  1032 _g_ONGSBF	=	0xfbd8
                         0000FBD9  1033 _g_CLIKFL	=	0xfbd9
                         0000FBDA  1034 _g_OLDKEY	=	0xfbda
                         0000FBE5  1035 _g_NEWKEY	=	0xfbe5
                         0000FBF0  1036 _g_KEYBUF	=	0xfbf0
                         0000FC18  1037 _g_LINWRK	=	0xfc18
                         0000FC40  1038 _g_PATWRK	=	0xfc40
                         0000FC48  1039 _g_BOTTOM	=	0xfc48
                         0000FC4A  1040 _g_HIMEM	=	0xfc4a
                         0000FC4C  1041 _g_TRPTBL	=	0xfc4c
                         0000FC9A  1042 _g_RTYCNT	=	0xfc9a
                         0000FC9B  1043 _g_INTFLG	=	0xfc9b
                         0000FC9C  1044 _g_PADY	=	0xfc9c
                         0000FC9D  1045 _g_PADX	=	0xfc9d
                         0000FC9E  1046 _g_JIFFY	=	0xfc9e
                         0000FCA0  1047 _g_INTVAL	=	0xfca0
                         0000FCA2  1048 _g_INTCNT	=	0xfca2
                         0000FCA4  1049 _g_LOWLIM	=	0xfca4
                         0000FCA5  1050 _g_WINWID	=	0xfca5
                         0000FCA6  1051 _g_GRPHED	=	0xfca6
                         0000FCA7  1052 _g_ESCCNT	=	0xfca7
                         0000FCA8  1053 _g_INSFLG	=	0xfca8
                         0000FCA9  1054 _g_CSRSW	=	0xfca9
                         0000FCAA  1055 _g_CSTYLE	=	0xfcaa
                         0000FCAB  1056 _g_CAPST	=	0xfcab
                         0000FCAC  1057 _g_KANAST	=	0xfcac
                         0000FCAD  1058 _g_KANAMD	=	0xfcad
                         0000FCAE  1059 _g_FLBMEM	=	0xfcae
                         0000FCAF  1060 _g_SCRMOD	=	0xfcaf
                         0000FCB0  1061 _g_OLDSCR	=	0xfcb0
                         0000FCB1  1062 _g_CASPRV	=	0xfcb1
                         0000FCB2  1063 _g_BRDATR	=	0xfcb2
                         0000FCB3  1064 _g_GXPOS	=	0xfcb3
                         0000FCB5  1065 _g_GYPOS	=	0xfcb5
                         0000FCBB  1066 _g_DRWFLG	=	0xfcbb
                         0000FCBC  1067 _g_DRWSCL	=	0xfcbc
                         0000FCBD  1068 _g_DRWANG	=	0xfcbd
                         0000FCC1  1069 _g_MNROM	=	0xfcc1
                         0000FCC1  1070 _g_EXPTBL	=	0xfcc1
                         0000FCC5  1071 _g_SLTTBL	=	0xfcc5
                         0000FCC9  1072 _g_SLTATR	=	0xfcc9
                         0000FD09  1073 _g_SLTWRK	=	0xfd09
                         0000FD89  1074 _g_PROCNM	=	0xfd89
                         0000FFE7  1075 _g_RG08SAV	=	0xffe7
                         0000FFE8  1076 _g_RG09SAV	=	0xffe8
                         0000FFE9  1077 _g_RG10SAV	=	0xffe9
                         0000FFEA  1078 _g_RG11SAV	=	0xffea
                         0000FFEB  1079 _g_RG12SAV	=	0xffeb
                         0000FFEC  1080 _g_RG13SAV	=	0xffec
                         0000FFED  1081 _g_RG14SAV	=	0xffed
                         0000FFEE  1082 _g_RG15SAV	=	0xffee
                         0000FFEF  1083 _g_RG16SAV	=	0xffef
                         0000FFF0  1084 _g_RG17SAV	=	0xfff0
                         0000FFF1  1085 _g_RG18SAV	=	0xfff1
                         0000FFF2  1086 _g_RG19SAV	=	0xfff2
                         0000FFF3  1087 _g_RG20SAV	=	0xfff3
                         0000FFF4  1088 _g_RG21SAV	=	0xfff4
                         0000FFF5  1089 _g_RG22SAV	=	0xfff5
                         0000FFF6  1090 _g_RG23SAV	=	0xfff6
                         0000FFF7  1091 _g_MINROM	=	0xfff7
                         0000FFF8  1092 _g_SVFFF8	=	0xfff8
                         0000FFFA  1093 _g_RG25SAV	=	0xfffa
                         0000FFFB  1094 _g_RG26SAV	=	0xfffb
                         0000FFFC  1095 _g_RG27SAV	=	0xfffc
                         0000FFFD  1096 _g_SVFFFD	=	0xfffd
                         00000004  1097 _g_CGTABL	=	0x0004
                         00000006  1098 _g_VDP_DR	=	0x0006
                         00000007  1099 _g_VDP_DW	=	0x0007
                         0000002B  1100 _g_BASRVN	=	0x002b
                         0000002B  1101 _g_ROMVersion	=	0x002b
                         0000002D  1102 _g_MSXVER	=	0x002d
                         0000002E  1103 _g_MSXMID	=	0x002e
                         00000034  1104 _g_CHAR_16	=	0x0034
                         00000000  1105 _g_SUBRID	=	0x0000
                         00000002  1106 _g_STRSRC	=	0x0002
                         0000F30F  1107 _g_KANJTABLE	=	0xf30f
                         0000F323  1108 _g_DISKVE	=	0xf323
                         0000F325  1109 _g_BREAKV	=	0xf325
                         0000F341  1110 _g_RAMAD0	=	0xf341
                         0000F342  1111 _g_RAMAD1	=	0xf342
                         0000F343  1112 _g_RAMAD2	=	0xf343
                         0000F344  1113 _g_RAMAD3	=	0xf344
                         0000F348  1114 _g_MASTER	=	0xf348
                         0000F37D  1115 _g_BDOS	=	0xf37d
                                   1116 	.area _SEG14
                                   1117 	.area _INITIALIZER
                                   1118 	.area _CABS (ABS)
