                                      1 ;--------------------------------------------------------
                                      2 ; File Created by SDCC : free open source ANSI-C Compiler
                                      3 ; Version 4.2.0 #13081 (MINGW64)
                                      4 ;--------------------------------------------------------
                                      5 	.module soccerlg
                                      6 	.optsdcc -mz80
                                      7 	
                                      8 ;--------------------------------------------------------
                                      9 ; Public variables in this module
                                     10 ;--------------------------------------------------------
                                     11 	.globl _VGM_Decode
                                     12 	.globl _VGM_Resume
                                     13 	.globl _VGM_Stop
                                     14 	.globl _VGM_Play
                                     15 	.globl _VGM_SetNotifyCB
                                     16 	.globl _ayFX_Update
                                     17 	.globl _ayFX_Mute
                                     18 	.globl _ayFX_PlayBank
                                     19 	.globl _ayFX_InitBank
                                     20 	.globl _PCM_Play_11K
                                     21 	.globl _PSG_Apply
                                     22 	.globl _MainSub
                                     23 	.globl _TickGameFieldScrolling
                                     24 	.globl _V9_SetPaletteEntry
                                     25 	.globl _V9_SetScrollingBY
                                     26 	.globl _V9_Poke16_CurrentAddr
                                     27 	.globl _V9_WriteVRAM_CurrentAddr
                                     28 	.globl _V9_FillVRAM16_CurrentAddr
                                     29 	.globl _V9_FillVRAM_CurrentAddr
                                     30 	.globl _V9_SetWriteAddress
                                     31 	.globl _V9_SetRegister
                                     32 	.globl _Print_SetTextFont
                                     33 	.globl _g_VblankSuspended
                                     34 	.globl _g_TimerActive
                                     35 	.globl _g_currentVGMPlayingSegment
                                     36 	.globl _g_ShotCursorDir
                                     37 	.globl _g_ShotCursorX
                                     38 	.globl _g_SoundRequest
                                     39 	.globl _g_ponPonGirlsInitailized
                                     40 	.globl _g_peopleState
                                     41 	.globl _g_PonPonGrilsPoseCounter
                                     42 	.globl _g_ponPonPatternIndex
                                     43 	.globl _g_GoalScorerId
                                     44 	.globl _g_ThrowInPlayerId
                                     45 	.globl _g_GkAnimTimer
                                     46 	.globl _g_GoalKickSide
                                     47 	.globl _g_GkRecoilY
                                     48 	.globl _g_GkAnimPlayerId
                                     49 	.globl _g_GkIsGroundKick
                                     50 	.globl _g_GameWith2Players
                                     51 	.globl _g_ShootCooldown
                                     52 	.globl _g_ActionCooldown
                                     53 	.globl _g_CornerKickSide
                                     54 	.globl _g_CornerKickTargetId
                                     55 	.globl _g_PmcSoundPlaying
                                     56 	.globl _g_PcmStartPlaying
                                     57 	.globl _g_History2
                                     58 	.globl _g_History1
                                     59 	.globl _g_FieldScrollingActionInProgress
                                     60 	.globl _g_LastTimeCounter
                                     61 	.globl _g_TimeCounter
                                     62 	.globl _g_BallIsVisible
                                     63 	.globl _g_PonPonGirlsAreVisible
                                     64 	.globl _g_currentVGMPlayerSong
                                     65 	.globl _g_PonPonGirls
                                     66 	.globl _g_PassTargetPlayer
                                     67 	.globl _g_RestartKickTeamId
                                     68 	.globl _g_Team2Score
                                     69 	.globl _g_Team1Score
                                     70 	.globl _g_SecondsToEndOfMatch
                                     71 	.globl _g_Team2ActivePlayer
                                     72 	.globl _g_Team1ActivePlayer
                                     73 	.globl _g_ShowButtonsInfo
                                     74 	.globl _g_Team2PaletteId
                                     75 	.globl _g_Team1PaletteId
                                     76 	.globl _g_Players
                                     77 	.globl _g_Ball
                                     78 	.globl _g_MatchStatus
                                     79 	.globl _g_ActiveFieldZone
                                     80 	.globl _g_FieldScrollSpeed
                                     81 	.globl _g_FieldCurrentYPosition
                                     82 	.globl _g_Timer
                                     83 	.globl _g_FrameCounter
                                     84 	.globl _g_VgmPublicPresentationEnded
                                     85 	.globl _g_FirstKickOff
                                     86 	.globl _g_VSynch
                                     87 	.globl _g_SLTSL
                                     88 	.globl _g_GRPACY
                                     89 	.globl _g_GRPACX
                                     90 	.globl _g_LOGOPR
                                     91 	.globl _g_CMASK
                                     92 	.globl _g_CLOC
                                     93 	.globl _g_FNKSTR
                                     94 	.globl _g_ATRBYT
                                     95 	.globl _g_BDRCLR
                                     96 	.globl _g_BAKCLR
                                     97 	.globl _g_FORCLR
                                     98 	.globl _g_CSRX
                                     99 	.globl _g_CSRY
                                    100 	.globl _g_CLIKSW
                                    101 	.globl _g_MLTPAT
                                    102 	.globl _g_MLTATR
                                    103 	.globl _g_MLTCGP
                                    104 	.globl _g_MLTCOL
                                    105 	.globl _g_MLTNAM
                                    106 	.globl _g_GRPPAT
                                    107 	.globl _g_GRPATR
                                    108 	.globl _g_GRPCGP
                                    109 	.globl _g_GRPCOL
                                    110 	.globl _g_GRPNAM
                                    111 	.globl _g_T32PAT
                                    112 	.globl _g_T32ATR
                                    113 	.globl _g_T32CGP
                                    114 	.globl _g_T32COL
                                    115 	.globl _g_T32NAM
                                    116 	.globl _g_TXTPAT
                                    117 	.globl _g_TXTATR
                                    118 	.globl _g_TXTCGP
                                    119 	.globl _g_TXTCOL
                                    120 	.globl _g_TXTNAM
                                    121 	.globl _g_CLMLST
                                    122 	.globl _g_CRTCNT
                                    123 	.globl _g_LINLEN
                                    124 	.globl _g_LINL32
                                    125 	.globl _g_LINL40
                                    126 	.globl _g_MusicEntry
                                    127 	.globl _g_TeamStats
                                    128 	.globl _g_BDOS
                                    129 	.globl _g_MASTER
                                    130 	.globl _g_RAMAD3
                                    131 	.globl _g_RAMAD2
                                    132 	.globl _g_RAMAD1
                                    133 	.globl _g_RAMAD0
                                    134 	.globl _g_BREAKV
                                    135 	.globl _g_DISKVE
                                    136 	.globl _g_KANJTABLE
                                    137 	.globl _g_STRSRC
                                    138 	.globl _g_SUBRID
                                    139 	.globl _g_CHAR_16
                                    140 	.globl _g_MSXMID
                                    141 	.globl _g_MSXVER
                                    142 	.globl _g_ROMVersion
                                    143 	.globl _g_BASRVN
                                    144 	.globl _g_VDP_DW
                                    145 	.globl _g_VDP_DR
                                    146 	.globl _g_CGTABL
                                    147 	.globl _g_SVFFFD
                                    148 	.globl _g_RG27SAV
                                    149 	.globl _g_RG26SAV
                                    150 	.globl _g_RG25SAV
                                    151 	.globl _g_SVFFF8
                                    152 	.globl _g_MINROM
                                    153 	.globl _g_RG23SAV
                                    154 	.globl _g_RG22SAV
                                    155 	.globl _g_RG21SAV
                                    156 	.globl _g_RG20SAV
                                    157 	.globl _g_RG19SAV
                                    158 	.globl _g_RG18SAV
                                    159 	.globl _g_RG17SAV
                                    160 	.globl _g_RG16SAV
                                    161 	.globl _g_RG15SAV
                                    162 	.globl _g_RG14SAV
                                    163 	.globl _g_RG13SAV
                                    164 	.globl _g_RG12SAV
                                    165 	.globl _g_RG11SAV
                                    166 	.globl _g_RG10SAV
                                    167 	.globl _g_RG09SAV
                                    168 	.globl _g_RG08SAV
                                    169 	.globl _g_PROCNM
                                    170 	.globl _g_SLTWRK
                                    171 	.globl _g_SLTATR
                                    172 	.globl _g_SLTTBL
                                    173 	.globl _g_EXPTBL
                                    174 	.globl _g_MNROM
                                    175 	.globl _g_DRWANG
                                    176 	.globl _g_DRWSCL
                                    177 	.globl _g_DRWFLG
                                    178 	.globl _g_GYPOS
                                    179 	.globl _g_GXPOS
                                    180 	.globl _g_BRDATR
                                    181 	.globl _g_CASPRV
                                    182 	.globl _g_OLDSCR
                                    183 	.globl _g_SCRMOD
                                    184 	.globl _g_FLBMEM
                                    185 	.globl _g_KANAMD
                                    186 	.globl _g_KANAST
                                    187 	.globl _g_CAPST
                                    188 	.globl _g_CSTYLE
                                    189 	.globl _g_CSRSW
                                    190 	.globl _g_INSFLG
                                    191 	.globl _g_ESCCNT
                                    192 	.globl _g_GRPHED
                                    193 	.globl _g_WINWID
                                    194 	.globl _g_LOWLIM
                                    195 	.globl _g_INTCNT
                                    196 	.globl _g_INTVAL
                                    197 	.globl _g_JIFFY
                                    198 	.globl _g_PADX
                                    199 	.globl _g_PADY
                                    200 	.globl _g_INTFLG
                                    201 	.globl _g_RTYCNT
                                    202 	.globl _g_TRPTBL
                                    203 	.globl _g_HIMEM
                                    204 	.globl _g_BOTTOM
                                    205 	.globl _g_PATWRK
                                    206 	.globl _g_LINWRK
                                    207 	.globl _g_KEYBUF
                                    208 	.globl _g_NEWKEY
                                    209 	.globl _g_OLDKEY
                                    210 	.globl _g_CLIKFL
                                    211 	.globl _g_ONGSBF
                                    212 	.globl _g_FNKFLG
                                    213 	.globl _g_FNKSWI
                                    214 	.globl _g_CODSAV
                                    215 	.globl _g_FSTPOS
                                    216 	.globl _g_LINTTB
                                    217 	.globl _g_BASROM
                                    218 	.globl _g_ENSTOP
                                    219 	.globl _g_VCBC
                                    220 	.globl _g_VCBB
                                    221 	.globl _g_VCBA
                                    222 	.globl _g_PLYCNT
                                    223 	.globl _g_MUSICF
                                    224 	.globl _g_QUEUEN
                                    225 	.globl _g_MCLPTR
                                    226 	.globl _g_MCLLEN
                                    227 	.globl _g_SAVVOL
                                    228 	.globl _g_VOICEN
                                    229 	.globl _g_SAVSP
                                    230 	.globl _g_PRSCNT
                                    231 	.globl _g_LSTMOD
                                    232 	.globl _g_LSTCOM
                                    233 	.globl _g_COMMSK
                                    234 	.globl _g_ESTBLS
                                    235 	.globl _g_FLAGS
                                    236 	.globl _g_ERRORS
                                    237 	.globl _g_DATCNT
                                    238 	.globl _g_DEVNUM
                                    239 	.globl _g_OLDINT
                                    240 	.globl _g_OLDSTT
                                    241 	.globl _g_MEXBIh
                                    242 	.globl _g_RSIQLN
                                    243 	.globl _g_RSFCB
                                    244 	.globl _g_TOCNT
                                    245 	.globl _g_RSTMP
                                    246 	.globl _g_YSAVE
                                    247 	.globl _g_XSAVE
                                    248 	.globl _g_NORUSE
                                    249 	.globl _g_MODE
                                    250 	.globl _g_ROMA
                                    251 	.globl _g_CHRCNT
                                    252 	.globl _g_EXBRSA
                                    253 	.globl _g_AVCSAV
                                    254 	.globl _g_ACPAGE
                                    255 	.globl _g_DPPAGE
                                    256 	.globl _g_RS2IQ
                                    257 	.globl _g_VOICCQ
                                    258 	.globl _g_VOICBQ
                                    259 	.globl _g_VOICAQ
                                    260 	.globl _g_QUEBAK
                                    261 	.globl _g_QUETAB
                                    262 	.globl _g_ASPCT2
                                    263 	.globl _g_ASPCT1
                                    264 	.globl _g_HEADER
                                    265 	.globl _g_HIGH
                                    266 	.globl _g_LOW
                                    267 	.globl _g_CS240
                                    268 	.globl _g_CS120
                                    269 	.globl _g_GETPNT
                                    270 	.globl _g_PUTPNT
                                    271 	.globl _g_REPCNT
                                    272 	.globl _g_SCNCNT
                                    273 	.globl _g_FRCNEW
                                    274 	.globl _g_QUEUES
                                    275 	.globl _g_MINUPD
                                    276 	.globl _g_MAXUPD
                                    277 	.globl _g_TRGFLG
                                    278 	.globl _g_STATFL
                                    279 	.globl _g_RG7SAV
                                    280 	.globl _g_RG6SAV
                                    281 	.globl _g_RG5SAV
                                    282 	.globl _g_RG4SAV
                                    283 	.globl _g_RG3SAV
                                    284 	.globl _g_RG2SAV
                                    285 	.globl _g_RG1SAV
                                    286 	.globl _g_RG0SAV
                                    287 	.globl _g_CNSDFG
                                    288 	.globl _g_USRTAB
                                    289 	.globl _g_CLPRIM
                                    290 	.globl _g_WRPRIM
                                    291 	.globl _g_RDPRIM
                                    292 	.globl _CallFnc_VOID
                                    293 	.globl _CallFnc_VOID_P1
                                    294 	.globl _CallFnc_VOID_P2
                                    295 	.globl _CallFnc_VOID_16_P2
                                    296 	.globl _CallFnc_U8
                                    297 	.globl _CallFnc_U8_P1
                                    298 	.globl _CallFnc_U16_P1
                                    299 	.globl _CallFnc_U8_P2
                                    300 	.globl _CallFnc_BOOL
                                    301 	.globl _CallFnc_BOOL_P1
                                    302 	.globl _PlayPCM
                                    303 	.globl _PlayAyFx
                                    304 	.globl _PlayVGM
                                    305 	.globl _VGMNotification
                                    306 	.globl _LoadMsxVdpFonts
                                    307 	.globl _V9990_WaitSynch
                                    308 	.globl _V9990_LoadButtonsImageData
                                    309 	.globl _V9990_LoadP1LayerA
                                    310 	.globl _V9990_LoadP1LayerB
                                    311 	.globl _V9990_LoadImagePresentationData
                                    312 	.globl _V9990_LoadMenuTeamsData
                                    313 	.globl _V9990_LoadSprites
                                    314 	.globl _V9990_PrintLayerAStringAtPos
                                    315 	.globl _V9990_ClearTextFromLayerA
                                    316 	.globl _V9_InterruptVBlank
                                    317 	.globl _InterruptHook
                                    318 	.globl _Math_Abs32
                                    319 	.globl _GetTeamStats
                                    320 	.globl _PlaySounds
                                    321 	.globl _main
                                    322 ;--------------------------------------------------------
                                    323 ; special function registers
                                    324 ;--------------------------------------------------------
                         000000A8   325 _g_PortPrimarySlot	=	0x00a8
                         000000A9   326 _g_PortReadKeyboard	=	0x00a9
                         000000AA   327 _g_PortAccessKeyboard	=	0x00aa
                         000000AB   328 _g_PortControl	=	0x00ab
                         00000098   329 _g_VDP_DataPort	=	0x0098
                         00000099   330 _g_VDP_RegPort	=	0x0099
                         00000099   331 _g_VDP_AddrPort	=	0x0099
                         00000099   332 _g_VDP_StatPort	=	0x0099
                         000000A0   333 _g_PSG_RegPort	=	0x00a0
                         000000A1   334 _g_PSG_DataPort	=	0x00a1
                         000000A2   335 _g_PSG_StatPort	=	0x00a2
                         00000010   336 _g_PSG_Ext_RegPort	=	0x0010
                         00000011   337 _g_PSG_Ext_DataPort	=	0x0011
                         00000012   338 _g_PSG_Ext_StatPort	=	0x0012
                         0000007C   339 _g_MSXMusic_IndexPort	=	0x007c
                         0000007D   340 _g_MSXMusic_DataPort	=	0x007d
                         000000C0   341 _g_MSXAudio_IndexPort	=	0x00c0
                         000000C1   342 _g_MSXAudio_DataPort	=	0x00c1
                         000000C2   343 _g_MSXAudio_IndexPort2	=	0x00c2
                         000000C3   344 _g_MSXAudio_DataPort2	=	0x00c3
                         000000B4   345 _g_RTC_AddrPort	=	0x00b4
                         000000B5   346 _g_RTC_DataPort	=	0x00b5
                         00000060   347 _g_V9_VRAMPort	=	0x0060
                         00000061   348 _g_V9_PalettePort	=	0x0061
                         00000062   349 _g_V9_CmdDataPort	=	0x0062
                         00000063   350 _g_V9_RegDataPort	=	0x0063
                         00000064   351 _g_V9_RegSelectPort	=	0x0064
                         00000065   352 _g_V9_SatusPort	=	0x0065
                         00000066   353 _g_V9_IntFlagPort	=	0x0066
                         00000067   354 _g_V9_SysCtrlPort	=	0x0067
                         00000068   355 _g_V9_KanjiAddrLPort	=	0x0068
                         00000069   356 _g_V9_KanjiAddrHPort	=	0x0069
                         00000069   357 _g_V9_KanjiDataPort	=	0x0069
                         0000006A   358 _g_V9_Kanji2AddrLPort	=	0x006a
                         0000006B   359 _g_V9_Kanji2AddrHPort	=	0x006b
                         0000006B   360 _g_V9_Kanji2DataPort	=	0x006b
                         0000006F   361 _g_V9_OutputCtrPort	=	0x006f
                                    362 ;--------------------------------------------------------
                                    363 ; ram data
                                    364 ;--------------------------------------------------------
                                    365 	.area _DATA
                         0000F3AE   366 _g_LINL40	=	0xf3ae
                         0000F3AF   367 _g_LINL32	=	0xf3af
                         0000F3B0   368 _g_LINLEN	=	0xf3b0
                         0000F3B1   369 _g_CRTCNT	=	0xf3b1
                         0000F3B2   370 _g_CLMLST	=	0xf3b2
                         0000F3B3   371 _g_TXTNAM	=	0xf3b3
                         0000F3B5   372 _g_TXTCOL	=	0xf3b5
                         0000F3B7   373 _g_TXTCGP	=	0xf3b7
                         0000F3B9   374 _g_TXTATR	=	0xf3b9
                         0000F3BB   375 _g_TXTPAT	=	0xf3bb
                         0000F3BD   376 _g_T32NAM	=	0xf3bd
                         0000F3BF   377 _g_T32COL	=	0xf3bf
                         0000F3C1   378 _g_T32CGP	=	0xf3c1
                         0000F3C3   379 _g_T32ATR	=	0xf3c3
                         0000F3C5   380 _g_T32PAT	=	0xf3c5
                         0000F3C7   381 _g_GRPNAM	=	0xf3c7
                         0000F3C9   382 _g_GRPCOL	=	0xf3c9
                         0000F3CB   383 _g_GRPCGP	=	0xf3cb
                         0000F3CD   384 _g_GRPATR	=	0xf3cd
                         0000F3CF   385 _g_GRPPAT	=	0xf3cf
                         0000F3D1   386 _g_MLTNAM	=	0xf3d1
                         0000F3D3   387 _g_MLTCOL	=	0xf3d3
                         0000F3D5   388 _g_MLTCGP	=	0xf3d5
                         0000F3D7   389 _g_MLTATR	=	0xf3d7
                         0000F3D9   390 _g_MLTPAT	=	0xf3d9
                         0000F3DB   391 _g_CLIKSW	=	0xf3db
                         0000F3DC   392 _g_CSRY	=	0xf3dc
                         0000F3DD   393 _g_CSRX	=	0xf3dd
                         0000F3E9   394 _g_FORCLR	=	0xf3e9
                         0000F3EA   395 _g_BAKCLR	=	0xf3ea
                         0000F3EB   396 _g_BDRCLR	=	0xf3eb
                         0000F3F2   397 _g_ATRBYT	=	0xf3f2
                         0000F87F   398 _g_FNKSTR	=	0xf87f
                         0000F92A   399 _g_CLOC	=	0xf92a
                         0000F92C   400 _g_CMASK	=	0xf92c
                         0000FB02   401 _g_LOGOPR	=	0xfb02
                         0000FCB7   402 _g_GRPACX	=	0xfcb7
                         0000FCB9   403 _g_GRPACY	=	0xfcb9
                         0000FFFF   404 _g_SLTSL	=	0xffff
    00000000                        405 _g_VSynch::
    00000000                        406 	.ds 1
    00000001                        407 _g_FirstKickOff::
    00000001                        408 	.ds 1
    00000002                        409 _g_VgmPublicPresentationEnded::
    00000002                        410 	.ds 1
    00000003                        411 _g_FrameCounter::
    00000003                        412 	.ds 1
    00000004                        413 _g_Timer::
    00000004                        414 	.ds 1
    00000005                        415 _g_FieldCurrentYPosition::
    00000005                        416 	.ds 2
    00000007                        417 _g_FieldScrollSpeed::
    00000007                        418 	.ds 1
    00000008                        419 _g_ActiveFieldZone::
    00000008                        420 	.ds 1
    00000009                        421 _g_MatchStatus::
    00000009                        422 	.ds 1
    0000000A                        423 _g_Ball::
    0000000A                        424 	.ds 30
    00000028                        425 _g_Players::
    00000028                        426 	.ds 315
    00000163                        427 _g_Team1PaletteId::
    00000163                        428 	.ds 1
    00000164                        429 _g_Team2PaletteId::
    00000164                        430 	.ds 1
    00000165                        431 _g_ShowButtonsInfo::
    00000165                        432 	.ds 1
    00000166                        433 _g_Team1ActivePlayer::
    00000166                        434 	.ds 1
    00000167                        435 _g_Team2ActivePlayer::
    00000167                        436 	.ds 1
    00000168                        437 _g_SecondsToEndOfMatch::
    00000168                        438 	.ds 1
    00000169                        439 _g_Team1Score::
    00000169                        440 	.ds 1
    0000016A                        441 _g_Team2Score::
    0000016A                        442 	.ds 1
    0000016B                        443 _g_RestartKickTeamId::
    0000016B                        444 	.ds 1
    0000016C                        445 _g_PassTargetPlayer::
    0000016C                        446 	.ds 1
    0000016D                        447 _g_PonPonGirls::
    0000016D                        448 	.ds 30
    0000018B                        449 _g_currentVGMPlayerSong::
    0000018B                        450 	.ds 1
                                    451 ;--------------------------------------------------------
                                    452 ; ram data
                                    453 ;--------------------------------------------------------
                                    454 	.area _INITIALIZED
    00000000                        455 _g_PonPonGirlsAreVisible::
    00000000                        456 	.ds 1
    00000001                        457 _g_BallIsVisible::
    00000001                        458 	.ds 1
    00000002                        459 _g_TimeCounter::
    00000002                        460 	.ds 2
    00000004                        461 _g_LastTimeCounter::
    00000004                        462 	.ds 2
    00000006                        463 _g_FieldScrollingActionInProgress::
    00000006                        464 	.ds 1
    00000007                        465 _g_History1::
    00000007                        466 	.ds 20
    0000001B                        467 _g_History2::
    0000001B                        468 	.ds 20
    0000002F                        469 _g_PcmStartPlaying::
    0000002F                        470 	.ds 1
    00000030                        471 _g_PmcSoundPlaying::
    00000030                        472 	.ds 1
    00000031                        473 _g_CornerKickTargetId::
    00000031                        474 	.ds 1
    00000032                        475 _g_CornerKickSide::
    00000032                        476 	.ds 1
    00000033                        477 _g_ActionCooldown::
    00000033                        478 	.ds 1
    00000034                        479 _g_ShootCooldown::
    00000034                        480 	.ds 1
    00000035                        481 _g_GameWith2Players::
    00000035                        482 	.ds 1
    00000036                        483 _g_GkIsGroundKick::
    00000036                        484 	.ds 1
    00000037                        485 _g_GkAnimPlayerId::
    00000037                        486 	.ds 1
    00000038                        487 _g_GkRecoilY::
    00000038                        488 	.ds 1
    00000039                        489 _g_GoalKickSide::
    00000039                        490 	.ds 1
    0000003A                        491 _g_GkAnimTimer::
    0000003A                        492 	.ds 1
    0000003B                        493 _g_ThrowInPlayerId::
    0000003B                        494 	.ds 1
    0000003C                        495 _g_GoalScorerId::
    0000003C                        496 	.ds 1
    0000003D                        497 _g_ponPonPatternIndex::
    0000003D                        498 	.ds 1
    0000003E                        499 _g_PonPonGrilsPoseCounter::
    0000003E                        500 	.ds 1
    0000003F                        501 _g_peopleState::
    0000003F                        502 	.ds 1
    00000040                        503 _g_ponPonGirlsInitailized::
    00000040                        504 	.ds 1
    00000041                        505 _g_SoundRequest::
    00000041                        506 	.ds 1
    00000042                        507 _g_ShotCursorX::
    00000042                        508 	.ds 2
    00000044                        509 _g_ShotCursorDir::
    00000044                        510 	.ds 1
    00000045                        511 _g_currentVGMPlayingSegment::
    00000045                        512 	.ds 1
    00000046                        513 _g_TimerActive::
    00000046                        514 	.ds 1
    00000047                        515 _g_VblankSuspended::
    00000047                        516 	.ds 1
                                    517 ;--------------------------------------------------------
                                    518 ; absolute external ram data
                                    519 ;--------------------------------------------------------
                                    520 	.area _DABS (ABS)
                                    521 ;--------------------------------------------------------
                                    522 ; global & static initialisations
                                    523 ;--------------------------------------------------------
                                    524 	.area _HOME
                                    525 	.area _GSINIT
                                    526 	.area _GSFINAL
                                    527 	.area _GSINIT
                                    528 ;--------------------------------------------------------
                                    529 ; Home
                                    530 ;--------------------------------------------------------
                                    531 	.area _HOME
                                    532 	.area _HOME
                                    533 ;--------------------------------------------------------
                                    534 ; code
                                    535 ;--------------------------------------------------------
                                    536 	.area _CODE
                                    537 ;./soccerlg.c:177: void CallFnc_VOID(u8 segment, void (*func)()) {
                                    538 ;	---------------------------------
                                    539 ; Function CallFnc_VOID
                                    540 ; ---------------------------------
    00000000                        541 _CallFnc_VOID::
    00000000 DD E5            [15]  542 	push	ix
    00000002 DD 21 00 00      [14]  543 	ld	ix,#0
    00000006 DD 39            [15]  544 	add	ix,sp
    00000008 3B               [ 6]  545 	dec	sp
    00000009 4F               [ 4]  546 	ld	c, a
                                    547 ;./soccerlg.c:178: u8 _old = GET_BANK_SEGMENT(3);
    0000000A 2Ar06r00         [16]  548 	ld	hl, (#(_g_Bank0Segment + 6) + 0)
    0000000D DD 75 FF         [19]  549 	ld	-1 (ix), l
                                    550 ;./soccerlg.c:179: SET_BANK_SEGMENT(3, segment);
    00000010 06 00            [ 7]  551 	ld	b, #0x00
                                    552 ;E:/Dropbox/FAUSTO/SVILUPPI/MSX/CODE/C/MSXgl/engine/src/rom_mapper.h:190: g_Bank0Segment[b] = s;
    00000012 ED 43r06r00      [20]  553 	ld	((_g_Bank0Segment + 6)), bc
                                    554 ;E:/Dropbox/FAUSTO/SVILUPPI/MSX/CODE/C/MSXgl/engine/src/rom_mapper.h:191: Poke(YAMANOOTO_OFFR, (s >> 2) & 0xC0);
    00000016 69               [ 4]  555 	ld	l, c
    00000017 60               [ 4]  556 	ld	h, b
    00000018 CB 3C            [ 8]  557 	srl	h
    0000001A CB 1D            [ 8]  558 	rr	l
    0000001C CB 3C            [ 8]  559 	srl	h
    0000001E CB 1D            [ 8]  560 	rr	l
    00000020 7D               [ 4]  561 	ld	a, l
    00000021 E6 C0            [ 7]  562 	and	a, #0xc0
                                    563 ;E:/Dropbox/FAUSTO/SVILUPPI/MSX/CODE/C/MSXgl/engine/src/system.h:101: inline void Poke(u16 addr, u8 val) { *(u8*)addr = val; }
    00000023 32 FE 7F         [13]  564 	ld	(#0x7ffe),a
                                    565 ;E:/Dropbox/FAUSTO/SVILUPPI/MSX/CODE/C/MSXgl/engine/src/rom_mapper.h:195: else if (b == 3)	Poke(ADDR_BANK_3, s & 0xFF);
                                    566 ;E:/Dropbox/FAUSTO/SVILUPPI/MSX/CODE/C/MSXgl/engine/src/system.h:101: inline void Poke(u16 addr, u8 val) { *(u8*)addr = val; }
    00000026 21 00 B0         [10]  567 	ld	hl, #0xb000
    00000029 71               [ 7]  568 	ld	(hl), c
                                    569 ;./soccerlg.c:180: func();
    0000002A EB               [ 4]  570 	ex	de, hl
    0000002B CDr00r00         [17]  571 	call	___sdcc_call_hl
                                    572 ;./soccerlg.c:181: SET_BANK_SEGMENT(3, _old);
    0000002E DD 4E FF         [19]  573 	ld	c, -1 (ix)
    00000031 06 00            [ 7]  574 	ld	b, #0x00
                                    575 ;E:/Dropbox/FAUSTO/SVILUPPI/MSX/CODE/C/MSXgl/engine/src/rom_mapper.h:190: g_Bank0Segment[b] = s;
    00000033 ED 43r06r00      [20]  576 	ld	((_g_Bank0Segment + 6)), bc
                                    577 ;E:/Dropbox/FAUSTO/SVILUPPI/MSX/CODE/C/MSXgl/engine/src/rom_mapper.h:191: Poke(YAMANOOTO_OFFR, (s >> 2) & 0xC0);
    00000037 59               [ 4]  578 	ld	e, c
    00000038 50               [ 4]  579 	ld	d, b
    00000039 CB 3A            [ 8]  580 	srl	d
    0000003B CB 1B            [ 8]  581 	rr	e
    0000003D CB 3A            [ 8]  582 	srl	d
    0000003F CB 1B            [ 8]  583 	rr	e
    00000041 7B               [ 4]  584 	ld	a, e
    00000042 E6 C0            [ 7]  585 	and	a, #0xc0
                                    586 ;E:/Dropbox/FAUSTO/SVILUPPI/MSX/CODE/C/MSXgl/engine/src/system.h:101: inline void Poke(u16 addr, u8 val) { *(u8*)addr = val; }
    00000044 32 FE 7F         [13]  587 	ld	(#0x7ffe),a
                                    588 ;E:/Dropbox/FAUSTO/SVILUPPI/MSX/CODE/C/MSXgl/engine/src/rom_mapper.h:195: else if (b == 3)	Poke(ADDR_BANK_3, s & 0xFF);
                                    589 ;E:/Dropbox/FAUSTO/SVILUPPI/MSX/CODE/C/MSXgl/engine/src/system.h:101: inline void Poke(u16 addr, u8 val) { *(u8*)addr = val; }
    00000047 21 00 B0         [10]  590 	ld	hl, #0xb000
    0000004A 71               [ 7]  591 	ld	(hl), c
                                    592 ;./soccerlg.c:181: SET_BANK_SEGMENT(3, _old);
                                    593 ;./soccerlg.c:182: }
    0000004B 33               [ 6]  594 	inc	sp
    0000004C DD E1            [14]  595 	pop	ix
    0000004E C9               [10]  596 	ret
                         0000F380   597 _g_RDPRIM	=	0xf380
                         0000F385   598 _g_WRPRIM	=	0xf385
                         0000F38C   599 _g_CLPRIM	=	0xf38c
                         0000F39A   600 _g_USRTAB	=	0xf39a
                         0000F3DE   601 _g_CNSDFG	=	0xf3de
                         0000F3DF   602 _g_RG0SAV	=	0xf3df
                         0000F3E0   603 _g_RG1SAV	=	0xf3e0
                         0000F3E1   604 _g_RG2SAV	=	0xf3e1
                         0000F3E2   605 _g_RG3SAV	=	0xf3e2
                         0000F3E3   606 _g_RG4SAV	=	0xf3e3
                         0000F3E4   607 _g_RG5SAV	=	0xf3e4
                         0000F3E5   608 _g_RG6SAV	=	0xf3e5
                         0000F3E6   609 _g_RG7SAV	=	0xf3e6
                         0000F3E7   610 _g_STATFL	=	0xf3e7
                         0000F3E8   611 _g_TRGFLG	=	0xf3e8
                         0000F3EC   612 _g_MAXUPD	=	0xf3ec
                         0000F3EF   613 _g_MINUPD	=	0xf3ef
                         0000F3F3   614 _g_QUEUES	=	0xf3f3
                         0000F3F5   615 _g_FRCNEW	=	0xf3f5
                         0000F3F6   616 _g_SCNCNT	=	0xf3f6
                         0000F3F7   617 _g_REPCNT	=	0xf3f7
                         0000F3F8   618 _g_PUTPNT	=	0xf3f8
                         0000F3FA   619 _g_GETPNT	=	0xf3fa
                         0000F3FC   620 _g_CS120	=	0xf3fc
                         0000F401   621 _g_CS240	=	0xf401
                         0000F406   622 _g_LOW	=	0xf406
                         0000F408   623 _g_HIGH	=	0xf408
                         0000F40A   624 _g_HEADER	=	0xf40a
                         0000F40B   625 _g_ASPCT1	=	0xf40b
                         0000F40D   626 _g_ASPCT2	=	0xf40d
                         0000F959   627 _g_QUETAB	=	0xf959
                         0000F971   628 _g_QUEBAK	=	0xf971
                         0000F975   629 _g_VOICAQ	=	0xf975
                         0000F9F5   630 _g_VOICBQ	=	0xf9f5
                         0000FA75   631 _g_VOICCQ	=	0xfa75
                         0000FAF5   632 _g_RS2IQ	=	0xfaf5
                         0000FAF5   633 _g_DPPAGE	=	0xfaf5
                         0000FAF6   634 _g_ACPAGE	=	0xfaf6
                         0000FAF7   635 _g_AVCSAV	=	0xfaf7
                         0000FAF8   636 _g_EXBRSA	=	0xfaf8
                         0000FAF9   637 _g_CHRCNT	=	0xfaf9
                         0000FAFA   638 _g_ROMA	=	0xfafa
                         0000FAFC   639 _g_MODE	=	0xfafc
                         0000FAFD   640 _g_NORUSE	=	0xfafd
                         0000FAFE   641 _g_XSAVE	=	0xfafe
                         0000FB00   642 _g_YSAVE	=	0xfb00
                         0000FB03   643 _g_RSTMP	=	0xfb03
                         0000FB03   644 _g_TOCNT	=	0xfb03
                         0000FB04   645 _g_RSFCB	=	0xfb04
                         0000FB06   646 _g_RSIQLN	=	0xfb06
                         0000FB07   647 _g_MEXBIh	=	0xfb07
                         0000FB0C   648 _g_OLDSTT	=	0xfb0c
                         0000FB0C   649 _g_OLDINT	=	0xfb0c
                         0000FB16   650 _g_DEVNUM	=	0xfb16
                         0000FB17   651 _g_DATCNT	=	0xfb17
                         0000FB1A   652 _g_ERRORS	=	0xfb1a
                         0000FB1B   653 _g_FLAGS	=	0xfb1b
                         0000FB1C   654 _g_ESTBLS	=	0xfb1c
                         0000FB1D   655 _g_COMMSK	=	0xfb1d
                         0000FB1E   656 _g_LSTCOM	=	0xfb1e
                         0000FB1F   657 _g_LSTMOD	=	0xfb1f
                         0000FB35   658 _g_PRSCNT	=	0xfb35
                         0000FB36   659 _g_SAVSP	=	0xfb36
                         0000FB38   660 _g_VOICEN	=	0xfb38
                         0000FB39   661 _g_SAVVOL	=	0xfb39
                         0000FB3B   662 _g_MCLLEN	=	0xfb3b
                         0000FB3C   663 _g_MCLPTR	=	0xfb3c
                         0000FB3E   664 _g_QUEUEN	=	0xfb3e
                         0000FB3F   665 _g_MUSICF	=	0xfb3f
                         0000FB40   666 _g_PLYCNT	=	0xfb40
                         0000FB41   667 _g_VCBA	=	0xfb41
                         0000FB66   668 _g_VCBB	=	0xfb66
                         0000FB8B   669 _g_VCBC	=	0xfb8b
                         0000FBB0   670 _g_ENSTOP	=	0xfbb0
                         0000FBB1   671 _g_BASROM	=	0xfbb1
                         0000FBB2   672 _g_LINTTB	=	0xfbb2
                         0000FBCA   673 _g_FSTPOS	=	0xfbca
                         0000FBCC   674 _g_CODSAV	=	0xfbcc
                         0000FBCD   675 _g_FNKSWI	=	0xfbcd
                         0000FBCE   676 _g_FNKFLG	=	0xfbce
                         0000FBD8   677 _g_ONGSBF	=	0xfbd8
                         0000FBD9   678 _g_CLIKFL	=	0xfbd9
                         0000FBDA   679 _g_OLDKEY	=	0xfbda
                         0000FBE5   680 _g_NEWKEY	=	0xfbe5
                         0000FBF0   681 _g_KEYBUF	=	0xfbf0
                         0000FC18   682 _g_LINWRK	=	0xfc18
                         0000FC40   683 _g_PATWRK	=	0xfc40
                         0000FC48   684 _g_BOTTOM	=	0xfc48
                         0000FC4A   685 _g_HIMEM	=	0xfc4a
                         0000FC4C   686 _g_TRPTBL	=	0xfc4c
                         0000FC9A   687 _g_RTYCNT	=	0xfc9a
                         0000FC9B   688 _g_INTFLG	=	0xfc9b
                         0000FC9C   689 _g_PADY	=	0xfc9c
                         0000FC9D   690 _g_PADX	=	0xfc9d
                         0000FC9E   691 _g_JIFFY	=	0xfc9e
                         0000FCA0   692 _g_INTVAL	=	0xfca0
                         0000FCA2   693 _g_INTCNT	=	0xfca2
                         0000FCA4   694 _g_LOWLIM	=	0xfca4
                         0000FCA5   695 _g_WINWID	=	0xfca5
                         0000FCA6   696 _g_GRPHED	=	0xfca6
                         0000FCA7   697 _g_ESCCNT	=	0xfca7
                         0000FCA8   698 _g_INSFLG	=	0xfca8
                         0000FCA9   699 _g_CSRSW	=	0xfca9
                         0000FCAA   700 _g_CSTYLE	=	0xfcaa
                         0000FCAB   701 _g_CAPST	=	0xfcab
                         0000FCAC   702 _g_KANAST	=	0xfcac
                         0000FCAD   703 _g_KANAMD	=	0xfcad
                         0000FCAE   704 _g_FLBMEM	=	0xfcae
                         0000FCAF   705 _g_SCRMOD	=	0xfcaf
                         0000FCB0   706 _g_OLDSCR	=	0xfcb0
                         0000FCB1   707 _g_CASPRV	=	0xfcb1
                         0000FCB2   708 _g_BRDATR	=	0xfcb2
                         0000FCB3   709 _g_GXPOS	=	0xfcb3
                         0000FCB5   710 _g_GYPOS	=	0xfcb5
                         0000FCBB   711 _g_DRWFLG	=	0xfcbb
                         0000FCBC   712 _g_DRWSCL	=	0xfcbc
                         0000FCBD   713 _g_DRWANG	=	0xfcbd
                         0000FCC1   714 _g_MNROM	=	0xfcc1
                         0000FCC1   715 _g_EXPTBL	=	0xfcc1
                         0000FCC5   716 _g_SLTTBL	=	0xfcc5
                         0000FCC9   717 _g_SLTATR	=	0xfcc9
                         0000FD09   718 _g_SLTWRK	=	0xfd09
                         0000FD89   719 _g_PROCNM	=	0xfd89
                         0000FFE7   720 _g_RG08SAV	=	0xffe7
                         0000FFE8   721 _g_RG09SAV	=	0xffe8
                         0000FFE9   722 _g_RG10SAV	=	0xffe9
                         0000FFEA   723 _g_RG11SAV	=	0xffea
                         0000FFEB   724 _g_RG12SAV	=	0xffeb
                         0000FFEC   725 _g_RG13SAV	=	0xffec
                         0000FFED   726 _g_RG14SAV	=	0xffed
                         0000FFEE   727 _g_RG15SAV	=	0xffee
                         0000FFEF   728 _g_RG16SAV	=	0xffef
                         0000FFF0   729 _g_RG17SAV	=	0xfff0
                         0000FFF1   730 _g_RG18SAV	=	0xfff1
                         0000FFF2   731 _g_RG19SAV	=	0xfff2
                         0000FFF3   732 _g_RG20SAV	=	0xfff3
                         0000FFF4   733 _g_RG21SAV	=	0xfff4
                         0000FFF5   734 _g_RG22SAV	=	0xfff5
                         0000FFF6   735 _g_RG23SAV	=	0xfff6
                         0000FFF7   736 _g_MINROM	=	0xfff7
                         0000FFF8   737 _g_SVFFF8	=	0xfff8
                         0000FFFA   738 _g_RG25SAV	=	0xfffa
                         0000FFFB   739 _g_RG26SAV	=	0xfffb
                         0000FFFC   740 _g_RG27SAV	=	0xfffc
                         0000FFFD   741 _g_SVFFFD	=	0xfffd
                         00000004   742 _g_CGTABL	=	0x0004
                         00000006   743 _g_VDP_DR	=	0x0006
                         00000007   744 _g_VDP_DW	=	0x0007
                         0000002B   745 _g_BASRVN	=	0x002b
                         0000002B   746 _g_ROMVersion	=	0x002b
                         0000002D   747 _g_MSXVER	=	0x002d
                         0000002E   748 _g_MSXMID	=	0x002e
                         00000034   749 _g_CHAR_16	=	0x0034
                         00000000   750 _g_SUBRID	=	0x0000
                         00000002   751 _g_STRSRC	=	0x0002
                         0000F30F   752 _g_KANJTABLE	=	0xf30f
                         0000F323   753 _g_DISKVE	=	0xf323
                         0000F325   754 _g_BREAKV	=	0xf325
                         0000F341   755 _g_RAMAD0	=	0xf341
                         0000F342   756 _g_RAMAD1	=	0xf342
                         0000F343   757 _g_RAMAD2	=	0xf343
                         0000F344   758 _g_RAMAD3	=	0xf344
                         0000F348   759 _g_MASTER	=	0xf348
                         0000F37D   760 _g_BDOS	=	0xf37d
    0000004F                        761 _g_TeamStats:
    0000004F 03                     762 	.db #0x03	; 3
    00000050 0C                     763 	.db #0x0c	; 12
    00000051 05                     764 	.db #0x05	; 5
    00000052 05                     765 	.db #0x05	; 5
    00000053 0E                     766 	.db #0x0e	; 14
    00000054 07                     767 	.db #0x07	; 7
    00000055 0F                     768 	.db #0x0f	; 15
    00000056 08                     769 	.db #0x08	; 8
    00000057 09                     770 	.db #0x09	; 9
    00000058 0E                     771 	.db #0x0e	; 14
    00000059 03                     772 	.db #0x03	; 3
    0000005A 11                     773 	.db #0x11	; 17
    0000005B 04                     774 	.db #0x04	; 4
    0000005C 05                     775 	.db #0x05	; 5
    0000005D 10                     776 	.db #0x10	; 16
    0000005E 07                     777 	.db #0x07	; 7
    0000005F 0F                     778 	.db #0x0f	; 15
    00000060 08                     779 	.db #0x08	; 8
    00000061 09                     780 	.db #0x09	; 9
    00000062 0E                     781 	.db #0x0e	; 14
    00000063 03                     782 	.db #0x03	; 3
    00000064 0F                     783 	.db #0x0f	; 15
    00000065 06                     784 	.db #0x06	; 6
    00000066 05                     785 	.db #0x05	; 5
    00000067 0E                     786 	.db #0x0e	; 14
    00000068 06                     787 	.db #0x06	; 6
    00000069 10                     788 	.db #0x10	; 16
    0000006A 07                     789 	.db #0x07	; 7
    0000006B 08                     790 	.db #0x08	; 8
    0000006C 0F                     791 	.db #0x0f	; 15
    0000006D                        792 _g_MusicEntry:
    0000006Dr90r00                  793 	.dw __str_0
    0000006F 00 A0                  794 	.dw #0xa000
    00000071 4B                     795 	.db #0x4b	; 75	'K'
    00000072r95r00                  796 	.dw __str_1
    00000074 00 A0                  797 	.dw #0xa000
    00000076 50                     798 	.db #0x50	; 80	'P'
    00000077rAAr00                  799 	.dw __str_2
    00000079 00 A0                  800 	.dw #0xa000
    0000007B 54                     801 	.db #0x54	; 84	'T'
    0000007CrB6r00                  802 	.dw __str_3
    0000007E 00 A0                  803 	.dw #0xa000
    00000080 58                     804 	.db #0x58	; 88	'X'
    00000081rC2r00                  805 	.dw __str_4
    00000083 00 A0                  806 	.dw #0xa000
    00000085 5C                     807 	.db #0x5c	; 92
    00000086rD6r00                  808 	.dw __str_5
    00000088 00 A0                  809 	.dw #0xa000
    0000008A 60                     810 	.db #0x60	; 96
    0000008BrDFr00                  811 	.dw __str_6
    0000008D 00 A0                  812 	.dw #0xa000
    0000008F 64                     813 	.db #0x64	; 100	'd'
    00000090                        814 __str_0:
    00000090 4D 65 6E 75            815 	.ascii "Menu"
    00000094 00                     816 	.db 0x00
    00000095                        817 __str_1:
    00000095 50 6C 61 79 65 72 73   818 	.ascii "Players presentation"
             20 70 72 65 73 65 6E
             74 61 74 69 6F 6E
    000000A9 00                     819 	.db 0x00
    000000AA                        820 __str_2:
    000000AA 47 61 6D 65 20 6D 65   821 	.ascii "Game melody"
             6C 6F 64 79
    000000B5 00                     822 	.db 0x00
    000000B6                        823 __str_3:
    000000B6 50 75 62 6C 69 63 20   824 	.ascii "Public goal"
             67 6F 61 6C
    000000C1 00                     825 	.db 0x00
    000000C2                        826 __str_4:
    000000C2 50 75 62 6C 69 63 20   827 	.ascii "Public presentation"
             70 72 65 73 65 6E 74
             61 74 69 6F 6E
    000000D5 00                     828 	.db 0x00
    000000D6                        829 __str_5:
    000000D6 52 65 66 65 72 65 65   830 	.ascii "Refereer"
             72
    000000DE 00                     831 	.db 0x00
    000000DF                        832 __str_6:
    000000DF 56 69 63 74 6F 72 79   833 	.ascii "Victory"
    000000E6 00                     834 	.db 0x00
                                    835 ;./soccerlg.c:184: void CallFnc_VOID_P1(u8 segment, void (*func)(u8), u8 p1) {
                                    836 ;	---------------------------------
                                    837 ; Function CallFnc_VOID_P1
                                    838 ; ---------------------------------
    000000E7                        839 _CallFnc_VOID_P1::
    000000E7 DD E5            [15]  840 	push	ix
    000000E9 DD 21 00 00      [14]  841 	ld	ix,#0
    000000ED DD 39            [15]  842 	add	ix,sp
    000000EF 3B               [ 6]  843 	dec	sp
    000000F0 4F               [ 4]  844 	ld	c, a
                                    845 ;./soccerlg.c:185: u8 _old = GET_BANK_SEGMENT(3);
    000000F1 2Ar06r00         [16]  846 	ld	hl, (#(_g_Bank0Segment + 6) + 0)
    000000F4 DD 75 FF         [19]  847 	ld	-1 (ix), l
                                    848 ;./soccerlg.c:186: SET_BANK_SEGMENT(3, segment);
    000000F7 06 00            [ 7]  849 	ld	b, #0x00
                                    850 ;E:/Dropbox/FAUSTO/SVILUPPI/MSX/CODE/C/MSXgl/engine/src/rom_mapper.h:190: g_Bank0Segment[b] = s;
    000000F9 ED 43r06r00      [20]  851 	ld	((_g_Bank0Segment + 6)), bc
                                    852 ;E:/Dropbox/FAUSTO/SVILUPPI/MSX/CODE/C/MSXgl/engine/src/rom_mapper.h:191: Poke(YAMANOOTO_OFFR, (s >> 2) & 0xC0);
    000000FD 69               [ 4]  853 	ld	l, c
    000000FE 60               [ 4]  854 	ld	h, b
    000000FF CB 3C            [ 8]  855 	srl	h
    00000101 CB 1D            [ 8]  856 	rr	l
    00000103 CB 3C            [ 8]  857 	srl	h
    00000105 CB 1D            [ 8]  858 	rr	l
    00000107 7D               [ 4]  859 	ld	a, l
    00000108 E6 C0            [ 7]  860 	and	a, #0xc0
                                    861 ;E:/Dropbox/FAUSTO/SVILUPPI/MSX/CODE/C/MSXgl/engine/src/system.h:101: inline void Poke(u16 addr, u8 val) { *(u8*)addr = val; }
    0000010A 32 FE 7F         [13]  862 	ld	(#0x7ffe),a
                                    863 ;E:/Dropbox/FAUSTO/SVILUPPI/MSX/CODE/C/MSXgl/engine/src/rom_mapper.h:195: else if (b == 3)	Poke(ADDR_BANK_3, s & 0xFF);
                                    864 ;E:/Dropbox/FAUSTO/SVILUPPI/MSX/CODE/C/MSXgl/engine/src/system.h:101: inline void Poke(u16 addr, u8 val) { *(u8*)addr = val; }
    0000010D 21 00 B0         [10]  865 	ld	hl, #0xb000
    00000110 71               [ 7]  866 	ld	(hl), c
                                    867 ;./soccerlg.c:187: func(p1);
    00000111 DD 7E 04         [19]  868 	ld	a, 4 (ix)
    00000114 EB               [ 4]  869 	ex	de, hl
    00000115 CDr00r00         [17]  870 	call	___sdcc_call_hl
                                    871 ;./soccerlg.c:188: SET_BANK_SEGMENT(3, _old);
    00000118 DD 4E FF         [19]  872 	ld	c, -1 (ix)
    0000011B 06 00            [ 7]  873 	ld	b, #0x00
                                    874 ;E:/Dropbox/FAUSTO/SVILUPPI/MSX/CODE/C/MSXgl/engine/src/rom_mapper.h:190: g_Bank0Segment[b] = s;
    0000011D ED 43r06r00      [20]  875 	ld	((_g_Bank0Segment + 6)), bc
                                    876 ;E:/Dropbox/FAUSTO/SVILUPPI/MSX/CODE/C/MSXgl/engine/src/rom_mapper.h:191: Poke(YAMANOOTO_OFFR, (s >> 2) & 0xC0);
    00000121 59               [ 4]  877 	ld	e, c
    00000122 50               [ 4]  878 	ld	d, b
    00000123 CB 3A            [ 8]  879 	srl	d
    00000125 CB 1B            [ 8]  880 	rr	e
    00000127 CB 3A            [ 8]  881 	srl	d
    00000129 CB 1B            [ 8]  882 	rr	e
    0000012B 7B               [ 4]  883 	ld	a, e
    0000012C E6 C0            [ 7]  884 	and	a, #0xc0
                                    885 ;E:/Dropbox/FAUSTO/SVILUPPI/MSX/CODE/C/MSXgl/engine/src/system.h:101: inline void Poke(u16 addr, u8 val) { *(u8*)addr = val; }
    0000012E 32 FE 7F         [13]  886 	ld	(#0x7ffe),a
                                    887 ;E:/Dropbox/FAUSTO/SVILUPPI/MSX/CODE/C/MSXgl/engine/src/rom_mapper.h:195: else if (b == 3)	Poke(ADDR_BANK_3, s & 0xFF);
                                    888 ;E:/Dropbox/FAUSTO/SVILUPPI/MSX/CODE/C/MSXgl/engine/src/system.h:101: inline void Poke(u16 addr, u8 val) { *(u8*)addr = val; }
    00000131 21 00 B0         [10]  889 	ld	hl, #0xb000
    00000134 71               [ 7]  890 	ld	(hl), c
                                    891 ;./soccerlg.c:188: SET_BANK_SEGMENT(3, _old);
                                    892 ;./soccerlg.c:189: }
    00000135 33               [ 6]  893 	inc	sp
    00000136 DD E1            [14]  894 	pop	ix
    00000138 E1               [10]  895 	pop	hl
    00000139 33               [ 6]  896 	inc	sp
    0000013A E9               [ 4]  897 	jp	(hl)
                                    898 ;./soccerlg.c:191: void CallFnc_VOID_P2(u8 segment, void (*func)(u8, bool), u8 p1, bool p2) {
                                    899 ;	---------------------------------
                                    900 ; Function CallFnc_VOID_P2
                                    901 ; ---------------------------------
    0000013B                        902 _CallFnc_VOID_P2::
    0000013B DD E5            [15]  903 	push	ix
    0000013D DD 21 00 00      [14]  904 	ld	ix,#0
    00000141 DD 39            [15]  905 	add	ix,sp
    00000143 3B               [ 6]  906 	dec	sp
    00000144 4F               [ 4]  907 	ld	c, a
                                    908 ;./soccerlg.c:192: u8 _old = GET_BANK_SEGMENT(3);
    00000145 2Ar06r00         [16]  909 	ld	hl, (#(_g_Bank0Segment + 6) + 0)
    00000148 DD 75 FF         [19]  910 	ld	-1 (ix), l
                                    911 ;./soccerlg.c:193: SET_BANK_SEGMENT(3, segment);
    0000014B 06 00            [ 7]  912 	ld	b, #0x00
                                    913 ;E:/Dropbox/FAUSTO/SVILUPPI/MSX/CODE/C/MSXgl/engine/src/rom_mapper.h:190: g_Bank0Segment[b] = s;
    0000014D ED 43r06r00      [20]  914 	ld	((_g_Bank0Segment + 6)), bc
                                    915 ;E:/Dropbox/FAUSTO/SVILUPPI/MSX/CODE/C/MSXgl/engine/src/rom_mapper.h:191: Poke(YAMANOOTO_OFFR, (s >> 2) & 0xC0);
    00000151 69               [ 4]  916 	ld	l, c
    00000152 60               [ 4]  917 	ld	h, b
    00000153 CB 3C            [ 8]  918 	srl	h
    00000155 CB 1D            [ 8]  919 	rr	l
    00000157 CB 3C            [ 8]  920 	srl	h
    00000159 CB 1D            [ 8]  921 	rr	l
    0000015B 7D               [ 4]  922 	ld	a, l
    0000015C E6 C0            [ 7]  923 	and	a, #0xc0
                                    924 ;E:/Dropbox/FAUSTO/SVILUPPI/MSX/CODE/C/MSXgl/engine/src/system.h:101: inline void Poke(u16 addr, u8 val) { *(u8*)addr = val; }
    0000015E 32 FE 7F         [13]  925 	ld	(#0x7ffe),a
                                    926 ;E:/Dropbox/FAUSTO/SVILUPPI/MSX/CODE/C/MSXgl/engine/src/rom_mapper.h:195: else if (b == 3)	Poke(ADDR_BANK_3, s & 0xFF);
                                    927 ;E:/Dropbox/FAUSTO/SVILUPPI/MSX/CODE/C/MSXgl/engine/src/system.h:101: inline void Poke(u16 addr, u8 val) { *(u8*)addr = val; }
    00000161 21 00 B0         [10]  928 	ld	hl, #0xb000
    00000164 71               [ 7]  929 	ld	(hl), c
                                    930 ;./soccerlg.c:194: func(p1,p2);
    00000165 DD 6E 05         [19]  931 	ld	l, 5 (ix)
                                    932 ;	spillPairReg hl
                                    933 ;	spillPairReg hl
    00000168 DD 7E 04         [19]  934 	ld	a, 4 (ix)
    0000016B D5               [11]  935 	push	de
    0000016C FD E1            [14]  936 	pop	iy
    0000016E CDr00r00         [17]  937 	call	___sdcc_call_iy
                                    938 ;./soccerlg.c:195: SET_BANK_SEGMENT(3, _old);
    00000171 DD 4E FF         [19]  939 	ld	c, -1 (ix)
    00000174 06 00            [ 7]  940 	ld	b, #0x00
                                    941 ;E:/Dropbox/FAUSTO/SVILUPPI/MSX/CODE/C/MSXgl/engine/src/rom_mapper.h:190: g_Bank0Segment[b] = s;
    00000176 ED 43r06r00      [20]  942 	ld	((_g_Bank0Segment + 6)), bc
                                    943 ;E:/Dropbox/FAUSTO/SVILUPPI/MSX/CODE/C/MSXgl/engine/src/rom_mapper.h:191: Poke(YAMANOOTO_OFFR, (s >> 2) & 0xC0);
    0000017A 59               [ 4]  944 	ld	e, c
    0000017B 50               [ 4]  945 	ld	d, b
    0000017C CB 3A            [ 8]  946 	srl	d
    0000017E CB 1B            [ 8]  947 	rr	e
    00000180 CB 3A            [ 8]  948 	srl	d
    00000182 CB 1B            [ 8]  949 	rr	e
    00000184 7B               [ 4]  950 	ld	a, e
    00000185 E6 C0            [ 7]  951 	and	a, #0xc0
                                    952 ;E:/Dropbox/FAUSTO/SVILUPPI/MSX/CODE/C/MSXgl/engine/src/system.h:101: inline void Poke(u16 addr, u8 val) { *(u8*)addr = val; }
    00000187 32 FE 7F         [13]  953 	ld	(#0x7ffe),a
                                    954 ;E:/Dropbox/FAUSTO/SVILUPPI/MSX/CODE/C/MSXgl/engine/src/rom_mapper.h:195: else if (b == 3)	Poke(ADDR_BANK_3, s & 0xFF);
                                    955 ;E:/Dropbox/FAUSTO/SVILUPPI/MSX/CODE/C/MSXgl/engine/src/system.h:101: inline void Poke(u16 addr, u8 val) { *(u8*)addr = val; }
    0000018A 21 00 B0         [10]  956 	ld	hl, #0xb000
    0000018D 71               [ 7]  957 	ld	(hl), c
                                    958 ;./soccerlg.c:195: SET_BANK_SEGMENT(3, _old);
                                    959 ;./soccerlg.c:196: }
    0000018E 33               [ 6]  960 	inc	sp
    0000018F DD E1            [14]  961 	pop	ix
    00000191 E1               [10]  962 	pop	hl
    00000192 F1               [10]  963 	pop	af
    00000193 E9               [ 4]  964 	jp	(hl)
                                    965 ;./soccerlg.c:198: void CallFnc_VOID_16_P2(u8 segment, void (*func)(u16,u16), u16 p1, u16 p2) {
                                    966 ;	---------------------------------
                                    967 ; Function CallFnc_VOID_16_P2
                                    968 ; ---------------------------------
    00000194                        969 _CallFnc_VOID_16_P2::
    00000194 DD E5            [15]  970 	push	ix
    00000196 DD 21 00 00      [14]  971 	ld	ix,#0
    0000019A DD 39            [15]  972 	add	ix,sp
    0000019C F5               [11]  973 	push	af
    0000019D DD 77 FF         [19]  974 	ld	-1 (ix), a
    000001A0 4B               [ 4]  975 	ld	c, e
    000001A1 42               [ 4]  976 	ld	b, d
                                    977 ;./soccerlg.c:199: u8 _old = GET_BANK_SEGMENT(3);
    000001A2 2Ar06r00         [16]  978 	ld	hl, (#(_g_Bank0Segment + 6) + 0)
    000001A5 DD 75 FE         [19]  979 	ld	-2 (ix), l
                                    980 ;./soccerlg.c:200: SET_BANK_SEGMENT(3, segment);
    000001A8 DD 5E FF         [19]  981 	ld	e, -1 (ix)
    000001AB 16 00            [ 7]  982 	ld	d, #0x00
                                    983 ;E:/Dropbox/FAUSTO/SVILUPPI/MSX/CODE/C/MSXgl/engine/src/rom_mapper.h:190: g_Bank0Segment[b] = s;
    000001AD ED 53r06r00      [20]  984 	ld	((_g_Bank0Segment + 6)), de
                                    985 ;E:/Dropbox/FAUSTO/SVILUPPI/MSX/CODE/C/MSXgl/engine/src/rom_mapper.h:191: Poke(YAMANOOTO_OFFR, (s >> 2) & 0xC0);
    000001B1 6B               [ 4]  986 	ld	l, e
    000001B2 62               [ 4]  987 	ld	h, d
    000001B3 CB 3C            [ 8]  988 	srl	h
    000001B5 CB 1D            [ 8]  989 	rr	l
    000001B7 CB 3C            [ 8]  990 	srl	h
    000001B9 CB 1D            [ 8]  991 	rr	l
    000001BB 7D               [ 4]  992 	ld	a, l
    000001BC E6 C0            [ 7]  993 	and	a, #0xc0
                                    994 ;E:/Dropbox/FAUSTO/SVILUPPI/MSX/CODE/C/MSXgl/engine/src/system.h:101: inline void Poke(u16 addr, u8 val) { *(u8*)addr = val; }
    000001BE 32 FE 7F         [13]  995 	ld	(#0x7ffe),a
                                    996 ;E:/Dropbox/FAUSTO/SVILUPPI/MSX/CODE/C/MSXgl/engine/src/rom_mapper.h:195: else if (b == 3)	Poke(ADDR_BANK_3, s & 0xFF);
                                    997 ;E:/Dropbox/FAUSTO/SVILUPPI/MSX/CODE/C/MSXgl/engine/src/system.h:101: inline void Poke(u16 addr, u8 val) { *(u8*)addr = val; }
    000001C1 21 00 B0         [10]  998 	ld	hl, #0xb000
    000001C4 73               [ 7]  999 	ld	(hl), e
                                   1000 ;./soccerlg.c:201: func(p1,p2);
    000001C5 DD 5E 06         [19] 1001 	ld	e, 6 (ix)
    000001C8 DD 56 07         [19] 1002 	ld	d, 7 (ix)
    000001CB DD 6E 04         [19] 1003 	ld	l, 4 (ix)
                                   1004 ;	spillPairReg hl
                                   1005 ;	spillPairReg hl
    000001CE DD 66 05         [19] 1006 	ld	h, 5 (ix)
                                   1007 ;	spillPairReg hl
                                   1008 ;	spillPairReg hl
    000001D1 C5               [11] 1009 	push	bc
    000001D2 FD E1            [14] 1010 	pop	iy
    000001D4 CDr00r00         [17] 1011 	call	___sdcc_call_iy
                                   1012 ;./soccerlg.c:202: SET_BANK_SEGMENT(3, _old);
    000001D7 DD 4E FE         [19] 1013 	ld	c, -2 (ix)
    000001DA 06 00            [ 7] 1014 	ld	b, #0x00
                                   1015 ;E:/Dropbox/FAUSTO/SVILUPPI/MSX/CODE/C/MSXgl/engine/src/rom_mapper.h:190: g_Bank0Segment[b] = s;
    000001DC ED 43r06r00      [20] 1016 	ld	((_g_Bank0Segment + 6)), bc
                                   1017 ;E:/Dropbox/FAUSTO/SVILUPPI/MSX/CODE/C/MSXgl/engine/src/rom_mapper.h:191: Poke(YAMANOOTO_OFFR, (s >> 2) & 0xC0);
    000001E0 59               [ 4] 1018 	ld	e, c
    000001E1 50               [ 4] 1019 	ld	d, b
    000001E2 CB 3A            [ 8] 1020 	srl	d
    000001E4 CB 1B            [ 8] 1021 	rr	e
    000001E6 CB 3A            [ 8] 1022 	srl	d
    000001E8 CB 1B            [ 8] 1023 	rr	e
    000001EA 7B               [ 4] 1024 	ld	a, e
    000001EB E6 C0            [ 7] 1025 	and	a, #0xc0
                                   1026 ;E:/Dropbox/FAUSTO/SVILUPPI/MSX/CODE/C/MSXgl/engine/src/system.h:101: inline void Poke(u16 addr, u8 val) { *(u8*)addr = val; }
    000001ED 32 FE 7F         [13] 1027 	ld	(#0x7ffe),a
                                   1028 ;E:/Dropbox/FAUSTO/SVILUPPI/MSX/CODE/C/MSXgl/engine/src/rom_mapper.h:195: else if (b == 3)	Poke(ADDR_BANK_3, s & 0xFF);
                                   1029 ;E:/Dropbox/FAUSTO/SVILUPPI/MSX/CODE/C/MSXgl/engine/src/system.h:101: inline void Poke(u16 addr, u8 val) { *(u8*)addr = val; }
    000001F0 21 00 B0         [10] 1030 	ld	hl, #0xb000
    000001F3 71               [ 7] 1031 	ld	(hl), c
                                   1032 ;./soccerlg.c:202: SET_BANK_SEGMENT(3, _old);
                                   1033 ;./soccerlg.c:203: }
    000001F4 DD F9            [10] 1034 	ld	sp, ix
    000001F6 DD E1            [14] 1035 	pop	ix
    000001F8 E1               [10] 1036 	pop	hl
    000001F9 F1               [10] 1037 	pop	af
    000001FA F1               [10] 1038 	pop	af
    000001FB E9               [ 4] 1039 	jp	(hl)
                                   1040 ;./soccerlg.c:205: u8 CallFnc_U8(u8 segment, u8 (*func)()) {
                                   1041 ;	---------------------------------
                                   1042 ; Function CallFnc_U8
                                   1043 ; ---------------------------------
    000001FC                       1044 _CallFnc_U8::
    000001FC DD E5            [15] 1045 	push	ix
    000001FE DD 21 00 00      [14] 1046 	ld	ix,#0
    00000202 DD 39            [15] 1047 	add	ix,sp
    00000204 3B               [ 6] 1048 	dec	sp
    00000205 4F               [ 4] 1049 	ld	c, a
                                   1050 ;./soccerlg.c:207: u8 _old = GET_BANK_SEGMENT(3);
    00000206 2Ar06r00         [16] 1051 	ld	hl, (#(_g_Bank0Segment + 6) + 0)
    00000209 DD 75 FF         [19] 1052 	ld	-1 (ix), l
                                   1053 ;./soccerlg.c:208: SET_BANK_SEGMENT(3, segment);
    0000020C 06 00            [ 7] 1054 	ld	b, #0x00
                                   1055 ;E:/Dropbox/FAUSTO/SVILUPPI/MSX/CODE/C/MSXgl/engine/src/rom_mapper.h:190: g_Bank0Segment[b] = s;
    0000020E ED 43r06r00      [20] 1056 	ld	((_g_Bank0Segment + 6)), bc
                                   1057 ;E:/Dropbox/FAUSTO/SVILUPPI/MSX/CODE/C/MSXgl/engine/src/rom_mapper.h:191: Poke(YAMANOOTO_OFFR, (s >> 2) & 0xC0);
    00000212 69               [ 4] 1058 	ld	l, c
    00000213 60               [ 4] 1059 	ld	h, b
    00000214 CB 3C            [ 8] 1060 	srl	h
    00000216 CB 1D            [ 8] 1061 	rr	l
    00000218 CB 3C            [ 8] 1062 	srl	h
    0000021A CB 1D            [ 8] 1063 	rr	l
    0000021C 7D               [ 4] 1064 	ld	a, l
    0000021D E6 C0            [ 7] 1065 	and	a, #0xc0
                                   1066 ;E:/Dropbox/FAUSTO/SVILUPPI/MSX/CODE/C/MSXgl/engine/src/system.h:101: inline void Poke(u16 addr, u8 val) { *(u8*)addr = val; }
    0000021F 32 FE 7F         [13] 1067 	ld	(#0x7ffe),a
                                   1068 ;E:/Dropbox/FAUSTO/SVILUPPI/MSX/CODE/C/MSXgl/engine/src/rom_mapper.h:195: else if (b == 3)	Poke(ADDR_BANK_3, s & 0xFF);
                                   1069 ;E:/Dropbox/FAUSTO/SVILUPPI/MSX/CODE/C/MSXgl/engine/src/system.h:101: inline void Poke(u16 addr, u8 val) { *(u8*)addr = val; }
    00000222 21 00 B0         [10] 1070 	ld	hl, #0xb000
    00000225 71               [ 7] 1071 	ld	(hl), c
                                   1072 ;./soccerlg.c:209: _res = func();
    00000226 EB               [ 4] 1073 	ex	de, hl
    00000227 CDr00r00         [17] 1074 	call	___sdcc_call_hl
    0000022A 4F               [ 4] 1075 	ld	c, a
                                   1076 ;./soccerlg.c:210: SET_BANK_SEGMENT(3, _old);
    0000022B DD 5E FF         [19] 1077 	ld	e, -1 (ix)
    0000022E 16 00            [ 7] 1078 	ld	d, #0x00
                                   1079 ;E:/Dropbox/FAUSTO/SVILUPPI/MSX/CODE/C/MSXgl/engine/src/rom_mapper.h:190: g_Bank0Segment[b] = s;
    00000230 ED 53r06r00      [20] 1080 	ld	((_g_Bank0Segment + 6)), de
                                   1081 ;E:/Dropbox/FAUSTO/SVILUPPI/MSX/CODE/C/MSXgl/engine/src/rom_mapper.h:191: Poke(YAMANOOTO_OFFR, (s >> 2) & 0xC0);
    00000234 43               [ 4] 1082 	ld	b, e
    00000235 6A               [ 4] 1083 	ld	l, d
                                   1084 ;	spillPairReg hl
                                   1085 ;	spillPairReg hl
    00000236 CB 3D            [ 8] 1086 	srl	l
    00000238 CB 18            [ 8] 1087 	rr	b
    0000023A CB 3D            [ 8] 1088 	srl	l
    0000023C CB 18            [ 8] 1089 	rr	b
    0000023E 78               [ 4] 1090 	ld	a, b
    0000023F E6 C0            [ 7] 1091 	and	a, #0xc0
                                   1092 ;E:/Dropbox/FAUSTO/SVILUPPI/MSX/CODE/C/MSXgl/engine/src/system.h:101: inline void Poke(u16 addr, u8 val) { *(u8*)addr = val; }
    00000241 32 FE 7F         [13] 1093 	ld	(#0x7ffe),a
                                   1094 ;E:/Dropbox/FAUSTO/SVILUPPI/MSX/CODE/C/MSXgl/engine/src/rom_mapper.h:195: else if (b == 3)	Poke(ADDR_BANK_3, s & 0xFF);
                                   1095 ;E:/Dropbox/FAUSTO/SVILUPPI/MSX/CODE/C/MSXgl/engine/src/system.h:101: inline void Poke(u16 addr, u8 val) { *(u8*)addr = val; }
    00000244 21 00 B0         [10] 1096 	ld	hl, #0xb000
    00000247 73               [ 7] 1097 	ld	(hl), e
                                   1098 ;./soccerlg.c:211: return _res;
    00000248 79               [ 4] 1099 	ld	a, c
                                   1100 ;./soccerlg.c:212: }
    00000249 33               [ 6] 1101 	inc	sp
    0000024A DD E1            [14] 1102 	pop	ix
    0000024C C9               [10] 1103 	ret
                                   1104 ;./soccerlg.c:214: u8 CallFnc_U8_P1(u8 segment, u8 (*func)(u8), u8 p1) {
                                   1105 ;	---------------------------------
                                   1106 ; Function CallFnc_U8_P1
                                   1107 ; ---------------------------------
    0000024D                       1108 _CallFnc_U8_P1::
    0000024D DD E5            [15] 1109 	push	ix
    0000024F DD 21 00 00      [14] 1110 	ld	ix,#0
    00000253 DD 39            [15] 1111 	add	ix,sp
    00000255 3B               [ 6] 1112 	dec	sp
    00000256 4F               [ 4] 1113 	ld	c, a
                                   1114 ;./soccerlg.c:216: u8 _old = GET_BANK_SEGMENT(3);
    00000257 2Ar06r00         [16] 1115 	ld	hl, (#(_g_Bank0Segment + 6) + 0)
    0000025A DD 75 FF         [19] 1116 	ld	-1 (ix), l
                                   1117 ;./soccerlg.c:217: SET_BANK_SEGMENT(3, segment);
    0000025D 06 00            [ 7] 1118 	ld	b, #0x00
                                   1119 ;E:/Dropbox/FAUSTO/SVILUPPI/MSX/CODE/C/MSXgl/engine/src/rom_mapper.h:190: g_Bank0Segment[b] = s;
    0000025F ED 43r06r00      [20] 1120 	ld	((_g_Bank0Segment + 6)), bc
                                   1121 ;E:/Dropbox/FAUSTO/SVILUPPI/MSX/CODE/C/MSXgl/engine/src/rom_mapper.h:191: Poke(YAMANOOTO_OFFR, (s >> 2) & 0xC0);
    00000263 69               [ 4] 1122 	ld	l, c
    00000264 60               [ 4] 1123 	ld	h, b
    00000265 CB 3C            [ 8] 1124 	srl	h
    00000267 CB 1D            [ 8] 1125 	rr	l
    00000269 CB 3C            [ 8] 1126 	srl	h
    0000026B CB 1D            [ 8] 1127 	rr	l
    0000026D 7D               [ 4] 1128 	ld	a, l
    0000026E E6 C0            [ 7] 1129 	and	a, #0xc0
                                   1130 ;E:/Dropbox/FAUSTO/SVILUPPI/MSX/CODE/C/MSXgl/engine/src/system.h:101: inline void Poke(u16 addr, u8 val) { *(u8*)addr = val; }
    00000270 32 FE 7F         [13] 1131 	ld	(#0x7ffe),a
                                   1132 ;E:/Dropbox/FAUSTO/SVILUPPI/MSX/CODE/C/MSXgl/engine/src/rom_mapper.h:195: else if (b == 3)	Poke(ADDR_BANK_3, s & 0xFF);
                                   1133 ;E:/Dropbox/FAUSTO/SVILUPPI/MSX/CODE/C/MSXgl/engine/src/system.h:101: inline void Poke(u16 addr, u8 val) { *(u8*)addr = val; }
    00000273 21 00 B0         [10] 1134 	ld	hl, #0xb000
    00000276 71               [ 7] 1135 	ld	(hl), c
                                   1136 ;./soccerlg.c:218: _res = func(p1);
    00000277 DD 7E 04         [19] 1137 	ld	a, 4 (ix)
    0000027A EB               [ 4] 1138 	ex	de, hl
    0000027B CDr00r00         [17] 1139 	call	___sdcc_call_hl
    0000027E 4F               [ 4] 1140 	ld	c, a
                                   1141 ;./soccerlg.c:219: SET_BANK_SEGMENT(3, _old);
    0000027F DD 5E FF         [19] 1142 	ld	e, -1 (ix)
    00000282 16 00            [ 7] 1143 	ld	d, #0x00
                                   1144 ;E:/Dropbox/FAUSTO/SVILUPPI/MSX/CODE/C/MSXgl/engine/src/rom_mapper.h:190: g_Bank0Segment[b] = s;
    00000284 ED 53r06r00      [20] 1145 	ld	((_g_Bank0Segment + 6)), de
                                   1146 ;E:/Dropbox/FAUSTO/SVILUPPI/MSX/CODE/C/MSXgl/engine/src/rom_mapper.h:191: Poke(YAMANOOTO_OFFR, (s >> 2) & 0xC0);
    00000288 43               [ 4] 1147 	ld	b, e
    00000289 6A               [ 4] 1148 	ld	l, d
                                   1149 ;	spillPairReg hl
                                   1150 ;	spillPairReg hl
    0000028A CB 3D            [ 8] 1151 	srl	l
    0000028C CB 18            [ 8] 1152 	rr	b
    0000028E CB 3D            [ 8] 1153 	srl	l
    00000290 CB 18            [ 8] 1154 	rr	b
    00000292 78               [ 4] 1155 	ld	a, b
    00000293 E6 C0            [ 7] 1156 	and	a, #0xc0
                                   1157 ;E:/Dropbox/FAUSTO/SVILUPPI/MSX/CODE/C/MSXgl/engine/src/system.h:101: inline void Poke(u16 addr, u8 val) { *(u8*)addr = val; }
    00000295 32 FE 7F         [13] 1158 	ld	(#0x7ffe),a
                                   1159 ;E:/Dropbox/FAUSTO/SVILUPPI/MSX/CODE/C/MSXgl/engine/src/rom_mapper.h:195: else if (b == 3)	Poke(ADDR_BANK_3, s & 0xFF);
                                   1160 ;E:/Dropbox/FAUSTO/SVILUPPI/MSX/CODE/C/MSXgl/engine/src/system.h:101: inline void Poke(u16 addr, u8 val) { *(u8*)addr = val; }
    00000298 21 00 B0         [10] 1161 	ld	hl, #0xb000
    0000029B 73               [ 7] 1162 	ld	(hl), e
                                   1163 ;./soccerlg.c:220: return _res;
    0000029C 79               [ 4] 1164 	ld	a, c
                                   1165 ;./soccerlg.c:221: }
    0000029D 33               [ 6] 1166 	inc	sp
    0000029E DD E1            [14] 1167 	pop	ix
    000002A0 E1               [10] 1168 	pop	hl
    000002A1 33               [ 6] 1169 	inc	sp
    000002A2 E9               [ 4] 1170 	jp	(hl)
                                   1171 ;./soccerlg.c:223: u16 CallFnc_U16_P1(u8 segment, u16 (*func)(u8), u8 p1) {
                                   1172 ;	---------------------------------
                                   1173 ; Function CallFnc_U16_P1
                                   1174 ; ---------------------------------
    000002A3                       1175 _CallFnc_U16_P1::
    000002A3 DD E5            [15] 1176 	push	ix
    000002A5 DD 21 00 00      [14] 1177 	ld	ix,#0
    000002A9 DD 39            [15] 1178 	add	ix,sp
    000002AB 3B               [ 6] 1179 	dec	sp
    000002AC 4F               [ 4] 1180 	ld	c, a
                                   1181 ;./soccerlg.c:225: u8 _old = GET_BANK_SEGMENT(3);
    000002AD 2Ar06r00         [16] 1182 	ld	hl, (#(_g_Bank0Segment + 6) + 0)
    000002B0 DD 75 FF         [19] 1183 	ld	-1 (ix), l
                                   1184 ;./soccerlg.c:226: SET_BANK_SEGMENT(3, segment);
    000002B3 06 00            [ 7] 1185 	ld	b, #0x00
                                   1186 ;E:/Dropbox/FAUSTO/SVILUPPI/MSX/CODE/C/MSXgl/engine/src/rom_mapper.h:190: g_Bank0Segment[b] = s;
    000002B5 ED 43r06r00      [20] 1187 	ld	((_g_Bank0Segment + 6)), bc
                                   1188 ;E:/Dropbox/FAUSTO/SVILUPPI/MSX/CODE/C/MSXgl/engine/src/rom_mapper.h:191: Poke(YAMANOOTO_OFFR, (s >> 2) & 0xC0);
    000002B9 69               [ 4] 1189 	ld	l, c
    000002BA 60               [ 4] 1190 	ld	h, b
    000002BB CB 3C            [ 8] 1191 	srl	h
    000002BD CB 1D            [ 8] 1192 	rr	l
    000002BF CB 3C            [ 8] 1193 	srl	h
    000002C1 CB 1D            [ 8] 1194 	rr	l
    000002C3 7D               [ 4] 1195 	ld	a, l
    000002C4 E6 C0            [ 7] 1196 	and	a, #0xc0
                                   1197 ;E:/Dropbox/FAUSTO/SVILUPPI/MSX/CODE/C/MSXgl/engine/src/system.h:101: inline void Poke(u16 addr, u8 val) { *(u8*)addr = val; }
    000002C6 32 FE 7F         [13] 1198 	ld	(#0x7ffe),a
                                   1199 ;E:/Dropbox/FAUSTO/SVILUPPI/MSX/CODE/C/MSXgl/engine/src/rom_mapper.h:195: else if (b == 3)	Poke(ADDR_BANK_3, s & 0xFF);
                                   1200 ;E:/Dropbox/FAUSTO/SVILUPPI/MSX/CODE/C/MSXgl/engine/src/system.h:101: inline void Poke(u16 addr, u8 val) { *(u8*)addr = val; }
    000002C9 21 00 B0         [10] 1201 	ld	hl, #0xb000
    000002CC 71               [ 7] 1202 	ld	(hl), c
                                   1203 ;./soccerlg.c:227: _res = func(p1);
    000002CD DD 7E 04         [19] 1204 	ld	a, 4 (ix)
    000002D0 EB               [ 4] 1205 	ex	de, hl
    000002D1 CDr00r00         [17] 1206 	call	___sdcc_call_hl
                                   1207 ;./soccerlg.c:228: SET_BANK_SEGMENT(3, _old);
    000002D4 DD 4E FF         [19] 1208 	ld	c, -1 (ix)
    000002D7 06 00            [ 7] 1209 	ld	b, #0x00
                                   1210 ;E:/Dropbox/FAUSTO/SVILUPPI/MSX/CODE/C/MSXgl/engine/src/rom_mapper.h:190: g_Bank0Segment[b] = s;
    000002D9 ED 43r06r00      [20] 1211 	ld	((_g_Bank0Segment + 6)), bc
                                   1212 ;E:/Dropbox/FAUSTO/SVILUPPI/MSX/CODE/C/MSXgl/engine/src/rom_mapper.h:191: Poke(YAMANOOTO_OFFR, (s >> 2) & 0xC0);
    000002DD 69               [ 4] 1213 	ld	l, c
    000002DE 60               [ 4] 1214 	ld	h, b
    000002DF CB 3C            [ 8] 1215 	srl	h
    000002E1 CB 1D            [ 8] 1216 	rr	l
    000002E3 CB 3C            [ 8] 1217 	srl	h
    000002E5 CB 1D            [ 8] 1218 	rr	l
    000002E7 7D               [ 4] 1219 	ld	a, l
    000002E8 E6 C0            [ 7] 1220 	and	a, #0xc0
                                   1221 ;E:/Dropbox/FAUSTO/SVILUPPI/MSX/CODE/C/MSXgl/engine/src/system.h:101: inline void Poke(u16 addr, u8 val) { *(u8*)addr = val; }
    000002EA 32 FE 7F         [13] 1222 	ld	(#0x7ffe),a
                                   1223 ;E:/Dropbox/FAUSTO/SVILUPPI/MSX/CODE/C/MSXgl/engine/src/rom_mapper.h:195: else if (b == 3)	Poke(ADDR_BANK_3, s & 0xFF);
                                   1224 ;E:/Dropbox/FAUSTO/SVILUPPI/MSX/CODE/C/MSXgl/engine/src/system.h:101: inline void Poke(u16 addr, u8 val) { *(u8*)addr = val; }
    000002ED 21 00 B0         [10] 1225 	ld	hl, #0xb000
    000002F0 71               [ 7] 1226 	ld	(hl), c
                                   1227 ;./soccerlg.c:229: return _res;
                                   1228 ;./soccerlg.c:230: }
    000002F1 33               [ 6] 1229 	inc	sp
    000002F2 DD E1            [14] 1230 	pop	ix
    000002F4 E1               [10] 1231 	pop	hl
    000002F5 33               [ 6] 1232 	inc	sp
    000002F6 E9               [ 4] 1233 	jp	(hl)
                                   1234 ;./soccerlg.c:232: u8 CallFnc_U8_P2(u8 segment, u8 (*func)(u8, u8), u8 p1, u8 p2) {
                                   1235 ;	---------------------------------
                                   1236 ; Function CallFnc_U8_P2
                                   1237 ; ---------------------------------
    000002F7                       1238 _CallFnc_U8_P2::
    000002F7 DD E5            [15] 1239 	push	ix
    000002F9 DD 21 00 00      [14] 1240 	ld	ix,#0
    000002FD DD 39            [15] 1241 	add	ix,sp
    000002FF 3B               [ 6] 1242 	dec	sp
    00000300 4F               [ 4] 1243 	ld	c, a
                                   1244 ;./soccerlg.c:234: u8 _old = GET_BANK_SEGMENT(3);
    00000301 2Ar06r00         [16] 1245 	ld	hl, (#(_g_Bank0Segment + 6) + 0)
    00000304 DD 75 FF         [19] 1246 	ld	-1 (ix), l
                                   1247 ;./soccerlg.c:235: SET_BANK_SEGMENT(3, segment);
    00000307 06 00            [ 7] 1248 	ld	b, #0x00
                                   1249 ;E:/Dropbox/FAUSTO/SVILUPPI/MSX/CODE/C/MSXgl/engine/src/rom_mapper.h:190: g_Bank0Segment[b] = s;
    00000309 ED 43r06r00      [20] 1250 	ld	((_g_Bank0Segment + 6)), bc
                                   1251 ;E:/Dropbox/FAUSTO/SVILUPPI/MSX/CODE/C/MSXgl/engine/src/rom_mapper.h:191: Poke(YAMANOOTO_OFFR, (s >> 2) & 0xC0);
    0000030D 69               [ 4] 1252 	ld	l, c
    0000030E 60               [ 4] 1253 	ld	h, b
    0000030F CB 3C            [ 8] 1254 	srl	h
    00000311 CB 1D            [ 8] 1255 	rr	l
    00000313 CB 3C            [ 8] 1256 	srl	h
    00000315 CB 1D            [ 8] 1257 	rr	l
    00000317 7D               [ 4] 1258 	ld	a, l
    00000318 E6 C0            [ 7] 1259 	and	a, #0xc0
                                   1260 ;E:/Dropbox/FAUSTO/SVILUPPI/MSX/CODE/C/MSXgl/engine/src/system.h:101: inline void Poke(u16 addr, u8 val) { *(u8*)addr = val; }
    0000031A 32 FE 7F         [13] 1261 	ld	(#0x7ffe),a
                                   1262 ;E:/Dropbox/FAUSTO/SVILUPPI/MSX/CODE/C/MSXgl/engine/src/rom_mapper.h:195: else if (b == 3)	Poke(ADDR_BANK_3, s & 0xFF);
                                   1263 ;E:/Dropbox/FAUSTO/SVILUPPI/MSX/CODE/C/MSXgl/engine/src/system.h:101: inline void Poke(u16 addr, u8 val) { *(u8*)addr = val; }
    0000031D 21 00 B0         [10] 1264 	ld	hl, #0xb000
    00000320 71               [ 7] 1265 	ld	(hl), c
                                   1266 ;./soccerlg.c:236: _res = func(p1,p2);
    00000321 DD 6E 05         [19] 1267 	ld	l, 5 (ix)
                                   1268 ;	spillPairReg hl
                                   1269 ;	spillPairReg hl
    00000324 DD 7E 04         [19] 1270 	ld	a, 4 (ix)
    00000327 D5               [11] 1271 	push	de
    00000328 FD E1            [14] 1272 	pop	iy
    0000032A CDr00r00         [17] 1273 	call	___sdcc_call_iy
    0000032D 4F               [ 4] 1274 	ld	c, a
                                   1275 ;./soccerlg.c:237: SET_BANK_SEGMENT(3, _old);
    0000032E DD 5E FF         [19] 1276 	ld	e, -1 (ix)
    00000331 16 00            [ 7] 1277 	ld	d, #0x00
                                   1278 ;E:/Dropbox/FAUSTO/SVILUPPI/MSX/CODE/C/MSXgl/engine/src/rom_mapper.h:190: g_Bank0Segment[b] = s;
    00000333 ED 53r06r00      [20] 1279 	ld	((_g_Bank0Segment + 6)), de
                                   1280 ;E:/Dropbox/FAUSTO/SVILUPPI/MSX/CODE/C/MSXgl/engine/src/rom_mapper.h:191: Poke(YAMANOOTO_OFFR, (s >> 2) & 0xC0);
    00000337 43               [ 4] 1281 	ld	b, e
    00000338 6A               [ 4] 1282 	ld	l, d
                                   1283 ;	spillPairReg hl
                                   1284 ;	spillPairReg hl
    00000339 CB 3D            [ 8] 1285 	srl	l
    0000033B CB 18            [ 8] 1286 	rr	b
    0000033D CB 3D            [ 8] 1287 	srl	l
    0000033F CB 18            [ 8] 1288 	rr	b
    00000341 78               [ 4] 1289 	ld	a, b
    00000342 E6 C0            [ 7] 1290 	and	a, #0xc0
                                   1291 ;E:/Dropbox/FAUSTO/SVILUPPI/MSX/CODE/C/MSXgl/engine/src/system.h:101: inline void Poke(u16 addr, u8 val) { *(u8*)addr = val; }
    00000344 32 FE 7F         [13] 1292 	ld	(#0x7ffe),a
                                   1293 ;E:/Dropbox/FAUSTO/SVILUPPI/MSX/CODE/C/MSXgl/engine/src/rom_mapper.h:195: else if (b == 3)	Poke(ADDR_BANK_3, s & 0xFF);
                                   1294 ;E:/Dropbox/FAUSTO/SVILUPPI/MSX/CODE/C/MSXgl/engine/src/system.h:101: inline void Poke(u16 addr, u8 val) { *(u8*)addr = val; }
    00000347 21 00 B0         [10] 1295 	ld	hl, #0xb000
    0000034A 73               [ 7] 1296 	ld	(hl), e
                                   1297 ;./soccerlg.c:238: return _res;
    0000034B 79               [ 4] 1298 	ld	a, c
                                   1299 ;./soccerlg.c:239: }
    0000034C 33               [ 6] 1300 	inc	sp
    0000034D DD E1            [14] 1301 	pop	ix
    0000034F E1               [10] 1302 	pop	hl
    00000350 C1               [10] 1303 	pop	bc
    00000351 E9               [ 4] 1304 	jp	(hl)
                                   1305 ;./soccerlg.c:241: bool CallFnc_BOOL(u8 segment, bool (*func)()) {
                                   1306 ;	---------------------------------
                                   1307 ; Function CallFnc_BOOL
                                   1308 ; ---------------------------------
    00000352                       1309 _CallFnc_BOOL::
    00000352 DD E5            [15] 1310 	push	ix
    00000354 DD 21 00 00      [14] 1311 	ld	ix,#0
    00000358 DD 39            [15] 1312 	add	ix,sp
    0000035A 3B               [ 6] 1313 	dec	sp
    0000035B 4F               [ 4] 1314 	ld	c, a
                                   1315 ;./soccerlg.c:243: u8 _old = GET_BANK_SEGMENT(3);
    0000035C 2Ar06r00         [16] 1316 	ld	hl, (#(_g_Bank0Segment + 6) + 0)
    0000035F DD 75 FF         [19] 1317 	ld	-1 (ix), l
                                   1318 ;./soccerlg.c:244: SET_BANK_SEGMENT(3, segment);
    00000362 06 00            [ 7] 1319 	ld	b, #0x00
                                   1320 ;E:/Dropbox/FAUSTO/SVILUPPI/MSX/CODE/C/MSXgl/engine/src/rom_mapper.h:190: g_Bank0Segment[b] = s;
    00000364 ED 43r06r00      [20] 1321 	ld	((_g_Bank0Segment + 6)), bc
                                   1322 ;E:/Dropbox/FAUSTO/SVILUPPI/MSX/CODE/C/MSXgl/engine/src/rom_mapper.h:191: Poke(YAMANOOTO_OFFR, (s >> 2) & 0xC0);
    00000368 69               [ 4] 1323 	ld	l, c
    00000369 60               [ 4] 1324 	ld	h, b
    0000036A CB 3C            [ 8] 1325 	srl	h
    0000036C CB 1D            [ 8] 1326 	rr	l
    0000036E CB 3C            [ 8] 1327 	srl	h
    00000370 CB 1D            [ 8] 1328 	rr	l
    00000372 7D               [ 4] 1329 	ld	a, l
    00000373 E6 C0            [ 7] 1330 	and	a, #0xc0
                                   1331 ;E:/Dropbox/FAUSTO/SVILUPPI/MSX/CODE/C/MSXgl/engine/src/system.h:101: inline void Poke(u16 addr, u8 val) { *(u8*)addr = val; }
    00000375 32 FE 7F         [13] 1332 	ld	(#0x7ffe),a
                                   1333 ;E:/Dropbox/FAUSTO/SVILUPPI/MSX/CODE/C/MSXgl/engine/src/rom_mapper.h:195: else if (b == 3)	Poke(ADDR_BANK_3, s & 0xFF);
                                   1334 ;E:/Dropbox/FAUSTO/SVILUPPI/MSX/CODE/C/MSXgl/engine/src/system.h:101: inline void Poke(u16 addr, u8 val) { *(u8*)addr = val; }
    00000378 21 00 B0         [10] 1335 	ld	hl, #0xb000
    0000037B 71               [ 7] 1336 	ld	(hl), c
                                   1337 ;./soccerlg.c:245: _res = func();
    0000037C EB               [ 4] 1338 	ex	de, hl
    0000037D CDr00r00         [17] 1339 	call	___sdcc_call_hl
    00000380 4F               [ 4] 1340 	ld	c, a
                                   1341 ;./soccerlg.c:246: SET_BANK_SEGMENT(3, _old);
    00000381 DD 5E FF         [19] 1342 	ld	e, -1 (ix)
    00000384 16 00            [ 7] 1343 	ld	d, #0x00
                                   1344 ;E:/Dropbox/FAUSTO/SVILUPPI/MSX/CODE/C/MSXgl/engine/src/rom_mapper.h:190: g_Bank0Segment[b] = s;
    00000386 ED 53r06r00      [20] 1345 	ld	((_g_Bank0Segment + 6)), de
                                   1346 ;E:/Dropbox/FAUSTO/SVILUPPI/MSX/CODE/C/MSXgl/engine/src/rom_mapper.h:191: Poke(YAMANOOTO_OFFR, (s >> 2) & 0xC0);
    0000038A 43               [ 4] 1347 	ld	b, e
    0000038B 6A               [ 4] 1348 	ld	l, d
                                   1349 ;	spillPairReg hl
                                   1350 ;	spillPairReg hl
    0000038C CB 3D            [ 8] 1351 	srl	l
    0000038E CB 18            [ 8] 1352 	rr	b
    00000390 CB 3D            [ 8] 1353 	srl	l
    00000392 CB 18            [ 8] 1354 	rr	b
    00000394 78               [ 4] 1355 	ld	a, b
    00000395 E6 C0            [ 7] 1356 	and	a, #0xc0
                                   1357 ;E:/Dropbox/FAUSTO/SVILUPPI/MSX/CODE/C/MSXgl/engine/src/system.h:101: inline void Poke(u16 addr, u8 val) { *(u8*)addr = val; }
    00000397 32 FE 7F         [13] 1358 	ld	(#0x7ffe),a
                                   1359 ;E:/Dropbox/FAUSTO/SVILUPPI/MSX/CODE/C/MSXgl/engine/src/rom_mapper.h:195: else if (b == 3)	Poke(ADDR_BANK_3, s & 0xFF);
                                   1360 ;E:/Dropbox/FAUSTO/SVILUPPI/MSX/CODE/C/MSXgl/engine/src/system.h:101: inline void Poke(u16 addr, u8 val) { *(u8*)addr = val; }
    0000039A 21 00 B0         [10] 1361 	ld	hl, #0xb000
    0000039D 73               [ 7] 1362 	ld	(hl), e
                                   1363 ;./soccerlg.c:247: return _res;
    0000039E 79               [ 4] 1364 	ld	a, c
                                   1365 ;./soccerlg.c:248: }
    0000039F 33               [ 6] 1366 	inc	sp
    000003A0 DD E1            [14] 1367 	pop	ix
    000003A2 C9               [10] 1368 	ret
                                   1369 ;./soccerlg.c:250: bool CallFnc_BOOL_P1(u8 segment, bool (*func)(u8), u8 p1) {
                                   1370 ;	---------------------------------
                                   1371 ; Function CallFnc_BOOL_P1
                                   1372 ; ---------------------------------
    000003A3                       1373 _CallFnc_BOOL_P1::
    000003A3 DD E5            [15] 1374 	push	ix
    000003A5 DD 21 00 00      [14] 1375 	ld	ix,#0
    000003A9 DD 39            [15] 1376 	add	ix,sp
    000003AB 3B               [ 6] 1377 	dec	sp
    000003AC 4F               [ 4] 1378 	ld	c, a
                                   1379 ;./soccerlg.c:252: u8 _old = GET_BANK_SEGMENT(3);
    000003AD 2Ar06r00         [16] 1380 	ld	hl, (#(_g_Bank0Segment + 6) + 0)
    000003B0 DD 75 FF         [19] 1381 	ld	-1 (ix), l
                                   1382 ;./soccerlg.c:253: SET_BANK_SEGMENT(3, segment);
    000003B3 06 00            [ 7] 1383 	ld	b, #0x00
                                   1384 ;E:/Dropbox/FAUSTO/SVILUPPI/MSX/CODE/C/MSXgl/engine/src/rom_mapper.h:190: g_Bank0Segment[b] = s;
    000003B5 ED 43r06r00      [20] 1385 	ld	((_g_Bank0Segment + 6)), bc
                                   1386 ;E:/Dropbox/FAUSTO/SVILUPPI/MSX/CODE/C/MSXgl/engine/src/rom_mapper.h:191: Poke(YAMANOOTO_OFFR, (s >> 2) & 0xC0);
    000003B9 69               [ 4] 1387 	ld	l, c
    000003BA 60               [ 4] 1388 	ld	h, b
    000003BB CB 3C            [ 8] 1389 	srl	h
    000003BD CB 1D            [ 8] 1390 	rr	l
    000003BF CB 3C            [ 8] 1391 	srl	h
    000003C1 CB 1D            [ 8] 1392 	rr	l
    000003C3 7D               [ 4] 1393 	ld	a, l
    000003C4 E6 C0            [ 7] 1394 	and	a, #0xc0
                                   1395 ;E:/Dropbox/FAUSTO/SVILUPPI/MSX/CODE/C/MSXgl/engine/src/system.h:101: inline void Poke(u16 addr, u8 val) { *(u8*)addr = val; }
    000003C6 32 FE 7F         [13] 1396 	ld	(#0x7ffe),a
                                   1397 ;E:/Dropbox/FAUSTO/SVILUPPI/MSX/CODE/C/MSXgl/engine/src/rom_mapper.h:195: else if (b == 3)	Poke(ADDR_BANK_3, s & 0xFF);
                                   1398 ;E:/Dropbox/FAUSTO/SVILUPPI/MSX/CODE/C/MSXgl/engine/src/system.h:101: inline void Poke(u16 addr, u8 val) { *(u8*)addr = val; }
    000003C9 21 00 B0         [10] 1399 	ld	hl, #0xb000
    000003CC 71               [ 7] 1400 	ld	(hl), c
                                   1401 ;./soccerlg.c:254: _res = func(p1);
    000003CD DD 7E 04         [19] 1402 	ld	a, 4 (ix)
    000003D0 EB               [ 4] 1403 	ex	de, hl
    000003D1 CDr00r00         [17] 1404 	call	___sdcc_call_hl
    000003D4 4F               [ 4] 1405 	ld	c, a
                                   1406 ;./soccerlg.c:255: SET_BANK_SEGMENT(3, _old);
    000003D5 DD 5E FF         [19] 1407 	ld	e, -1 (ix)
    000003D8 16 00            [ 7] 1408 	ld	d, #0x00
                                   1409 ;E:/Dropbox/FAUSTO/SVILUPPI/MSX/CODE/C/MSXgl/engine/src/rom_mapper.h:190: g_Bank0Segment[b] = s;
    000003DA ED 53r06r00      [20] 1410 	ld	((_g_Bank0Segment + 6)), de
                                   1411 ;E:/Dropbox/FAUSTO/SVILUPPI/MSX/CODE/C/MSXgl/engine/src/rom_mapper.h:191: Poke(YAMANOOTO_OFFR, (s >> 2) & 0xC0);
    000003DE 43               [ 4] 1412 	ld	b, e
    000003DF 6A               [ 4] 1413 	ld	l, d
                                   1414 ;	spillPairReg hl
                                   1415 ;	spillPairReg hl
    000003E0 CB 3D            [ 8] 1416 	srl	l
    000003E2 CB 18            [ 8] 1417 	rr	b
    000003E4 CB 3D            [ 8] 1418 	srl	l
    000003E6 CB 18            [ 8] 1419 	rr	b
    000003E8 78               [ 4] 1420 	ld	a, b
    000003E9 E6 C0            [ 7] 1421 	and	a, #0xc0
                                   1422 ;E:/Dropbox/FAUSTO/SVILUPPI/MSX/CODE/C/MSXgl/engine/src/system.h:101: inline void Poke(u16 addr, u8 val) { *(u8*)addr = val; }
    000003EB 32 FE 7F         [13] 1423 	ld	(#0x7ffe),a
                                   1424 ;E:/Dropbox/FAUSTO/SVILUPPI/MSX/CODE/C/MSXgl/engine/src/rom_mapper.h:195: else if (b == 3)	Poke(ADDR_BANK_3, s & 0xFF);
                                   1425 ;E:/Dropbox/FAUSTO/SVILUPPI/MSX/CODE/C/MSXgl/engine/src/system.h:101: inline void Poke(u16 addr, u8 val) { *(u8*)addr = val; }
    000003EE 21 00 B0         [10] 1426 	ld	hl, #0xb000
    000003F1 73               [ 7] 1427 	ld	(hl), e
                                   1428 ;./soccerlg.c:256: return _res;
    000003F2 79               [ 4] 1429 	ld	a, c
                                   1430 ;./soccerlg.c:257: }
    000003F3 33               [ 6] 1431 	inc	sp
    000003F4 DD E1            [14] 1432 	pop	ix
    000003F6 E1               [10] 1433 	pop	hl
    000003F7 33               [ 6] 1434 	inc	sp
    000003F8 E9               [ 4] 1435 	jp	(hl)
                                   1436 ;./soccerlg.c:263: void PlayPCM(u8 id){
                                   1437 ;	---------------------------------
                                   1438 ; Function PlayPCM
                                   1439 ; ---------------------------------
    000003F9                       1440 _PlayPCM::
    000003F9 DD E5            [15] 1441 	push	ix
    000003FB DD 21 00 00      [14] 1442 	ld	ix,#0
    000003FF DD 39            [15] 1443 	add	ix,sp
    00000401 F5               [11] 1444 	push	af
    00000402 3B               [ 6] 1445 	dec	sp
    00000403 4F               [ 4] 1446 	ld	c, a
                                   1447 ;./soccerlg.c:264: bool isVGMPlaying=VGM_IsPlaying();
    00000404 3Ar00r00         [13] 1448 	ld	a, (_g_VGM_State+0)
    00000407 E6 80            [ 7] 1449 	and	a, #0x80
    00000409 DD 77 FD         [19] 1450 	ld	-3 (ix), a
                                   1451 ;./soccerlg.c:265: VGM_Stop();
    0000040C C5               [11] 1452 	push	bc
    0000040D CDr00r00         [17] 1453 	call	_VGM_Stop
    00000410 C1               [10] 1454 	pop	bc
                                   1455 ;./soccerlg.c:266: u8 currentSegment2 = GET_BANK_SEGMENT(2);
    00000411 2Ar04r00         [16] 1456 	ld	hl, (#(_g_Bank0Segment + 4) + 0)
    00000414 DD 75 FE         [19] 1457 	ld	-2 (ix), l
                                   1458 ;./soccerlg.c:267: u8 currentSegment3 = GET_BANK_SEGMENT(3);
    00000417 2Ar06r00         [16] 1459 	ld	hl, (#(_g_Bank0Segment + 6) + 0)
    0000041A DD 75 FF         [19] 1460 	ld	-1 (ix), l
                                   1461 ;./soccerlg.c:268: switch(id){
    0000041D 3E 05            [ 7] 1462 	ld	a, #0x05
    0000041F 91               [ 4] 1463 	sub	a, c
    00000420 DAr91r05         [10] 1464 	jp	C, 00107$
    00000423 06 00            [ 7] 1465 	ld	b, #0x00
    00000425 21r2Cr04         [10] 1466 	ld	hl, #00482$
    00000428 09               [11] 1467 	add	hl, bc
    00000429 09               [11] 1468 	add	hl, bc
    0000042A 09               [11] 1469 	add	hl, bc
    0000042B E9               [ 4] 1470 	jp	(hl)
    0000042C                       1471 00482$:
    0000042C C3r3Er04         [10] 1472 	jp	00101$
    0000042F C3r6Br04         [10] 1473 	jp	00102$
    00000432 C3r98r04         [10] 1474 	jp	00103$
    00000435 C3r1Fr05         [10] 1475 	jp	00104$
    00000438 C3r4Cr05         [10] 1476 	jp	00105$
    0000043B C3r79r05         [10] 1477 	jp	00106$
                                   1478 ;./soccerlg.c:269: case PCM_CORNERKICK:
    0000043E                       1479 00101$:
                                   1480 ;E:/Dropbox/FAUSTO/SVILUPPI/MSX/CODE/C/MSXgl/engine/src/rom_mapper.h:190: g_Bank0Segment[b] = s;
    0000043E 21 2C 00         [10] 1481 	ld	hl, #0x002c
    00000441 22r04r00         [16] 1482 	ld	((_g_Bank0Segment + 4)), hl
                                   1483 ;E:/Dropbox/FAUSTO/SVILUPPI/MSX/CODE/C/MSXgl/engine/src/rom_mapper.h:191: Poke(YAMANOOTO_OFFR, (s >> 2) & 0xC0);
    00000444 3E 0B            [ 7] 1484 	ld	a, #0x0b
    00000446 E6 C0            [ 7] 1485 	and	a, #0xc0
                                   1486 ;E:/Dropbox/FAUSTO/SVILUPPI/MSX/CODE/C/MSXgl/engine/src/system.h:101: inline void Poke(u16 addr, u8 val) { *(u8*)addr = val; }
    00000448 32 FE 7F         [13] 1487 	ld	(#0x7ffe),a
                                   1488 ;E:/Dropbox/FAUSTO/SVILUPPI/MSX/CODE/C/MSXgl/engine/src/rom_mapper.h:194: else if (b == 2)	Poke(ADDR_BANK_2, s & 0xFF);
    0000044B 3E 2C            [ 7] 1489 	ld	a, #0x2c
                                   1490 ;E:/Dropbox/FAUSTO/SVILUPPI/MSX/CODE/C/MSXgl/engine/src/system.h:101: inline void Poke(u16 addr, u8 val) { *(u8*)addr = val; }
    0000044D 32 00 90         [13] 1491 	ld	(#0x9000),a
                                   1492 ;E:/Dropbox/FAUSTO/SVILUPPI/MSX/CODE/C/MSXgl/engine/src/rom_mapper.h:190: g_Bank0Segment[b] = s;
    00000450 21 2D 00         [10] 1493 	ld	hl, #0x002d
    00000453 22r06r00         [16] 1494 	ld	((_g_Bank0Segment + 6)), hl
                                   1495 ;E:/Dropbox/FAUSTO/SVILUPPI/MSX/CODE/C/MSXgl/engine/src/rom_mapper.h:191: Poke(YAMANOOTO_OFFR, (s >> 2) & 0xC0);
    00000456 3E 0B            [ 7] 1496 	ld	a, #0x0b
    00000458 E6 C0            [ 7] 1497 	and	a, #0xc0
                                   1498 ;E:/Dropbox/FAUSTO/SVILUPPI/MSX/CODE/C/MSXgl/engine/src/system.h:101: inline void Poke(u16 addr, u8 val) { *(u8*)addr = val; }
    0000045A 32 FE 7F         [13] 1499 	ld	(#0x7ffe),a
                                   1500 ;E:/Dropbox/FAUSTO/SVILUPPI/MSX/CODE/C/MSXgl/engine/src/rom_mapper.h:195: else if (b == 3)	Poke(ADDR_BANK_3, s & 0xFF);
    0000045D 3E 2D            [ 7] 1501 	ld	a, #0x2d
                                   1502 ;E:/Dropbox/FAUSTO/SVILUPPI/MSX/CODE/C/MSXgl/engine/src/system.h:101: inline void Poke(u16 addr, u8 val) { *(u8*)addr = val; }
    0000045F 32 00 B0         [13] 1503 	ld	(#0xb000),a
                                   1504 ;./soccerlg.c:272: PCM_Play_11K((u16)g_Data_PCM_CornerKicka);
    00000462 21r00r00         [10] 1505 	ld	hl, #_g_Data_PCM_CornerKicka
    00000465 CDr00r00         [17] 1506 	call	_PCM_Play_11K
                                   1507 ;./soccerlg.c:273: break;
    00000468 C3r91r05         [10] 1508 	jp	00107$
                                   1509 ;./soccerlg.c:274: case PCM_KICKOFF:
    0000046B                       1510 00102$:
                                   1511 ;E:/Dropbox/FAUSTO/SVILUPPI/MSX/CODE/C/MSXgl/engine/src/rom_mapper.h:190: g_Bank0Segment[b] = s;
    0000046B 21 2E 00         [10] 1512 	ld	hl, #0x002e
    0000046E 22r04r00         [16] 1513 	ld	((_g_Bank0Segment + 4)), hl
                                   1514 ;E:/Dropbox/FAUSTO/SVILUPPI/MSX/CODE/C/MSXgl/engine/src/rom_mapper.h:191: Poke(YAMANOOTO_OFFR, (s >> 2) & 0xC0);
    00000471 3E 0B            [ 7] 1515 	ld	a, #0x0b
    00000473 E6 C0            [ 7] 1516 	and	a, #0xc0
                                   1517 ;E:/Dropbox/FAUSTO/SVILUPPI/MSX/CODE/C/MSXgl/engine/src/system.h:101: inline void Poke(u16 addr, u8 val) { *(u8*)addr = val; }
    00000475 32 FE 7F         [13] 1518 	ld	(#0x7ffe),a
                                   1519 ;E:/Dropbox/FAUSTO/SVILUPPI/MSX/CODE/C/MSXgl/engine/src/rom_mapper.h:194: else if (b == 2)	Poke(ADDR_BANK_2, s & 0xFF);
    00000478 3E 2E            [ 7] 1520 	ld	a, #0x2e
                                   1521 ;E:/Dropbox/FAUSTO/SVILUPPI/MSX/CODE/C/MSXgl/engine/src/system.h:101: inline void Poke(u16 addr, u8 val) { *(u8*)addr = val; }
    0000047A 32 00 90         [13] 1522 	ld	(#0x9000),a
                                   1523 ;E:/Dropbox/FAUSTO/SVILUPPI/MSX/CODE/C/MSXgl/engine/src/rom_mapper.h:190: g_Bank0Segment[b] = s;
    0000047D 21 2F 00         [10] 1524 	ld	hl, #0x002f
    00000480 22r06r00         [16] 1525 	ld	((_g_Bank0Segment + 6)), hl
                                   1526 ;E:/Dropbox/FAUSTO/SVILUPPI/MSX/CODE/C/MSXgl/engine/src/rom_mapper.h:191: Poke(YAMANOOTO_OFFR, (s >> 2) & 0xC0);
    00000483 3E 0B            [ 7] 1527 	ld	a, #0x0b
    00000485 E6 C0            [ 7] 1528 	and	a, #0xc0
                                   1529 ;E:/Dropbox/FAUSTO/SVILUPPI/MSX/CODE/C/MSXgl/engine/src/system.h:101: inline void Poke(u16 addr, u8 val) { *(u8*)addr = val; }
    00000487 32 FE 7F         [13] 1530 	ld	(#0x7ffe),a
                                   1531 ;E:/Dropbox/FAUSTO/SVILUPPI/MSX/CODE/C/MSXgl/engine/src/rom_mapper.h:195: else if (b == 3)	Poke(ADDR_BANK_3, s & 0xFF);
    0000048A 3E 2F            [ 7] 1532 	ld	a, #0x2f
                                   1533 ;E:/Dropbox/FAUSTO/SVILUPPI/MSX/CODE/C/MSXgl/engine/src/system.h:101: inline void Poke(u16 addr, u8 val) { *(u8*)addr = val; }
    0000048C 32 00 B0         [13] 1534 	ld	(#0xb000),a
                                   1535 ;./soccerlg.c:277: PCM_Play_11K((u16)g_Data_PCM_KickOffa);
    0000048F 21r00r00         [10] 1536 	ld	hl, #_g_Data_PCM_KickOffa
    00000492 CDr00r00         [17] 1537 	call	_PCM_Play_11K
                                   1538 ;./soccerlg.c:278: break;
    00000495 C3r91r05         [10] 1539 	jp	00107$
                                   1540 ;./soccerlg.c:279: case PCM_INGOAL:
    00000498                       1541 00103$:
                                   1542 ;E:/Dropbox/FAUSTO/SVILUPPI/MSX/CODE/C/MSXgl/engine/src/rom_mapper.h:190: g_Bank0Segment[b] = s;
    00000498 21 30 00         [10] 1543 	ld	hl, #0x0030
    0000049B 22r04r00         [16] 1544 	ld	((_g_Bank0Segment + 4)), hl
                                   1545 ;E:/Dropbox/FAUSTO/SVILUPPI/MSX/CODE/C/MSXgl/engine/src/rom_mapper.h:191: Poke(YAMANOOTO_OFFR, (s >> 2) & 0xC0);
    0000049E 3E 0C            [ 7] 1546 	ld	a, #0x0c
    000004A0 E6 C0            [ 7] 1547 	and	a, #0xc0
                                   1548 ;E:/Dropbox/FAUSTO/SVILUPPI/MSX/CODE/C/MSXgl/engine/src/system.h:101: inline void Poke(u16 addr, u8 val) { *(u8*)addr = val; }
    000004A2 32 FE 7F         [13] 1549 	ld	(#0x7ffe),a
                                   1550 ;E:/Dropbox/FAUSTO/SVILUPPI/MSX/CODE/C/MSXgl/engine/src/rom_mapper.h:194: else if (b == 2)	Poke(ADDR_BANK_2, s & 0xFF);
    000004A5 3E 30            [ 7] 1551 	ld	a, #0x30
                                   1552 ;E:/Dropbox/FAUSTO/SVILUPPI/MSX/CODE/C/MSXgl/engine/src/system.h:101: inline void Poke(u16 addr, u8 val) { *(u8*)addr = val; }
    000004A7 32 00 90         [13] 1553 	ld	(#0x9000),a
                                   1554 ;E:/Dropbox/FAUSTO/SVILUPPI/MSX/CODE/C/MSXgl/engine/src/rom_mapper.h:190: g_Bank0Segment[b] = s;
    000004AA 21 31 00         [10] 1555 	ld	hl, #0x0031
    000004AD 22r06r00         [16] 1556 	ld	((_g_Bank0Segment + 6)), hl
                                   1557 ;E:/Dropbox/FAUSTO/SVILUPPI/MSX/CODE/C/MSXgl/engine/src/rom_mapper.h:191: Poke(YAMANOOTO_OFFR, (s >> 2) & 0xC0);
    000004B0 3E 0C            [ 7] 1558 	ld	a, #0x0c
    000004B2 E6 C0            [ 7] 1559 	and	a, #0xc0
                                   1560 ;E:/Dropbox/FAUSTO/SVILUPPI/MSX/CODE/C/MSXgl/engine/src/system.h:101: inline void Poke(u16 addr, u8 val) { *(u8*)addr = val; }
    000004B4 32 FE 7F         [13] 1561 	ld	(#0x7ffe),a
                                   1562 ;E:/Dropbox/FAUSTO/SVILUPPI/MSX/CODE/C/MSXgl/engine/src/rom_mapper.h:195: else if (b == 3)	Poke(ADDR_BANK_3, s & 0xFF);
    000004B7 3E 31            [ 7] 1563 	ld	a, #0x31
                                   1564 ;E:/Dropbox/FAUSTO/SVILUPPI/MSX/CODE/C/MSXgl/engine/src/system.h:101: inline void Poke(u16 addr, u8 val) { *(u8*)addr = val; }
    000004B9 32 00 B0         [13] 1565 	ld	(#0xb000),a
                                   1566 ;./soccerlg.c:282: PCM_Play_11K((u16)g_Data_PCM_InGoal_1a);
    000004BC 21r00r00         [10] 1567 	ld	hl, #_g_Data_PCM_InGoal_1a
    000004BF CDr00r00         [17] 1568 	call	_PCM_Play_11K
                                   1569 ;E:/Dropbox/FAUSTO/SVILUPPI/MSX/CODE/C/MSXgl/engine/src/rom_mapper.h:190: g_Bank0Segment[b] = s;
    000004C2 21 32 00         [10] 1570 	ld	hl, #0x0032
    000004C5 22r04r00         [16] 1571 	ld	((_g_Bank0Segment + 4)), hl
                                   1572 ;E:/Dropbox/FAUSTO/SVILUPPI/MSX/CODE/C/MSXgl/engine/src/rom_mapper.h:191: Poke(YAMANOOTO_OFFR, (s >> 2) & 0xC0);
    000004C8 3E 0C            [ 7] 1573 	ld	a, #0x0c
    000004CA E6 C0            [ 7] 1574 	and	a, #0xc0
                                   1575 ;E:/Dropbox/FAUSTO/SVILUPPI/MSX/CODE/C/MSXgl/engine/src/system.h:101: inline void Poke(u16 addr, u8 val) { *(u8*)addr = val; }
    000004CC 32 FE 7F         [13] 1576 	ld	(#0x7ffe),a
                                   1577 ;E:/Dropbox/FAUSTO/SVILUPPI/MSX/CODE/C/MSXgl/engine/src/rom_mapper.h:194: else if (b == 2)	Poke(ADDR_BANK_2, s & 0xFF);
    000004CF 3E 32            [ 7] 1578 	ld	a, #0x32
                                   1579 ;E:/Dropbox/FAUSTO/SVILUPPI/MSX/CODE/C/MSXgl/engine/src/system.h:101: inline void Poke(u16 addr, u8 val) { *(u8*)addr = val; }
    000004D1 32 00 90         [13] 1580 	ld	(#0x9000),a
                                   1581 ;E:/Dropbox/FAUSTO/SVILUPPI/MSX/CODE/C/MSXgl/engine/src/rom_mapper.h:190: g_Bank0Segment[b] = s;
    000004D4 21 33 00         [10] 1582 	ld	hl, #0x0033
    000004D7 22r06r00         [16] 1583 	ld	((_g_Bank0Segment + 6)), hl
                                   1584 ;E:/Dropbox/FAUSTO/SVILUPPI/MSX/CODE/C/MSXgl/engine/src/rom_mapper.h:191: Poke(YAMANOOTO_OFFR, (s >> 2) & 0xC0);
    000004DA 3E 0C            [ 7] 1585 	ld	a, #0x0c
    000004DC E6 C0            [ 7] 1586 	and	a, #0xc0
                                   1587 ;E:/Dropbox/FAUSTO/SVILUPPI/MSX/CODE/C/MSXgl/engine/src/system.h:101: inline void Poke(u16 addr, u8 val) { *(u8*)addr = val; }
    000004DE 32 FE 7F         [13] 1588 	ld	(#0x7ffe),a
                                   1589 ;E:/Dropbox/FAUSTO/SVILUPPI/MSX/CODE/C/MSXgl/engine/src/rom_mapper.h:195: else if (b == 3)	Poke(ADDR_BANK_3, s & 0xFF);
    000004E1 3E 33            [ 7] 1590 	ld	a, #0x33
                                   1591 ;E:/Dropbox/FAUSTO/SVILUPPI/MSX/CODE/C/MSXgl/engine/src/system.h:101: inline void Poke(u16 addr, u8 val) { *(u8*)addr = val; }
    000004E3 32 00 B0         [13] 1592 	ld	(#0xb000),a
                                   1593 ;./soccerlg.c:285: PCM_Play_11K((u16)g_Data_PCM_InGoal_2a);
    000004E6 21r00r00         [10] 1594 	ld	hl, #_g_Data_PCM_InGoal_2a
    000004E9 CDr00r00         [17] 1595 	call	_PCM_Play_11K
                                   1596 ;E:/Dropbox/FAUSTO/SVILUPPI/MSX/CODE/C/MSXgl/engine/src/rom_mapper.h:190: g_Bank0Segment[b] = s;
    000004EC 21 34 00         [10] 1597 	ld	hl, #0x0034
    000004EF 22r04r00         [16] 1598 	ld	((_g_Bank0Segment + 4)), hl
                                   1599 ;E:/Dropbox/FAUSTO/SVILUPPI/MSX/CODE/C/MSXgl/engine/src/rom_mapper.h:191: Poke(YAMANOOTO_OFFR, (s >> 2) & 0xC0);
    000004F2 3E 0D            [ 7] 1600 	ld	a, #0x0d
    000004F4 E6 C0            [ 7] 1601 	and	a, #0xc0
                                   1602 ;E:/Dropbox/FAUSTO/SVILUPPI/MSX/CODE/C/MSXgl/engine/src/system.h:101: inline void Poke(u16 addr, u8 val) { *(u8*)addr = val; }
    000004F6 32 FE 7F         [13] 1603 	ld	(#0x7ffe),a
                                   1604 ;E:/Dropbox/FAUSTO/SVILUPPI/MSX/CODE/C/MSXgl/engine/src/rom_mapper.h:194: else if (b == 2)	Poke(ADDR_BANK_2, s & 0xFF);
    000004F9 3E 34            [ 7] 1605 	ld	a, #0x34
                                   1606 ;E:/Dropbox/FAUSTO/SVILUPPI/MSX/CODE/C/MSXgl/engine/src/system.h:101: inline void Poke(u16 addr, u8 val) { *(u8*)addr = val; }
    000004FB 32 00 90         [13] 1607 	ld	(#0x9000),a
                                   1608 ;E:/Dropbox/FAUSTO/SVILUPPI/MSX/CODE/C/MSXgl/engine/src/rom_mapper.h:190: g_Bank0Segment[b] = s;
    000004FE 21 35 00         [10] 1609 	ld	hl, #0x0035
    00000501 22r06r00         [16] 1610 	ld	((_g_Bank0Segment + 6)), hl
                                   1611 ;E:/Dropbox/FAUSTO/SVILUPPI/MSX/CODE/C/MSXgl/engine/src/rom_mapper.h:191: Poke(YAMANOOTO_OFFR, (s >> 2) & 0xC0);
    00000504 3E 0D            [ 7] 1612 	ld	a, #0x0d
    00000506 E6 C0            [ 7] 1613 	and	a, #0xc0
                                   1614 ;E:/Dropbox/FAUSTO/SVILUPPI/MSX/CODE/C/MSXgl/engine/src/system.h:101: inline void Poke(u16 addr, u8 val) { *(u8*)addr = val; }
    00000508 32 FE 7F         [13] 1615 	ld	(#0x7ffe),a
                                   1616 ;E:/Dropbox/FAUSTO/SVILUPPI/MSX/CODE/C/MSXgl/engine/src/rom_mapper.h:195: else if (b == 3)	Poke(ADDR_BANK_3, s & 0xFF);
    0000050B 3E 35            [ 7] 1617 	ld	a, #0x35
                                   1618 ;E:/Dropbox/FAUSTO/SVILUPPI/MSX/CODE/C/MSXgl/engine/src/system.h:101: inline void Poke(u16 addr, u8 val) { *(u8*)addr = val; }
    0000050D 32 00 B0         [13] 1619 	ld	(#0xb000),a
                                   1620 ;./soccerlg.c:288: PCM_Play_11K((u16)g_Data_PCM_InGoal_3a);
    00000510 21r00r00         [10] 1621 	ld	hl, #_g_Data_PCM_InGoal_3a
    00000513 CDr00r00         [17] 1622 	call	_PCM_Play_11K
                                   1623 ;./soccerlg.c:289: PCM_Play_11K((u16)g_Data_PCM_InGoal_3a);
    00000516 21r00r00         [10] 1624 	ld	hl, #_g_Data_PCM_InGoal_3a
    00000519 CDr00r00         [17] 1625 	call	_PCM_Play_11K
                                   1626 ;./soccerlg.c:290: break;
    0000051C C3r91r05         [10] 1627 	jp	00107$
                                   1628 ;./soccerlg.c:291: case PCM_THROWIN:
    0000051F                       1629 00104$:
                                   1630 ;E:/Dropbox/FAUSTO/SVILUPPI/MSX/CODE/C/MSXgl/engine/src/rom_mapper.h:190: g_Bank0Segment[b] = s;
    0000051F 21 36 00         [10] 1631 	ld	hl, #0x0036
    00000522 22r04r00         [16] 1632 	ld	((_g_Bank0Segment + 4)), hl
                                   1633 ;E:/Dropbox/FAUSTO/SVILUPPI/MSX/CODE/C/MSXgl/engine/src/rom_mapper.h:191: Poke(YAMANOOTO_OFFR, (s >> 2) & 0xC0);
    00000525 3E 0D            [ 7] 1634 	ld	a, #0x0d
    00000527 E6 C0            [ 7] 1635 	and	a, #0xc0
                                   1636 ;E:/Dropbox/FAUSTO/SVILUPPI/MSX/CODE/C/MSXgl/engine/src/system.h:101: inline void Poke(u16 addr, u8 val) { *(u8*)addr = val; }
    00000529 32 FE 7F         [13] 1637 	ld	(#0x7ffe),a
                                   1638 ;E:/Dropbox/FAUSTO/SVILUPPI/MSX/CODE/C/MSXgl/engine/src/rom_mapper.h:194: else if (b == 2)	Poke(ADDR_BANK_2, s & 0xFF);
    0000052C 3E 36            [ 7] 1639 	ld	a, #0x36
                                   1640 ;E:/Dropbox/FAUSTO/SVILUPPI/MSX/CODE/C/MSXgl/engine/src/system.h:101: inline void Poke(u16 addr, u8 val) { *(u8*)addr = val; }
    0000052E 32 00 90         [13] 1641 	ld	(#0x9000),a
                                   1642 ;E:/Dropbox/FAUSTO/SVILUPPI/MSX/CODE/C/MSXgl/engine/src/rom_mapper.h:190: g_Bank0Segment[b] = s;
    00000531 21 37 00         [10] 1643 	ld	hl, #0x0037
    00000534 22r06r00         [16] 1644 	ld	((_g_Bank0Segment + 6)), hl
                                   1645 ;E:/Dropbox/FAUSTO/SVILUPPI/MSX/CODE/C/MSXgl/engine/src/rom_mapper.h:191: Poke(YAMANOOTO_OFFR, (s >> 2) & 0xC0);
    00000537 3E 0D            [ 7] 1646 	ld	a, #0x0d
    00000539 E6 C0            [ 7] 1647 	and	a, #0xc0
                                   1648 ;E:/Dropbox/FAUSTO/SVILUPPI/MSX/CODE/C/MSXgl/engine/src/system.h:101: inline void Poke(u16 addr, u8 val) { *(u8*)addr = val; }
    0000053B 32 FE 7F         [13] 1649 	ld	(#0x7ffe),a
                                   1650 ;E:/Dropbox/FAUSTO/SVILUPPI/MSX/CODE/C/MSXgl/engine/src/rom_mapper.h:195: else if (b == 3)	Poke(ADDR_BANK_3, s & 0xFF);
    0000053E 3E 37            [ 7] 1651 	ld	a, #0x37
                                   1652 ;E:/Dropbox/FAUSTO/SVILUPPI/MSX/CODE/C/MSXgl/engine/src/system.h:101: inline void Poke(u16 addr, u8 val) { *(u8*)addr = val; }
    00000540 32 00 B0         [13] 1653 	ld	(#0xb000),a
                                   1654 ;./soccerlg.c:294: PCM_Play_11K((u16)g_Data_PCM_ThrowIna);
    00000543 21r00r00         [10] 1655 	ld	hl, #_g_Data_PCM_ThrowIna
    00000546 CDr00r00         [17] 1656 	call	_PCM_Play_11K
                                   1657 ;./soccerlg.c:295: break;
    00000549 C3r91r05         [10] 1658 	jp	00107$
                                   1659 ;./soccerlg.c:296: case PCM_GOALKICK:
    0000054C                       1660 00105$:
                                   1661 ;E:/Dropbox/FAUSTO/SVILUPPI/MSX/CODE/C/MSXgl/engine/src/rom_mapper.h:190: g_Bank0Segment[b] = s;
    0000054C 21 38 00         [10] 1662 	ld	hl, #0x0038
    0000054F 22r04r00         [16] 1663 	ld	((_g_Bank0Segment + 4)), hl
                                   1664 ;E:/Dropbox/FAUSTO/SVILUPPI/MSX/CODE/C/MSXgl/engine/src/rom_mapper.h:191: Poke(YAMANOOTO_OFFR, (s >> 2) & 0xC0);
    00000552 3E 0E            [ 7] 1665 	ld	a, #0x0e
    00000554 E6 C0            [ 7] 1666 	and	a, #0xc0
                                   1667 ;E:/Dropbox/FAUSTO/SVILUPPI/MSX/CODE/C/MSXgl/engine/src/system.h:101: inline void Poke(u16 addr, u8 val) { *(u8*)addr = val; }
    00000556 32 FE 7F         [13] 1668 	ld	(#0x7ffe),a
                                   1669 ;E:/Dropbox/FAUSTO/SVILUPPI/MSX/CODE/C/MSXgl/engine/src/rom_mapper.h:194: else if (b == 2)	Poke(ADDR_BANK_2, s & 0xFF);
    00000559 3E 38            [ 7] 1670 	ld	a, #0x38
                                   1671 ;E:/Dropbox/FAUSTO/SVILUPPI/MSX/CODE/C/MSXgl/engine/src/system.h:101: inline void Poke(u16 addr, u8 val) { *(u8*)addr = val; }
    0000055B 32 00 90         [13] 1672 	ld	(#0x9000),a
                                   1673 ;E:/Dropbox/FAUSTO/SVILUPPI/MSX/CODE/C/MSXgl/engine/src/rom_mapper.h:190: g_Bank0Segment[b] = s;
    0000055E 21 39 00         [10] 1674 	ld	hl, #0x0039
    00000561 22r06r00         [16] 1675 	ld	((_g_Bank0Segment + 6)), hl
                                   1676 ;E:/Dropbox/FAUSTO/SVILUPPI/MSX/CODE/C/MSXgl/engine/src/rom_mapper.h:191: Poke(YAMANOOTO_OFFR, (s >> 2) & 0xC0);
    00000564 3E 0E            [ 7] 1677 	ld	a, #0x0e
    00000566 E6 C0            [ 7] 1678 	and	a, #0xc0
                                   1679 ;E:/Dropbox/FAUSTO/SVILUPPI/MSX/CODE/C/MSXgl/engine/src/system.h:101: inline void Poke(u16 addr, u8 val) { *(u8*)addr = val; }
    00000568 32 FE 7F         [13] 1680 	ld	(#0x7ffe),a
                                   1681 ;E:/Dropbox/FAUSTO/SVILUPPI/MSX/CODE/C/MSXgl/engine/src/rom_mapper.h:195: else if (b == 3)	Poke(ADDR_BANK_3, s & 0xFF);
    0000056B 3E 39            [ 7] 1682 	ld	a, #0x39
                                   1683 ;E:/Dropbox/FAUSTO/SVILUPPI/MSX/CODE/C/MSXgl/engine/src/system.h:101: inline void Poke(u16 addr, u8 val) { *(u8*)addr = val; }
    0000056D 32 00 B0         [13] 1684 	ld	(#0xb000),a
                                   1685 ;./soccerlg.c:299: PCM_Play_11K((u16)g_Data_PCM_GoalKicka);
    00000570 21r00r00         [10] 1686 	ld	hl, #_g_Data_PCM_GoalKicka
    00000573 CDr00r00         [17] 1687 	call	_PCM_Play_11K
                                   1688 ;./soccerlg.c:300: break;
    00000576 C3r91r05         [10] 1689 	jp	00107$
                                   1690 ;./soccerlg.c:301: case PCM_REFEREER:
    00000579                       1691 00106$:
                                   1692 ;E:/Dropbox/FAUSTO/SVILUPPI/MSX/CODE/C/MSXgl/engine/src/rom_mapper.h:190: g_Bank0Segment[b] = s;
    00000579 21 3A 00         [10] 1693 	ld	hl, #0x003a
    0000057C 22r06r00         [16] 1694 	ld	((_g_Bank0Segment + 6)), hl
                                   1695 ;E:/Dropbox/FAUSTO/SVILUPPI/MSX/CODE/C/MSXgl/engine/src/rom_mapper.h:191: Poke(YAMANOOTO_OFFR, (s >> 2) & 0xC0);
    0000057F 3E 0E            [ 7] 1696 	ld	a, #0x0e
    00000581 E6 C0            [ 7] 1697 	and	a, #0xc0
                                   1698 ;E:/Dropbox/FAUSTO/SVILUPPI/MSX/CODE/C/MSXgl/engine/src/system.h:101: inline void Poke(u16 addr, u8 val) { *(u8*)addr = val; }
    00000583 32 FE 7F         [13] 1699 	ld	(#0x7ffe),a
                                   1700 ;E:/Dropbox/FAUSTO/SVILUPPI/MSX/CODE/C/MSXgl/engine/src/rom_mapper.h:195: else if (b == 3)	Poke(ADDR_BANK_3, s & 0xFF);
    00000586 3E 3A            [ 7] 1701 	ld	a, #0x3a
                                   1702 ;E:/Dropbox/FAUSTO/SVILUPPI/MSX/CODE/C/MSXgl/engine/src/system.h:101: inline void Poke(u16 addr, u8 val) { *(u8*)addr = val; }
    00000588 32 00 B0         [13] 1703 	ld	(#0xb000),a
                                   1704 ;./soccerlg.c:303: PCM_Play_11K((u16)g_Data_PCM_Refereer);
    0000058B 21r00r00         [10] 1705 	ld	hl, #_g_Data_PCM_Refereer
    0000058E CDr00r00         [17] 1706 	call	_PCM_Play_11K
                                   1707 ;./soccerlg.c:305: }
    00000591                       1708 00107$:
                                   1709 ;./soccerlg.c:306: SET_BANK_SEGMENT(2, currentSegment2);
    00000591 DD 4E FE         [19] 1710 	ld	c, -2 (ix)
    00000594 06 00            [ 7] 1711 	ld	b, #0x00
                                   1712 ;E:/Dropbox/FAUSTO/SVILUPPI/MSX/CODE/C/MSXgl/engine/src/rom_mapper.h:190: g_Bank0Segment[b] = s;
    00000596 ED 43r04r00      [20] 1713 	ld	((_g_Bank0Segment + 4)), bc
                                   1714 ;E:/Dropbox/FAUSTO/SVILUPPI/MSX/CODE/C/MSXgl/engine/src/rom_mapper.h:191: Poke(YAMANOOTO_OFFR, (s >> 2) & 0xC0);
    0000059A 59               [ 4] 1715 	ld	e, c
    0000059B 50               [ 4] 1716 	ld	d, b
    0000059C CB 3A            [ 8] 1717 	srl	d
    0000059E CB 1B            [ 8] 1718 	rr	e
    000005A0 CB 3A            [ 8] 1719 	srl	d
    000005A2 CB 1B            [ 8] 1720 	rr	e
    000005A4 7B               [ 4] 1721 	ld	a, e
    000005A5 E6 C0            [ 7] 1722 	and	a, #0xc0
                                   1723 ;E:/Dropbox/FAUSTO/SVILUPPI/MSX/CODE/C/MSXgl/engine/src/system.h:101: inline void Poke(u16 addr, u8 val) { *(u8*)addr = val; }
    000005A7 32 FE 7F         [13] 1724 	ld	(#0x7ffe),a
                                   1725 ;E:/Dropbox/FAUSTO/SVILUPPI/MSX/CODE/C/MSXgl/engine/src/rom_mapper.h:194: else if (b == 2)	Poke(ADDR_BANK_2, s & 0xFF);
                                   1726 ;E:/Dropbox/FAUSTO/SVILUPPI/MSX/CODE/C/MSXgl/engine/src/system.h:101: inline void Poke(u16 addr, u8 val) { *(u8*)addr = val; }
    000005AA 21 00 90         [10] 1727 	ld	hl, #0x9000
    000005AD 71               [ 7] 1728 	ld	(hl), c
                                   1729 ;./soccerlg.c:307: SET_BANK_SEGMENT(3, currentSegment3);
    000005AE DD 4E FF         [19] 1730 	ld	c, -1 (ix)
    000005B1 06 00            [ 7] 1731 	ld	b, #0x00
                                   1732 ;E:/Dropbox/FAUSTO/SVILUPPI/MSX/CODE/C/MSXgl/engine/src/rom_mapper.h:190: g_Bank0Segment[b] = s;
    000005B3 ED 43r06r00      [20] 1733 	ld	((_g_Bank0Segment + 6)), bc
                                   1734 ;E:/Dropbox/FAUSTO/SVILUPPI/MSX/CODE/C/MSXgl/engine/src/rom_mapper.h:191: Poke(YAMANOOTO_OFFR, (s >> 2) & 0xC0);
    000005B7 59               [ 4] 1735 	ld	e, c
    000005B8 50               [ 4] 1736 	ld	d, b
    000005B9 CB 3A            [ 8] 1737 	srl	d
    000005BB CB 1B            [ 8] 1738 	rr	e
    000005BD CB 3A            [ 8] 1739 	srl	d
    000005BF CB 1B            [ 8] 1740 	rr	e
    000005C1 7B               [ 4] 1741 	ld	a, e
    000005C2 E6 C0            [ 7] 1742 	and	a, #0xc0
                                   1743 ;E:/Dropbox/FAUSTO/SVILUPPI/MSX/CODE/C/MSXgl/engine/src/system.h:101: inline void Poke(u16 addr, u8 val) { *(u8*)addr = val; }
    000005C4 32 FE 7F         [13] 1744 	ld	(#0x7ffe),a
                                   1745 ;E:/Dropbox/FAUSTO/SVILUPPI/MSX/CODE/C/MSXgl/engine/src/rom_mapper.h:195: else if (b == 3)	Poke(ADDR_BANK_3, s & 0xFF);
                                   1746 ;E:/Dropbox/FAUSTO/SVILUPPI/MSX/CODE/C/MSXgl/engine/src/system.h:101: inline void Poke(u16 addr, u8 val) { *(u8*)addr = val; }
    000005C7 21 00 B0         [10] 1747 	ld	hl, #0xb000
    000005CA 71               [ 7] 1748 	ld	(hl), c
                                   1749 ;./soccerlg.c:308: if(isVGMPlaying){
    000005CB DD 7E FD         [19] 1750 	ld	a, -3 (ix)
    000005CE B7               [ 4] 1751 	or	a, a
    000005CF 28 03            [12] 1752 	jr	Z, 00402$
                                   1753 ;./soccerlg.c:309: VGM_Resume();
    000005D1 CDr00r00         [17] 1754 	call	_VGM_Resume
    000005D4                       1755 00402$:
                                   1756 ;./soccerlg.c:311: }
    000005D4 DD F9            [10] 1757 	ld	sp, ix
    000005D6 DD E1            [14] 1758 	pop	ix
    000005D8 C9               [10] 1759 	ret
                                   1760 ;./soccerlg.c:316: void PlayAyFx(u8 id){
                                   1761 ;	---------------------------------
                                   1762 ; Function PlayAyFx
                                   1763 ; ---------------------------------
    000005D9                       1764 _PlayAyFx::
    000005D9 47               [ 4] 1765 	ld	b, a
                                   1766 ;./soccerlg.c:317: ayFX_Mute();
    000005DA C5               [11] 1767 	push	bc
    000005DB CDr00r00         [17] 1768 	call	_ayFX_Mute
    000005DE C1               [10] 1769 	pop	bc
                                   1770 ;E:/Dropbox/FAUSTO/SVILUPPI/MSX/CODE/C/MSXgl/engine/src/ayfx/ayfx_player.h:131: inline void ayFX_SetChannel(u8 chan) { ayFX_Channel = 3 - chan; }
    000005DF 21r00r00         [10] 1771 	ld	hl, #_ayFX_Channel
    000005E2 36 01            [10] 1772 	ld	(hl), #0x01
                                   1773 ;./soccerlg.c:319: u8 currentSegment = GET_BANK_SEGMENT(3);
    000005E4 2Ar06r00         [16] 1774 	ld	hl, (#(_g_Bank0Segment + 6) + 0)
    000005E7 4D               [ 4] 1775 	ld	c, l
                                   1776 ;E:/Dropbox/FAUSTO/SVILUPPI/MSX/CODE/C/MSXgl/engine/src/rom_mapper.h:190: g_Bank0Segment[b] = s;
    000005E8 21 45 00         [10] 1777 	ld	hl, #0x0045
    000005EB 22r06r00         [16] 1778 	ld	((_g_Bank0Segment + 6)), hl
                                   1779 ;E:/Dropbox/FAUSTO/SVILUPPI/MSX/CODE/C/MSXgl/engine/src/rom_mapper.h:191: Poke(YAMANOOTO_OFFR, (s >> 2) & 0xC0);
    000005EE 3E 11            [ 7] 1780 	ld	a, #0x11
    000005F0 E6 C0            [ 7] 1781 	and	a, #0xc0
                                   1782 ;E:/Dropbox/FAUSTO/SVILUPPI/MSX/CODE/C/MSXgl/engine/src/system.h:101: inline void Poke(u16 addr, u8 val) { *(u8*)addr = val; }
    000005F2 32 FE 7F         [13] 1783 	ld	(#0x7ffe),a
                                   1784 ;E:/Dropbox/FAUSTO/SVILUPPI/MSX/CODE/C/MSXgl/engine/src/rom_mapper.h:195: else if (b == 3)	Poke(ADDR_BANK_3, s & 0xFF);
    000005F5 3E 45            [ 7] 1785 	ld	a, #0x45
                                   1786 ;E:/Dropbox/FAUSTO/SVILUPPI/MSX/CODE/C/MSXgl/engine/src/system.h:101: inline void Poke(u16 addr, u8 val) { *(u8*)addr = val; }
    000005F7 32 00 B0         [13] 1787 	ld	(#0xb000),a
                                   1788 ;./soccerlg.c:321: ayFX_PlayBank(id,0);
    000005FA C5               [11] 1789 	push	bc
    000005FB 2E 00            [ 7] 1790 	ld	l, #0x00
                                   1791 ;	spillPairReg hl
                                   1792 ;	spillPairReg hl
    000005FD 78               [ 4] 1793 	ld	a, b
    000005FE CDr00r00         [17] 1794 	call	_ayFX_PlayBank
    00000601 C1               [10] 1795 	pop	bc
                                   1796 ;./soccerlg.c:322: SET_BANK_SEGMENT(3, currentSegment);
    00000602 06 00            [ 7] 1797 	ld	b, #0x00
                                   1798 ;E:/Dropbox/FAUSTO/SVILUPPI/MSX/CODE/C/MSXgl/engine/src/rom_mapper.h:190: g_Bank0Segment[b] = s;
    00000604 ED 43r06r00      [20] 1799 	ld	((_g_Bank0Segment + 6)), bc
                                   1800 ;E:/Dropbox/FAUSTO/SVILUPPI/MSX/CODE/C/MSXgl/engine/src/rom_mapper.h:191: Poke(YAMANOOTO_OFFR, (s >> 2) & 0xC0);
    00000608 59               [ 4] 1801 	ld	e, c
    00000609 50               [ 4] 1802 	ld	d, b
    0000060A CB 3A            [ 8] 1803 	srl	d
    0000060C CB 1B            [ 8] 1804 	rr	e
    0000060E CB 3A            [ 8] 1805 	srl	d
    00000610 CB 1B            [ 8] 1806 	rr	e
    00000612 7B               [ 4] 1807 	ld	a, e
    00000613 E6 C0            [ 7] 1808 	and	a, #0xc0
                                   1809 ;E:/Dropbox/FAUSTO/SVILUPPI/MSX/CODE/C/MSXgl/engine/src/system.h:101: inline void Poke(u16 addr, u8 val) { *(u8*)addr = val; }
    00000615 32 FE 7F         [13] 1810 	ld	(#0x7ffe),a
                                   1811 ;E:/Dropbox/FAUSTO/SVILUPPI/MSX/CODE/C/MSXgl/engine/src/rom_mapper.h:195: else if (b == 3)	Poke(ADDR_BANK_3, s & 0xFF);
                                   1812 ;E:/Dropbox/FAUSTO/SVILUPPI/MSX/CODE/C/MSXgl/engine/src/system.h:101: inline void Poke(u16 addr, u8 val) { *(u8*)addr = val; }
    00000618 21 00 B0         [10] 1813 	ld	hl, #0xb000
    0000061B 71               [ 7] 1814 	ld	(hl), c
                                   1815 ;./soccerlg.c:322: SET_BANK_SEGMENT(3, currentSegment);
                                   1816 ;./soccerlg.c:324: }
    0000061C C9               [10] 1817 	ret
                                   1818 ;./soccerlg.c:331: void PlayVGM(u8 vgmId){
                                   1819 ;	---------------------------------
                                   1820 ; Function PlayVGM
                                   1821 ; ---------------------------------
    0000061D                       1822 _PlayVGM::
    0000061D DD E5            [15] 1823 	push	ix
    0000061F DD 21 00 00      [14] 1824 	ld	ix,#0
    00000623 DD 39            [15] 1825 	add	ix,sp
    00000625 F5               [11] 1826 	push	af
    00000626 F5               [11] 1827 	push	af
                                   1828 ;./soccerlg.c:332: g_currentVGMPlayerSong=vgmId;
    00000627 DD 77 FF         [19] 1829 	ld	-1 (ix), a
    0000062A 32r8Br01         [13] 1830 	ld	(_g_currentVGMPlayerSong+0), a
                                   1831 ;./soccerlg.c:333: u8 currentSegment = GET_BANK_SEGMENT(3);
    0000062D 2Ar06r00         [16] 1832 	ld	hl, (#(_g_Bank0Segment + 6) + 0)
    00000630 DD 75 FC         [19] 1833 	ld	-4 (ix), l
                                   1834 ;./soccerlg.c:334: g_currentVGMPlayingSegment=g_MusicEntry[vgmId].Segment;
    00000633 01r6Dr00         [10] 1835 	ld	bc, #_g_MusicEntry+0
    00000636 DD 5E FF         [19] 1836 	ld	e, -1 (ix)
    00000639 16 00            [ 7] 1837 	ld	d, #0x00
    0000063B 6B               [ 4] 1838 	ld	l, e
    0000063C 62               [ 4] 1839 	ld	h, d
    0000063D 29               [11] 1840 	add	hl, hl
    0000063E 29               [11] 1841 	add	hl, hl
    0000063F 19               [11] 1842 	add	hl, de
    00000640 09               [11] 1843 	add	hl, bc
    00000641 EB               [ 4] 1844 	ex	de, hl
    00000642 4B               [ 4] 1845 	ld	c, e
    00000643 42               [ 4] 1846 	ld	b, d
    00000644 21 04 00         [10] 1847 	ld	hl, #4
    00000647 09               [11] 1848 	add	hl, bc
    00000648 7E               [ 7] 1849 	ld	a, (hl)
                                   1850 ;./soccerlg.c:335: SET_BANK_SEGMENT(3, g_currentVGMPlayingSegment);
    00000649 32r45r00         [13] 1851 	ld	(_g_currentVGMPlayingSegment+0), a
    0000064C 4F               [ 4] 1852 	ld	c, a
    0000064D 06 00            [ 7] 1853 	ld	b, #0x00
    0000064F DD 71 FD         [19] 1854 	ld	-3 (ix), c
    00000652 DD 70 FE         [19] 1855 	ld	-2 (ix), b
                                   1856 ;E:/Dropbox/FAUSTO/SVILUPPI/MSX/CODE/C/MSXgl/engine/src/rom_mapper.h:190: g_Bank0Segment[b] = s;
    00000655 ED 43r06r00      [20] 1857 	ld	((_g_Bank0Segment + 6)), bc
                                   1858 ;E:/Dropbox/FAUSTO/SVILUPPI/MSX/CODE/C/MSXgl/engine/src/rom_mapper.h:191: Poke(YAMANOOTO_OFFR, (s >> 2) & 0xC0);
    00000659 DD 4E FD         [19] 1859 	ld	c, -3 (ix)
    0000065C DD 46 FE         [19] 1860 	ld	b, -2 (ix)
    0000065F CB 38            [ 8] 1861 	srl	b
    00000661 CB 19            [ 8] 1862 	rr	c
    00000663 CB 38            [ 8] 1863 	srl	b
    00000665 CB 19            [ 8] 1864 	rr	c
    00000667 79               [ 4] 1865 	ld	a, c
    00000668 E6 C0            [ 7] 1866 	and	a, #0xc0
                                   1867 ;E:/Dropbox/FAUSTO/SVILUPPI/MSX/CODE/C/MSXgl/engine/src/system.h:101: inline void Poke(u16 addr, u8 val) { *(u8*)addr = val; }
    0000066A 32 FE 7F         [13] 1868 	ld	(#0x7ffe),a
                                   1869 ;E:/Dropbox/FAUSTO/SVILUPPI/MSX/CODE/C/MSXgl/engine/src/rom_mapper.h:195: else if (b == 3)	Poke(ADDR_BANK_3, s & 0xFF);
    0000066D DD 7E FD         [19] 1870 	ld	a, -3 (ix)
                                   1871 ;E:/Dropbox/FAUSTO/SVILUPPI/MSX/CODE/C/MSXgl/engine/src/system.h:101: inline void Poke(u16 addr, u8 val) { *(u8*)addr = val; }
    00000670 21 00 B0         [10] 1872 	ld	hl, #0xb000
    00000673 77               [ 7] 1873 	ld	(hl), a
                                   1874 ;./soccerlg.c:336: VGM_Play((void*)g_MusicEntry[vgmId].Data,vgmId!=VGM_PLAYERS_PRESENTATION && vgmId!=VGM_PUBLIC_PRESENTATION && vgmId!=VGM_REFEERER);
    00000674 DD 7E FF         [19] 1875 	ld	a, -1 (ix)
    00000677 3D               [ 4] 1876 	dec	a
    00000678 28 0E            [12] 1877 	jr	Z, 00138$
    0000067A DD 7E FF         [19] 1878 	ld	a, -1 (ix)
    0000067D D6 04            [ 7] 1879 	sub	a, #0x04
    0000067F 28 07            [12] 1880 	jr	Z, 00138$
    00000681 DD 7E FF         [19] 1881 	ld	a, -1 (ix)
    00000684 D6 05            [ 7] 1882 	sub	a, #0x05
    00000686 20 05            [12] 1883 	jr	NZ, 00139$
    00000688                       1884 00138$:
    00000688 0E 00            [ 7] 1885 	ld	c, #0x00
    0000068A C3r8Fr06         [10] 1886 	jp	00140$
    0000068D                       1887 00139$:
    0000068D 0E 01            [ 7] 1888 	ld	c, #0x01
    0000068F                       1889 00140$:
    0000068F EB               [ 4] 1890 	ex	de, hl
    00000690 23               [ 6] 1891 	inc	hl
    00000691 23               [ 6] 1892 	inc	hl
    00000692 5E               [ 7] 1893 	ld	e, (hl)
    00000693 23               [ 6] 1894 	inc	hl
    00000694 56               [ 7] 1895 	ld	d, (hl)
    00000695 79               [ 4] 1896 	ld	a, c
    00000696 F5               [11] 1897 	push	af
    00000697 33               [ 6] 1898 	inc	sp
    00000698 EB               [ 4] 1899 	ex	de, hl
    00000699 CDr00r00         [17] 1900 	call	_VGM_Play
                                   1901 ;./soccerlg.c:337: SET_BANK_SEGMENT(3, currentSegment);
    0000069C DD 4E FC         [19] 1902 	ld	c, -4 (ix)
    0000069F 06 00            [ 7] 1903 	ld	b, #0x00
                                   1904 ;E:/Dropbox/FAUSTO/SVILUPPI/MSX/CODE/C/MSXgl/engine/src/rom_mapper.h:190: g_Bank0Segment[b] = s;
    000006A1 ED 43r06r00      [20] 1905 	ld	((_g_Bank0Segment + 6)), bc
                                   1906 ;E:/Dropbox/FAUSTO/SVILUPPI/MSX/CODE/C/MSXgl/engine/src/rom_mapper.h:191: Poke(YAMANOOTO_OFFR, (s >> 2) & 0xC0);
    000006A5 59               [ 4] 1907 	ld	e, c
    000006A6 50               [ 4] 1908 	ld	d, b
    000006A7 CB 3A            [ 8] 1909 	srl	d
    000006A9 CB 1B            [ 8] 1910 	rr	e
    000006AB CB 3A            [ 8] 1911 	srl	d
    000006AD CB 1B            [ 8] 1912 	rr	e
    000006AF 7B               [ 4] 1913 	ld	a, e
    000006B0 E6 C0            [ 7] 1914 	and	a, #0xc0
                                   1915 ;E:/Dropbox/FAUSTO/SVILUPPI/MSX/CODE/C/MSXgl/engine/src/system.h:101: inline void Poke(u16 addr, u8 val) { *(u8*)addr = val; }
    000006B2 32 FE 7F         [13] 1916 	ld	(#0x7ffe),a
                                   1917 ;E:/Dropbox/FAUSTO/SVILUPPI/MSX/CODE/C/MSXgl/engine/src/rom_mapper.h:195: else if (b == 3)	Poke(ADDR_BANK_3, s & 0xFF);
                                   1918 ;E:/Dropbox/FAUSTO/SVILUPPI/MSX/CODE/C/MSXgl/engine/src/system.h:101: inline void Poke(u16 addr, u8 val) { *(u8*)addr = val; }
    000006B5 21 00 B0         [10] 1919 	ld	hl, #0xb000
    000006B8 71               [ 7] 1920 	ld	(hl), c
                                   1921 ;./soccerlg.c:338: VGM_Resume();
    000006B9 CDr00r00         [17] 1922 	call	_VGM_Resume
                                   1923 ;./soccerlg.c:339: }
    000006BC DD F9            [10] 1924 	ld	sp, ix
    000006BE DD E1            [14] 1925 	pop	ix
    000006C0 C9               [10] 1926 	ret
                                   1927 ;./soccerlg.c:341: bool VGMNotification(u8 id)
                                   1928 ;	---------------------------------
                                   1929 ; Function VGMNotification
                                   1930 ; ---------------------------------
    000006C1                       1931 _VGMNotification::
    000006C1 4F               [ 4] 1932 	ld	c, a
                                   1933 ;./soccerlg.c:343: __asm di __endasm;
    000006C2 F3               [ 4] 1934 	di	
                                   1935 ;./soccerlg.c:345: switch (id)
    000006C3 79               [ 4] 1936 	ld	a, c
    000006C4 B7               [ 4] 1937 	or	a, a
    000006C5 28 0A            [12] 1938 	jr	Z, 00101$
    000006C7 79               [ 4] 1939 	ld	a, c
    000006C8 3D               [ 4] 1940 	dec	a
    000006C9 28 10            [12] 1941 	jr	Z, 00102$
    000006CB 0C               [ 4] 1942 	inc	c
    000006CC 28 27            [12] 1943 	jr	Z, 00103$
    000006CE C3rFDr06         [10] 1944 	jp	00104$
                                   1945 ;./soccerlg.c:347: case 0x00: // End of data segment
    000006D1                       1946 00101$:
                                   1947 ;./soccerlg.c:348: g_currentVGMPlayingSegment++;
    000006D1 FD 21r45r00      [14] 1948 	ld	iy, #_g_currentVGMPlayingSegment
    000006D5 FD 34 00         [23] 1949 	inc	0 (iy)
                                   1950 ;./soccerlg.c:349: break;
    000006D8 C3rFDr06         [10] 1951 	jp	00104$
                                   1952 ;./soccerlg.c:351: case 0x01: // Reach loop marker
    000006DB                       1953 00102$:
                                   1954 ;./soccerlg.c:352: g_currentVGMPlayingSegment=g_MusicEntry[g_currentVGMPlayerSong].Segment;
    000006DB 01r6Dr00         [10] 1955 	ld	bc, #_g_MusicEntry+0
    000006DE ED 5Br8Br01      [20] 1956 	ld	de, (_g_currentVGMPlayerSong)
    000006E2 16 00            [ 7] 1957 	ld	d, #0x00
    000006E4 6B               [ 4] 1958 	ld	l, e
    000006E5 62               [ 4] 1959 	ld	h, d
    000006E6 29               [11] 1960 	add	hl, hl
    000006E7 29               [11] 1961 	add	hl, hl
    000006E8 19               [11] 1962 	add	hl, de
    000006E9 09               [11] 1963 	add	hl, bc
    000006EA 11 04 00         [10] 1964 	ld	de, #0x0004
    000006ED 19               [11] 1965 	add	hl, de
    000006EE 7E               [ 7] 1966 	ld	a, (hl)
    000006EF 32r45r00         [13] 1967 	ld	(_g_currentVGMPlayingSegment+0), a
                                   1968 ;./soccerlg.c:353: break;
    000006F2 C3rFDr06         [10] 1969 	jp	00104$
                                   1970 ;./soccerlg.c:355: case 0xFF: // Jump to loop marker
    000006F5                       1971 00103$:
                                   1972 ;./soccerlg.c:356: g_VgmPublicPresentationEnded=TRUE;
    000006F5 FD 21r02r00      [14] 1973 	ld	iy, #_g_VgmPublicPresentationEnded
    000006F9 FD 36 00 01      [19] 1974 	ld	0 (iy), #0x01
                                   1975 ;./soccerlg.c:358: }
    000006FD                       1976 00104$:
                                   1977 ;./soccerlg.c:359: __asm ei __endasm;
    000006FD FB               [ 4] 1978 	ei	
                                   1979 ;./soccerlg.c:360: return TRUE;
    000006FE 3E 01            [ 7] 1980 	ld	a, #0x01
                                   1981 ;./soccerlg.c:361: }
    00000700 C9               [10] 1982 	ret
                                   1983 ;./soccerlg.c:366: void LoadMsxVdpFonts() {
                                   1984 ;	---------------------------------
                                   1985 ; Function LoadMsxVdpFonts
                                   1986 ; ---------------------------------
    00000701                       1987 _LoadMsxVdpFonts::
                                   1988 ;./soccerlg.c:367: u8 currentSegment = GET_BANK_SEGMENT(3);
    00000701 ED 4Br06r00      [20] 1989 	ld	bc, (#(_g_Bank0Segment + 6) + 0)
                                   1990 ;E:/Dropbox/FAUSTO/SVILUPPI/MSX/CODE/C/MSXgl/engine/src/rom_mapper.h:190: g_Bank0Segment[b] = s;
    00000705 21 14 00         [10] 1991 	ld	hl, #0x0014
    00000708 22r06r00         [16] 1992 	ld	((_g_Bank0Segment + 6)), hl
                                   1993 ;E:/Dropbox/FAUSTO/SVILUPPI/MSX/CODE/C/MSXgl/engine/src/rom_mapper.h:191: Poke(YAMANOOTO_OFFR, (s >> 2) & 0xC0);
    0000070B 3E 05            [ 7] 1994 	ld	a, #0x05
    0000070D E6 C0            [ 7] 1995 	and	a, #0xc0
                                   1996 ;E:/Dropbox/FAUSTO/SVILUPPI/MSX/CODE/C/MSXgl/engine/src/system.h:101: inline void Poke(u16 addr, u8 val) { *(u8*)addr = val; }
    0000070F 32 FE 7F         [13] 1997 	ld	(#0x7ffe),a
                                   1998 ;E:/Dropbox/FAUSTO/SVILUPPI/MSX/CODE/C/MSXgl/engine/src/rom_mapper.h:195: else if (b == 3)	Poke(ADDR_BANK_3, s & 0xFF);
    00000712 3E 14            [ 7] 1999 	ld	a, #0x14
                                   2000 ;E:/Dropbox/FAUSTO/SVILUPPI/MSX/CODE/C/MSXgl/engine/src/system.h:101: inline void Poke(u16 addr, u8 val) { *(u8*)addr = val; }
    00000714 32 00 B0         [13] 2001 	ld	(#0xb000),a
                                   2002 ;./soccerlg.c:369: Print_SetTextFont((const void*)g_Data_Fonts, 1);
    00000717 C5               [11] 2003 	push	bc
    00000718 3E 01            [ 7] 2004 	ld	a, #0x01
    0000071A F5               [11] 2005 	push	af
    0000071B 33               [ 6] 2006 	inc	sp
    0000071C 21r00r00         [10] 2007 	ld	hl, #_g_Data_Fonts
    0000071F CDr00r00         [17] 2008 	call	_Print_SetTextFont
    00000722 C1               [10] 2009 	pop	bc
                                   2010 ;./soccerlg.c:370: SET_BANK_SEGMENT(3, currentSegment);
    00000723 06 00            [ 7] 2011 	ld	b, #0x00
                                   2012 ;E:/Dropbox/FAUSTO/SVILUPPI/MSX/CODE/C/MSXgl/engine/src/rom_mapper.h:190: g_Bank0Segment[b] = s;
    00000725 ED 43r06r00      [20] 2013 	ld	((_g_Bank0Segment + 6)), bc
                                   2014 ;E:/Dropbox/FAUSTO/SVILUPPI/MSX/CODE/C/MSXgl/engine/src/rom_mapper.h:191: Poke(YAMANOOTO_OFFR, (s >> 2) & 0xC0);
    00000729 59               [ 4] 2015 	ld	e, c
    0000072A 50               [ 4] 2016 	ld	d, b
    0000072B CB 3A            [ 8] 2017 	srl	d
    0000072D CB 1B            [ 8] 2018 	rr	e
    0000072F CB 3A            [ 8] 2019 	srl	d
    00000731 CB 1B            [ 8] 2020 	rr	e
    00000733 7B               [ 4] 2021 	ld	a, e
    00000734 E6 C0            [ 7] 2022 	and	a, #0xc0
                                   2023 ;E:/Dropbox/FAUSTO/SVILUPPI/MSX/CODE/C/MSXgl/engine/src/system.h:101: inline void Poke(u16 addr, u8 val) { *(u8*)addr = val; }
    00000736 32 FE 7F         [13] 2024 	ld	(#0x7ffe),a
                                   2025 ;E:/Dropbox/FAUSTO/SVILUPPI/MSX/CODE/C/MSXgl/engine/src/rom_mapper.h:195: else if (b == 3)	Poke(ADDR_BANK_3, s & 0xFF);
                                   2026 ;E:/Dropbox/FAUSTO/SVILUPPI/MSX/CODE/C/MSXgl/engine/src/system.h:101: inline void Poke(u16 addr, u8 val) { *(u8*)addr = val; }
    00000739 21 00 B0         [10] 2027 	ld	hl, #0xb000
    0000073C 71               [ 7] 2028 	ld	(hl), c
                                   2029 ;./soccerlg.c:370: SET_BANK_SEGMENT(3, currentSegment);
                                   2030 ;./soccerlg.c:371: }
    0000073D C9               [10] 2031 	ret
                                   2032 ;./soccerlg.c:378: void V9990_WaitSynch()
                                   2033 ;	---------------------------------
                                   2034 ; Function V9990_WaitSynch
                                   2035 ; ---------------------------------
    0000073E                       2036 _V9990_WaitSynch::
                                   2037 ;./soccerlg.c:380: while(!g_VSynch) {}
    0000073E                       2038 00101$:
    0000073E 3Ar00r00         [13] 2039 	ld	a, (_g_VSynch+0)
    00000741 B7               [ 4] 2040 	or	a, a
    00000742 28 FA            [12] 2041 	jr	Z, 00101$
                                   2042 ;./soccerlg.c:381: g_VSynch = FALSE;
    00000744 21r00r00         [10] 2043 	ld	hl, #_g_VSynch
    00000747 36 00            [10] 2044 	ld	(hl), #0x00
                                   2045 ;./soccerlg.c:384: }
    00000749 C9               [10] 2046 	ret
                                   2047 ;./soccerlg.c:386: void V9990_LoadButtonsImageData(){
                                   2048 ;	---------------------------------
                                   2049 ; Function V9990_LoadButtonsImageData
                                   2050 ; ---------------------------------
    0000074A                       2051 _V9990_LoadButtonsImageData::
    0000074A DD E5            [15] 2052 	push	ix
    0000074C DD 21 00 00      [14] 2053 	ld	ix,#0
    00000750 DD 39            [15] 2054 	add	ix,sp
    00000752 F5               [11] 2055 	push	af
                                   2056 ;./soccerlg.c:387: u8 currentSegment = GET_BANK_SEGMENT(3);
    00000753 2Ar06r00         [16] 2057 	ld	hl, (#(_g_Bank0Segment + 6) + 0)
    00000756 DD 75 FE         [19] 2058 	ld	-2 (ix), l
                                   2059 ;E:/Dropbox/FAUSTO/SVILUPPI/MSX/CODE/C/MSXgl/engine/src/rom_mapper.h:190: g_Bank0Segment[b] = s;
    00000759 21 28 00         [10] 2060 	ld	hl, #0x0028
    0000075C 22r06r00         [16] 2061 	ld	((_g_Bank0Segment + 6)), hl
                                   2062 ;E:/Dropbox/FAUSTO/SVILUPPI/MSX/CODE/C/MSXgl/engine/src/rom_mapper.h:191: Poke(YAMANOOTO_OFFR, (s >> 2) & 0xC0);
    0000075F 3E 0A            [ 7] 2063 	ld	a, #0x0a
    00000761 E6 C0            [ 7] 2064 	and	a, #0xc0
                                   2065 ;E:/Dropbox/FAUSTO/SVILUPPI/MSX/CODE/C/MSXgl/engine/src/system.h:101: inline void Poke(u16 addr, u8 val) { *(u8*)addr = val; }
    00000763 32 FE 7F         [13] 2066 	ld	(#0x7ffe),a
                                   2067 ;E:/Dropbox/FAUSTO/SVILUPPI/MSX/CODE/C/MSXgl/engine/src/rom_mapper.h:195: else if (b == 3)	Poke(ADDR_BANK_3, s & 0xFF);
    00000766 3E 28            [ 7] 2068 	ld	a, #0x28
                                   2069 ;E:/Dropbox/FAUSTO/SVILUPPI/MSX/CODE/C/MSXgl/engine/src/system.h:101: inline void Poke(u16 addr, u8 val) { *(u8*)addr = val; }
    00000768 21 00 B0         [10] 2070 	ld	hl, #0xb000
    0000076B 77               [ 7] 2071 	ld	(hl), a
                                   2072 ;./soccerlg.c:389: V9_WriteVRAM(V9_P1_PGT_A, g_Data_Img_Buttons_Presentation_Part1a, sizeof(g_Data_Img_Buttons_Presentation_Part1a)); 
                                   2073 ;E:/Dropbox/FAUSTO/SVILUPPI/MSX/CODE/C/MSXgl/engine/src/v9990.h:371: inline void V9_WriteVRAM(u32 addr, const u8* src, u16 count) { V9_SetWriteAddress(addr); V9_WriteVRAM_CurrentAddr(src, count); }
    0000076C 11 00 00         [10] 2074 	ld	de, #0x0000
    0000076F 65               [ 4] 2075 	ld	h, l
    00000770 CDr00r00         [17] 2076 	call	_V9_SetWriteAddress
    00000773 11 00 20         [10] 2077 	ld	de, #0x2000
    00000776 21r00r00         [10] 2078 	ld	hl, #_g_Data_Img_Buttons_Presentation_Part1a
    00000779 CDr00r00         [17] 2079 	call	_V9_WriteVRAM_CurrentAddr
                                   2080 ;E:/Dropbox/FAUSTO/SVILUPPI/MSX/CODE/C/MSXgl/engine/src/rom_mapper.h:190: g_Bank0Segment[b] = s;
    0000077C 21 29 00         [10] 2081 	ld	hl, #0x0029
    0000077F 22r06r00         [16] 2082 	ld	((_g_Bank0Segment + 6)), hl
                                   2083 ;E:/Dropbox/FAUSTO/SVILUPPI/MSX/CODE/C/MSXgl/engine/src/rom_mapper.h:191: Poke(YAMANOOTO_OFFR, (s >> 2) & 0xC0);
    00000782 3E 0A            [ 7] 2084 	ld	a, #0x0a
    00000784 E6 C0            [ 7] 2085 	and	a, #0xc0
                                   2086 ;E:/Dropbox/FAUSTO/SVILUPPI/MSX/CODE/C/MSXgl/engine/src/system.h:101: inline void Poke(u16 addr, u8 val) { *(u8*)addr = val; }
    00000786 32 FE 7F         [13] 2087 	ld	(#0x7ffe),a
                                   2088 ;E:/Dropbox/FAUSTO/SVILUPPI/MSX/CODE/C/MSXgl/engine/src/rom_mapper.h:195: else if (b == 3)	Poke(ADDR_BANK_3, s & 0xFF);
    00000789 3E 29            [ 7] 2089 	ld	a, #0x29
                                   2090 ;E:/Dropbox/FAUSTO/SVILUPPI/MSX/CODE/C/MSXgl/engine/src/system.h:101: inline void Poke(u16 addr, u8 val) { *(u8*)addr = val; }
    0000078B 21 00 B0         [10] 2091 	ld	hl, #0xb000
    0000078E 77               [ 7] 2092 	ld	(hl), a
                                   2093 ;./soccerlg.c:391: V9_WriteVRAM(V9_P1_PGT_A + 8192L, g_Data_Img_Buttons_Presentation_Part1b, sizeof(g_Data_Img_Buttons_Presentation_Part1b));
                                   2094 ;E:/Dropbox/FAUSTO/SVILUPPI/MSX/CODE/C/MSXgl/engine/src/v9990.h:371: inline void V9_WriteVRAM(u32 addr, const u8* src, u16 count) { V9_SetWriteAddress(addr); V9_WriteVRAM_CurrentAddr(src, count); }
    0000078F 11 00 20         [10] 2095 	ld	de, #0x2000
    00000792 65               [ 4] 2096 	ld	h, l
    00000793 CDr00r00         [17] 2097 	call	_V9_SetWriteAddress
    00000796 11 00 20         [10] 2098 	ld	de, #0x2000
    00000799 21r00r00         [10] 2099 	ld	hl, #_g_Data_Img_Buttons_Presentation_Part1b
    0000079C CDr00r00         [17] 2100 	call	_V9_WriteVRAM_CurrentAddr
                                   2101 ;E:/Dropbox/FAUSTO/SVILUPPI/MSX/CODE/C/MSXgl/engine/src/rom_mapper.h:190: g_Bank0Segment[b] = s;
    0000079F 21 2A 00         [10] 2102 	ld	hl, #0x002a
    000007A2 22r06r00         [16] 2103 	ld	((_g_Bank0Segment + 6)), hl
                                   2104 ;E:/Dropbox/FAUSTO/SVILUPPI/MSX/CODE/C/MSXgl/engine/src/rom_mapper.h:191: Poke(YAMANOOTO_OFFR, (s >> 2) & 0xC0);
    000007A5 3E 0A            [ 7] 2105 	ld	a, #0x0a
    000007A7 E6 C0            [ 7] 2106 	and	a, #0xc0
                                   2107 ;E:/Dropbox/FAUSTO/SVILUPPI/MSX/CODE/C/MSXgl/engine/src/system.h:101: inline void Poke(u16 addr, u8 val) { *(u8*)addr = val; }
    000007A9 32 FE 7F         [13] 2108 	ld	(#0x7ffe),a
                                   2109 ;E:/Dropbox/FAUSTO/SVILUPPI/MSX/CODE/C/MSXgl/engine/src/rom_mapper.h:195: else if (b == 3)	Poke(ADDR_BANK_3, s & 0xFF);
    000007AC 3E 2A            [ 7] 2110 	ld	a, #0x2a
                                   2111 ;E:/Dropbox/FAUSTO/SVILUPPI/MSX/CODE/C/MSXgl/engine/src/system.h:101: inline void Poke(u16 addr, u8 val) { *(u8*)addr = val; }
    000007AE 21 00 B0         [10] 2112 	ld	hl, #0xb000
    000007B1 77               [ 7] 2113 	ld	(hl), a
                                   2114 ;./soccerlg.c:393: V9_WriteVRAM(V9_P1_PGT_A + 16384L, g_Data_Img_Buttons_Presentation_Part2a, sizeof(g_Data_Img_Buttons_Presentation_Part2a)); 
                                   2115 ;E:/Dropbox/FAUSTO/SVILUPPI/MSX/CODE/C/MSXgl/engine/src/v9990.h:371: inline void V9_WriteVRAM(u32 addr, const u8* src, u16 count) { V9_SetWriteAddress(addr); V9_WriteVRAM_CurrentAddr(src, count); }
    000007B2 11 00 40         [10] 2116 	ld	de, #0x4000
    000007B5 65               [ 4] 2117 	ld	h, l
    000007B6 CDr00r00         [17] 2118 	call	_V9_SetWriteAddress
    000007B9 11 00 20         [10] 2119 	ld	de, #0x2000
    000007BC 21r00r00         [10] 2120 	ld	hl, #_g_Data_Img_Buttons_Presentation_Part2a
    000007BF CDr00r00         [17] 2121 	call	_V9_WriteVRAM_CurrentAddr
                                   2122 ;E:/Dropbox/FAUSTO/SVILUPPI/MSX/CODE/C/MSXgl/engine/src/rom_mapper.h:190: g_Bank0Segment[b] = s;
    000007C2 21 2B 00         [10] 2123 	ld	hl, #0x002b
    000007C5 22r06r00         [16] 2124 	ld	((_g_Bank0Segment + 6)), hl
                                   2125 ;E:/Dropbox/FAUSTO/SVILUPPI/MSX/CODE/C/MSXgl/engine/src/rom_mapper.h:191: Poke(YAMANOOTO_OFFR, (s >> 2) & 0xC0);
    000007C8 3E 0A            [ 7] 2126 	ld	a, #0x0a
    000007CA E6 C0            [ 7] 2127 	and	a, #0xc0
                                   2128 ;E:/Dropbox/FAUSTO/SVILUPPI/MSX/CODE/C/MSXgl/engine/src/system.h:101: inline void Poke(u16 addr, u8 val) { *(u8*)addr = val; }
    000007CC 32 FE 7F         [13] 2129 	ld	(#0x7ffe),a
                                   2130 ;E:/Dropbox/FAUSTO/SVILUPPI/MSX/CODE/C/MSXgl/engine/src/rom_mapper.h:195: else if (b == 3)	Poke(ADDR_BANK_3, s & 0xFF);
    000007CF 3E 2B            [ 7] 2131 	ld	a, #0x2b
                                   2132 ;E:/Dropbox/FAUSTO/SVILUPPI/MSX/CODE/C/MSXgl/engine/src/system.h:101: inline void Poke(u16 addr, u8 val) { *(u8*)addr = val; }
    000007D1 21 00 B0         [10] 2133 	ld	hl, #0xb000
    000007D4 77               [ 7] 2134 	ld	(hl), a
                                   2135 ;./soccerlg.c:395: V9_WriteVRAM(V9_P1_PGT_A + 16384L+8192L, g_Data_Img_Buttons_Presentation_Part2b, sizeof(g_Data_Img_Buttons_Presentation_Part2b)); 	
                                   2136 ;E:/Dropbox/FAUSTO/SVILUPPI/MSX/CODE/C/MSXgl/engine/src/v9990.h:371: inline void V9_WriteVRAM(u32 addr, const u8* src, u16 count) { V9_SetWriteAddress(addr); V9_WriteVRAM_CurrentAddr(src, count); }
    000007D5 11 00 60         [10] 2137 	ld	de, #0x6000
    000007D8 65               [ 4] 2138 	ld	h, l
    000007D9 CDr00r00         [17] 2139 	call	_V9_SetWriteAddress
    000007DC 11 00 20         [10] 2140 	ld	de, #0x2000
    000007DF 21r00r00         [10] 2141 	ld	hl, #_g_Data_Img_Buttons_Presentation_Part2b
    000007E2 CDr00r00         [17] 2142 	call	_V9_WriteVRAM_CurrentAddr
                                   2143 ;E:/Dropbox/FAUSTO/SVILUPPI/MSX/CODE/C/MSXgl/engine/src/rom_mapper.h:190: g_Bank0Segment[b] = s;
    000007E5 21 23 00         [10] 2144 	ld	hl, #0x0023
    000007E8 22r06r00         [16] 2145 	ld	((_g_Bank0Segment + 6)), hl
                                   2146 ;E:/Dropbox/FAUSTO/SVILUPPI/MSX/CODE/C/MSXgl/engine/src/rom_mapper.h:191: Poke(YAMANOOTO_OFFR, (s >> 2) & 0xC0);
    000007EB 3E 08            [ 7] 2147 	ld	a, #0x08
    000007ED E6 C0            [ 7] 2148 	and	a, #0xc0
                                   2149 ;E:/Dropbox/FAUSTO/SVILUPPI/MSX/CODE/C/MSXgl/engine/src/system.h:101: inline void Poke(u16 addr, u8 val) { *(u8*)addr = val; }
    000007EF 32 FE 7F         [13] 2150 	ld	(#0x7ffe),a
                                   2151 ;E:/Dropbox/FAUSTO/SVILUPPI/MSX/CODE/C/MSXgl/engine/src/rom_mapper.h:195: else if (b == 3)	Poke(ADDR_BANK_3, s & 0xFF);
    000007F2 3E 23            [ 7] 2152 	ld	a, #0x23
                                   2153 ;E:/Dropbox/FAUSTO/SVILUPPI/MSX/CODE/C/MSXgl/engine/src/system.h:101: inline void Poke(u16 addr, u8 val) { *(u8*)addr = val; }
    000007F4 32 00 B0         [13] 2154 	ld	(#0xb000),a
                                   2155 ;./soccerlg.c:397: V9_SetPalette(0, 16, g_Data_Palette_Buttons); 
    000007F7 01r00r00         [10] 2156 	ld	bc, #_g_Data_Palette_Buttons+0
                                   2157 ;./soccerlg.c:1028: ERROR: no line number 1028 in file ./soccerlg.c
                                   2158 ;	spillPairReg hl
                                   2159 ;	spillPairReg hl
    000007FA 21 00 00         [10] 2160 	ld	hl, #0x0
                                   2161 ;	spillPairReg hl
                                   2162 ;	spillPairReg hl
    000007FD                       2163 00211$:
    000007FD 7C               [ 4] 2164 	ld	a, h
    000007FE D6 10            [ 7] 2165 	sub	a, #0x10
    00000800 30 17            [12] 2166 	jr	NC, 00192$
    00000802 DD 75 FF         [19] 2167 	ld	-1 (ix), l
    00000805 2C               [ 4] 2168 	inc	l
    00000806 E5               [11] 2169 	push	hl
    00000807 C5               [11] 2170 	push	bc
    00000808 59               [ 4] 2171 	ld	e, c
    00000809 50               [ 4] 2172 	ld	d, b
    0000080A DD 7E FF         [19] 2173 	ld	a, -1 (ix)
    0000080D CDr00r00         [17] 2174 	call	_V9_SetPaletteEntry
    00000810 C1               [10] 2175 	pop	bc
    00000811 E1               [10] 2176 	pop	hl
    00000812 03               [ 6] 2177 	inc	bc
    00000813 03               [ 6] 2178 	inc	bc
    00000814 03               [ 6] 2179 	inc	bc
    00000815 24               [ 4] 2180 	inc	h
    00000816 C3rFDr07         [10] 2181 	jp	00211$
                                   2182 ;./soccerlg.c:397: ERROR: no line number 397 in file ./soccerlg.c
    00000819                       2183 00192$:
                                   2184 ;./soccerlg.c:398: ERROR: no line number 398 in file ./soccerlg.c
    00000819 DD 4E FE         [19] 2185 	ld	c, -2 (ix)
    0000081C 06 00            [ 7] 2186 	ld	b, #0x00
                                   2187 ;E:/Dropbox/FAUSTO/SVILUPPI/MSX/CODE/C/MSXgl/engine/src/rom_mapper.h:190: ERROR: no line number 190 in file E:/Dropbox/FAUSTO/SVILUPPI/MSX/CODE/C/MSXgl/engine/src/rom_mapper.h
    0000081E ED 43r06r00      [20] 2188 	ld	((_g_Bank0Segment + 6)), bc
                                   2189 ;E:/Dropbox/FAUSTO/SVILUPPI/MSX/CODE/C/MSXgl/engine/src/rom_mapper.h:191: ERROR: no line number 191 in file E:/Dropbox/FAUSTO/SVILUPPI/MSX/CODE/C/MSXgl/engine/src/rom_mapper.h
    00000822 59               [ 4] 2190 	ld	e, c
    00000823 50               [ 4] 2191 	ld	d, b
    00000824 CB 3A            [ 8] 2192 	srl	d
    00000826 CB 1B            [ 8] 2193 	rr	e
    00000828 CB 3A            [ 8] 2194 	srl	d
    0000082A CB 1B            [ 8] 2195 	rr	e
    0000082C 7B               [ 4] 2196 	ld	a, e
    0000082D E6 C0            [ 7] 2197 	and	a, #0xc0
                                   2198 ;E:/Dropbox/FAUSTO/SVILUPPI/MSX/CODE/C/MSXgl/engine/src/system.h:101: ERROR: no line number 101 in file E:/Dropbox/FAUSTO/SVILUPPI/MSX/CODE/C/MSXgl/engine/src/system.h
    0000082F 32 FE 7F         [13] 2199 	ld	(#0x7ffe),a
                                   2200 ;E:/Dropbox/FAUSTO/SVILUPPI/MSX/CODE/C/MSXgl/engine/src/rom_mapper.h:195: ERROR: no line number 195 in file E:/Dropbox/FAUSTO/SVILUPPI/MSX/CODE/C/MSXgl/engine/src/rom_mapper.h
                                   2201 ;E:/Dropbox/FAUSTO/SVILUPPI/MSX/CODE/C/MSXgl/engine/src/system.h:101: ERROR: no line number 101 in file E:/Dropbox/FAUSTO/SVILUPPI/MSX/CODE/C/MSXgl/engine/src/system.h
    00000832 21 00 B0         [10] 2202 	ld	hl, #0xb000
    00000835 71               [ 7] 2203 	ld	(hl), c
                                   2204 ;./soccerlg.c:398: ERROR: no line number 398 in file ./soccerlg.c
                                   2205 ;./soccerlg.c:399: ERROR: no line number 399 in file ./soccerlg.c
    00000836 DD F9            [10] 2206 	ld	sp, ix
    00000838 DD E1            [14] 2207 	pop	ix
    0000083A C9               [10] 2208 	ret
                                   2209 ;./soccerlg.c:401: ERROR: no line number 401 in file ./soccerlg.c
                                   2210 ;	---------------------------------
                                   2211 ; Function V9990_LoadP1LayerA
                                   2212 ; ---------------------------------
    0000083B                       2213 _V9990_LoadP1LayerA::
    0000083B DD E5            [15] 2214 	push	ix
    0000083D DD 21 00 00      [14] 2215 	ld	ix,#0
    00000841 DD 39            [15] 2216 	add	ix,sp
    00000843 3B               [ 6] 2217 	dec	sp
                                   2218 ;./soccerlg.c:402: ERROR: no line number 402 in file ./soccerlg.c
    00000844 2Ar06r00         [16] 2219 	ld	hl, (#(_g_Bank0Segment + 6) + 0)
    00000847 DD 75 FF         [19] 2220 	ld	-1 (ix), l
                                   2221 ;E:/Dropbox/FAUSTO/SVILUPPI/MSX/CODE/C/MSXgl/engine/src/v9990.h:353: ERROR: no line number 353 in file E:/Dropbox/FAUSTO/SVILUPPI/MSX/CODE/C/MSXgl/engine/src/v9990.h
    0000084A 11 00 00         [10] 2222 	ld	de, #0x0000
    0000084D 21 00 00         [10] 2223 	ld	hl, #0x0000
    00000850 CDr00r00         [17] 2224 	call	_V9_SetWriteAddress
    00000853 11 00 6A         [10] 2225 	ld	de, #0x6a00
    00000856 AF               [ 4] 2226 	xor	a, a
    00000857 CDr00r00         [17] 2227 	call	_V9_FillVRAM_CurrentAddr
                                   2228 ;E:/Dropbox/FAUSTO/SVILUPPI/MSX/CODE/C/MSXgl/engine/src/rom_mapper.h:190: ERROR: no line number 190 in file E:/Dropbox/FAUSTO/SVILUPPI/MSX/CODE/C/MSXgl/engine/src/rom_mapper.h
    0000085A 21 1C 00         [10] 2229 	ld	hl, #0x001c
    0000085D 22r06r00         [16] 2230 	ld	((_g_Bank0Segment + 6)), hl
                                   2231 ;E:/Dropbox/FAUSTO/SVILUPPI/MSX/CODE/C/MSXgl/engine/src/rom_mapper.h:191: ERROR: no line number 191 in file E:/Dropbox/FAUSTO/SVILUPPI/MSX/CODE/C/MSXgl/engine/src/rom_mapper.h
    00000860 3E 07            [ 7] 2232 	ld	a, #0x07
    00000862 E6 C0            [ 7] 2233 	and	a, #0xc0
                                   2234 ;E:/Dropbox/FAUSTO/SVILUPPI/MSX/CODE/C/MSXgl/engine/src/system.h:101: ERROR: no line number 101 in file E:/Dropbox/FAUSTO/SVILUPPI/MSX/CODE/C/MSXgl/engine/src/system.h
    00000864 32 FE 7F         [13] 2235 	ld	(#0x7ffe),a
                                   2236 ;E:/Dropbox/FAUSTO/SVILUPPI/MSX/CODE/C/MSXgl/engine/src/rom_mapper.h:195: ERROR: no line number 195 in file E:/Dropbox/FAUSTO/SVILUPPI/MSX/CODE/C/MSXgl/engine/src/rom_mapper.h
    00000867 3E 1C            [ 7] 2237 	ld	a, #0x1c
                                   2238 ;E:/Dropbox/FAUSTO/SVILUPPI/MSX/CODE/C/MSXgl/engine/src/system.h:101: ERROR: no line number 101 in file E:/Dropbox/FAUSTO/SVILUPPI/MSX/CODE/C/MSXgl/engine/src/system.h
    00000869 21 00 B0         [10] 2239 	ld	hl, #0xb000
    0000086C 77               [ 7] 2240 	ld	(hl), a
                                   2241 ;./soccerlg.c:405: ERROR: no line number 405 in file ./soccerlg.c
                                   2242 ;E:/Dropbox/FAUSTO/SVILUPPI/MSX/CODE/C/MSXgl/engine/src/v9990.h:371: ERROR: no line number 371 in file E:/Dropbox/FAUSTO/SVILUPPI/MSX/CODE/C/MSXgl/engine/src/v9990.h
    0000086D 11 00 00         [10] 2243 	ld	de, #0x0000
    00000870 65               [ 4] 2244 	ld	h, l
    00000871 CDr00r00         [17] 2245 	call	_V9_SetWriteAddress
    00000874 11 00 20         [10] 2246 	ld	de, #0x2000
    00000877 21r00r00         [10] 2247 	ld	hl, #_g_Data_P1_LayerA_Stda
    0000087A CDr00r00         [17] 2248 	call	_V9_WriteVRAM_CurrentAddr
                                   2249 ;E:/Dropbox/FAUSTO/SVILUPPI/MSX/CODE/C/MSXgl/engine/src/rom_mapper.h:190: ERROR: no line number 190 in file E:/Dropbox/FAUSTO/SVILUPPI/MSX/CODE/C/MSXgl/engine/src/rom_mapper.h
    0000087D 21 1E 00         [10] 2250 	ld	hl, #0x001e
    00000880 22r06r00         [16] 2251 	ld	((_g_Bank0Segment + 6)), hl
                                   2252 ;E:/Dropbox/FAUSTO/SVILUPPI/MSX/CODE/C/MSXgl/engine/src/rom_mapper.h:191: ERROR: no line number 191 in file E:/Dropbox/FAUSTO/SVILUPPI/MSX/CODE/C/MSXgl/engine/src/rom_mapper.h
    00000883 3E 07            [ 7] 2253 	ld	a, #0x07
    00000885 E6 C0            [ 7] 2254 	and	a, #0xc0
                                   2255 ;E:/Dropbox/FAUSTO/SVILUPPI/MSX/CODE/C/MSXgl/engine/src/system.h:101: ERROR: no line number 101 in file E:/Dropbox/FAUSTO/SVILUPPI/MSX/CODE/C/MSXgl/engine/src/system.h
    00000887 32 FE 7F         [13] 2256 	ld	(#0x7ffe),a
                                   2257 ;E:/Dropbox/FAUSTO/SVILUPPI/MSX/CODE/C/MSXgl/engine/src/rom_mapper.h:195: ERROR: no line number 195 in file E:/Dropbox/FAUSTO/SVILUPPI/MSX/CODE/C/MSXgl/engine/src/rom_mapper.h
    0000088A 3E 1E            [ 7] 2258 	ld	a, #0x1e
                                   2259 ;E:/Dropbox/FAUSTO/SVILUPPI/MSX/CODE/C/MSXgl/engine/src/system.h:101: ERROR: no line number 101 in file E:/Dropbox/FAUSTO/SVILUPPI/MSX/CODE/C/MSXgl/engine/src/system.h
    0000088C 21 00 B0         [10] 2260 	ld	hl, #0xb000
    0000088F 77               [ 7] 2261 	ld	(hl), a
                                   2262 ;./soccerlg.c:407: ERROR: no line number 407 in file ./soccerlg.c
                                   2263 ;E:/Dropbox/FAUSTO/SVILUPPI/MSX/CODE/C/MSXgl/engine/src/v9990.h:371: ERROR: no line number 371 in file E:/Dropbox/FAUSTO/SVILUPPI/MSX/CODE/C/MSXgl/engine/src/v9990.h
    00000890 11 00 20         [10] 2264 	ld	de, #0x2000
    00000893 65               [ 4] 2265 	ld	h, l
    00000894 CDr00r00         [17] 2266 	call	_V9_SetWriteAddress
    00000897 11 00 20         [10] 2267 	ld	de, #0x2000
    0000089A 21r00r00         [10] 2268 	ld	hl, #_g_Data_LayerA_Menu_Teams_Part1a
    0000089D CDr00r00         [17] 2269 	call	_V9_WriteVRAM_CurrentAddr
                                   2270 ;E:/Dropbox/FAUSTO/SVILUPPI/MSX/CODE/C/MSXgl/engine/src/rom_mapper.h:190: ERROR: no line number 190 in file E:/Dropbox/FAUSTO/SVILUPPI/MSX/CODE/C/MSXgl/engine/src/rom_mapper.h
    000008A0 21 1F 00         [10] 2271 	ld	hl, #0x001f
    000008A3 22r06r00         [16] 2272 	ld	((_g_Bank0Segment + 6)), hl
                                   2273 ;E:/Dropbox/FAUSTO/SVILUPPI/MSX/CODE/C/MSXgl/engine/src/rom_mapper.h:191: ERROR: no line number 191 in file E:/Dropbox/FAUSTO/SVILUPPI/MSX/CODE/C/MSXgl/engine/src/rom_mapper.h
    000008A6 3E 07            [ 7] 2274 	ld	a, #0x07
    000008A8 E6 C0            [ 7] 2275 	and	a, #0xc0
                                   2276 ;E:/Dropbox/FAUSTO/SVILUPPI/MSX/CODE/C/MSXgl/engine/src/system.h:101: ERROR: no line number 101 in file E:/Dropbox/FAUSTO/SVILUPPI/MSX/CODE/C/MSXgl/engine/src/system.h
    000008AA 32 FE 7F         [13] 2277 	ld	(#0x7ffe),a
                                   2278 ;E:/Dropbox/FAUSTO/SVILUPPI/MSX/CODE/C/MSXgl/engine/src/rom_mapper.h:195: ERROR: no line number 195 in file E:/Dropbox/FAUSTO/SVILUPPI/MSX/CODE/C/MSXgl/engine/src/rom_mapper.h
    000008AD 3E 1F            [ 7] 2279 	ld	a, #0x1f
                                   2280 ;E:/Dropbox/FAUSTO/SVILUPPI/MSX/CODE/C/MSXgl/engine/src/system.h:101: ERROR: no line number 101 in file E:/Dropbox/FAUSTO/SVILUPPI/MSX/CODE/C/MSXgl/engine/src/system.h
    000008AF 21 00 B0         [10] 2281 	ld	hl, #0xb000
    000008B2 77               [ 7] 2282 	ld	(hl), a
                                   2283 ;./soccerlg.c:409: ERROR: no line number 409 in file ./soccerlg.c
                                   2284 ;E:/Dropbox/FAUSTO/SVILUPPI/MSX/CODE/C/MSXgl/engine/src/v9990.h:371: ERROR: no line number 371 in file E:/Dropbox/FAUSTO/SVILUPPI/MSX/CODE/C/MSXgl/engine/src/v9990.h
    000008B3 11 00 40         [10] 2285 	ld	de, #0x4000
    000008B6 65               [ 4] 2286 	ld	h, l
    000008B7 CDr00r00         [17] 2287 	call	_V9_SetWriteAddress
    000008BA 11 00 20         [10] 2288 	ld	de, #0x2000
    000008BD 21r00r00         [10] 2289 	ld	hl, #_g_Data_LayerA_Menu_Teams_Part1b
    000008C0 CDr00r00         [17] 2290 	call	_V9_WriteVRAM_CurrentAddr
                                   2291 ;E:/Dropbox/FAUSTO/SVILUPPI/MSX/CODE/C/MSXgl/engine/src/rom_mapper.h:190: ERROR: no line number 190 in file E:/Dropbox/FAUSTO/SVILUPPI/MSX/CODE/C/MSXgl/engine/src/rom_mapper.h
    000008C3 21 20 00         [10] 2292 	ld	hl, #0x0020
    000008C6 22r06r00         [16] 2293 	ld	((_g_Bank0Segment + 6)), hl
                                   2294 ;E:/Dropbox/FAUSTO/SVILUPPI/MSX/CODE/C/MSXgl/engine/src/rom_mapper.h:191: ERROR: no line number 191 in file E:/Dropbox/FAUSTO/SVILUPPI/MSX/CODE/C/MSXgl/engine/src/rom_mapper.h
    000008C9 3E 08            [ 7] 2295 	ld	a, #0x08
    000008CB E6 C0            [ 7] 2296 	and	a, #0xc0
                                   2297 ;E:/Dropbox/FAUSTO/SVILUPPI/MSX/CODE/C/MSXgl/engine/src/system.h:101: ERROR: no line number 101 in file E:/Dropbox/FAUSTO/SVILUPPI/MSX/CODE/C/MSXgl/engine/src/system.h
    000008CD 32 FE 7F         [13] 2298 	ld	(#0x7ffe),a
                                   2299 ;E:/Dropbox/FAUSTO/SVILUPPI/MSX/CODE/C/MSXgl/engine/src/rom_mapper.h:195: ERROR: no line number 195 in file E:/Dropbox/FAUSTO/SVILUPPI/MSX/CODE/C/MSXgl/engine/src/rom_mapper.h
    000008D0 3E 20            [ 7] 2300 	ld	a, #0x20
                                   2301 ;E:/Dropbox/FAUSTO/SVILUPPI/MSX/CODE/C/MSXgl/engine/src/system.h:101: ERROR: no line number 101 in file E:/Dropbox/FAUSTO/SVILUPPI/MSX/CODE/C/MSXgl/engine/src/system.h
    000008D2 21 00 B0         [10] 2302 	ld	hl, #0xb000
    000008D5 77               [ 7] 2303 	ld	(hl), a
                                   2304 ;./soccerlg.c:411: ERROR: no line number 411 in file ./soccerlg.c
                                   2305 ;E:/Dropbox/FAUSTO/SVILUPPI/MSX/CODE/C/MSXgl/engine/src/v9990.h:371: ERROR: no line number 371 in file E:/Dropbox/FAUSTO/SVILUPPI/MSX/CODE/C/MSXgl/engine/src/v9990.h
    000008D6 11 00 60         [10] 2306 	ld	de, #0x6000
    000008D9 65               [ 4] 2307 	ld	h, l
    000008DA CDr00r00         [17] 2308 	call	_V9_SetWriteAddress
    000008DD 11 00 10         [10] 2309 	ld	de, #0x1000
    000008E0 21r00r00         [10] 2310 	ld	hl, #_g_Data_LayerA_Menu_Teams_Part2
    000008E3 CDr00r00         [17] 2311 	call	_V9_WriteVRAM_CurrentAddr
                                   2312 ;E:/Dropbox/FAUSTO/SVILUPPI/MSX/CODE/C/MSXgl/engine/src/v9990.h:362: ERROR: no line number 362 in file E:/Dropbox/FAUSTO/SVILUPPI/MSX/CODE/C/MSXgl/engine/src/v9990.h
    000008E6 11 00 C0         [10] 2313 	ld	de, #0xc000
    000008E9 21 07 00         [10] 2314 	ld	hl, #0x0007
    000008EC CDr00r00         [17] 2315 	call	_V9_SetWriteAddress
    000008EF 11 00 10         [10] 2316 	ld	de, #0x1000
    000008F2 21 00 00         [10] 2317 	ld	hl, #0x0000
    000008F5 CDr00r00         [17] 2318 	call	_V9_FillVRAM16_CurrentAddr
                                   2319 ;./soccerlg.c:413: ERROR: no line number 413 in file ./soccerlg.c
    000008F8 DD 4E FF         [19] 2320 	ld	c, -1 (ix)
    000008FB 06 00            [ 7] 2321 	ld	b, #0x00
                                   2322 ;E:/Dropbox/FAUSTO/SVILUPPI/MSX/CODE/C/MSXgl/engine/src/rom_mapper.h:190: ERROR: no line number 190 in file E:/Dropbox/FAUSTO/SVILUPPI/MSX/CODE/C/MSXgl/engine/src/rom_mapper.h
    000008FD ED 43r06r00      [20] 2323 	ld	((_g_Bank0Segment + 6)), bc
                                   2324 ;E:/Dropbox/FAUSTO/SVILUPPI/MSX/CODE/C/MSXgl/engine/src/rom_mapper.h:191: ERROR: no line number 191 in file E:/Dropbox/FAUSTO/SVILUPPI/MSX/CODE/C/MSXgl/engine/src/rom_mapper.h
    00000901 59               [ 4] 2325 	ld	e, c
    00000902 50               [ 4] 2326 	ld	d, b
    00000903 CB 3A            [ 8] 2327 	srl	d
    00000905 CB 1B            [ 8] 2328 	rr	e
    00000907 CB 3A            [ 8] 2329 	srl	d
    00000909 CB 1B            [ 8] 2330 	rr	e
    0000090B 7B               [ 4] 2331 	ld	a, e
    0000090C E6 C0            [ 7] 2332 	and	a, #0xc0
                                   2333 ;E:/Dropbox/FAUSTO/SVILUPPI/MSX/CODE/C/MSXgl/engine/src/system.h:101: ERROR: no line number 101 in file E:/Dropbox/FAUSTO/SVILUPPI/MSX/CODE/C/MSXgl/engine/src/system.h
    0000090E 32 FE 7F         [13] 2334 	ld	(#0x7ffe),a
                                   2335 ;E:/Dropbox/FAUSTO/SVILUPPI/MSX/CODE/C/MSXgl/engine/src/rom_mapper.h:195: ERROR: no line number 195 in file E:/Dropbox/FAUSTO/SVILUPPI/MSX/CODE/C/MSXgl/engine/src/rom_mapper.h
                                   2336 ;E:/Dropbox/FAUSTO/SVILUPPI/MSX/CODE/C/MSXgl/engine/src/system.h:101: ERROR: no line number 101 in file E:/Dropbox/FAUSTO/SVILUPPI/MSX/CODE/C/MSXgl/engine/src/system.h
    00000911 21 00 B0         [10] 2337 	ld	hl, #0xb000
    00000914 71               [ 7] 2338 	ld	(hl), c
                                   2339 ;./soccerlg.c:413: ERROR: no line number 413 in file ./soccerlg.c
                                   2340 ;./soccerlg.c:415: ERROR: no line number 415 in file ./soccerlg.c
    00000915 33               [ 6] 2341 	inc	sp
    00000916 DD E1            [14] 2342 	pop	ix
    00000918 C9               [10] 2343 	ret
                                   2344 ;./soccerlg.c:416: ERROR: no line number 416 in file ./soccerlg.c
                                   2345 ;	---------------------------------
                                   2346 ; Function V9990_LoadP1LayerB
                                   2347 ; ---------------------------------
    00000919                       2348 _V9990_LoadP1LayerB::
    00000919 DD E5            [15] 2349 	push	ix
    0000091B DD 21 00 00      [14] 2350 	ld	ix,#0
    0000091F DD 39            [15] 2351 	add	ix,sp
    00000921 3B               [ 6] 2352 	dec	sp
                                   2353 ;./soccerlg.c:417: ERROR: no line number 417 in file ./soccerlg.c
    00000922 2Ar06r00         [16] 2354 	ld	hl, (#(_g_Bank0Segment + 6) + 0)
    00000925 DD 75 FF         [19] 2355 	ld	-1 (ix), l
                                   2356 ;E:/Dropbox/FAUSTO/SVILUPPI/MSX/CODE/C/MSXgl/engine/src/v9990.h:353: ERROR: no line number 353 in file E:/Dropbox/FAUSTO/SVILUPPI/MSX/CODE/C/MSXgl/engine/src/v9990.h
    00000928 11 00 00         [10] 2357 	ld	de, #0x0000
    0000092B 21 04 00         [10] 2358 	ld	hl, #0x0004
    0000092E CDr00r00         [17] 2359 	call	_V9_SetWriteAddress
    00000931 11 00 6A         [10] 2360 	ld	de, #0x6a00
    00000934 AF               [ 4] 2361 	xor	a, a
    00000935 CDr00r00         [17] 2362 	call	_V9_FillVRAM_CurrentAddr
                                   2363 ;E:/Dropbox/FAUSTO/SVILUPPI/MSX/CODE/C/MSXgl/engine/src/rom_mapper.h:190: ERROR: no line number 190 in file E:/Dropbox/FAUSTO/SVILUPPI/MSX/CODE/C/MSXgl/engine/src/rom_mapper.h
    00000938 21 3B 00         [10] 2364 	ld	hl, #0x003b
    0000093B 22r06r00         [16] 2365 	ld	((_g_Bank0Segment + 6)), hl
                                   2366 ;E:/Dropbox/FAUSTO/SVILUPPI/MSX/CODE/C/MSXgl/engine/src/rom_mapper.h:191: ERROR: no line number 191 in file E:/Dropbox/FAUSTO/SVILUPPI/MSX/CODE/C/MSXgl/engine/src/rom_mapper.h
    0000093E 3E 0E            [ 7] 2367 	ld	a, #0x0e
    00000940 E6 C0            [ 7] 2368 	and	a, #0xc0
                                   2369 ;E:/Dropbox/FAUSTO/SVILUPPI/MSX/CODE/C/MSXgl/engine/src/system.h:101: ERROR: no line number 101 in file E:/Dropbox/FAUSTO/SVILUPPI/MSX/CODE/C/MSXgl/engine/src/system.h
    00000942 32 FE 7F         [13] 2370 	ld	(#0x7ffe),a
                                   2371 ;E:/Dropbox/FAUSTO/SVILUPPI/MSX/CODE/C/MSXgl/engine/src/rom_mapper.h:195: ERROR: no line number 195 in file E:/Dropbox/FAUSTO/SVILUPPI/MSX/CODE/C/MSXgl/engine/src/rom_mapper.h
    00000945 3E 3B            [ 7] 2372 	ld	a, #0x3b
                                   2373 ;E:/Dropbox/FAUSTO/SVILUPPI/MSX/CODE/C/MSXgl/engine/src/system.h:101: ERROR: no line number 101 in file E:/Dropbox/FAUSTO/SVILUPPI/MSX/CODE/C/MSXgl/engine/src/system.h
    00000947 32 00 B0         [13] 2374 	ld	(#0xb000),a
                                   2375 ;./soccerlg.c:420: ERROR: no line number 420 in file ./soccerlg.c
                                   2376 ;E:/Dropbox/FAUSTO/SVILUPPI/MSX/CODE/C/MSXgl/engine/src/v9990.h:371: ERROR: no line number 371 in file E:/Dropbox/FAUSTO/SVILUPPI/MSX/CODE/C/MSXgl/engine/src/v9990.h
    0000094A 11 00 00         [10] 2377 	ld	de, #0x0000
    0000094D 21 04 00         [10] 2378 	ld	hl, #0x0004
    00000950 CDr00r00         [17] 2379 	call	_V9_SetWriteAddress
    00000953 11 00 20         [10] 2380 	ld	de, #0x2000
    00000956 21r00r00         [10] 2381 	ld	hl, #_g_Data_Field_LayerB_Part1a
    00000959 CDr00r00         [17] 2382 	call	_V9_WriteVRAM_CurrentAddr
                                   2383 ;E:/Dropbox/FAUSTO/SVILUPPI/MSX/CODE/C/MSXgl/engine/src/rom_mapper.h:190: ERROR: no line number 190 in file E:/Dropbox/FAUSTO/SVILUPPI/MSX/CODE/C/MSXgl/engine/src/rom_mapper.h
    0000095C 21 3C 00         [10] 2384 	ld	hl, #0x003c
    0000095F 22r06r00         [16] 2385 	ld	((_g_Bank0Segment + 6)), hl
                                   2386 ;E:/Dropbox/FAUSTO/SVILUPPI/MSX/CODE/C/MSXgl/engine/src/rom_mapper.h:191: ERROR: no line number 191 in file E:/Dropbox/FAUSTO/SVILUPPI/MSX/CODE/C/MSXgl/engine/src/rom_mapper.h
    00000962 3E 0F            [ 7] 2387 	ld	a, #0x0f
    00000964 E6 C0            [ 7] 2388 	and	a, #0xc0
                                   2389 ;E:/Dropbox/FAUSTO/SVILUPPI/MSX/CODE/C/MSXgl/engine/src/system.h:101: ERROR: no line number 101 in file E:/Dropbox/FAUSTO/SVILUPPI/MSX/CODE/C/MSXgl/engine/src/system.h
    00000966 32 FE 7F         [13] 2390 	ld	(#0x7ffe),a
                                   2391 ;E:/Dropbox/FAUSTO/SVILUPPI/MSX/CODE/C/MSXgl/engine/src/rom_mapper.h:195: ERROR: no line number 195 in file E:/Dropbox/FAUSTO/SVILUPPI/MSX/CODE/C/MSXgl/engine/src/rom_mapper.h
    00000969 3E 3C            [ 7] 2392 	ld	a, #0x3c
                                   2393 ;E:/Dropbox/FAUSTO/SVILUPPI/MSX/CODE/C/MSXgl/engine/src/system.h:101: ERROR: no line number 101 in file E:/Dropbox/FAUSTO/SVILUPPI/MSX/CODE/C/MSXgl/engine/src/system.h
    0000096B 32 00 B0         [13] 2394 	ld	(#0xb000),a
                                   2395 ;./soccerlg.c:422: ERROR: no line number 422 in file ./soccerlg.c
                                   2396 ;E:/Dropbox/FAUSTO/SVILUPPI/MSX/CODE/C/MSXgl/engine/src/v9990.h:371: ERROR: no line number 371 in file E:/Dropbox/FAUSTO/SVILUPPI/MSX/CODE/C/MSXgl/engine/src/v9990.h
    0000096E 11 00 20         [10] 2397 	ld	de, #0x2000
    00000971 21 04 00         [10] 2398 	ld	hl, #0x0004
    00000974 CDr00r00         [17] 2399 	call	_V9_SetWriteAddress
    00000977 11 00 20         [10] 2400 	ld	de, #0x2000
    0000097A 21r00r00         [10] 2401 	ld	hl, #_g_Data_Field_LayerB_Part1b
    0000097D CDr00r00         [17] 2402 	call	_V9_WriteVRAM_CurrentAddr
                                   2403 ;E:/Dropbox/FAUSTO/SVILUPPI/MSX/CODE/C/MSXgl/engine/src/rom_mapper.h:190: ERROR: no line number 190 in file E:/Dropbox/FAUSTO/SVILUPPI/MSX/CODE/C/MSXgl/engine/src/rom_mapper.h
    00000980 21 3D 00         [10] 2404 	ld	hl, #0x003d
    00000983 22r06r00         [16] 2405 	ld	((_g_Bank0Segment + 6)), hl
                                   2406 ;E:/Dropbox/FAUSTO/SVILUPPI/MSX/CODE/C/MSXgl/engine/src/rom_mapper.h:191: ERROR: no line number 191 in file E:/Dropbox/FAUSTO/SVILUPPI/MSX/CODE/C/MSXgl/engine/src/rom_mapper.h
    00000986 3E 0F            [ 7] 2407 	ld	a, #0x0f
    00000988 E6 C0            [ 7] 2408 	and	a, #0xc0
                                   2409 ;E:/Dropbox/FAUSTO/SVILUPPI/MSX/CODE/C/MSXgl/engine/src/system.h:101: ERROR: no line number 101 in file E:/Dropbox/FAUSTO/SVILUPPI/MSX/CODE/C/MSXgl/engine/src/system.h
    0000098A 32 FE 7F         [13] 2410 	ld	(#0x7ffe),a
                                   2411 ;E:/Dropbox/FAUSTO/SVILUPPI/MSX/CODE/C/MSXgl/engine/src/rom_mapper.h:195: ERROR: no line number 195 in file E:/Dropbox/FAUSTO/SVILUPPI/MSX/CODE/C/MSXgl/engine/src/rom_mapper.h
    0000098D 3E 3D            [ 7] 2412 	ld	a, #0x3d
                                   2413 ;E:/Dropbox/FAUSTO/SVILUPPI/MSX/CODE/C/MSXgl/engine/src/system.h:101: ERROR: no line number 101 in file E:/Dropbox/FAUSTO/SVILUPPI/MSX/CODE/C/MSXgl/engine/src/system.h
    0000098F 32 00 B0         [13] 2414 	ld	(#0xb000),a
                                   2415 ;./soccerlg.c:424: ERROR: no line number 424 in file ./soccerlg.c
                                   2416 ;E:/Dropbox/FAUSTO/SVILUPPI/MSX/CODE/C/MSXgl/engine/src/v9990.h:371: ERROR: no line number 371 in file E:/Dropbox/FAUSTO/SVILUPPI/MSX/CODE/C/MSXgl/engine/src/v9990.h
    00000992 11 00 40         [10] 2417 	ld	de, #0x4000
    00000995 21 04 00         [10] 2418 	ld	hl, #0x0004
    00000998 CDr00r00         [17] 2419 	call	_V9_SetWriteAddress
    0000099B 11 00 20         [10] 2420 	ld	de, #0x2000
    0000099E 21r00r00         [10] 2421 	ld	hl, #_g_Data_Field_LayerB_Part2a
    000009A1 CDr00r00         [17] 2422 	call	_V9_WriteVRAM_CurrentAddr
                                   2423 ;E:/Dropbox/FAUSTO/SVILUPPI/MSX/CODE/C/MSXgl/engine/src/rom_mapper.h:190: ERROR: no line number 190 in file E:/Dropbox/FAUSTO/SVILUPPI/MSX/CODE/C/MSXgl/engine/src/rom_mapper.h
    000009A4 21 3E 00         [10] 2424 	ld	hl, #0x003e
    000009A7 22r06r00         [16] 2425 	ld	((_g_Bank0Segment + 6)), hl
                                   2426 ;E:/Dropbox/FAUSTO/SVILUPPI/MSX/CODE/C/MSXgl/engine/src/rom_mapper.h:191: ERROR: no line number 191 in file E:/Dropbox/FAUSTO/SVILUPPI/MSX/CODE/C/MSXgl/engine/src/rom_mapper.h
    000009AA 3E 0F            [ 7] 2427 	ld	a, #0x0f
    000009AC E6 C0            [ 7] 2428 	and	a, #0xc0
                                   2429 ;E:/Dropbox/FAUSTO/SVILUPPI/MSX/CODE/C/MSXgl/engine/src/system.h:101: ERROR: no line number 101 in file E:/Dropbox/FAUSTO/SVILUPPI/MSX/CODE/C/MSXgl/engine/src/system.h
    000009AE 32 FE 7F         [13] 2430 	ld	(#0x7ffe),a
                                   2431 ;E:/Dropbox/FAUSTO/SVILUPPI/MSX/CODE/C/MSXgl/engine/src/rom_mapper.h:195: ERROR: no line number 195 in file E:/Dropbox/FAUSTO/SVILUPPI/MSX/CODE/C/MSXgl/engine/src/rom_mapper.h
    000009B1 3E 3E            [ 7] 2432 	ld	a, #0x3e
                                   2433 ;E:/Dropbox/FAUSTO/SVILUPPI/MSX/CODE/C/MSXgl/engine/src/system.h:101: ERROR: no line number 101 in file E:/Dropbox/FAUSTO/SVILUPPI/MSX/CODE/C/MSXgl/engine/src/system.h
    000009B3 32 00 B0         [13] 2434 	ld	(#0xb000),a
                                   2435 ;./soccerlg.c:426: ERROR: no line number 426 in file ./soccerlg.c
                                   2436 ;E:/Dropbox/FAUSTO/SVILUPPI/MSX/CODE/C/MSXgl/engine/src/v9990.h:371: ERROR: no line number 371 in file E:/Dropbox/FAUSTO/SVILUPPI/MSX/CODE/C/MSXgl/engine/src/v9990.h
    000009B6 11 00 60         [10] 2437 	ld	de, #0x6000
    000009B9 21 04 00         [10] 2438 	ld	hl, #0x0004
    000009BC CDr00r00         [17] 2439 	call	_V9_SetWriteAddress
    000009BF 11 00 20         [10] 2440 	ld	de, #0x2000
    000009C2 21r00r00         [10] 2441 	ld	hl, #_g_Data_Field_LayerB_Part2b
    000009C5 CDr00r00         [17] 2442 	call	_V9_WriteVRAM_CurrentAddr
                                   2443 ;E:/Dropbox/FAUSTO/SVILUPPI/MSX/CODE/C/MSXgl/engine/src/rom_mapper.h:190: ERROR: no line number 190 in file E:/Dropbox/FAUSTO/SVILUPPI/MSX/CODE/C/MSXgl/engine/src/rom_mapper.h
    000009C8 21 3F 00         [10] 2444 	ld	hl, #0x003f
    000009CB 22r06r00         [16] 2445 	ld	((_g_Bank0Segment + 6)), hl
                                   2446 ;E:/Dropbox/FAUSTO/SVILUPPI/MSX/CODE/C/MSXgl/engine/src/rom_mapper.h:191: ERROR: no line number 191 in file E:/Dropbox/FAUSTO/SVILUPPI/MSX/CODE/C/MSXgl/engine/src/rom_mapper.h
    000009CE 3E 0F            [ 7] 2447 	ld	a, #0x0f
    000009D0 E6 C0            [ 7] 2448 	and	a, #0xc0
                                   2449 ;E:/Dropbox/FAUSTO/SVILUPPI/MSX/CODE/C/MSXgl/engine/src/system.h:101: ERROR: no line number 101 in file E:/Dropbox/FAUSTO/SVILUPPI/MSX/CODE/C/MSXgl/engine/src/system.h
    000009D2 32 FE 7F         [13] 2450 	ld	(#0x7ffe),a
                                   2451 ;E:/Dropbox/FAUSTO/SVILUPPI/MSX/CODE/C/MSXgl/engine/src/rom_mapper.h:195: ERROR: no line number 195 in file E:/Dropbox/FAUSTO/SVILUPPI/MSX/CODE/C/MSXgl/engine/src/rom_mapper.h
    000009D5 3E 3F            [ 7] 2452 	ld	a, #0x3f
                                   2453 ;E:/Dropbox/FAUSTO/SVILUPPI/MSX/CODE/C/MSXgl/engine/src/system.h:101: ERROR: no line number 101 in file E:/Dropbox/FAUSTO/SVILUPPI/MSX/CODE/C/MSXgl/engine/src/system.h
    000009D7 32 00 B0         [13] 2454 	ld	(#0xb000),a
                                   2455 ;./soccerlg.c:428: ERROR: no line number 428 in file ./soccerlg.c
                                   2456 ;E:/Dropbox/FAUSTO/SVILUPPI/MSX/CODE/C/MSXgl/engine/src/v9990.h:371: ERROR: no line number 371 in file E:/Dropbox/FAUSTO/SVILUPPI/MSX/CODE/C/MSXgl/engine/src/v9990.h
    000009DA 11 00 80         [10] 2457 	ld	de, #0x8000
    000009DD 21 04 00         [10] 2458 	ld	hl, #0x0004
    000009E0 CDr00r00         [17] 2459 	call	_V9_SetWriteAddress
    000009E3 11 00 20         [10] 2460 	ld	de, #0x2000
    000009E6 21r00r00         [10] 2461 	ld	hl, #_g_Data_Field_LayerB_Part3a
    000009E9 CDr00r00         [17] 2462 	call	_V9_WriteVRAM_CurrentAddr
                                   2463 ;E:/Dropbox/FAUSTO/SVILUPPI/MSX/CODE/C/MSXgl/engine/src/rom_mapper.h:190: ERROR: no line number 190 in file E:/Dropbox/FAUSTO/SVILUPPI/MSX/CODE/C/MSXgl/engine/src/rom_mapper.h
    000009EC 21 40 00         [10] 2464 	ld	hl, #0x0040
    000009EF 22r06r00         [16] 2465 	ld	((_g_Bank0Segment + 6)), hl
                                   2466 ;E:/Dropbox/FAUSTO/SVILUPPI/MSX/CODE/C/MSXgl/engine/src/rom_mapper.h:191: ERROR: no line number 191 in file E:/Dropbox/FAUSTO/SVILUPPI/MSX/CODE/C/MSXgl/engine/src/rom_mapper.h
    000009F2 3E 10            [ 7] 2467 	ld	a, #0x10
    000009F4 E6 C0            [ 7] 2468 	and	a, #0xc0
                                   2469 ;E:/Dropbox/FAUSTO/SVILUPPI/MSX/CODE/C/MSXgl/engine/src/system.h:101: ERROR: no line number 101 in file E:/Dropbox/FAUSTO/SVILUPPI/MSX/CODE/C/MSXgl/engine/src/system.h
    000009F6 32 FE 7F         [13] 2470 	ld	(#0x7ffe),a
                                   2471 ;E:/Dropbox/FAUSTO/SVILUPPI/MSX/CODE/C/MSXgl/engine/src/rom_mapper.h:195: ERROR: no line number 195 in file E:/Dropbox/FAUSTO/SVILUPPI/MSX/CODE/C/MSXgl/engine/src/rom_mapper.h
    000009F9 3E 40            [ 7] 2472 	ld	a, #0x40
                                   2473 ;E:/Dropbox/FAUSTO/SVILUPPI/MSX/CODE/C/MSXgl/engine/src/system.h:101: ERROR: no line number 101 in file E:/Dropbox/FAUSTO/SVILUPPI/MSX/CODE/C/MSXgl/engine/src/system.h
    000009FB 32 00 B0         [13] 2474 	ld	(#0xb000),a
                                   2475 ;./soccerlg.c:430: ERROR: no line number 430 in file ./soccerlg.c
                                   2476 ;E:/Dropbox/FAUSTO/SVILUPPI/MSX/CODE/C/MSXgl/engine/src/v9990.h:371: ERROR: no line number 371 in file E:/Dropbox/FAUSTO/SVILUPPI/MSX/CODE/C/MSXgl/engine/src/v9990.h
    000009FE 11 00 A0         [10] 2477 	ld	de, #0xa000
    00000A01 21 04 00         [10] 2478 	ld	hl, #0x0004
    00000A04 CDr00r00         [17] 2479 	call	_V9_SetWriteAddress
    00000A07 11 00 20         [10] 2480 	ld	de, #0x2000
    00000A0A 21r00r00         [10] 2481 	ld	hl, #_g_Data_Field_LayerB_Part3b
    00000A0D CDr00r00         [17] 2482 	call	_V9_WriteVRAM_CurrentAddr
                                   2483 ;E:/Dropbox/FAUSTO/SVILUPPI/MSX/CODE/C/MSXgl/engine/src/rom_mapper.h:190: ERROR: no line number 190 in file E:/Dropbox/FAUSTO/SVILUPPI/MSX/CODE/C/MSXgl/engine/src/rom_mapper.h
    00000A10 21 41 00         [10] 2484 	ld	hl, #0x0041
    00000A13 22r06r00         [16] 2485 	ld	((_g_Bank0Segment + 6)), hl
                                   2486 ;E:/Dropbox/FAUSTO/SVILUPPI/MSX/CODE/C/MSXgl/engine/src/rom_mapper.h:191: ERROR: no line number 191 in file E:/Dropbox/FAUSTO/SVILUPPI/MSX/CODE/C/MSXgl/engine/src/rom_mapper.h
    00000A16 3E 10            [ 7] 2487 	ld	a, #0x10
    00000A18 E6 C0            [ 7] 2488 	and	a, #0xc0
                                   2489 ;E:/Dropbox/FAUSTO/SVILUPPI/MSX/CODE/C/MSXgl/engine/src/system.h:101: ERROR: no line number 101 in file E:/Dropbox/FAUSTO/SVILUPPI/MSX/CODE/C/MSXgl/engine/src/system.h
    00000A1A 32 FE 7F         [13] 2490 	ld	(#0x7ffe),a
                                   2491 ;E:/Dropbox/FAUSTO/SVILUPPI/MSX/CODE/C/MSXgl/engine/src/rom_mapper.h:195: ERROR: no line number 195 in file E:/Dropbox/FAUSTO/SVILUPPI/MSX/CODE/C/MSXgl/engine/src/rom_mapper.h
    00000A1D 3E 41            [ 7] 2492 	ld	a, #0x41
                                   2493 ;E:/Dropbox/FAUSTO/SVILUPPI/MSX/CODE/C/MSXgl/engine/src/system.h:101: ERROR: no line number 101 in file E:/Dropbox/FAUSTO/SVILUPPI/MSX/CODE/C/MSXgl/engine/src/system.h
    00000A1F 32 00 B0         [13] 2494 	ld	(#0xb000),a
                                   2495 ;./soccerlg.c:433: ERROR: no line number 433 in file ./soccerlg.c
                                   2496 ;E:/Dropbox/FAUSTO/SVILUPPI/MSX/CODE/C/MSXgl/engine/src/v9990.h:371: ERROR: no line number 371 in file E:/Dropbox/FAUSTO/SVILUPPI/MSX/CODE/C/MSXgl/engine/src/v9990.h
    00000A22 11 00 C0         [10] 2497 	ld	de, #0xc000
    00000A25 21 04 00         [10] 2498 	ld	hl, #0x0004
    00000A28 CDr00r00         [17] 2499 	call	_V9_SetWriteAddress
    00000A2B 11 00 20         [10] 2500 	ld	de, #0x2000
    00000A2E 21r00r00         [10] 2501 	ld	hl, #_g_Data_Field_LayerB_Part4a
    00000A31 CDr00r00         [17] 2502 	call	_V9_WriteVRAM_CurrentAddr
                                   2503 ;E:/Dropbox/FAUSTO/SVILUPPI/MSX/CODE/C/MSXgl/engine/src/rom_mapper.h:190: ERROR: no line number 190 in file E:/Dropbox/FAUSTO/SVILUPPI/MSX/CODE/C/MSXgl/engine/src/rom_mapper.h
    00000A34 21 42 00         [10] 2504 	ld	hl, #0x0042
    00000A37 22r06r00         [16] 2505 	ld	((_g_Bank0Segment + 6)), hl
                                   2506 ;E:/Dropbox/FAUSTO/SVILUPPI/MSX/CODE/C/MSXgl/engine/src/rom_mapper.h:191: ERROR: no line number 191 in file E:/Dropbox/FAUSTO/SVILUPPI/MSX/CODE/C/MSXgl/engine/src/rom_mapper.h
    00000A3A 3E 10            [ 7] 2507 	ld	a, #0x10
    00000A3C E6 C0            [ 7] 2508 	and	a, #0xc0
                                   2509 ;E:/Dropbox/FAUSTO/SVILUPPI/MSX/CODE/C/MSXgl/engine/src/system.h:101: ERROR: no line number 101 in file E:/Dropbox/FAUSTO/SVILUPPI/MSX/CODE/C/MSXgl/engine/src/system.h
    00000A3E 32 FE 7F         [13] 2510 	ld	(#0x7ffe),a
                                   2511 ;E:/Dropbox/FAUSTO/SVILUPPI/MSX/CODE/C/MSXgl/engine/src/rom_mapper.h:195: ERROR: no line number 195 in file E:/Dropbox/FAUSTO/SVILUPPI/MSX/CODE/C/MSXgl/engine/src/rom_mapper.h
    00000A41 3E 42            [ 7] 2512 	ld	a, #0x42
                                   2513 ;E:/Dropbox/FAUSTO/SVILUPPI/MSX/CODE/C/MSXgl/engine/src/system.h:101: ERROR: no line number 101 in file E:/Dropbox/FAUSTO/SVILUPPI/MSX/CODE/C/MSXgl/engine/src/system.h
    00000A43 32 00 B0         [13] 2514 	ld	(#0xb000),a
                                   2515 ;./soccerlg.c:435: ERROR: no line number 435 in file ./soccerlg.c
                                   2516 ;E:/Dropbox/FAUSTO/SVILUPPI/MSX/CODE/C/MSXgl/engine/src/v9990.h:371: ERROR: no line number 371 in file E:/Dropbox/FAUSTO/SVILUPPI/MSX/CODE/C/MSXgl/engine/src/v9990.h
    00000A46 11 00 E0         [10] 2517 	ld	de, #0xe000
    00000A49 21 04 00         [10] 2518 	ld	hl, #0x0004
    00000A4C CDr00r00         [17] 2519 	call	_V9_SetWriteAddress
    00000A4F 11 00 1C         [10] 2520 	ld	de, #0x1c00
    00000A52 21r00r00         [10] 2521 	ld	hl, #_g_Data_Field_LayerB_Part4b
    00000A55 CDr00r00         [17] 2522 	call	_V9_WriteVRAM_CurrentAddr
                                   2523 ;E:/Dropbox/FAUSTO/SVILUPPI/MSX/CODE/C/MSXgl/engine/src/rom_mapper.h:190: ERROR: no line number 190 in file E:/Dropbox/FAUSTO/SVILUPPI/MSX/CODE/C/MSXgl/engine/src/rom_mapper.h
    00000A58 21 43 00         [10] 2524 	ld	hl, #0x0043
    00000A5B 22r06r00         [16] 2525 	ld	((_g_Bank0Segment + 6)), hl
                                   2526 ;E:/Dropbox/FAUSTO/SVILUPPI/MSX/CODE/C/MSXgl/engine/src/rom_mapper.h:191: ERROR: no line number 191 in file E:/Dropbox/FAUSTO/SVILUPPI/MSX/CODE/C/MSXgl/engine/src/rom_mapper.h
    00000A5E 3E 10            [ 7] 2527 	ld	a, #0x10
    00000A60 E6 C0            [ 7] 2528 	and	a, #0xc0
                                   2529 ;E:/Dropbox/FAUSTO/SVILUPPI/MSX/CODE/C/MSXgl/engine/src/system.h:101: ERROR: no line number 101 in file E:/Dropbox/FAUSTO/SVILUPPI/MSX/CODE/C/MSXgl/engine/src/system.h
    00000A62 32 FE 7F         [13] 2530 	ld	(#0x7ffe),a
                                   2531 ;E:/Dropbox/FAUSTO/SVILUPPI/MSX/CODE/C/MSXgl/engine/src/rom_mapper.h:195: ERROR: no line number 195 in file E:/Dropbox/FAUSTO/SVILUPPI/MSX/CODE/C/MSXgl/engine/src/rom_mapper.h
    00000A65 3E 43            [ 7] 2532 	ld	a, #0x43
                                   2533 ;E:/Dropbox/FAUSTO/SVILUPPI/MSX/CODE/C/MSXgl/engine/src/system.h:101: ERROR: no line number 101 in file E:/Dropbox/FAUSTO/SVILUPPI/MSX/CODE/C/MSXgl/engine/src/system.h
    00000A67 32 00 B0         [13] 2534 	ld	(#0xb000),a
                                   2535 ;./soccerlg.c:438: ERROR: no line number 438 in file ./soccerlg.c
                                   2536 ;E:/Dropbox/FAUSTO/SVILUPPI/MSX/CODE/C/MSXgl/engine/src/v9990.h:371: ERROR: no line number 371 in file E:/Dropbox/FAUSTO/SVILUPPI/MSX/CODE/C/MSXgl/engine/src/v9990.h
    00000A6A 11 00 00         [10] 2537 	ld	de, #0x0000
    00000A6D 21 05 00         [10] 2538 	ld	hl, #0x0005
    00000A70 CDr00r00         [17] 2539 	call	_V9_SetWriteAddress
    00000A73 11 00 20         [10] 2540 	ld	de, #0x2000
    00000A76 21r00r00         [10] 2541 	ld	hl, #_g_Data_Field_LayerB_Part5a
    00000A79 CDr00r00         [17] 2542 	call	_V9_WriteVRAM_CurrentAddr
                                   2543 ;E:/Dropbox/FAUSTO/SVILUPPI/MSX/CODE/C/MSXgl/engine/src/rom_mapper.h:190: ERROR: no line number 190 in file E:/Dropbox/FAUSTO/SVILUPPI/MSX/CODE/C/MSXgl/engine/src/rom_mapper.h
    00000A7C 21 44 00         [10] 2544 	ld	hl, #0x0044
    00000A7F 22r06r00         [16] 2545 	ld	((_g_Bank0Segment + 6)), hl
                                   2546 ;E:/Dropbox/FAUSTO/SVILUPPI/MSX/CODE/C/MSXgl/engine/src/rom_mapper.h:191: ERROR: no line number 191 in file E:/Dropbox/FAUSTO/SVILUPPI/MSX/CODE/C/MSXgl/engine/src/rom_mapper.h
    00000A82 3E 11            [ 7] 2547 	ld	a, #0x11
    00000A84 E6 C0            [ 7] 2548 	and	a, #0xc0
                                   2549 ;E:/Dropbox/FAUSTO/SVILUPPI/MSX/CODE/C/MSXgl/engine/src/system.h:101: ERROR: no line number 101 in file E:/Dropbox/FAUSTO/SVILUPPI/MSX/CODE/C/MSXgl/engine/src/system.h
    00000A86 32 FE 7F         [13] 2550 	ld	(#0x7ffe),a
                                   2551 ;E:/Dropbox/FAUSTO/SVILUPPI/MSX/CODE/C/MSXgl/engine/src/rom_mapper.h:195: ERROR: no line number 195 in file E:/Dropbox/FAUSTO/SVILUPPI/MSX/CODE/C/MSXgl/engine/src/rom_mapper.h
    00000A89 3E 44            [ 7] 2552 	ld	a, #0x44
                                   2553 ;E:/Dropbox/FAUSTO/SVILUPPI/MSX/CODE/C/MSXgl/engine/src/system.h:101: ERROR: no line number 101 in file E:/Dropbox/FAUSTO/SVILUPPI/MSX/CODE/C/MSXgl/engine/src/system.h
    00000A8B 32 00 B0         [13] 2554 	ld	(#0xb000),a
                                   2555 ;./soccerlg.c:440: ERROR: no line number 440 in file ./soccerlg.c
                                   2556 ;E:/Dropbox/FAUSTO/SVILUPPI/MSX/CODE/C/MSXgl/engine/src/v9990.h:371: ERROR: no line number 371 in file E:/Dropbox/FAUSTO/SVILUPPI/MSX/CODE/C/MSXgl/engine/src/v9990.h
    00000A8E 11 00 20         [10] 2557 	ld	de, #0x2000
    00000A91 21 05 00         [10] 2558 	ld	hl, #0x0005
    00000A94 CDr00r00         [17] 2559 	call	_V9_SetWriteAddress
    00000A97 11 00 20         [10] 2560 	ld	de, #0x2000
    00000A9A 21r00r00         [10] 2561 	ld	hl, #_g_Data_Field_LayerB_Part5b
    00000A9D CDr00r00         [17] 2562 	call	_V9_WriteVRAM_CurrentAddr
                                   2563 ;./soccerlg.c:441: ERROR: no line number 441 in file ./soccerlg.c
    00000AA0 DD 4E FF         [19] 2564 	ld	c, -1 (ix)
    00000AA3 06 00            [ 7] 2565 	ld	b, #0x00
                                   2566 ;E:/Dropbox/FAUSTO/SVILUPPI/MSX/CODE/C/MSXgl/engine/src/rom_mapper.h:190: ERROR: no line number 190 in file E:/Dropbox/FAUSTO/SVILUPPI/MSX/CODE/C/MSXgl/engine/src/rom_mapper.h
    00000AA5 ED 43r06r00      [20] 2567 	ld	((_g_Bank0Segment + 6)), bc
                                   2568 ;E:/Dropbox/FAUSTO/SVILUPPI/MSX/CODE/C/MSXgl/engine/src/rom_mapper.h:191: ERROR: no line number 191 in file E:/Dropbox/FAUSTO/SVILUPPI/MSX/CODE/C/MSXgl/engine/src/rom_mapper.h
    00000AA9 59               [ 4] 2569 	ld	e, c
    00000AAA 50               [ 4] 2570 	ld	d, b
    00000AAB CB 3A            [ 8] 2571 	srl	d
    00000AAD CB 1B            [ 8] 2572 	rr	e
    00000AAF CB 3A            [ 8] 2573 	srl	d
    00000AB1 CB 1B            [ 8] 2574 	rr	e
    00000AB3 7B               [ 4] 2575 	ld	a, e
    00000AB4 E6 C0            [ 7] 2576 	and	a, #0xc0
                                   2577 ;E:/Dropbox/FAUSTO/SVILUPPI/MSX/CODE/C/MSXgl/engine/src/system.h:101: ERROR: no line number 101 in file E:/Dropbox/FAUSTO/SVILUPPI/MSX/CODE/C/MSXgl/engine/src/system.h
    00000AB6 32 FE 7F         [13] 2578 	ld	(#0x7ffe),a
                                   2579 ;E:/Dropbox/FAUSTO/SVILUPPI/MSX/CODE/C/MSXgl/engine/src/rom_mapper.h:195: ERROR: no line number 195 in file E:/Dropbox/FAUSTO/SVILUPPI/MSX/CODE/C/MSXgl/engine/src/rom_mapper.h
                                   2580 ;E:/Dropbox/FAUSTO/SVILUPPI/MSX/CODE/C/MSXgl/engine/src/system.h:101: ERROR: no line number 101 in file E:/Dropbox/FAUSTO/SVILUPPI/MSX/CODE/C/MSXgl/engine/src/system.h
    00000AB9 21 00 B0         [10] 2581 	ld	hl, #0xb000
    00000ABC 71               [ 7] 2582 	ld	(hl), c
                                   2583 ;./soccerlg.c:441: ERROR: no line number 441 in file ./soccerlg.c
                                   2584 ;./soccerlg.c:443: ERROR: no line number 443 in file ./soccerlg.c
    00000ABD 33               [ 6] 2585 	inc	sp
    00000ABE DD E1            [14] 2586 	pop	ix
    00000AC0 C9               [10] 2587 	ret
                                   2588 ;./soccerlg.c:445: ERROR: no line number 445 in file ./soccerlg.c
                                   2589 ;	---------------------------------
                                   2590 ; Function V9990_LoadImagePresentationData
                                   2591 ; ---------------------------------
    00000AC1                       2592 _V9990_LoadImagePresentationData::
    00000AC1 DD E5            [15] 2593 	push	ix
    00000AC3 DD 21 00 00      [14] 2594 	ld	ix,#0
    00000AC7 DD 39            [15] 2595 	add	ix,sp
    00000AC9 3B               [ 6] 2596 	dec	sp
                                   2597 ;./soccerlg.c:446: ERROR: no line number 446 in file ./soccerlg.c
    00000ACA 2Ar06r00         [16] 2598 	ld	hl, (#(_g_Bank0Segment + 6) + 0)
    00000ACD DD 75 FF         [19] 2599 	ld	-1 (ix), l
                                   2600 ;E:/Dropbox/FAUSTO/SVILUPPI/MSX/CODE/C/MSXgl/engine/src/rom_mapper.h:190: ERROR: no line number 190 in file E:/Dropbox/FAUSTO/SVILUPPI/MSX/CODE/C/MSXgl/engine/src/rom_mapper.h
    00000AD0 21 15 00         [10] 2601 	ld	hl, #0x0015
    00000AD3 22r06r00         [16] 2602 	ld	((_g_Bank0Segment + 6)), hl
                                   2603 ;E:/Dropbox/FAUSTO/SVILUPPI/MSX/CODE/C/MSXgl/engine/src/rom_mapper.h:191: ERROR: no line number 191 in file E:/Dropbox/FAUSTO/SVILUPPI/MSX/CODE/C/MSXgl/engine/src/rom_mapper.h
    00000AD6 3E 05            [ 7] 2604 	ld	a, #0x05
    00000AD8 E6 C0            [ 7] 2605 	and	a, #0xc0
                                   2606 ;E:/Dropbox/FAUSTO/SVILUPPI/MSX/CODE/C/MSXgl/engine/src/system.h:101: ERROR: no line number 101 in file E:/Dropbox/FAUSTO/SVILUPPI/MSX/CODE/C/MSXgl/engine/src/system.h
    00000ADA 32 FE 7F         [13] 2607 	ld	(#0x7ffe),a
                                   2608 ;E:/Dropbox/FAUSTO/SVILUPPI/MSX/CODE/C/MSXgl/engine/src/rom_mapper.h:195: ERROR: no line number 195 in file E:/Dropbox/FAUSTO/SVILUPPI/MSX/CODE/C/MSXgl/engine/src/rom_mapper.h
    00000ADD 3E 15            [ 7] 2609 	ld	a, #0x15
                                   2610 ;E:/Dropbox/FAUSTO/SVILUPPI/MSX/CODE/C/MSXgl/engine/src/system.h:101: ERROR: no line number 101 in file E:/Dropbox/FAUSTO/SVILUPPI/MSX/CODE/C/MSXgl/engine/src/system.h
    00000ADF 21 00 B0         [10] 2611 	ld	hl, #0xb000
    00000AE2 77               [ 7] 2612 	ld	(hl), a
                                   2613 ;./soccerlg.c:448: ERROR: no line number 448 in file ./soccerlg.c
                                   2614 ;E:/Dropbox/FAUSTO/SVILUPPI/MSX/CODE/C/MSXgl/engine/src/v9990.h:371: ERROR: no line number 371 in file E:/Dropbox/FAUSTO/SVILUPPI/MSX/CODE/C/MSXgl/engine/src/v9990.h
    00000AE3 11 00 00         [10] 2615 	ld	de, #0x0000
    00000AE6 65               [ 4] 2616 	ld	h, l
    00000AE7 CDr00r00         [17] 2617 	call	_V9_SetWriteAddress
    00000AEA 11 00 20         [10] 2618 	ld	de, #0x2000
    00000AED 21r00r00         [10] 2619 	ld	hl, #_g_Data_Img_Presentation_Part1a
    00000AF0 CDr00r00         [17] 2620 	call	_V9_WriteVRAM_CurrentAddr
                                   2621 ;E:/Dropbox/FAUSTO/SVILUPPI/MSX/CODE/C/MSXgl/engine/src/rom_mapper.h:190: ERROR: no line number 190 in file E:/Dropbox/FAUSTO/SVILUPPI/MSX/CODE/C/MSXgl/engine/src/rom_mapper.h
    00000AF3 21 16 00         [10] 2622 	ld	hl, #0x0016
    00000AF6 22r06r00         [16] 2623 	ld	((_g_Bank0Segment + 6)), hl
                                   2624 ;E:/Dropbox/FAUSTO/SVILUPPI/MSX/CODE/C/MSXgl/engine/src/rom_mapper.h:191: ERROR: no line number 191 in file E:/Dropbox/FAUSTO/SVILUPPI/MSX/CODE/C/MSXgl/engine/src/rom_mapper.h
    00000AF9 3E 05            [ 7] 2625 	ld	a, #0x05
    00000AFB E6 C0            [ 7] 2626 	and	a, #0xc0
                                   2627 ;E:/Dropbox/FAUSTO/SVILUPPI/MSX/CODE/C/MSXgl/engine/src/system.h:101: ERROR: no line number 101 in file E:/Dropbox/FAUSTO/SVILUPPI/MSX/CODE/C/MSXgl/engine/src/system.h
    00000AFD 32 FE 7F         [13] 2628 	ld	(#0x7ffe),a
                                   2629 ;E:/Dropbox/FAUSTO/SVILUPPI/MSX/CODE/C/MSXgl/engine/src/rom_mapper.h:195: ERROR: no line number 195 in file E:/Dropbox/FAUSTO/SVILUPPI/MSX/CODE/C/MSXgl/engine/src/rom_mapper.h
    00000B00 3E 16            [ 7] 2630 	ld	a, #0x16
                                   2631 ;E:/Dropbox/FAUSTO/SVILUPPI/MSX/CODE/C/MSXgl/engine/src/system.h:101: ERROR: no line number 101 in file E:/Dropbox/FAUSTO/SVILUPPI/MSX/CODE/C/MSXgl/engine/src/system.h
    00000B02 21 00 B0         [10] 2632 	ld	hl, #0xb000
    00000B05 77               [ 7] 2633 	ld	(hl), a
                                   2634 ;./soccerlg.c:450: ERROR: no line number 450 in file ./soccerlg.c
                                   2635 ;E:/Dropbox/FAUSTO/SVILUPPI/MSX/CODE/C/MSXgl/engine/src/v9990.h:371: ERROR: no line number 371 in file E:/Dropbox/FAUSTO/SVILUPPI/MSX/CODE/C/MSXgl/engine/src/v9990.h
    00000B06 11 00 20         [10] 2636 	ld	de, #0x2000
    00000B09 65               [ 4] 2637 	ld	h, l
    00000B0A CDr00r00         [17] 2638 	call	_V9_SetWriteAddress
    00000B0D 11 00 20         [10] 2639 	ld	de, #0x2000
    00000B10 21r00r00         [10] 2640 	ld	hl, #_g_Data_Img_Presentation_Part1b
    00000B13 CDr00r00         [17] 2641 	call	_V9_WriteVRAM_CurrentAddr
                                   2642 ;E:/Dropbox/FAUSTO/SVILUPPI/MSX/CODE/C/MSXgl/engine/src/rom_mapper.h:190: ERROR: no line number 190 in file E:/Dropbox/FAUSTO/SVILUPPI/MSX/CODE/C/MSXgl/engine/src/rom_mapper.h
    00000B16 21 17 00         [10] 2643 	ld	hl, #0x0017
    00000B19 22r06r00         [16] 2644 	ld	((_g_Bank0Segment + 6)), hl
                                   2645 ;E:/Dropbox/FAUSTO/SVILUPPI/MSX/CODE/C/MSXgl/engine/src/rom_mapper.h:191: ERROR: no line number 191 in file E:/Dropbox/FAUSTO/SVILUPPI/MSX/CODE/C/MSXgl/engine/src/rom_mapper.h
    00000B1C 3E 05            [ 7] 2646 	ld	a, #0x05
    00000B1E E6 C0            [ 7] 2647 	and	a, #0xc0
                                   2648 ;E:/Dropbox/FAUSTO/SVILUPPI/MSX/CODE/C/MSXgl/engine/src/system.h:101: ERROR: no line number 101 in file E:/Dropbox/FAUSTO/SVILUPPI/MSX/CODE/C/MSXgl/engine/src/system.h
    00000B20 32 FE 7F         [13] 2649 	ld	(#0x7ffe),a
                                   2650 ;E:/Dropbox/FAUSTO/SVILUPPI/MSX/CODE/C/MSXgl/engine/src/rom_mapper.h:195: ERROR: no line number 195 in file E:/Dropbox/FAUSTO/SVILUPPI/MSX/CODE/C/MSXgl/engine/src/rom_mapper.h
    00000B23 3E 17            [ 7] 2651 	ld	a, #0x17
                                   2652 ;E:/Dropbox/FAUSTO/SVILUPPI/MSX/CODE/C/MSXgl/engine/src/system.h:101: ERROR: no line number 101 in file E:/Dropbox/FAUSTO/SVILUPPI/MSX/CODE/C/MSXgl/engine/src/system.h
    00000B25 21 00 B0         [10] 2653 	ld	hl, #0xb000
    00000B28 77               [ 7] 2654 	ld	(hl), a
                                   2655 ;./soccerlg.c:453: ERROR: no line number 453 in file ./soccerlg.c
                                   2656 ;E:/Dropbox/FAUSTO/SVILUPPI/MSX/CODE/C/MSXgl/engine/src/v9990.h:371: ERROR: no line number 371 in file E:/Dropbox/FAUSTO/SVILUPPI/MSX/CODE/C/MSXgl/engine/src/v9990.h
    00000B29 11 00 40         [10] 2657 	ld	de, #0x4000
    00000B2C 65               [ 4] 2658 	ld	h, l
    00000B2D CDr00r00         [17] 2659 	call	_V9_SetWriteAddress
    00000B30 11 00 20         [10] 2660 	ld	de, #0x2000
    00000B33 21r00r00         [10] 2661 	ld	hl, #_g_Data_Img_Presentation_Part2a
    00000B36 CDr00r00         [17] 2662 	call	_V9_WriteVRAM_CurrentAddr
                                   2663 ;E:/Dropbox/FAUSTO/SVILUPPI/MSX/CODE/C/MSXgl/engine/src/rom_mapper.h:190: ERROR: no line number 190 in file E:/Dropbox/FAUSTO/SVILUPPI/MSX/CODE/C/MSXgl/engine/src/rom_mapper.h
    00000B39 21 18 00         [10] 2664 	ld	hl, #0x0018
    00000B3C 22r06r00         [16] 2665 	ld	((_g_Bank0Segment + 6)), hl
                                   2666 ;E:/Dropbox/FAUSTO/SVILUPPI/MSX/CODE/C/MSXgl/engine/src/rom_mapper.h:191: ERROR: no line number 191 in file E:/Dropbox/FAUSTO/SVILUPPI/MSX/CODE/C/MSXgl/engine/src/rom_mapper.h
    00000B3F 3E 06            [ 7] 2667 	ld	a, #0x06
    00000B41 E6 C0            [ 7] 2668 	and	a, #0xc0
                                   2669 ;E:/Dropbox/FAUSTO/SVILUPPI/MSX/CODE/C/MSXgl/engine/src/system.h:101: ERROR: no line number 101 in file E:/Dropbox/FAUSTO/SVILUPPI/MSX/CODE/C/MSXgl/engine/src/system.h
    00000B43 32 FE 7F         [13] 2670 	ld	(#0x7ffe),a
                                   2671 ;E:/Dropbox/FAUSTO/SVILUPPI/MSX/CODE/C/MSXgl/engine/src/rom_mapper.h:195: ERROR: no line number 195 in file E:/Dropbox/FAUSTO/SVILUPPI/MSX/CODE/C/MSXgl/engine/src/rom_mapper.h
    00000B46 3E 18            [ 7] 2672 	ld	a, #0x18
                                   2673 ;E:/Dropbox/FAUSTO/SVILUPPI/MSX/CODE/C/MSXgl/engine/src/system.h:101: ERROR: no line number 101 in file E:/Dropbox/FAUSTO/SVILUPPI/MSX/CODE/C/MSXgl/engine/src/system.h
    00000B48 21 00 B0         [10] 2674 	ld	hl, #0xb000
    00000B4B 77               [ 7] 2675 	ld	(hl), a
                                   2676 ;./soccerlg.c:455: ERROR: no line number 455 in file ./soccerlg.c
                                   2677 ;E:/Dropbox/FAUSTO/SVILUPPI/MSX/CODE/C/MSXgl/engine/src/v9990.h:371: ERROR: no line number 371 in file E:/Dropbox/FAUSTO/SVILUPPI/MSX/CODE/C/MSXgl/engine/src/v9990.h
    00000B4C 11 00 60         [10] 2678 	ld	de, #0x6000
    00000B4F 65               [ 4] 2679 	ld	h, l
    00000B50 CDr00r00         [17] 2680 	call	_V9_SetWriteAddress
    00000B53 11 00 20         [10] 2681 	ld	de, #0x2000
    00000B56 21r00r00         [10] 2682 	ld	hl, #_g_Data_Img_Presentation_Part2b
    00000B59 CDr00r00         [17] 2683 	call	_V9_WriteVRAM_CurrentAddr
                                   2684 ;E:/Dropbox/FAUSTO/SVILUPPI/MSX/CODE/C/MSXgl/engine/src/rom_mapper.h:190: ERROR: no line number 190 in file E:/Dropbox/FAUSTO/SVILUPPI/MSX/CODE/C/MSXgl/engine/src/rom_mapper.h
    00000B5C 21 19 00         [10] 2685 	ld	hl, #0x0019
    00000B5F 22r06r00         [16] 2686 	ld	((_g_Bank0Segment + 6)), hl
                                   2687 ;E:/Dropbox/FAUSTO/SVILUPPI/MSX/CODE/C/MSXgl/engine/src/rom_mapper.h:191: ERROR: no line number 191 in file E:/Dropbox/FAUSTO/SVILUPPI/MSX/CODE/C/MSXgl/engine/src/rom_mapper.h
    00000B62 3E 06            [ 7] 2688 	ld	a, #0x06
    00000B64 E6 C0            [ 7] 2689 	and	a, #0xc0
                                   2690 ;E:/Dropbox/FAUSTO/SVILUPPI/MSX/CODE/C/MSXgl/engine/src/system.h:101: ERROR: no line number 101 in file E:/Dropbox/FAUSTO/SVILUPPI/MSX/CODE/C/MSXgl/engine/src/system.h
    00000B66 32 FE 7F         [13] 2691 	ld	(#0x7ffe),a
                                   2692 ;E:/Dropbox/FAUSTO/SVILUPPI/MSX/CODE/C/MSXgl/engine/src/rom_mapper.h:195: ERROR: no line number 195 in file E:/Dropbox/FAUSTO/SVILUPPI/MSX/CODE/C/MSXgl/engine/src/rom_mapper.h
    00000B69 3E 19            [ 7] 2693 	ld	a, #0x19
                                   2694 ;E:/Dropbox/FAUSTO/SVILUPPI/MSX/CODE/C/MSXgl/engine/src/system.h:101: ERROR: no line number 101 in file E:/Dropbox/FAUSTO/SVILUPPI/MSX/CODE/C/MSXgl/engine/src/system.h
    00000B6B 21 00 B0         [10] 2695 	ld	hl, #0xb000
    00000B6E 77               [ 7] 2696 	ld	(hl), a
                                   2697 ;./soccerlg.c:458: ERROR: no line number 458 in file ./soccerlg.c
                                   2698 ;E:/Dropbox/FAUSTO/SVILUPPI/MSX/CODE/C/MSXgl/engine/src/v9990.h:371: ERROR: no line number 371 in file E:/Dropbox/FAUSTO/SVILUPPI/MSX/CODE/C/MSXgl/engine/src/v9990.h
    00000B6F 11 00 80         [10] 2699 	ld	de, #0x8000
    00000B72 65               [ 4] 2700 	ld	h, l
    00000B73 CDr00r00         [17] 2701 	call	_V9_SetWriteAddress
    00000B76 11 00 20         [10] 2702 	ld	de, #0x2000
    00000B79 21r00r00         [10] 2703 	ld	hl, #_g_Data_Img_Presentation_Part3a
    00000B7C CDr00r00         [17] 2704 	call	_V9_WriteVRAM_CurrentAddr
                                   2705 ;E:/Dropbox/FAUSTO/SVILUPPI/MSX/CODE/C/MSXgl/engine/src/rom_mapper.h:190: ERROR: no line number 190 in file E:/Dropbox/FAUSTO/SVILUPPI/MSX/CODE/C/MSXgl/engine/src/rom_mapper.h
    00000B7F 21 1A 00         [10] 2706 	ld	hl, #0x001a
    00000B82 22r06r00         [16] 2707 	ld	((_g_Bank0Segment + 6)), hl
                                   2708 ;E:/Dropbox/FAUSTO/SVILUPPI/MSX/CODE/C/MSXgl/engine/src/rom_mapper.h:191: ERROR: no line number 191 in file E:/Dropbox/FAUSTO/SVILUPPI/MSX/CODE/C/MSXgl/engine/src/rom_mapper.h
    00000B85 3E 06            [ 7] 2709 	ld	a, #0x06
    00000B87 E6 C0            [ 7] 2710 	and	a, #0xc0
                                   2711 ;E:/Dropbox/FAUSTO/SVILUPPI/MSX/CODE/C/MSXgl/engine/src/system.h:101: ERROR: no line number 101 in file E:/Dropbox/FAUSTO/SVILUPPI/MSX/CODE/C/MSXgl/engine/src/system.h
    00000B89 32 FE 7F         [13] 2712 	ld	(#0x7ffe),a
                                   2713 ;E:/Dropbox/FAUSTO/SVILUPPI/MSX/CODE/C/MSXgl/engine/src/rom_mapper.h:195: ERROR: no line number 195 in file E:/Dropbox/FAUSTO/SVILUPPI/MSX/CODE/C/MSXgl/engine/src/rom_mapper.h
    00000B8C 3E 1A            [ 7] 2714 	ld	a, #0x1a
                                   2715 ;E:/Dropbox/FAUSTO/SVILUPPI/MSX/CODE/C/MSXgl/engine/src/system.h:101: ERROR: no line number 101 in file E:/Dropbox/FAUSTO/SVILUPPI/MSX/CODE/C/MSXgl/engine/src/system.h
    00000B8E 21 00 B0         [10] 2716 	ld	hl, #0xb000
    00000B91 77               [ 7] 2717 	ld	(hl), a
                                   2718 ;./soccerlg.c:460: ERROR: no line number 460 in file ./soccerlg.c
                                   2719 ;E:/Dropbox/FAUSTO/SVILUPPI/MSX/CODE/C/MSXgl/engine/src/v9990.h:371: ERROR: no line number 371 in file E:/Dropbox/FAUSTO/SVILUPPI/MSX/CODE/C/MSXgl/engine/src/v9990.h
    00000B92 11 00 A0         [10] 2720 	ld	de, #0xa000
    00000B95 65               [ 4] 2721 	ld	h, l
    00000B96 CDr00r00         [17] 2722 	call	_V9_SetWriteAddress
    00000B99 11 00 20         [10] 2723 	ld	de, #0x2000
    00000B9C 21r00r00         [10] 2724 	ld	hl, #_g_Data_Img_Presentation_Part3b
    00000B9F CDr00r00         [17] 2725 	call	_V9_WriteVRAM_CurrentAddr
                                   2726 ;E:/Dropbox/FAUSTO/SVILUPPI/MSX/CODE/C/MSXgl/engine/src/rom_mapper.h:190: ERROR: no line number 190 in file E:/Dropbox/FAUSTO/SVILUPPI/MSX/CODE/C/MSXgl/engine/src/rom_mapper.h
    00000BA2 21 1B 00         [10] 2727 	ld	hl, #0x001b
    00000BA5 22r06r00         [16] 2728 	ld	((_g_Bank0Segment + 6)), hl
                                   2729 ;E:/Dropbox/FAUSTO/SVILUPPI/MSX/CODE/C/MSXgl/engine/src/rom_mapper.h:191: ERROR: no line number 191 in file E:/Dropbox/FAUSTO/SVILUPPI/MSX/CODE/C/MSXgl/engine/src/rom_mapper.h
    00000BA8 3E 06            [ 7] 2730 	ld	a, #0x06
    00000BAA E6 C0            [ 7] 2731 	and	a, #0xc0
                                   2732 ;E:/Dropbox/FAUSTO/SVILUPPI/MSX/CODE/C/MSXgl/engine/src/system.h:101: ERROR: no line number 101 in file E:/Dropbox/FAUSTO/SVILUPPI/MSX/CODE/C/MSXgl/engine/src/system.h
    00000BAC 32 FE 7F         [13] 2733 	ld	(#0x7ffe),a
                                   2734 ;E:/Dropbox/FAUSTO/SVILUPPI/MSX/CODE/C/MSXgl/engine/src/rom_mapper.h:195: ERROR: no line number 195 in file E:/Dropbox/FAUSTO/SVILUPPI/MSX/CODE/C/MSXgl/engine/src/rom_mapper.h
    00000BAF 3E 1B            [ 7] 2735 	ld	a, #0x1b
                                   2736 ;E:/Dropbox/FAUSTO/SVILUPPI/MSX/CODE/C/MSXgl/engine/src/system.h:101: ERROR: no line number 101 in file E:/Dropbox/FAUSTO/SVILUPPI/MSX/CODE/C/MSXgl/engine/src/system.h
    00000BB1 21 00 B0         [10] 2737 	ld	hl, #0xb000
    00000BB4 77               [ 7] 2738 	ld	(hl), a
                                   2739 ;./soccerlg.c:463: ERROR: no line number 463 in file ./soccerlg.c
                                   2740 ;E:/Dropbox/FAUSTO/SVILUPPI/MSX/CODE/C/MSXgl/engine/src/v9990.h:371: ERROR: no line number 371 in file E:/Dropbox/FAUSTO/SVILUPPI/MSX/CODE/C/MSXgl/engine/src/v9990.h
    00000BB5 11 00 C0         [10] 2741 	ld	de, #0xc000
    00000BB8 65               [ 4] 2742 	ld	h, l
    00000BB9 CDr00r00         [17] 2743 	call	_V9_SetWriteAddress
    00000BBC 11 00 14         [10] 2744 	ld	de, #0x1400
    00000BBF 21r00r00         [10] 2745 	ld	hl, #_g_Data_Img_Presentation_Part4
    00000BC2 CDr00r00         [17] 2746 	call	_V9_WriteVRAM_CurrentAddr
                                   2747 ;./soccerlg.c:464: ERROR: no line number 464 in file ./soccerlg.c
    00000BC5 DD 4E FF         [19] 2748 	ld	c, -1 (ix)
    00000BC8 06 00            [ 7] 2749 	ld	b, #0x00
                                   2750 ;E:/Dropbox/FAUSTO/SVILUPPI/MSX/CODE/C/MSXgl/engine/src/rom_mapper.h:190: ERROR: no line number 190 in file E:/Dropbox/FAUSTO/SVILUPPI/MSX/CODE/C/MSXgl/engine/src/rom_mapper.h
    00000BCA ED 43r06r00      [20] 2751 	ld	((_g_Bank0Segment + 6)), bc
                                   2752 ;E:/Dropbox/FAUSTO/SVILUPPI/MSX/CODE/C/MSXgl/engine/src/rom_mapper.h:191: ERROR: no line number 191 in file E:/Dropbox/FAUSTO/SVILUPPI/MSX/CODE/C/MSXgl/engine/src/rom_mapper.h
    00000BCE 59               [ 4] 2753 	ld	e, c
    00000BCF 50               [ 4] 2754 	ld	d, b
    00000BD0 CB 3A            [ 8] 2755 	srl	d
    00000BD2 CB 1B            [ 8] 2756 	rr	e
    00000BD4 CB 3A            [ 8] 2757 	srl	d
    00000BD6 CB 1B            [ 8] 2758 	rr	e
    00000BD8 7B               [ 4] 2759 	ld	a, e
    00000BD9 E6 C0            [ 7] 2760 	and	a, #0xc0
                                   2761 ;E:/Dropbox/FAUSTO/SVILUPPI/MSX/CODE/C/MSXgl/engine/src/system.h:101: ERROR: no line number 101 in file E:/Dropbox/FAUSTO/SVILUPPI/MSX/CODE/C/MSXgl/engine/src/system.h
    00000BDB 32 FE 7F         [13] 2762 	ld	(#0x7ffe),a
                                   2763 ;E:/Dropbox/FAUSTO/SVILUPPI/MSX/CODE/C/MSXgl/engine/src/rom_mapper.h:195: ERROR: no line number 195 in file E:/Dropbox/FAUSTO/SVILUPPI/MSX/CODE/C/MSXgl/engine/src/rom_mapper.h
                                   2764 ;E:/Dropbox/FAUSTO/SVILUPPI/MSX/CODE/C/MSXgl/engine/src/system.h:101: ERROR: no line number 101 in file E:/Dropbox/FAUSTO/SVILUPPI/MSX/CODE/C/MSXgl/engine/src/system.h
    00000BDE 21 00 B0         [10] 2765 	ld	hl, #0xb000
    00000BE1 71               [ 7] 2766 	ld	(hl), c
                                   2767 ;./soccerlg.c:464: ERROR: no line number 464 in file ./soccerlg.c
                                   2768 ;./soccerlg.c:465: ERROR: no line number 465 in file ./soccerlg.c
    00000BE2 33               [ 6] 2769 	inc	sp
    00000BE3 DD E1            [14] 2770 	pop	ix
    00000BE5 C9               [10] 2771 	ret
                                   2772 ;./soccerlg.c:467: ERROR: no line number 467 in file ./soccerlg.c
                                   2773 ;	---------------------------------
                                   2774 ; Function V9990_LoadMenuTeamsData
                                   2775 ; ---------------------------------
    00000BE6                       2776 _V9990_LoadMenuTeamsData::
    00000BE6 DD E5            [15] 2777 	push	ix
    00000BE8 DD 21 00 00      [14] 2778 	ld	ix,#0
    00000BEC DD 39            [15] 2779 	add	ix,sp
    00000BEE 21 FB FF         [10] 2780 	ld	hl, #-5
    00000BF1 39               [11] 2781 	add	hl, sp
    00000BF2 F9               [ 6] 2782 	ld	sp, hl
                                   2783 ;./soccerlg.c:468: ERROR: no line number 468 in file ./soccerlg.c
    00000BF3 2Ar06r00         [16] 2784 	ld	hl, (#(_g_Bank0Segment + 6) + 0)
    00000BF6 DD 75 FB         [19] 2785 	ld	-5 (ix), l
                                   2786 ;E:/Dropbox/FAUSTO/SVILUPPI/MSX/CODE/C/MSXgl/engine/src/rom_mapper.h:190: ERROR: no line number 190 in file E:/Dropbox/FAUSTO/SVILUPPI/MSX/CODE/C/MSXgl/engine/src/rom_mapper.h
    00000BF9 21 21 00         [10] 2787 	ld	hl, #0x0021
    00000BFC 22r06r00         [16] 2788 	ld	((_g_Bank0Segment + 6)), hl
                                   2789 ;E:/Dropbox/FAUSTO/SVILUPPI/MSX/CODE/C/MSXgl/engine/src/rom_mapper.h:191: ERROR: no line number 191 in file E:/Dropbox/FAUSTO/SVILUPPI/MSX/CODE/C/MSXgl/engine/src/rom_mapper.h
    00000BFF 3E 08            [ 7] 2790 	ld	a, #0x08
    00000C01 E6 C0            [ 7] 2791 	and	a, #0xc0
                                   2792 ;E:/Dropbox/FAUSTO/SVILUPPI/MSX/CODE/C/MSXgl/engine/src/system.h:101: ERROR: no line number 101 in file E:/Dropbox/FAUSTO/SVILUPPI/MSX/CODE/C/MSXgl/engine/src/system.h
    00000C03 32 FE 7F         [13] 2793 	ld	(#0x7ffe),a
                                   2794 ;E:/Dropbox/FAUSTO/SVILUPPI/MSX/CODE/C/MSXgl/engine/src/rom_mapper.h:195: ERROR: no line number 195 in file E:/Dropbox/FAUSTO/SVILUPPI/MSX/CODE/C/MSXgl/engine/src/rom_mapper.h
    00000C06 3E 21            [ 7] 2795 	ld	a, #0x21
                                   2796 ;E:/Dropbox/FAUSTO/SVILUPPI/MSX/CODE/C/MSXgl/engine/src/system.h:101: ERROR: no line number 101 in file E:/Dropbox/FAUSTO/SVILUPPI/MSX/CODE/C/MSXgl/engine/src/system.h
    00000C08 32 00 B0         [13] 2797 	ld	(#0xb000),a
                                   2798 ;./soccerlg.c:470: ERROR: no line number 470 in file ./soccerlg.c
                                   2799 ;E:/Dropbox/FAUSTO/SVILUPPI/MSX/CODE/C/MSXgl/engine/src/v9990.h:371: ERROR: no line number 371 in file E:/Dropbox/FAUSTO/SVILUPPI/MSX/CODE/C/MSXgl/engine/src/v9990.h
    00000C0B 11 00 20         [10] 2800 	ld	de, #0x2000
    00000C0E 21 04 00         [10] 2801 	ld	hl, #0x0004
    00000C11 CDr00r00         [17] 2802 	call	_V9_SetWriteAddress
    00000C14 11 00 20         [10] 2803 	ld	de, #0x2000
    00000C17 21r00r00         [10] 2804 	ld	hl, #_g_Data_Teams_Gray_Part1a
    00000C1A CDr00r00         [17] 2805 	call	_V9_WriteVRAM_CurrentAddr
                                   2806 ;E:/Dropbox/FAUSTO/SVILUPPI/MSX/CODE/C/MSXgl/engine/src/rom_mapper.h:190: ERROR: no line number 190 in file E:/Dropbox/FAUSTO/SVILUPPI/MSX/CODE/C/MSXgl/engine/src/rom_mapper.h
    00000C1D 21 22 00         [10] 2807 	ld	hl, #0x0022
    00000C20 22r06r00         [16] 2808 	ld	((_g_Bank0Segment + 6)), hl
                                   2809 ;E:/Dropbox/FAUSTO/SVILUPPI/MSX/CODE/C/MSXgl/engine/src/rom_mapper.h:191: ERROR: no line number 191 in file E:/Dropbox/FAUSTO/SVILUPPI/MSX/CODE/C/MSXgl/engine/src/rom_mapper.h
    00000C23 3E 08            [ 7] 2810 	ld	a, #0x08
    00000C25 E6 C0            [ 7] 2811 	and	a, #0xc0
                                   2812 ;E:/Dropbox/FAUSTO/SVILUPPI/MSX/CODE/C/MSXgl/engine/src/system.h:101: ERROR: no line number 101 in file E:/Dropbox/FAUSTO/SVILUPPI/MSX/CODE/C/MSXgl/engine/src/system.h
    00000C27 32 FE 7F         [13] 2813 	ld	(#0x7ffe),a
                                   2814 ;E:/Dropbox/FAUSTO/SVILUPPI/MSX/CODE/C/MSXgl/engine/src/rom_mapper.h:195: ERROR: no line number 195 in file E:/Dropbox/FAUSTO/SVILUPPI/MSX/CODE/C/MSXgl/engine/src/rom_mapper.h
    00000C2A 3E 22            [ 7] 2815 	ld	a, #0x22
                                   2816 ;E:/Dropbox/FAUSTO/SVILUPPI/MSX/CODE/C/MSXgl/engine/src/system.h:101: ERROR: no line number 101 in file E:/Dropbox/FAUSTO/SVILUPPI/MSX/CODE/C/MSXgl/engine/src/system.h
    00000C2C 32 00 B0         [13] 2817 	ld	(#0xb000),a
                                   2818 ;./soccerlg.c:472: ERROR: no line number 472 in file ./soccerlg.c
                                   2819 ;E:/Dropbox/FAUSTO/SVILUPPI/MSX/CODE/C/MSXgl/engine/src/v9990.h:371: ERROR: no line number 371 in file E:/Dropbox/FAUSTO/SVILUPPI/MSX/CODE/C/MSXgl/engine/src/v9990.h
    00000C2F 11 00 40         [10] 2820 	ld	de, #0x4000
    00000C32 21 04 00         [10] 2821 	ld	hl, #0x0004
    00000C35 CDr00r00         [17] 2822 	call	_V9_SetWriteAddress
    00000C38 11 00 20         [10] 2823 	ld	de, #0x2000
    00000C3B 21r00r00         [10] 2824 	ld	hl, #_g_Data_Teams_Gray_Part1b
    00000C3E CDr00r00         [17] 2825 	call	_V9_WriteVRAM_CurrentAddr
                                   2826 ;E:/Dropbox/FAUSTO/SVILUPPI/MSX/CODE/C/MSXgl/engine/src/rom_mapper.h:190: ERROR: no line number 190 in file E:/Dropbox/FAUSTO/SVILUPPI/MSX/CODE/C/MSXgl/engine/src/rom_mapper.h
    00000C41 21 23 00         [10] 2827 	ld	hl, #0x0023
    00000C44 22r06r00         [16] 2828 	ld	((_g_Bank0Segment + 6)), hl
                                   2829 ;E:/Dropbox/FAUSTO/SVILUPPI/MSX/CODE/C/MSXgl/engine/src/rom_mapper.h:191: ERROR: no line number 191 in file E:/Dropbox/FAUSTO/SVILUPPI/MSX/CODE/C/MSXgl/engine/src/rom_mapper.h
    00000C47 3E 08            [ 7] 2830 	ld	a, #0x08
    00000C49 E6 C0            [ 7] 2831 	and	a, #0xc0
                                   2832 ;E:/Dropbox/FAUSTO/SVILUPPI/MSX/CODE/C/MSXgl/engine/src/system.h:101: ERROR: no line number 101 in file E:/Dropbox/FAUSTO/SVILUPPI/MSX/CODE/C/MSXgl/engine/src/system.h
    00000C4B 32 FE 7F         [13] 2833 	ld	(#0x7ffe),a
                                   2834 ;E:/Dropbox/FAUSTO/SVILUPPI/MSX/CODE/C/MSXgl/engine/src/rom_mapper.h:195: ERROR: no line number 195 in file E:/Dropbox/FAUSTO/SVILUPPI/MSX/CODE/C/MSXgl/engine/src/rom_mapper.h
    00000C4E 3E 23            [ 7] 2835 	ld	a, #0x23
                                   2836 ;E:/Dropbox/FAUSTO/SVILUPPI/MSX/CODE/C/MSXgl/engine/src/system.h:101: ERROR: no line number 101 in file E:/Dropbox/FAUSTO/SVILUPPI/MSX/CODE/C/MSXgl/engine/src/system.h
    00000C50 32 00 B0         [13] 2837 	ld	(#0xb000),a
                                   2838 ;./soccerlg.c:475: ERROR: no line number 475 in file ./soccerlg.c
                                   2839 ;E:/Dropbox/FAUSTO/SVILUPPI/MSX/CODE/C/MSXgl/engine/src/v9990.h:371: ERROR: no line number 371 in file E:/Dropbox/FAUSTO/SVILUPPI/MSX/CODE/C/MSXgl/engine/src/v9990.h
    00000C53 11 00 60         [10] 2840 	ld	de, #0x6000
    00000C56 21 04 00         [10] 2841 	ld	hl, #0x0004
    00000C59 CDr00r00         [17] 2842 	call	_V9_SetWriteAddress
    00000C5C 11 00 10         [10] 2843 	ld	de, #0x1000
    00000C5F 21r00r00         [10] 2844 	ld	hl, #_g_Data_Teams_Gray_Part2
    00000C62 CDr00r00         [17] 2845 	call	_V9_WriteVRAM_CurrentAddr
                                   2846 ;E:/Dropbox/FAUSTO/SVILUPPI/MSX/CODE/C/MSXgl/engine/src/v9990.h:362: ERROR: no line number 362 in file E:/Dropbox/FAUSTO/SVILUPPI/MSX/CODE/C/MSXgl/engine/src/v9990.h
    00000C65 11 00 E0         [10] 2847 	ld	de, #0xe000
    00000C68 21 07 00         [10] 2848 	ld	hl, #0x0007
    00000C6B CDr00r00         [17] 2849 	call	_V9_SetWriteAddress
    00000C6E 11 00 10         [10] 2850 	ld	de, #0x1000
    00000C71 21 00 00         [10] 2851 	ld	hl, #0x0000
    00000C74 CDr00r00         [17] 2852 	call	_V9_FillVRAM16_CurrentAddr
                                   2853 ;./soccerlg.c:477: ERROR: no line number 477 in file ./soccerlg.c
    00000C77 DD 36 FCr00      [19] 2854 	ld	-4 (ix), #<(_g_Data_Palette_Gray_Scale)
    00000C7B DD 36 FDs00      [19] 2855 	ld	-3 (ix), #>(_g_Data_Palette_Gray_Scale)
                                   2856 ;./soccerlg.c:1028: ERROR: no line number 1028 in file ./soccerlg.c
    00000C7F DD 36 FE 10      [19] 2857 	ld	-2 (ix), #0x10
    00000C83 DD 36 FF 00      [19] 2858 	ld	-1 (ix), #0x00
    00000C87                       2859 00196$:
    00000C87 DD 7E FF         [19] 2860 	ld	a, -1 (ix)
    00000C8A D6 10            [ 7] 2861 	sub	a, #0x10
    00000C8C 30 23            [12] 2862 	jr	NC, 00158$
    00000C8E DD 4E FE         [19] 2863 	ld	c, -2 (ix)
    00000C91 DD 34 FE         [23] 2864 	inc	-2 (ix)
    00000C94 DD 5E FC         [19] 2865 	ld	e, -4 (ix)
    00000C97 DD 56 FD         [19] 2866 	ld	d, -3 (ix)
    00000C9A 79               [ 4] 2867 	ld	a, c
    00000C9B CDr00r00         [17] 2868 	call	_V9_SetPaletteEntry
    00000C9E DD 7E FC         [19] 2869 	ld	a, -4 (ix)
    00000CA1 C6 03            [ 7] 2870 	add	a, #0x03
    00000CA3 DD 77 FC         [19] 2871 	ld	-4 (ix), a
    00000CA6 30 03            [12] 2872 	jr	NC, 00245$
    00000CA8 DD 34 FD         [23] 2873 	inc	-3 (ix)
    00000CAB                       2874 00245$:
    00000CAB DD 34 FF         [23] 2875 	inc	-1 (ix)
    00000CAE C3r87r0C         [10] 2876 	jp	00196$
                                   2877 ;./soccerlg.c:477: ERROR: no line number 477 in file ./soccerlg.c
    00000CB1                       2878 00158$:
                                   2879 ;E:/Dropbox/FAUSTO/SVILUPPI/MSX/CODE/C/MSXgl/engine/src/rom_mapper.h:190: ERROR: no line number 190 in file E:/Dropbox/FAUSTO/SVILUPPI/MSX/CODE/C/MSXgl/engine/src/rom_mapper.h
    00000CB1 21 20 00         [10] 2880 	ld	hl, #0x0020
    00000CB4 22r06r00         [16] 2881 	ld	((_g_Bank0Segment + 6)), hl
                                   2882 ;E:/Dropbox/FAUSTO/SVILUPPI/MSX/CODE/C/MSXgl/engine/src/rom_mapper.h:191: ERROR: no line number 191 in file E:/Dropbox/FAUSTO/SVILUPPI/MSX/CODE/C/MSXgl/engine/src/rom_mapper.h
    00000CB7 3E 08            [ 7] 2883 	ld	a, #0x08
    00000CB9 E6 C0            [ 7] 2884 	and	a, #0xc0
                                   2885 ;E:/Dropbox/FAUSTO/SVILUPPI/MSX/CODE/C/MSXgl/engine/src/system.h:101: ERROR: no line number 101 in file E:/Dropbox/FAUSTO/SVILUPPI/MSX/CODE/C/MSXgl/engine/src/system.h
    00000CBB 32 FE 7F         [13] 2886 	ld	(#0x7ffe),a
                                   2887 ;E:/Dropbox/FAUSTO/SVILUPPI/MSX/CODE/C/MSXgl/engine/src/rom_mapper.h:195: ERROR: no line number 195 in file E:/Dropbox/FAUSTO/SVILUPPI/MSX/CODE/C/MSXgl/engine/src/rom_mapper.h
    00000CBE 3E 20            [ 7] 2888 	ld	a, #0x20
                                   2889 ;E:/Dropbox/FAUSTO/SVILUPPI/MSX/CODE/C/MSXgl/engine/src/system.h:101: ERROR: no line number 101 in file E:/Dropbox/FAUSTO/SVILUPPI/MSX/CODE/C/MSXgl/engine/src/system.h
    00000CC0 32 00 B0         [13] 2890 	ld	(#0xb000),a
                                   2891 ;./soccerlg.c:479: ERROR: no line number 479 in file ./soccerlg.c
    00000CC3 01r00r00         [10] 2892 	ld	bc, #_g_Data_Palette_Teams_Colors+0
                                   2893 ;./soccerlg.c:1028: ERROR: no line number 1028 in file ./soccerlg.c
                                   2894 ;	spillPairReg hl
                                   2895 ;	spillPairReg hl
    00000CC6 21 00 00         [10] 2896 	ld	hl, #0x0
                                   2897 ;	spillPairReg hl
                                   2898 ;	spillPairReg hl
    00000CC9                       2899 00199$:
    00000CC9 7C               [ 4] 2900 	ld	a, h
    00000CCA D6 10            [ 7] 2901 	sub	a, #0x10
    00000CCC 30 17            [12] 2902 	jr	NC, 00177$
    00000CCE DD 75 FF         [19] 2903 	ld	-1 (ix), l
    00000CD1 2C               [ 4] 2904 	inc	l
    00000CD2 E5               [11] 2905 	push	hl
    00000CD3 C5               [11] 2906 	push	bc
    00000CD4 59               [ 4] 2907 	ld	e, c
    00000CD5 50               [ 4] 2908 	ld	d, b
    00000CD6 DD 7E FF         [19] 2909 	ld	a, -1 (ix)
    00000CD9 CDr00r00         [17] 2910 	call	_V9_SetPaletteEntry
    00000CDC C1               [10] 2911 	pop	bc
    00000CDD E1               [10] 2912 	pop	hl
    00000CDE 03               [ 6] 2913 	inc	bc
    00000CDF 03               [ 6] 2914 	inc	bc
    00000CE0 03               [ 6] 2915 	inc	bc
    00000CE1 24               [ 4] 2916 	inc	h
    00000CE2 C3rC9r0C         [10] 2917 	jp	00199$
                                   2918 ;./soccerlg.c:479: ERROR: no line number 479 in file ./soccerlg.c
    00000CE5                       2919 00177$:
                                   2920 ;./soccerlg.c:480: ERROR: no line number 480 in file ./soccerlg.c
    00000CE5 DD 4E FB         [19] 2921 	ld	c, -5 (ix)
    00000CE8 06 00            [ 7] 2922 	ld	b, #0x00
                                   2923 ;E:/Dropbox/FAUSTO/SVILUPPI/MSX/CODE/C/MSXgl/engine/src/rom_mapper.h:190: ERROR: no line number 190 in file E:/Dropbox/FAUSTO/SVILUPPI/MSX/CODE/C/MSXgl/engine/src/rom_mapper.h
    00000CEA ED 43r06r00      [20] 2924 	ld	((_g_Bank0Segment + 6)), bc
                                   2925 ;E:/Dropbox/FAUSTO/SVILUPPI/MSX/CODE/C/MSXgl/engine/src/rom_mapper.h:191: ERROR: no line number 191 in file E:/Dropbox/FAUSTO/SVILUPPI/MSX/CODE/C/MSXgl/engine/src/rom_mapper.h
    00000CEE 59               [ 4] 2926 	ld	e, c
    00000CEF 50               [ 4] 2927 	ld	d, b
    00000CF0 CB 3A            [ 8] 2928 	srl	d
    00000CF2 CB 1B            [ 8] 2929 	rr	e
    00000CF4 CB 3A            [ 8] 2930 	srl	d
    00000CF6 CB 1B            [ 8] 2931 	rr	e
    00000CF8 7B               [ 4] 2932 	ld	a, e
    00000CF9 E6 C0            [ 7] 2933 	and	a, #0xc0
                                   2934 ;E:/Dropbox/FAUSTO/SVILUPPI/MSX/CODE/C/MSXgl/engine/src/system.h:101: ERROR: no line number 101 in file E:/Dropbox/FAUSTO/SVILUPPI/MSX/CODE/C/MSXgl/engine/src/system.h
    00000CFB 32 FE 7F         [13] 2935 	ld	(#0x7ffe),a
                                   2936 ;E:/Dropbox/FAUSTO/SVILUPPI/MSX/CODE/C/MSXgl/engine/src/rom_mapper.h:195: ERROR: no line number 195 in file E:/Dropbox/FAUSTO/SVILUPPI/MSX/CODE/C/MSXgl/engine/src/rom_mapper.h
                                   2937 ;E:/Dropbox/FAUSTO/SVILUPPI/MSX/CODE/C/MSXgl/engine/src/system.h:101: ERROR: no line number 101 in file E:/Dropbox/FAUSTO/SVILUPPI/MSX/CODE/C/MSXgl/engine/src/system.h
    00000CFE 21 00 B0         [10] 2938 	ld	hl, #0xb000
    00000D01 71               [ 7] 2939 	ld	(hl), c
                                   2940 ;./soccerlg.c:480: ERROR: no line number 480 in file ./soccerlg.c
                                   2941 ;./soccerlg.c:481: ERROR: no line number 481 in file ./soccerlg.c
    00000D02 DD F9            [10] 2942 	ld	sp, ix
    00000D04 DD E1            [14] 2943 	pop	ix
    00000D06 C9               [10] 2944 	ret
                                   2945 ;./soccerlg.c:483: ERROR: no line number 483 in file ./soccerlg.c
                                   2946 ;	---------------------------------
                                   2947 ; Function V9990_LoadSprites
                                   2948 ; ---------------------------------
    00000D07                       2949 _V9990_LoadSprites::
    00000D07 DD E5            [15] 2950 	push	ix
    00000D09 DD 21 00 00      [14] 2951 	ld	ix,#0
    00000D0D DD 39            [15] 2952 	add	ix,sp
    00000D0F 3B               [ 6] 2953 	dec	sp
                                   2954 ;./soccerlg.c:484: ERROR: no line number 484 in file ./soccerlg.c
    00000D10 2Ar06r00         [16] 2955 	ld	hl, (#(_g_Bank0Segment + 6) + 0)
    00000D13 DD 75 FF         [19] 2956 	ld	-1 (ix), l
                                   2957 ;E:/Dropbox/FAUSTO/SVILUPPI/MSX/CODE/C/MSXgl/engine/src/rom_mapper.h:190: ERROR: no line number 190 in file E:/Dropbox/FAUSTO/SVILUPPI/MSX/CODE/C/MSXgl/engine/src/rom_mapper.h
    00000D16 21 24 00         [10] 2958 	ld	hl, #0x0024
    00000D19 22r06r00         [16] 2959 	ld	((_g_Bank0Segment + 6)), hl
                                   2960 ;E:/Dropbox/FAUSTO/SVILUPPI/MSX/CODE/C/MSXgl/engine/src/rom_mapper.h:191: ERROR: no line number 191 in file E:/Dropbox/FAUSTO/SVILUPPI/MSX/CODE/C/MSXgl/engine/src/rom_mapper.h
    00000D1C 3E 09            [ 7] 2961 	ld	a, #0x09
    00000D1E E6 C0            [ 7] 2962 	and	a, #0xc0
                                   2963 ;E:/Dropbox/FAUSTO/SVILUPPI/MSX/CODE/C/MSXgl/engine/src/system.h:101: ERROR: no line number 101 in file E:/Dropbox/FAUSTO/SVILUPPI/MSX/CODE/C/MSXgl/engine/src/system.h
    00000D20 32 FE 7F         [13] 2964 	ld	(#0x7ffe),a
                                   2965 ;E:/Dropbox/FAUSTO/SVILUPPI/MSX/CODE/C/MSXgl/engine/src/rom_mapper.h:195: ERROR: no line number 195 in file E:/Dropbox/FAUSTO/SVILUPPI/MSX/CODE/C/MSXgl/engine/src/rom_mapper.h
    00000D23 3E 24            [ 7] 2966 	ld	a, #0x24
                                   2967 ;E:/Dropbox/FAUSTO/SVILUPPI/MSX/CODE/C/MSXgl/engine/src/system.h:101: ERROR: no line number 101 in file E:/Dropbox/FAUSTO/SVILUPPI/MSX/CODE/C/MSXgl/engine/src/system.h
    00000D25 32 00 B0         [13] 2968 	ld	(#0xb000),a
                                   2969 ;E:/Dropbox/FAUSTO/SVILUPPI/MSX/CODE/C/MSXgl/engine/src/v9990.h:739: ERROR: no line number 739 in file E:/Dropbox/FAUSTO/SVILUPPI/MSX/CODE/C/MSXgl/engine/src/v9990.h
    00000D28 2E 02            [ 7] 2970 	ld	l, #0x02
                                   2971 ;	spillPairReg hl
                                   2972 ;	spillPairReg hl
    00000D2A 3E 19            [ 7] 2973 	ld	a, #0x19
    00000D2C CDr00r00         [17] 2974 	call	_V9_SetRegister
                                   2975 ;./soccerlg.c:487: ERROR: no line number 487 in file ./soccerlg.c
                                   2976 ;E:/Dropbox/FAUSTO/SVILUPPI/MSX/CODE/C/MSXgl/engine/src/v9990.h:371: ERROR: no line number 371 in file E:/Dropbox/FAUSTO/SVILUPPI/MSX/CODE/C/MSXgl/engine/src/v9990.h
    00000D2F 11 00 80         [10] 2977 	ld	de, #0x8000
    00000D32 21 00 00         [10] 2978 	ld	hl, #0x0000
    00000D35 CDr00r00         [17] 2979 	call	_V9_SetWriteAddress
    00000D38 11 00 20         [10] 2980 	ld	de, #0x2000
    00000D3B 21r00r00         [10] 2981 	ld	hl, #_g_Data_Sprites_Part1a
    00000D3E CDr00r00         [17] 2982 	call	_V9_WriteVRAM_CurrentAddr
                                   2983 ;E:/Dropbox/FAUSTO/SVILUPPI/MSX/CODE/C/MSXgl/engine/src/rom_mapper.h:190: ERROR: no line number 190 in file E:/Dropbox/FAUSTO/SVILUPPI/MSX/CODE/C/MSXgl/engine/src/rom_mapper.h
    00000D41 21 25 00         [10] 2984 	ld	hl, #0x0025
    00000D44 22r06r00         [16] 2985 	ld	((_g_Bank0Segment + 6)), hl
                                   2986 ;E:/Dropbox/FAUSTO/SVILUPPI/MSX/CODE/C/MSXgl/engine/src/rom_mapper.h:191: ERROR: no line number 191 in file E:/Dropbox/FAUSTO/SVILUPPI/MSX/CODE/C/MSXgl/engine/src/rom_mapper.h
    00000D47 3E 09            [ 7] 2987 	ld	a, #0x09
    00000D49 E6 C0            [ 7] 2988 	and	a, #0xc0
                                   2989 ;E:/Dropbox/FAUSTO/SVILUPPI/MSX/CODE/C/MSXgl/engine/src/system.h:101: ERROR: no line number 101 in file E:/Dropbox/FAUSTO/SVILUPPI/MSX/CODE/C/MSXgl/engine/src/system.h
    00000D4B 32 FE 7F         [13] 2990 	ld	(#0x7ffe),a
                                   2991 ;E:/Dropbox/FAUSTO/SVILUPPI/MSX/CODE/C/MSXgl/engine/src/rom_mapper.h:195: ERROR: no line number 195 in file E:/Dropbox/FAUSTO/SVILUPPI/MSX/CODE/C/MSXgl/engine/src/rom_mapper.h
    00000D4E 3E 25            [ 7] 2992 	ld	a, #0x25
                                   2993 ;E:/Dropbox/FAUSTO/SVILUPPI/MSX/CODE/C/MSXgl/engine/src/system.h:101: ERROR: no line number 101 in file E:/Dropbox/FAUSTO/SVILUPPI/MSX/CODE/C/MSXgl/engine/src/system.h
    00000D50 21 00 B0         [10] 2994 	ld	hl, #0xb000
    00000D53 77               [ 7] 2995 	ld	(hl), a
                                   2996 ;./soccerlg.c:489: ERROR: no line number 489 in file ./soccerlg.c
                                   2997 ;E:/Dropbox/FAUSTO/SVILUPPI/MSX/CODE/C/MSXgl/engine/src/v9990.h:371: ERROR: no line number 371 in file E:/Dropbox/FAUSTO/SVILUPPI/MSX/CODE/C/MSXgl/engine/src/v9990.h
    00000D54 11 00 A0         [10] 2998 	ld	de, #0xa000
    00000D57 65               [ 4] 2999 	ld	h, l
    00000D58 CDr00r00         [17] 3000 	call	_V9_SetWriteAddress
    00000D5B 11 00 20         [10] 3001 	ld	de, #0x2000
    00000D5E 21r00r00         [10] 3002 	ld	hl, #_g_Data_Sprites_Part1b
    00000D61 CDr00r00         [17] 3003 	call	_V9_WriteVRAM_CurrentAddr
                                   3004 ;E:/Dropbox/FAUSTO/SVILUPPI/MSX/CODE/C/MSXgl/engine/src/rom_mapper.h:190: ERROR: no line number 190 in file E:/Dropbox/FAUSTO/SVILUPPI/MSX/CODE/C/MSXgl/engine/src/rom_mapper.h
    00000D64 21 26 00         [10] 3005 	ld	hl, #0x0026
    00000D67 22r06r00         [16] 3006 	ld	((_g_Bank0Segment + 6)), hl
                                   3007 ;E:/Dropbox/FAUSTO/SVILUPPI/MSX/CODE/C/MSXgl/engine/src/rom_mapper.h:191: ERROR: no line number 191 in file E:/Dropbox/FAUSTO/SVILUPPI/MSX/CODE/C/MSXgl/engine/src/rom_mapper.h
    00000D6A 3E 09            [ 7] 3008 	ld	a, #0x09
    00000D6C E6 C0            [ 7] 3009 	and	a, #0xc0
                                   3010 ;E:/Dropbox/FAUSTO/SVILUPPI/MSX/CODE/C/MSXgl/engine/src/system.h:101: ERROR: no line number 101 in file E:/Dropbox/FAUSTO/SVILUPPI/MSX/CODE/C/MSXgl/engine/src/system.h
    00000D6E 32 FE 7F         [13] 3011 	ld	(#0x7ffe),a
                                   3012 ;E:/Dropbox/FAUSTO/SVILUPPI/MSX/CODE/C/MSXgl/engine/src/rom_mapper.h:195: ERROR: no line number 195 in file E:/Dropbox/FAUSTO/SVILUPPI/MSX/CODE/C/MSXgl/engine/src/rom_mapper.h
    00000D71 3E 26            [ 7] 3013 	ld	a, #0x26
                                   3014 ;E:/Dropbox/FAUSTO/SVILUPPI/MSX/CODE/C/MSXgl/engine/src/system.h:101: ERROR: no line number 101 in file E:/Dropbox/FAUSTO/SVILUPPI/MSX/CODE/C/MSXgl/engine/src/system.h
    00000D73 21 00 B0         [10] 3015 	ld	hl, #0xb000
    00000D76 77               [ 7] 3016 	ld	(hl), a
                                   3017 ;./soccerlg.c:491: ERROR: no line number 491 in file ./soccerlg.c
                                   3018 ;E:/Dropbox/FAUSTO/SVILUPPI/MSX/CODE/C/MSXgl/engine/src/v9990.h:371: ERROR: no line number 371 in file E:/Dropbox/FAUSTO/SVILUPPI/MSX/CODE/C/MSXgl/engine/src/v9990.h
    00000D77 11 00 C0         [10] 3019 	ld	de, #0xc000
    00000D7A 65               [ 4] 3020 	ld	h, l
    00000D7B CDr00r00         [17] 3021 	call	_V9_SetWriteAddress
    00000D7E 11 00 20         [10] 3022 	ld	de, #0x2000
    00000D81 21r00r00         [10] 3023 	ld	hl, #_g_Data_Sprites_Part2a
    00000D84 CDr00r00         [17] 3024 	call	_V9_WriteVRAM_CurrentAddr
                                   3025 ;E:/Dropbox/FAUSTO/SVILUPPI/MSX/CODE/C/MSXgl/engine/src/rom_mapper.h:190: ERROR: no line number 190 in file E:/Dropbox/FAUSTO/SVILUPPI/MSX/CODE/C/MSXgl/engine/src/rom_mapper.h
    00000D87 21 27 00         [10] 3026 	ld	hl, #0x0027
    00000D8A 22r06r00         [16] 3027 	ld	((_g_Bank0Segment + 6)), hl
                                   3028 ;E:/Dropbox/FAUSTO/SVILUPPI/MSX/CODE/C/MSXgl/engine/src/rom_mapper.h:191: ERROR: no line number 191 in file E:/Dropbox/FAUSTO/SVILUPPI/MSX/CODE/C/MSXgl/engine/src/rom_mapper.h
    00000D8D 3E 09            [ 7] 3029 	ld	a, #0x09
    00000D8F E6 C0            [ 7] 3030 	and	a, #0xc0
                                   3031 ;E:/Dropbox/FAUSTO/SVILUPPI/MSX/CODE/C/MSXgl/engine/src/system.h:101: ERROR: no line number 101 in file E:/Dropbox/FAUSTO/SVILUPPI/MSX/CODE/C/MSXgl/engine/src/system.h
    00000D91 32 FE 7F         [13] 3032 	ld	(#0x7ffe),a
                                   3033 ;E:/Dropbox/FAUSTO/SVILUPPI/MSX/CODE/C/MSXgl/engine/src/rom_mapper.h:195: ERROR: no line number 195 in file E:/Dropbox/FAUSTO/SVILUPPI/MSX/CODE/C/MSXgl/engine/src/rom_mapper.h
    00000D94 3E 27            [ 7] 3034 	ld	a, #0x27
                                   3035 ;E:/Dropbox/FAUSTO/SVILUPPI/MSX/CODE/C/MSXgl/engine/src/system.h:101: ERROR: no line number 101 in file E:/Dropbox/FAUSTO/SVILUPPI/MSX/CODE/C/MSXgl/engine/src/system.h
    00000D96 21 00 B0         [10] 3036 	ld	hl, #0xb000
    00000D99 77               [ 7] 3037 	ld	(hl), a
                                   3038 ;./soccerlg.c:493: ERROR: no line number 493 in file ./soccerlg.c
                                   3039 ;E:/Dropbox/FAUSTO/SVILUPPI/MSX/CODE/C/MSXgl/engine/src/v9990.h:371: ERROR: no line number 371 in file E:/Dropbox/FAUSTO/SVILUPPI/MSX/CODE/C/MSXgl/engine/src/v9990.h
    00000D9A 11 00 E0         [10] 3040 	ld	de, #0xe000
    00000D9D 65               [ 4] 3041 	ld	h, l
    00000D9E CDr00r00         [17] 3042 	call	_V9_SetWriteAddress
    00000DA1 11 00 20         [10] 3043 	ld	de, #0x2000
    00000DA4 21r00r00         [10] 3044 	ld	hl, #_g_Data_Sprites_Part2b
    00000DA7 CDr00r00         [17] 3045 	call	_V9_WriteVRAM_CurrentAddr
                                   3046 ;./soccerlg.c:494: ERROR: no line number 494 in file ./soccerlg.c
    00000DAA DD 4E FF         [19] 3047 	ld	c, -1 (ix)
    00000DAD 06 00            [ 7] 3048 	ld	b, #0x00
                                   3049 ;E:/Dropbox/FAUSTO/SVILUPPI/MSX/CODE/C/MSXgl/engine/src/rom_mapper.h:190: ERROR: no line number 190 in file E:/Dropbox/FAUSTO/SVILUPPI/MSX/CODE/C/MSXgl/engine/src/rom_mapper.h
    00000DAF ED 43r06r00      [20] 3050 	ld	((_g_Bank0Segment + 6)), bc
                                   3051 ;E:/Dropbox/FAUSTO/SVILUPPI/MSX/CODE/C/MSXgl/engine/src/rom_mapper.h:191: ERROR: no line number 191 in file E:/Dropbox/FAUSTO/SVILUPPI/MSX/CODE/C/MSXgl/engine/src/rom_mapper.h
    00000DB3 59               [ 4] 3052 	ld	e, c
    00000DB4 50               [ 4] 3053 	ld	d, b
    00000DB5 CB 3A            [ 8] 3054 	srl	d
    00000DB7 CB 1B            [ 8] 3055 	rr	e
    00000DB9 CB 3A            [ 8] 3056 	srl	d
    00000DBB CB 1B            [ 8] 3057 	rr	e
    00000DBD 7B               [ 4] 3058 	ld	a, e
    00000DBE E6 C0            [ 7] 3059 	and	a, #0xc0
                                   3060 ;E:/Dropbox/FAUSTO/SVILUPPI/MSX/CODE/C/MSXgl/engine/src/system.h:101: ERROR: no line number 101 in file E:/Dropbox/FAUSTO/SVILUPPI/MSX/CODE/C/MSXgl/engine/src/system.h
    00000DC0 32 FE 7F         [13] 3061 	ld	(#0x7ffe),a
                                   3062 ;E:/Dropbox/FAUSTO/SVILUPPI/MSX/CODE/C/MSXgl/engine/src/rom_mapper.h:195: ERROR: no line number 195 in file E:/Dropbox/FAUSTO/SVILUPPI/MSX/CODE/C/MSXgl/engine/src/rom_mapper.h
                                   3063 ;E:/Dropbox/FAUSTO/SVILUPPI/MSX/CODE/C/MSXgl/engine/src/system.h:101: ERROR: no line number 101 in file E:/Dropbox/FAUSTO/SVILUPPI/MSX/CODE/C/MSXgl/engine/src/system.h
    00000DC3 21 00 B0         [10] 3064 	ld	hl, #0xb000
    00000DC6 71               [ 7] 3065 	ld	(hl), c
                                   3066 ;./soccerlg.c:494: ERROR: no line number 494 in file ./soccerlg.c
                                   3067 ;./soccerlg.c:496: ERROR: no line number 496 in file ./soccerlg.c
    00000DC7 33               [ 6] 3068 	inc	sp
    00000DC8 DD E1            [14] 3069 	pop	ix
    00000DCA C9               [10] 3070 	ret
                                   3071 ;./soccerlg.c:498: ERROR: no line number 498 in file ./soccerlg.c
                                   3072 ;	---------------------------------
                                   3073 ; Function V9990_PrintLayerAStringAtPos
                                   3074 ; ---------------------------------
    00000DCB                       3075 _V9990_PrintLayerAStringAtPos::
    00000DCB DD E5            [15] 3076 	push	ix
    00000DCD DD 21 00 00      [14] 3077 	ld	ix,#0
    00000DD1 DD 39            [15] 3078 	add	ix,sp
    00000DD3 F5               [11] 3079 	push	af
    00000DD4 F5               [11] 3080 	push	af
    00000DD5 DD 77 FF         [19] 3081 	ld	-1 (ix), a
    00000DD8 DD 75 FE         [19] 3082 	ld	-2 (ix), l
                                   3083 ;./soccerlg.c:501: ERROR: no line number 501 in file ./soccerlg.c
    00000DDB DD 5E 04         [19] 3084 	ld	e, 4 (ix)
    00000DDE DD 56 05         [19] 3085 	ld	d, 5 (ix)
    00000DE1                       3086 00101$:
    00000DE1 1A               [ 7] 3087 	ld	a, (de)
    00000DE2 B7               [ 4] 3088 	or	a, a
    00000DE3 28 3D            [12] 3089 	jr	Z, 00106$
                                   3090 ;./soccerlg.c:502: ERROR: no line number 502 in file ./soccerlg.c
    00000DE5 13               [ 6] 3091 	inc	de
    00000DE6 DD 77 FC         [19] 3092 	ld	-4 (ix), a
    00000DE9 DD 36 FD 00      [19] 3093 	ld	-3 (ix), #0x00
                                   3094 ;E:/Dropbox/FAUSTO/SVILUPPI/MSX/CODE/C/MSXgl/engine/src/v9990.h:1426: ERROR: no line number 1426 in file E:/Dropbox/FAUSTO/SVILUPPI/MSX/CODE/C/MSXgl/engine/src/v9990.h
    00000DED DD 6E FE         [19] 3095 	ld	l, -2 (ix)
                                   3096 ;	spillPairReg hl
                                   3097 ;	spillPairReg hl
    00000DF0 26 00            [ 7] 3098 	ld	h, #0x00
                                   3099 ;	spillPairReg hl
                                   3100 ;	spillPairReg hl
    00000DF2 29               [11] 3101 	add	hl, hl
    00000DF3 29               [11] 3102 	add	hl, hl
    00000DF4 29               [11] 3103 	add	hl, hl
    00000DF5 29               [11] 3104 	add	hl, hl
    00000DF6 29               [11] 3105 	add	hl, hl
    00000DF7 29               [11] 3106 	add	hl, hl
    00000DF8 DD 4E FF         [19] 3107 	ld	c, -1 (ix)
    00000DFB 06 00            [ 7] 3108 	ld	b, #0x00
    00000DFD 09               [11] 3109 	add	hl, bc
    00000DFE 29               [11] 3110 	add	hl, hl
    00000DFF 7C               [ 4] 3111 	ld	a, h
    00000E00 07               [ 4] 3112 	rlca
    00000E01 9F               [ 4] 3113 	sbc	a, a
    00000E02 4F               [ 4] 3114 	ld	c, a
    00000E03 47               [ 4] 3115 	ld	b, a
    00000E04 7C               [ 4] 3116 	ld	a, h
    00000E05 C6 C0            [ 7] 3117 	add	a, #0xc0
    00000E07 67               [ 4] 3118 	ld	h, a
                                   3119 ;	spillPairReg hl
                                   3120 ;	spillPairReg hl
    00000E08 79               [ 4] 3121 	ld	a, c
    00000E09 CE 07            [ 7] 3122 	adc	a, #0x07
    00000E0B 4F               [ 4] 3123 	ld	c, a
    00000E0C 30 01            [12] 3124 	jr	NC, 00119$
    00000E0E 04               [ 4] 3125 	inc	b
    00000E0F                       3126 00119$:
                                   3127 ;E:/Dropbox/FAUSTO/SVILUPPI/MSX/CODE/C/MSXgl/engine/src/v9990.h:396: ERROR: no line number 396 in file E:/Dropbox/FAUSTO/SVILUPPI/MSX/CODE/C/MSXgl/engine/src/v9990.h
    00000E0F EB               [ 4] 3128 	ex	de, hl
    00000E10 E5               [11] 3129 	push	hl
    00000E11 69               [ 4] 3130 	ld	l, c
                                   3131 ;	spillPairReg hl
                                   3132 ;	spillPairReg hl
    00000E12 60               [ 4] 3133 	ld	h, b
                                   3134 ;	spillPairReg hl
                                   3135 ;	spillPairReg hl
    00000E13 CDr00r00         [17] 3136 	call	_V9_SetWriteAddress
    00000E16 D1               [10] 3137 	pop	de
    00000E17 E1               [10] 3138 	pop	hl
    00000E18 E5               [11] 3139 	push	hl
    00000E19 CDr00r00         [17] 3140 	call	_V9_Poke16_CurrentAddr
                                   3141 ;./soccerlg.c:503: ERROR: no line number 503 in file ./soccerlg.c
    00000E1C DD 34 FF         [23] 3142 	inc	-1 (ix)
                                   3143 ;./soccerlg.c:504: ERROR: no line number 504 in file ./soccerlg.c
    00000E1F C3rE1r0D         [10] 3144 	jp	00101$
    00000E22                       3145 00106$:
                                   3146 ;./soccerlg.c:507: ERROR: no line number 507 in file ./soccerlg.c
    00000E22 DD F9            [10] 3147 	ld	sp, ix
    00000E24 DD E1            [14] 3148 	pop	ix
    00000E26 E1               [10] 3149 	pop	hl
    00000E27 F1               [10] 3150 	pop	af
    00000E28 E9               [ 4] 3151 	jp	(hl)
                                   3152 ;./soccerlg.c:509: ERROR: no line number 509 in file ./soccerlg.c
                                   3153 ;	---------------------------------
                                   3154 ; Function V9990_ClearTextFromLayerA
                                   3155 ; ---------------------------------
    00000E29                       3156 _V9990_ClearTextFromLayerA::
    00000E29 DD E5            [15] 3157 	push	ix
    00000E2B DD 21 00 00      [14] 3158 	ld	ix,#0
    00000E2F DD 39            [15] 3159 	add	ix,sp
    00000E31 F5               [11] 3160 	push	af
    00000E32 4F               [ 4] 3161 	ld	c, a
    00000E33 DD 75 FE         [19] 3162 	ld	-2 (ix), l
                                   3163 ;./soccerlg.c:510: ERROR: no line number 510 in file ./soccerlg.c
    00000E36 DD 36 FF 00      [19] 3164 	ld	-1 (ix), #0x00
    00000E3A                       3165 00105$:
    00000E3A DD 7E FF         [19] 3166 	ld	a, -1 (ix)
    00000E3D DD 96 04         [19] 3167 	sub	a, 4 (ix)
    00000E40 30 33            [12] 3168 	jr	NC, 00107$
                                   3169 ;E:/Dropbox/FAUSTO/SVILUPPI/MSX/CODE/C/MSXgl/engine/src/v9990.h:1426: ERROR: no line number 1426 in file E:/Dropbox/FAUSTO/SVILUPPI/MSX/CODE/C/MSXgl/engine/src/v9990.h
    00000E42 DD 6E FE         [19] 3170 	ld	l, -2 (ix)
                                   3171 ;	spillPairReg hl
                                   3172 ;	spillPairReg hl
    00000E45 26 00            [ 7] 3173 	ld	h, #0x00
                                   3174 ;	spillPairReg hl
                                   3175 ;	spillPairReg hl
    00000E47 29               [11] 3176 	add	hl, hl
    00000E48 29               [11] 3177 	add	hl, hl
    00000E49 29               [11] 3178 	add	hl, hl
    00000E4A 29               [11] 3179 	add	hl, hl
    00000E4B 29               [11] 3180 	add	hl, hl
    00000E4C 29               [11] 3181 	add	hl, hl
    00000E4D 59               [ 4] 3182 	ld	e, c
    00000E4E 16 00            [ 7] 3183 	ld	d, #0x00
    00000E50 19               [11] 3184 	add	hl, de
    00000E51 29               [11] 3185 	add	hl, hl
    00000E52 7C               [ 4] 3186 	ld	a, h
    00000E53 07               [ 4] 3187 	rlca
    00000E54 9F               [ 4] 3188 	sbc	a, a
    00000E55 5F               [ 4] 3189 	ld	e, a
    00000E56 57               [ 4] 3190 	ld	d, a
    00000E57 7C               [ 4] 3191 	ld	a, h
    00000E58 C6 C0            [ 7] 3192 	add	a, #0xc0
    00000E5A 67               [ 4] 3193 	ld	h, a
                                   3194 ;	spillPairReg hl
                                   3195 ;	spillPairReg hl
    00000E5B 7B               [ 4] 3196 	ld	a, e
    00000E5C CE 07            [ 7] 3197 	adc	a, #0x07
    00000E5E 5F               [ 4] 3198 	ld	e, a
    00000E5F 30 01            [12] 3199 	jr	NC, 00120$
    00000E61 14               [ 4] 3200 	inc	d
    00000E62                       3201 00120$:
                                   3202 ;E:/Dropbox/FAUSTO/SVILUPPI/MSX/CODE/C/MSXgl/engine/src/v9990.h:396: ERROR: no line number 396 in file E:/Dropbox/FAUSTO/SVILUPPI/MSX/CODE/C/MSXgl/engine/src/v9990.h
    00000E62 C5               [11] 3203 	push	bc
    00000E63 EB               [ 4] 3204 	ex	de, hl
    00000E64 CDr00r00         [17] 3205 	call	_V9_SetWriteAddress
    00000E67 C1               [10] 3206 	pop	bc
    00000E68 21 00 00         [10] 3207 	ld	hl, #0x0000
    00000E6B CDr00r00         [17] 3208 	call	_V9_Poke16_CurrentAddr
                                   3209 ;./soccerlg.c:512: ERROR: no line number 512 in file ./soccerlg.c
    00000E6E 0C               [ 4] 3210 	inc	c
                                   3211 ;./soccerlg.c:510: ERROR: no line number 510 in file ./soccerlg.c
    00000E6F DD 34 FF         [23] 3212 	inc	-1 (ix)
    00000E72 C3r3Ar0E         [10] 3213 	jp	00105$
    00000E75                       3214 00107$:
                                   3215 ;./soccerlg.c:514: ERROR: no line number 514 in file ./soccerlg.c
    00000E75 DD F9            [10] 3216 	ld	sp, ix
    00000E77 DD E1            [14] 3217 	pop	ix
    00000E79 E1               [10] 3218 	pop	hl
    00000E7A 33               [ 6] 3219 	inc	sp
    00000E7B E9               [ 4] 3220 	jp	(hl)
                                   3221 ;./soccerlg.c:516: ERROR: no line number 516 in file ./soccerlg.c
                                   3222 ;	---------------------------------
                                   3223 ; Function V9_InterruptVBlank
                                   3224 ; ---------------------------------
    00000E7C                       3225 _V9_InterruptVBlank::
                                   3226 ;./soccerlg.c:517: ERROR: no line number 517 in file ./soccerlg.c
    00000E7C 21r00r00         [10] 3227 	ld	hl, #_g_VSynch
    00000E7F 36 01            [10] 3228 	ld	(hl), #0x01
                                   3229 ;./soccerlg.c:518: ERROR: no line number 518 in file ./soccerlg.c
    00000E81 FD 21r03r00      [14] 3230 	ld	iy, #_g_FrameCounter
    00000E85 FD 34 00         [23] 3231 	inc	0 (iy)
                                   3232 ;./soccerlg.c:519: ERROR: no line number 519 in file ./soccerlg.c
    00000E88 3Ar03r00         [13] 3233 	ld	a, (_g_FrameCounter+0)
    00000E8B D6 3C            [ 7] 3234 	sub	a, #0x3c
    00000E8D 20 0B            [12] 3235 	jr	NZ, 00102$
                                   3236 ;./soccerlg.c:520: ERROR: no line number 520 in file ./soccerlg.c
    00000E8F 2Ar02r00         [16] 3237 	ld	hl, (_g_TimeCounter)
    00000E92 23               [ 6] 3238 	inc	hl
    00000E93 22r02r00         [16] 3239 	ld	(_g_TimeCounter), hl
                                   3240 ;./soccerlg.c:521: ERROR: no line number 521 in file ./soccerlg.c
    00000E96 FD 36 00 00      [19] 3241 	ld	0 (iy), #0x00
    00000E9A                       3242 00102$:
                                   3243 ;./soccerlg.c:523: ERROR: no line number 523 in file ./soccerlg.c
    00000E9A CDr00r0F         [17] 3244 	call	_PlaySounds
                                   3245 ;./soccerlg.c:525: ERROR: no line number 525 in file ./soccerlg.c
    00000E9D FD 21r04r00      [14] 3246 	ld	iy, #_g_Timer
    00000EA1 FD 34 00         [23] 3247 	inc	0 (iy)
                                   3248 ;./soccerlg.c:529: ERROR: no line number 529 in file ./soccerlg.c
    00000EA4 3Ar06r00         [13] 3249 	ld	a, (_g_FieldScrollingActionInProgress+0)
    00000EA7 3C               [ 4] 3250 	inc	a
    00000EA8 28 08            [12] 3251 	jr	Z, 00108$
                                   3252 ;./soccerlg.c:530: ERROR: no line number 530 in file ./soccerlg.c
    00000EAA 11r00r00         [10] 3253 	ld	de, #_TickGameFieldScrolling
    00000EAD 3E 04            [ 7] 3254 	ld	a, #0x04
    00000EAF C3r00r00         [10] 3255 	jp	_CallFnc_VOID
    00000EB2                       3256 00108$:
                                   3257 ;./soccerlg.c:533: ERROR: no line number 533 in file ./soccerlg.c
    00000EB2 3Ar47r00         [13] 3258 	ld	a, (_g_VblankSuspended+0)
    00000EB5 B7               [ 4] 3259 	or	a, a
    00000EB6 C0               [11] 3260 	ret	NZ
    00000EB7 3Ar09r00         [13] 3261 	ld	a, (_g_MatchStatus+0)
    00000EBA 3D               [ 4] 3262 	dec	a
    00000EBB C8               [11] 3263 	ret	Z
    00000EBC 3Ar09r00         [13] 3264 	ld	a, (_g_MatchStatus+0)
    00000EBF D6 13            [ 7] 3265 	sub	a, #0x13
    00000EC1 C8               [11] 3266 	ret	Z
                                   3267 ;./soccerlg.c:534: ERROR: no line number 534 in file ./soccerlg.c
    00000EC2 2Ar05r00         [16] 3268 	ld	hl, (_g_FieldCurrentYPosition)
                                   3269 ;./soccerlg.c:540: ERROR: no line number 540 in file ./soccerlg.c
    00000EC5 C3r00r00         [10] 3270 	jp	_V9_SetScrollingBY
                                   3271 ;./soccerlg.c:542: ERROR: no line number 542 in file ./soccerlg.c
                                   3272 ;	---------------------------------
                                   3273 ; Function InterruptHook
                                   3274 ; ---------------------------------
    00000EC8                       3275 _InterruptHook::
                                   3276 ;./soccerlg.c:555: ERROR: no line number 555 in file ./soccerlg.c
    00000EC8 DB 99            [11] 3277 	in	a, (0x99)
    00000ECA DB 66            [11] 3278 	in	a, (0x66)
    00000ECC D3 66            [11] 3279 	out	(0x66), a
    00000ECE 1F               [ 4] 3280 	rra
    00000ECF DCr7Cr0E         [17] 3281 	call	c, _V9_InterruptVBlank
                                   3282 ;./soccerlg.c:556: ERROR: no line number 556 in file ./soccerlg.c
    00000ED2 C9               [10] 3283 	ret
                                   3284 ;./soccerlg.c:562: ERROR: no line number 562 in file ./soccerlg.c
                                   3285 ;	---------------------------------
                                   3286 ; Function Math_Abs32
                                   3287 ; ---------------------------------
    00000ED3                       3288 _Math_Abs32::
    00000ED3 4D               [ 4] 3289 	ld	c, l
    00000ED4 44               [ 4] 3290 	ld	b, h
    00000ED5 CB 78            [ 8] 3291 	bit	7, b
    00000ED7 28 0D            [12] 3292 	jr	Z, 00103$
    00000ED9 21 00 00         [10] 3293 	ld	hl, #0x0000
    00000EDC BF               [ 4] 3294 	cp	a, a
    00000EDD ED 52            [15] 3295 	sbc	hl, de
    00000EDF EB               [ 4] 3296 	ex	de, hl
    00000EE0 21 00 00         [10] 3297 	ld	hl, #0x0000
    00000EE3 ED 42            [15] 3298 	sbc	hl, bc
    00000EE5 C9               [10] 3299 	ret
    00000EE6                       3300 00103$:
    00000EE6 69               [ 4] 3301 	ld	l, c
                                   3302 ;	spillPairReg hl
                                   3303 ;	spillPairReg hl
    00000EE7 60               [ 4] 3304 	ld	h, b
                                   3305 ;	spillPairReg hl
                                   3306 ;	spillPairReg hl
    00000EE8 C9               [10] 3307 	ret
                                   3308 ;./soccerlg.c:564: ERROR: no line number 564 in file ./soccerlg.c
                                   3309 ;	---------------------------------
                                   3310 ; Function GetTeamStats
                                   3311 ; ---------------------------------
    00000EE9                       3312 _GetTeamStats::
    00000EE9 4F               [ 4] 3313 	ld	c, a
                                   3314 ;./soccerlg.c:565: ERROR: no line number 565 in file ./soccerlg.c
    00000EEA 3E 05            [ 7] 3315 	ld	a, #0x05
    00000EEC 91               [ 4] 3316 	sub	a, c
    00000EED 30 04            [12] 3317 	jr	NC, 00102$
    00000EEF 11r4Fr00         [10] 3318 	ld	de, #_g_TeamStats
    00000EF2 C9               [10] 3319 	ret
    00000EF3                       3320 00102$:
                                   3321 ;./soccerlg.c:566: ERROR: no line number 566 in file ./soccerlg.c
    00000EF3 06 00            [ 7] 3322 	ld	b, #0x00
    00000EF5 69               [ 4] 3323 	ld	l, c
    00000EF6 60               [ 4] 3324 	ld	h, b
    00000EF7 29               [11] 3325 	add	hl, hl
    00000EF8 29               [11] 3326 	add	hl, hl
    00000EF9 09               [11] 3327 	add	hl, bc
    00000EFA 11r4Fr00         [10] 3328 	ld	de, #_g_TeamStats
    00000EFD 19               [11] 3329 	add	hl, de
    00000EFE EB               [ 4] 3330 	ex	de, hl
                                   3331 ;./soccerlg.c:567: ERROR: no line number 567 in file ./soccerlg.c
    00000EFF C9               [10] 3332 	ret
                                   3333 ;./soccerlg.c:568: ERROR: no line number 568 in file ./soccerlg.c
                                   3334 ;	---------------------------------
                                   3335 ; Function PlaySounds
                                   3336 ; ---------------------------------
    00000F00                       3337 _PlaySounds::
    00000F00 DD E5            [15] 3338 	push	ix
    00000F02 DD 21 00 00      [14] 3339 	ld	ix,#0
    00000F06 DD 39            [15] 3340 	add	ix,sp
    00000F08 3B               [ 6] 3341 	dec	sp
                                   3342 ;./soccerlg.c:569: ERROR: no line number 569 in file ./soccerlg.c
    00000F09 3Ar45r00         [13] 3343 	ld	a, (_g_currentVGMPlayingSegment+0)
    00000F0C 3C               [ 4] 3344 	inc	a
    00000F0D 28 5E            [12] 3345 	jr	Z, 00155$
                                   3346 ;./soccerlg.c:570: ERROR: no line number 570 in file ./soccerlg.c
    00000F0F 2Ar06r00         [16] 3347 	ld	hl, (#(_g_Bank0Segment + 6) + 0)
    00000F12 DD 75 FF         [19] 3348 	ld	-1 (ix), l
                                   3349 ;./soccerlg.c:571: ERROR: no line number 571 in file ./soccerlg.c
    00000F15 3Ar45r00         [13] 3350 	ld	a, (_g_currentVGMPlayingSegment+0)
    00000F18 4F               [ 4] 3351 	ld	c, a
    00000F19 06 00            [ 7] 3352 	ld	b, #0x00
    00000F1B 59               [ 4] 3353 	ld	e, c
    00000F1C 50               [ 4] 3354 	ld	d, b
                                   3355 ;E:/Dropbox/FAUSTO/SVILUPPI/MSX/CODE/C/MSXgl/engine/src/rom_mapper.h:190: ERROR: no line number 190 in file E:/Dropbox/FAUSTO/SVILUPPI/MSX/CODE/C/MSXgl/engine/src/rom_mapper.h
    00000F1D ED 43r06r00      [20] 3356 	ld	((_g_Bank0Segment + 6)), bc
                                   3357 ;E:/Dropbox/FAUSTO/SVILUPPI/MSX/CODE/C/MSXgl/engine/src/rom_mapper.h:191: ERROR: no line number 191 in file E:/Dropbox/FAUSTO/SVILUPPI/MSX/CODE/C/MSXgl/engine/src/rom_mapper.h
    00000F21 4B               [ 4] 3358 	ld	c, e
    00000F22 42               [ 4] 3359 	ld	b, d
    00000F23 CB 38            [ 8] 3360 	srl	b
    00000F25 CB 19            [ 8] 3361 	rr	c
    00000F27 CB 38            [ 8] 3362 	srl	b
    00000F29 CB 19            [ 8] 3363 	rr	c
    00000F2B 79               [ 4] 3364 	ld	a, c
    00000F2C E6 C0            [ 7] 3365 	and	a, #0xc0
                                   3366 ;E:/Dropbox/FAUSTO/SVILUPPI/MSX/CODE/C/MSXgl/engine/src/system.h:101: ERROR: no line number 101 in file E:/Dropbox/FAUSTO/SVILUPPI/MSX/CODE/C/MSXgl/engine/src/system.h
    00000F2E 32 FE 7F         [13] 3367 	ld	(#0x7ffe),a
                                   3368 ;E:/Dropbox/FAUSTO/SVILUPPI/MSX/CODE/C/MSXgl/engine/src/rom_mapper.h:195: ERROR: no line number 195 in file E:/Dropbox/FAUSTO/SVILUPPI/MSX/CODE/C/MSXgl/engine/src/rom_mapper.h
                                   3369 ;E:/Dropbox/FAUSTO/SVILUPPI/MSX/CODE/C/MSXgl/engine/src/system.h:101: ERROR: no line number 101 in file E:/Dropbox/FAUSTO/SVILUPPI/MSX/CODE/C/MSXgl/engine/src/system.h
    00000F31 21 00 B0         [10] 3370 	ld	hl, #0xb000
    00000F34 73               [ 7] 3371 	ld	(hl), e
                                   3372 ;./soccerlg.c:572: ERROR: no line number 572 in file ./soccerlg.c
    00000F35 CDr00r00         [17] 3373 	call	_VGM_Decode
                                   3374 ;E:/Dropbox/FAUSTO/SVILUPPI/MSX/CODE/C/MSXgl/engine/src/rom_mapper.h:190: ERROR: no line number 190 in file E:/Dropbox/FAUSTO/SVILUPPI/MSX/CODE/C/MSXgl/engine/src/rom_mapper.h
    00000F38 21 45 00         [10] 3375 	ld	hl, #0x0045
    00000F3B 22r06r00         [16] 3376 	ld	((_g_Bank0Segment + 6)), hl
                                   3377 ;E:/Dropbox/FAUSTO/SVILUPPI/MSX/CODE/C/MSXgl/engine/src/rom_mapper.h:191: ERROR: no line number 191 in file E:/Dropbox/FAUSTO/SVILUPPI/MSX/CODE/C/MSXgl/engine/src/rom_mapper.h
    00000F3E 3E 11            [ 7] 3378 	ld	a, #0x11
    00000F40 E6 C0            [ 7] 3379 	and	a, #0xc0
                                   3380 ;E:/Dropbox/FAUSTO/SVILUPPI/MSX/CODE/C/MSXgl/engine/src/system.h:101: ERROR: no line number 101 in file E:/Dropbox/FAUSTO/SVILUPPI/MSX/CODE/C/MSXgl/engine/src/system.h
    00000F42 32 FE 7F         [13] 3381 	ld	(#0x7ffe),a
                                   3382 ;E:/Dropbox/FAUSTO/SVILUPPI/MSX/CODE/C/MSXgl/engine/src/rom_mapper.h:195: ERROR: no line number 195 in file E:/Dropbox/FAUSTO/SVILUPPI/MSX/CODE/C/MSXgl/engine/src/rom_mapper.h
    00000F45 3E 45            [ 7] 3383 	ld	a, #0x45
                                   3384 ;E:/Dropbox/FAUSTO/SVILUPPI/MSX/CODE/C/MSXgl/engine/src/system.h:101: ERROR: no line number 101 in file E:/Dropbox/FAUSTO/SVILUPPI/MSX/CODE/C/MSXgl/engine/src/system.h
    00000F47 32 00 B0         [13] 3385 	ld	(#0xb000),a
                                   3386 ;./soccerlg.c:574: ERROR: no line number 574 in file ./soccerlg.c
    00000F4A CDr00r00         [17] 3387 	call	_ayFX_Update
                                   3388 ;./soccerlg.c:575: ERROR: no line number 575 in file ./soccerlg.c
    00000F4D CDr00r00         [17] 3389 	call	_PSG_Apply
                                   3390 ;./soccerlg.c:576: ERROR: no line number 576 in file ./soccerlg.c
    00000F50 DD 4E FF         [19] 3391 	ld	c, -1 (ix)
    00000F53 06 00            [ 7] 3392 	ld	b, #0x00
                                   3393 ;E:/Dropbox/FAUSTO/SVILUPPI/MSX/CODE/C/MSXgl/engine/src/rom_mapper.h:190: ERROR: no line number 190 in file E:/Dropbox/FAUSTO/SVILUPPI/MSX/CODE/C/MSXgl/engine/src/rom_mapper.h
    00000F55 ED 43r06r00      [20] 3394 	ld	((_g_Bank0Segment + 6)), bc
                                   3395 ;E:/Dropbox/FAUSTO/SVILUPPI/MSX/CODE/C/MSXgl/engine/src/rom_mapper.h:191: ERROR: no line number 191 in file E:/Dropbox/FAUSTO/SVILUPPI/MSX/CODE/C/MSXgl/engine/src/rom_mapper.h
    00000F59 59               [ 4] 3396 	ld	e, c
    00000F5A 50               [ 4] 3397 	ld	d, b
    00000F5B CB 3A            [ 8] 3398 	srl	d
    00000F5D CB 1B            [ 8] 3399 	rr	e
    00000F5F CB 3A            [ 8] 3400 	srl	d
    00000F61 CB 1B            [ 8] 3401 	rr	e
    00000F63 7B               [ 4] 3402 	ld	a, e
    00000F64 E6 C0            [ 7] 3403 	and	a, #0xc0
                                   3404 ;E:/Dropbox/FAUSTO/SVILUPPI/MSX/CODE/C/MSXgl/engine/src/system.h:101: ERROR: no line number 101 in file E:/Dropbox/FAUSTO/SVILUPPI/MSX/CODE/C/MSXgl/engine/src/system.h
    00000F66 32 FE 7F         [13] 3405 	ld	(#0x7ffe),a
                                   3406 ;E:/Dropbox/FAUSTO/SVILUPPI/MSX/CODE/C/MSXgl/engine/src/rom_mapper.h:195: ERROR: no line number 195 in file E:/Dropbox/FAUSTO/SVILUPPI/MSX/CODE/C/MSXgl/engine/src/rom_mapper.h
                                   3407 ;E:/Dropbox/FAUSTO/SVILUPPI/MSX/CODE/C/MSXgl/engine/src/system.h:101: ERROR: no line number 101 in file E:/Dropbox/FAUSTO/SVILUPPI/MSX/CODE/C/MSXgl/engine/src/system.h
    00000F69 21 00 B0         [10] 3408 	ld	hl, #0xb000
    00000F6C 71               [ 7] 3409 	ld	(hl), c
                                   3410 ;./soccerlg.c:576: ERROR: no line number 576 in file ./soccerlg.c
    00000F6D                       3411 00155$:
                                   3412 ;./soccerlg.c:579: ERROR: no line number 579 in file ./soccerlg.c
    00000F6D 33               [ 6] 3413 	inc	sp
    00000F6E DD E1            [14] 3414 	pop	ix
    00000F70 C9               [10] 3415 	ret
                                   3416 ;./soccerlg.c:583: ERROR: no line number 583 in file ./soccerlg.c
                                   3417 ;	---------------------------------
                                   3418 ; Function main
                                   3419 ; ---------------------------------
    00000F71                       3420 _main::
                                   3421 ;./soccerlg.c:584: ERROR: no line number 584 in file ./soccerlg.c
    00000F71 01rC8r0E         [10] 3422 	ld	bc, #_InterruptHook
                                   3423 ;E:/Dropbox/FAUSTO/SVILUPPI/MSX/CODE/C/MSXgl/engine/src/bios_hook.h:37: ERROR: no line number 37 in file E:/Dropbox/FAUSTO/SVILUPPI/MSX/CODE/C/MSXgl/engine/src/bios_hook.h
    00000F74 21 9A FD         [10] 3424 	ld	hl, #0xfd9a
    00000F77 36 C3            [10] 3425 	ld	(hl), #0xc3
                                   3426 ;E:/Dropbox/FAUSTO/SVILUPPI/MSX/CODE/C/MSXgl/engine/src/bios_hook.h:38: ERROR: no line number 38 in file E:/Dropbox/FAUSTO/SVILUPPI/MSX/CODE/C/MSXgl/engine/src/bios_hook.h
    00000F79 ED 43 9B FD      [20] 3427 	ld	(0xfd9b), bc
                                   3428 ;E:/Dropbox/FAUSTO/SVILUPPI/MSX/CODE/C/MSXgl/engine/src/bios_hook.h:62: ERROR: no line number 62 in file E:/Dropbox/FAUSTO/SVILUPPI/MSX/CODE/C/MSXgl/engine/src/bios_hook.h
    00000F7D 2E 9F            [ 7] 3429 	ld	l, #0x9f
    00000F7F 36 C9            [10] 3430 	ld	(hl), #0xc9
                                   3431 ;./soccerlg.c:586: ERROR: no line number 586 in file ./soccerlg.c
    00000F81 21rC1r06         [10] 3432 	ld	hl, #_VGMNotification
    00000F84 CDr00r00         [17] 3433 	call	_VGM_SetNotifyCB
                                   3434 ;E:/Dropbox/FAUSTO/SVILUPPI/MSX/CODE/C/MSXgl/engine/src/rom_mapper.h:190: ERROR: no line number 190 in file E:/Dropbox/FAUSTO/SVILUPPI/MSX/CODE/C/MSXgl/engine/src/rom_mapper.h
    00000F87 21 45 00         [10] 3435 	ld	hl, #0x0045
    00000F8A 22r06r00         [16] 3436 	ld	((_g_Bank0Segment + 6)), hl
                                   3437 ;E:/Dropbox/FAUSTO/SVILUPPI/MSX/CODE/C/MSXgl/engine/src/rom_mapper.h:191: ERROR: no line number 191 in file E:/Dropbox/FAUSTO/SVILUPPI/MSX/CODE/C/MSXgl/engine/src/rom_mapper.h
    00000F8D 3E 11            [ 7] 3438 	ld	a, #0x11
    00000F8F E6 C0            [ 7] 3439 	and	a, #0xc0
                                   3440 ;E:/Dropbox/FAUSTO/SVILUPPI/MSX/CODE/C/MSXgl/engine/src/system.h:101: ERROR: no line number 101 in file E:/Dropbox/FAUSTO/SVILUPPI/MSX/CODE/C/MSXgl/engine/src/system.h
    00000F91 32 FE 7F         [13] 3441 	ld	(#0x7ffe),a
                                   3442 ;E:/Dropbox/FAUSTO/SVILUPPI/MSX/CODE/C/MSXgl/engine/src/rom_mapper.h:195: ERROR: no line number 195 in file E:/Dropbox/FAUSTO/SVILUPPI/MSX/CODE/C/MSXgl/engine/src/rom_mapper.h
    00000F94 3E 45            [ 7] 3443 	ld	a, #0x45
                                   3444 ;E:/Dropbox/FAUSTO/SVILUPPI/MSX/CODE/C/MSXgl/engine/src/system.h:101: ERROR: no line number 101 in file E:/Dropbox/FAUSTO/SVILUPPI/MSX/CODE/C/MSXgl/engine/src/system.h
    00000F96 32 00 B0         [13] 3445 	ld	(#0xb000),a
                                   3446 ;./soccerlg.c:588: ERROR: no line number 588 in file ./soccerlg.c
    00000F99 21r00r00         [10] 3447 	ld	hl, #_g_Data_AYFX_Bank
    00000F9C CDr00r00         [17] 3448 	call	_ayFX_InitBank
                                   3449 ;E:/Dropbox/FAUSTO/SVILUPPI/MSX/CODE/C/MSXgl/engine/src/ayfx/ayfx_player.h:131: ERROR: no line number 131 in file E:/Dropbox/FAUSTO/SVILUPPI/MSX/CODE/C/MSXgl/engine/src/ayfx/ayfx_player.h
    00000F9F 3E 01            [ 7] 3450 	ld	a, #0x01
    00000FA1 32r00r00         [13] 3451 	ld	(#_ayFX_Channel), a
                                   3452 ;E:/Dropbox/FAUSTO/SVILUPPI/MSX/CODE/C/MSXgl/engine/src/ayfx/ayfx_player.h:124: ERROR: no line number 124 in file E:/Dropbox/FAUSTO/SVILUPPI/MSX/CODE/C/MSXgl/engine/src/ayfx/ayfx_player.h
    00000FA4 FD 21r00r00      [14] 3453 	ld	iy, #_ayFX_Mode
    00000FA8 FD 36 00 00      [19] 3454 	ld	0 (iy), #0x00
                                   3455 ;./soccerlg.c:592: ERROR: no line number 592 in file ./soccerlg.c
    00000FAC 11r00r00         [10] 3456 	ld	de, #_MainSub
    00000FAF 3E 04            [ 7] 3457 	ld	a, #0x04
                                   3458 ;./soccerlg.c:593: ERROR: no line number 593 in file ./soccerlg.c
    00000FB1 C3r00r00         [10] 3459 	jp	_CallFnc_VOID
                                   3460 	.area _CODE
                                   3461 	.area _INITIALIZER
    00000000                       3462 __xinit__g_PonPonGirlsAreVisible:
    00000000 01                    3463 	.db #0x01	; 1
    00000001                       3464 __xinit__g_BallIsVisible:
    00000001 01                    3465 	.db #0x01	; 1
    00000002                       3466 __xinit__g_TimeCounter:
    00000002 00 00                 3467 	.dw #0x0000
    00000004                       3468 __xinit__g_LastTimeCounter:
    00000004 00 00                 3469 	.dw #0x0000
    00000006                       3470 __xinit__g_FieldScrollingActionInProgress:
    00000006 FF                    3471 	.db #0xff	; 255
    00000007                       3472 __xinit__g_History1:
    00000007 50 4C 59 3A 20 20 20  3473 	.ascii "PLY:      "
             20 20 20
    00000011 00                    3474 	.db 0x00
    00000012 00                    3475 	.db 0x00
    00000013 00                    3476 	.db 0x00
    00000014 00                    3477 	.db 0x00
    00000015 00                    3478 	.db 0x00
    00000016 00                    3479 	.db 0x00
    00000017 00                    3480 	.db 0x00
    00000018 00                    3481 	.db 0x00
    00000019 00                    3482 	.db 0x00
    0000001A 00                    3483 	.db 0x00
    0000001B                       3484 __xinit__g_History2:
    0000001B 43 50 55 3A 20 20 20  3485 	.ascii "CPU:      "
             20 20 20
    00000025 00                    3486 	.db 0x00
    00000026 00                    3487 	.db 0x00
    00000027 00                    3488 	.db 0x00
    00000028 00                    3489 	.db 0x00
    00000029 00                    3490 	.db 0x00
    0000002A 00                    3491 	.db 0x00
    0000002B 00                    3492 	.db 0x00
    0000002C 00                    3493 	.db 0x00
    0000002D 00                    3494 	.db 0x00
    0000002E 00                    3495 	.db 0x00
    0000002F                       3496 __xinit__g_PcmStartPlaying:
    0000002F 00                    3497 	.db #0x00	; 0
    00000030                       3498 __xinit__g_PmcSoundPlaying:
    00000030 FF                    3499 	.db #0xff	; 255
    00000031                       3500 __xinit__g_CornerKickTargetId:
    00000031 FF                    3501 	.db #0xff	; 255
    00000032                       3502 __xinit__g_CornerKickSide:
    00000032 00                    3503 	.db #0x00	; 0
    00000033                       3504 __xinit__g_ActionCooldown:
    00000033 00                    3505 	.db #0x00	; 0
    00000034                       3506 __xinit__g_ShootCooldown:
    00000034 00                    3507 	.db #0x00	; 0
    00000035                       3508 __xinit__g_GameWith2Players:
    00000035 00                    3509 	.db #0x00	; 0
    00000036                       3510 __xinit__g_GkIsGroundKick:
    00000036 00                    3511 	.db #0x00	; 0
    00000037                       3512 __xinit__g_GkAnimPlayerId:
    00000037 FF                    3513 	.db #0xff	; 255
    00000038                       3514 __xinit__g_GkRecoilY:
    00000038 00                    3515 	.db #0x00	;  0
    00000039                       3516 __xinit__g_GoalKickSide:
    00000039 00                    3517 	.db #0x00	; 0
    0000003A                       3518 __xinit__g_GkAnimTimer:
    0000003A 00                    3519 	.db #0x00	; 0
    0000003B                       3520 __xinit__g_ThrowInPlayerId:
    0000003B FF                    3521 	.db #0xff	; 255
    0000003C                       3522 __xinit__g_GoalScorerId:
    0000003C FF                    3523 	.db #0xff	; 255
    0000003D                       3524 __xinit__g_ponPonPatternIndex:
    0000003D 00                    3525 	.db #0x00	; 0
    0000003E                       3526 __xinit__g_PonPonGrilsPoseCounter:
    0000003E 00                    3527 	.db #0x00	; 0
    0000003F                       3528 __xinit__g_peopleState:
    0000003F 00                    3529 	.db #0x00	; 0
    00000040                       3530 __xinit__g_ponPonGirlsInitailized:
    00000040 00                    3531 	.db #0x00	; 0
    00000041                       3532 __xinit__g_SoundRequest:
    00000041 FF                    3533 	.db #0xff	; 255
    00000042                       3534 __xinit__g_ShotCursorX:
    00000042 78 00                 3535 	.dw #0x0078
    00000044                       3536 __xinit__g_ShotCursorDir:
    00000044 02                    3537 	.db #0x02	;  2
    00000045                       3538 __xinit__g_currentVGMPlayingSegment:
    00000045 FF                    3539 	.db #0xff	; 255
    00000046                       3540 __xinit__g_TimerActive:
    00000046 00                    3541 	.db #0x00	; 0
    00000047                       3542 __xinit__g_VblankSuspended:
    00000047 00                    3543 	.db #0x00	; 0
                                   3544 	.area _CABS (ABS)
