                                      1 ;--------------------------------------------------------
                                      2 ; File Created by SDCC : free open source ANSI-C Compiler
                                      3 ; Version 4.2.0 #13081 (MINGW64)
                                      4 ;--------------------------------------------------------
                                      5 	.module soccerlg_s5_b3
                                      6 	.optsdcc -mz80
                                      7 	
                                      8 ;--------------------------------------------------------
                                      9 ; Public variables in this module
                                     10 ;--------------------------------------------------------
                                     11 	.globl _VGM_Stop
                                     12 	.globl _GetNoMovingPlayerPatternId
                                     13 	.globl _PutBallOnPlayerFeet
                                     14 	.globl _SetPlayerBallPossession
                                     15 	.globl _GetPlayerIdByRole
                                     16 	.globl _PlayAyFx
                                     17 	.globl _GetTeamStats
                                     18 	.globl _V9990_ClearTextFromLayerA
                                     19 	.globl _CallFnc_U8_P1
                                     20 	.globl _CallFnc_U8_P2
                                     21 	.globl _CallFnc_VOID_P1
                                     22 	.globl _V9_WriteVRAM_CurrentAddr
                                     23 	.globl _V9_SetWriteAddress
                                     24 	.globl _Keyboard_IsKeyPressed
                                     25 	.globl _Joystick_Read
                                     26 	.globl _g_SLTSL
                                     27 	.globl _g_GRPACY
                                     28 	.globl _g_GRPACX
                                     29 	.globl _g_LOGOPR
                                     30 	.globl _g_CMASK
                                     31 	.globl _g_CLOC
                                     32 	.globl _g_FNKSTR
                                     33 	.globl _g_ATRBYT
                                     34 	.globl _g_BDRCLR
                                     35 	.globl _g_BAKCLR
                                     36 	.globl _g_FORCLR
                                     37 	.globl _g_CSRX
                                     38 	.globl _g_CSRY
                                     39 	.globl _g_CLIKSW
                                     40 	.globl _g_MLTPAT
                                     41 	.globl _g_MLTATR
                                     42 	.globl _g_MLTCGP
                                     43 	.globl _g_MLTCOL
                                     44 	.globl _g_MLTNAM
                                     45 	.globl _g_GRPPAT
                                     46 	.globl _g_GRPATR
                                     47 	.globl _g_GRPCGP
                                     48 	.globl _g_GRPCOL
                                     49 	.globl _g_GRPNAM
                                     50 	.globl _g_T32PAT
                                     51 	.globl _g_T32ATR
                                     52 	.globl _g_T32CGP
                                     53 	.globl _g_T32COL
                                     54 	.globl _g_T32NAM
                                     55 	.globl _g_TXTPAT
                                     56 	.globl _g_TXTATR
                                     57 	.globl _g_TXTCGP
                                     58 	.globl _g_TXTCOL
                                     59 	.globl _g_TXTNAM
                                     60 	.globl _g_CLMLST
                                     61 	.globl _g_CRTCNT
                                     62 	.globl _g_LINLEN
                                     63 	.globl _g_LINL32
                                     64 	.globl _g_LINL40
                                     65 	.globl _g_BDOS
                                     66 	.globl _g_MASTER
                                     67 	.globl _g_RAMAD3
                                     68 	.globl _g_RAMAD2
                                     69 	.globl _g_RAMAD1
                                     70 	.globl _g_RAMAD0
                                     71 	.globl _g_BREAKV
                                     72 	.globl _g_DISKVE
                                     73 	.globl _g_KANJTABLE
                                     74 	.globl _g_STRSRC
                                     75 	.globl _g_SUBRID
                                     76 	.globl _g_CHAR_16
                                     77 	.globl _g_MSXMID
                                     78 	.globl _g_MSXVER
                                     79 	.globl _g_ROMVersion
                                     80 	.globl _g_BASRVN
                                     81 	.globl _g_VDP_DW
                                     82 	.globl _g_VDP_DR
                                     83 	.globl _g_CGTABL
                                     84 	.globl _g_SVFFFD
                                     85 	.globl _g_RG27SAV
                                     86 	.globl _g_RG26SAV
                                     87 	.globl _g_RG25SAV
                                     88 	.globl _g_SVFFF8
                                     89 	.globl _g_MINROM
                                     90 	.globl _g_RG23SAV
                                     91 	.globl _g_RG22SAV
                                     92 	.globl _g_RG21SAV
                                     93 	.globl _g_RG20SAV
                                     94 	.globl _g_RG19SAV
                                     95 	.globl _g_RG18SAV
                                     96 	.globl _g_RG17SAV
                                     97 	.globl _g_RG16SAV
                                     98 	.globl _g_RG15SAV
                                     99 	.globl _g_RG14SAV
                                    100 	.globl _g_RG13SAV
                                    101 	.globl _g_RG12SAV
                                    102 	.globl _g_RG11SAV
                                    103 	.globl _g_RG10SAV
                                    104 	.globl _g_RG09SAV
                                    105 	.globl _g_RG08SAV
                                    106 	.globl _g_PROCNM
                                    107 	.globl _g_SLTWRK
                                    108 	.globl _g_SLTATR
                                    109 	.globl _g_SLTTBL
                                    110 	.globl _g_EXPTBL
                                    111 	.globl _g_MNROM
                                    112 	.globl _g_DRWANG
                                    113 	.globl _g_DRWSCL
                                    114 	.globl _g_DRWFLG
                                    115 	.globl _g_GYPOS
                                    116 	.globl _g_GXPOS
                                    117 	.globl _g_BRDATR
                                    118 	.globl _g_CASPRV
                                    119 	.globl _g_OLDSCR
                                    120 	.globl _g_SCRMOD
                                    121 	.globl _g_FLBMEM
                                    122 	.globl _g_KANAMD
                                    123 	.globl _g_KANAST
                                    124 	.globl _g_CAPST
                                    125 	.globl _g_CSTYLE
                                    126 	.globl _g_CSRSW
                                    127 	.globl _g_INSFLG
                                    128 	.globl _g_ESCCNT
                                    129 	.globl _g_GRPHED
                                    130 	.globl _g_WINWID
                                    131 	.globl _g_LOWLIM
                                    132 	.globl _g_INTCNT
                                    133 	.globl _g_INTVAL
                                    134 	.globl _g_JIFFY
                                    135 	.globl _g_PADX
                                    136 	.globl _g_PADY
                                    137 	.globl _g_INTFLG
                                    138 	.globl _g_RTYCNT
                                    139 	.globl _g_TRPTBL
                                    140 	.globl _g_HIMEM
                                    141 	.globl _g_BOTTOM
                                    142 	.globl _g_PATWRK
                                    143 	.globl _g_LINWRK
                                    144 	.globl _g_KEYBUF
                                    145 	.globl _g_NEWKEY
                                    146 	.globl _g_OLDKEY
                                    147 	.globl _g_CLIKFL
                                    148 	.globl _g_ONGSBF
                                    149 	.globl _g_FNKFLG
                                    150 	.globl _g_FNKSWI
                                    151 	.globl _g_CODSAV
                                    152 	.globl _g_FSTPOS
                                    153 	.globl _g_LINTTB
                                    154 	.globl _g_BASROM
                                    155 	.globl _g_ENSTOP
                                    156 	.globl _g_VCBC
                                    157 	.globl _g_VCBB
                                    158 	.globl _g_VCBA
                                    159 	.globl _g_PLYCNT
                                    160 	.globl _g_MUSICF
                                    161 	.globl _g_QUEUEN
                                    162 	.globl _g_MCLPTR
                                    163 	.globl _g_MCLLEN
                                    164 	.globl _g_SAVVOL
                                    165 	.globl _g_VOICEN
                                    166 	.globl _g_SAVSP
                                    167 	.globl _g_PRSCNT
                                    168 	.globl _g_LSTMOD
                                    169 	.globl _g_LSTCOM
                                    170 	.globl _g_COMMSK
                                    171 	.globl _g_ESTBLS
                                    172 	.globl _g_FLAGS
                                    173 	.globl _g_ERRORS
                                    174 	.globl _g_DATCNT
                                    175 	.globl _g_DEVNUM
                                    176 	.globl _g_OLDINT
                                    177 	.globl _g_OLDSTT
                                    178 	.globl _g_MEXBIh
                                    179 	.globl _g_RSIQLN
                                    180 	.globl _g_RSFCB
                                    181 	.globl _g_TOCNT
                                    182 	.globl _g_RSTMP
                                    183 	.globl _g_YSAVE
                                    184 	.globl _g_XSAVE
                                    185 	.globl _g_NORUSE
                                    186 	.globl _g_MODE
                                    187 	.globl _g_ROMA
                                    188 	.globl _g_CHRCNT
                                    189 	.globl _g_EXBRSA
                                    190 	.globl _g_AVCSAV
                                    191 	.globl _g_ACPAGE
                                    192 	.globl _g_DPPAGE
                                    193 	.globl _g_RS2IQ
                                    194 	.globl _g_VOICCQ
                                    195 	.globl _g_VOICBQ
                                    196 	.globl _g_VOICAQ
                                    197 	.globl _g_QUEBAK
                                    198 	.globl _g_QUETAB
                                    199 	.globl _g_ASPCT2
                                    200 	.globl _g_ASPCT1
                                    201 	.globl _g_HEADER
                                    202 	.globl _g_HIGH
                                    203 	.globl _g_LOW
                                    204 	.globl _g_CS240
                                    205 	.globl _g_CS120
                                    206 	.globl _g_GETPNT
                                    207 	.globl _g_PUTPNT
                                    208 	.globl _g_REPCNT
                                    209 	.globl _g_SCNCNT
                                    210 	.globl _g_FRCNEW
                                    211 	.globl _g_QUEUES
                                    212 	.globl _g_MINUPD
                                    213 	.globl _g_MAXUPD
                                    214 	.globl _g_TRGFLG
                                    215 	.globl _g_STATFL
                                    216 	.globl _g_RG7SAV
                                    217 	.globl _g_RG6SAV
                                    218 	.globl _g_RG5SAV
                                    219 	.globl _g_RG4SAV
                                    220 	.globl _g_RG3SAV
                                    221 	.globl _g_RG2SAV
                                    222 	.globl _g_RG1SAV
                                    223 	.globl _g_RG0SAV
                                    224 	.globl _g_CNSDFG
                                    225 	.globl _g_USRTAB
                                    226 	.globl _g_CLPRIM
                                    227 	.globl _g_WRPRIM
                                    228 	.globl _g_RDPRIM
                                    229 	.globl _IsJoystickTriggerPressed
                                    230 	.globl _PerformPass
                                    231 	.globl _IsOffside
                                    232 	.globl _TickGoalKick
                                    233 	.globl _GoalkeeperWithBall
                                    234 	.globl _TickPlayerToOwnTarget
                                    235 	.globl _PutPlayerSprite
                                    236 	.globl _UpdatePlayerPatternByDirection
                                    237 	.globl _GetPatternIdByPoseAndDirection
                                    238 ;--------------------------------------------------------
                                    239 ; special function registers
                                    240 ;--------------------------------------------------------
                         000000A8   241 _g_PortPrimarySlot	=	0x00a8
                         000000A9   242 _g_PortReadKeyboard	=	0x00a9
                         000000AA   243 _g_PortAccessKeyboard	=	0x00aa
                         000000AB   244 _g_PortControl	=	0x00ab
                         00000098   245 _g_VDP_DataPort	=	0x0098
                         00000099   246 _g_VDP_RegPort	=	0x0099
                         00000099   247 _g_VDP_AddrPort	=	0x0099
                         00000099   248 _g_VDP_StatPort	=	0x0099
                         000000A0   249 _g_PSG_RegPort	=	0x00a0
                         000000A1   250 _g_PSG_DataPort	=	0x00a1
                         000000A2   251 _g_PSG_StatPort	=	0x00a2
                         00000010   252 _g_PSG_Ext_RegPort	=	0x0010
                         00000011   253 _g_PSG_Ext_DataPort	=	0x0011
                         00000012   254 _g_PSG_Ext_StatPort	=	0x0012
                         0000007C   255 _g_MSXMusic_IndexPort	=	0x007c
                         0000007D   256 _g_MSXMusic_DataPort	=	0x007d
                         000000C0   257 _g_MSXAudio_IndexPort	=	0x00c0
                         000000C1   258 _g_MSXAudio_DataPort	=	0x00c1
                         000000C2   259 _g_MSXAudio_IndexPort2	=	0x00c2
                         000000C3   260 _g_MSXAudio_DataPort2	=	0x00c3
                         000000B4   261 _g_RTC_AddrPort	=	0x00b4
                         000000B5   262 _g_RTC_DataPort	=	0x00b5
                         00000060   263 _g_V9_VRAMPort	=	0x0060
                         00000061   264 _g_V9_PalettePort	=	0x0061
                         00000062   265 _g_V9_CmdDataPort	=	0x0062
                         00000063   266 _g_V9_RegDataPort	=	0x0063
                         00000064   267 _g_V9_RegSelectPort	=	0x0064
                         00000065   268 _g_V9_SatusPort	=	0x0065
                         00000066   269 _g_V9_IntFlagPort	=	0x0066
                         00000067   270 _g_V9_SysCtrlPort	=	0x0067
                         00000068   271 _g_V9_KanjiAddrLPort	=	0x0068
                         00000069   272 _g_V9_KanjiAddrHPort	=	0x0069
                         00000069   273 _g_V9_KanjiDataPort	=	0x0069
                         0000006A   274 _g_V9_Kanji2AddrLPort	=	0x006a
                         0000006B   275 _g_V9_Kanji2AddrHPort	=	0x006b
                         0000006B   276 _g_V9_Kanji2DataPort	=	0x006b
                         0000006F   277 _g_V9_OutputCtrPort	=	0x006f
                                    278 ;--------------------------------------------------------
                                    279 ; ram data
                                    280 ;--------------------------------------------------------
                                    281 	.area _DATA
                         0000F3AE   282 _g_LINL40	=	0xf3ae
                         0000F3AF   283 _g_LINL32	=	0xf3af
                         0000F3B0   284 _g_LINLEN	=	0xf3b0
                         0000F3B1   285 _g_CRTCNT	=	0xf3b1
                         0000F3B2   286 _g_CLMLST	=	0xf3b2
                         0000F3B3   287 _g_TXTNAM	=	0xf3b3
                         0000F3B5   288 _g_TXTCOL	=	0xf3b5
                         0000F3B7   289 _g_TXTCGP	=	0xf3b7
                         0000F3B9   290 _g_TXTATR	=	0xf3b9
                         0000F3BB   291 _g_TXTPAT	=	0xf3bb
                         0000F3BD   292 _g_T32NAM	=	0xf3bd
                         0000F3BF   293 _g_T32COL	=	0xf3bf
                         0000F3C1   294 _g_T32CGP	=	0xf3c1
                         0000F3C3   295 _g_T32ATR	=	0xf3c3
                         0000F3C5   296 _g_T32PAT	=	0xf3c5
                         0000F3C7   297 _g_GRPNAM	=	0xf3c7
                         0000F3C9   298 _g_GRPCOL	=	0xf3c9
                         0000F3CB   299 _g_GRPCGP	=	0xf3cb
                         0000F3CD   300 _g_GRPATR	=	0xf3cd
                         0000F3CF   301 _g_GRPPAT	=	0xf3cf
                         0000F3D1   302 _g_MLTNAM	=	0xf3d1
                         0000F3D3   303 _g_MLTCOL	=	0xf3d3
                         0000F3D5   304 _g_MLTCGP	=	0xf3d5
                         0000F3D7   305 _g_MLTATR	=	0xf3d7
                         0000F3D9   306 _g_MLTPAT	=	0xf3d9
                         0000F3DB   307 _g_CLIKSW	=	0xf3db
                         0000F3DC   308 _g_CSRY	=	0xf3dc
                         0000F3DD   309 _g_CSRX	=	0xf3dd
                         0000F3E9   310 _g_FORCLR	=	0xf3e9
                         0000F3EA   311 _g_BAKCLR	=	0xf3ea
                         0000F3EB   312 _g_BDRCLR	=	0xf3eb
                         0000F3F2   313 _g_ATRBYT	=	0xf3f2
                         0000F87F   314 _g_FNKSTR	=	0xf87f
                         0000F92A   315 _g_CLOC	=	0xf92a
                         0000F92C   316 _g_CMASK	=	0xf92c
                         0000FB02   317 _g_LOGOPR	=	0xfb02
                         0000FCB7   318 _g_GRPACX	=	0xfcb7
                         0000FCB9   319 _g_GRPACY	=	0xfcb9
                         0000FFFF   320 _g_SLTSL	=	0xffff
    00000000                        321 _TickGoalKick_s_SafetyTimeout_65537_1249:
    00000000                        322 	.ds 2
    00000002                        323 _TickGoalKick_s_SetupDone_65537_1249:
    00000002                        324 	.ds 1
    00000003                        325 _TickPlayerToOwnTarget_s_GkMoveTick_131072_1305:
    00000003                        326 	.ds 1
                                    327 ;--------------------------------------------------------
                                    328 ; ram data
                                    329 ;--------------------------------------------------------
                                    330 	.area _INITIALIZED
                                    331 ;--------------------------------------------------------
                                    332 ; absolute external ram data
                                    333 ;--------------------------------------------------------
                                    334 	.area _DABS (ABS)
                                    335 ;--------------------------------------------------------
                                    336 ; global & static initialisations
                                    337 ;--------------------------------------------------------
                                    338 	.area _HOME
                                    339 	.area _GSINIT
                                    340 	.area _GSFINAL
                                    341 	.area _GSINIT
                                    342 ;E:\Dropbox\FAUSTO\SVILUPPI\MSX\CODE\C\MSXgl\projects\soccerlgSCC/soccerlg_s5_b3.c:191: static u16 s_SafetyTimeout = 0;
    00000000 21 00 00         [10]  343 	ld	hl, #0x0000
    00000003 22r00r00         [16]  344 	ld	(_TickGoalKick_s_SafetyTimeout_65537_1249), hl
                                    345 ;E:\Dropbox\FAUSTO\SVILUPPI\MSX\CODE\C\MSXgl\projects\soccerlgSCC/soccerlg_s5_b3.c:192: static bool s_SetupDone = false;
    00000006 FD 21r02r00      [14]  346 	ld	iy, #_TickGoalKick_s_SetupDone_65537_1249
    0000000A FD 36 00 00      [19]  347 	ld	0 (iy), #0x00
                                    348 ;E:\Dropbox\FAUSTO\SVILUPPI\MSX\CODE\C\MSXgl\projects\soccerlgSCC/soccerlg_s5_b3.c:485: static u8 s_GkMoveTick = 0;
    0000000E FD 21r03r00      [14]  349 	ld	iy, #_TickPlayerToOwnTarget_s_GkMoveTick_131072_1305
    00000012 FD 36 00 00      [19]  350 	ld	0 (iy), #0x00
                                    351 ;--------------------------------------------------------
                                    352 ; Home
                                    353 ;--------------------------------------------------------
                                    354 	.area _HOME
                                    355 	.area _HOME
                                    356 ;--------------------------------------------------------
                                    357 ; code
                                    358 ;--------------------------------------------------------
                                    359 	.area _SEG5
                                    360 ;E:\Dropbox\FAUSTO\SVILUPPI\MSX\CODE\C\MSXgl\projects\soccerlgSCC/soccerlg_s5_b3.c:25: bool IsJoystickTriggerPressed(){
                                    361 ;	---------------------------------
                                    362 ; Function IsJoystickTriggerPressed
                                    363 ; ---------------------------------
    00000000                        364 _IsJoystickTriggerPressed::
                                    365 ;E:\Dropbox\FAUSTO\SVILUPPI\MSX\CODE\C\MSXgl\projects\soccerlgSCC/soccerlg_s5_b3.c:26: u8 joyStat = Joystick_Read(JOY_PORT_1);
    00000000 2E 0F            [ 7]  366 	ld	l, #0x0f
                                    367 ;	spillPairReg hl
                                    368 ;	spillPairReg hl
    00000002 CDr00r00         [17]  369 	call	_Joystick_Read
                                    370 ;E:\Dropbox\FAUSTO\SVILUPPI\MSX\CODE\C\MSXgl\projects\soccerlgSCC/soccerlg_s5_b3.c:27: if (IS_JOY_PRESSED(joyStat, JOY_INPUT_TRIGGER_A))
    00000005 CB 65            [ 8]  371 	bit	4, l
    00000007 20 03            [12]  372 	jr	NZ, 00102$
                                    373 ;E:\Dropbox\FAUSTO\SVILUPPI\MSX\CODE\C\MSXgl\projects\soccerlgSCC/soccerlg_s5_b3.c:29: return TRUE;
    00000009 3E 01            [ 7]  374 	ld	a, #0x01
    0000000B C9               [10]  375 	ret
    0000000C                        376 00102$:
                                    377 ;E:\Dropbox\FAUSTO\SVILUPPI\MSX\CODE\C\MSXgl\projects\soccerlgSCC/soccerlg_s5_b3.c:32: if(Keyboard_IsKeyPressed(KEY_SPACE))
    0000000C 3E 08            [ 7]  378 	ld	a, #0x08
    0000000E CDr00r00         [17]  379 	call	_Keyboard_IsKeyPressed
    00000011 B7               [ 4]  380 	or	a, a
                                    381 ;E:\Dropbox\FAUSTO\SVILUPPI\MSX\CODE\C\MSXgl\projects\soccerlgSCC/soccerlg_s5_b3.c:34: return TRUE;
                                    382 ;E:\Dropbox\FAUSTO\SVILUPPI\MSX\CODE\C\MSXgl\projects\soccerlgSCC/soccerlg_s5_b3.c:36: return FALSE;
    00000012 3E 01            [ 7]  383 	ld	a, #0x01
    00000014 C0               [11]  384 	ret	NZ
    00000015 AF               [ 4]  385 	xor	a, a
                                    386 ;E:\Dropbox\FAUSTO\SVILUPPI\MSX\CODE\C\MSXgl\projects\soccerlgSCC/soccerlg_s5_b3.c:37: }
    00000016 C9               [10]  387 	ret
                         0000F380   388 _g_RDPRIM	=	0xf380
                         0000F385   389 _g_WRPRIM	=	0xf385
                         0000F38C   390 _g_CLPRIM	=	0xf38c
                         0000F39A   391 _g_USRTAB	=	0xf39a
                         0000F3DE   392 _g_CNSDFG	=	0xf3de
                         0000F3DF   393 _g_RG0SAV	=	0xf3df
                         0000F3E0   394 _g_RG1SAV	=	0xf3e0
                         0000F3E1   395 _g_RG2SAV	=	0xf3e1
                         0000F3E2   396 _g_RG3SAV	=	0xf3e2
                         0000F3E3   397 _g_RG4SAV	=	0xf3e3
                         0000F3E4   398 _g_RG5SAV	=	0xf3e4
                         0000F3E5   399 _g_RG6SAV	=	0xf3e5
                         0000F3E6   400 _g_RG7SAV	=	0xf3e6
                         0000F3E7   401 _g_STATFL	=	0xf3e7
                         0000F3E8   402 _g_TRGFLG	=	0xf3e8
                         0000F3EC   403 _g_MAXUPD	=	0xf3ec
                         0000F3EF   404 _g_MINUPD	=	0xf3ef
                         0000F3F3   405 _g_QUEUES	=	0xf3f3
                         0000F3F5   406 _g_FRCNEW	=	0xf3f5
                         0000F3F6   407 _g_SCNCNT	=	0xf3f6
                         0000F3F7   408 _g_REPCNT	=	0xf3f7
                         0000F3F8   409 _g_PUTPNT	=	0xf3f8
                         0000F3FA   410 _g_GETPNT	=	0xf3fa
                         0000F3FC   411 _g_CS120	=	0xf3fc
                         0000F401   412 _g_CS240	=	0xf401
                         0000F406   413 _g_LOW	=	0xf406
                         0000F408   414 _g_HIGH	=	0xf408
                         0000F40A   415 _g_HEADER	=	0xf40a
                         0000F40B   416 _g_ASPCT1	=	0xf40b
                         0000F40D   417 _g_ASPCT2	=	0xf40d
                         0000F959   418 _g_QUETAB	=	0xf959
                         0000F971   419 _g_QUEBAK	=	0xf971
                         0000F975   420 _g_VOICAQ	=	0xf975
                         0000F9F5   421 _g_VOICBQ	=	0xf9f5
                         0000FA75   422 _g_VOICCQ	=	0xfa75
                         0000FAF5   423 _g_RS2IQ	=	0xfaf5
                         0000FAF5   424 _g_DPPAGE	=	0xfaf5
                         0000FAF6   425 _g_ACPAGE	=	0xfaf6
                         0000FAF7   426 _g_AVCSAV	=	0xfaf7
                         0000FAF8   427 _g_EXBRSA	=	0xfaf8
                         0000FAF9   428 _g_CHRCNT	=	0xfaf9
                         0000FAFA   429 _g_ROMA	=	0xfafa
                         0000FAFC   430 _g_MODE	=	0xfafc
                         0000FAFD   431 _g_NORUSE	=	0xfafd
                         0000FAFE   432 _g_XSAVE	=	0xfafe
                         0000FB00   433 _g_YSAVE	=	0xfb00
                         0000FB03   434 _g_RSTMP	=	0xfb03
                         0000FB03   435 _g_TOCNT	=	0xfb03
                         0000FB04   436 _g_RSFCB	=	0xfb04
                         0000FB06   437 _g_RSIQLN	=	0xfb06
                         0000FB07   438 _g_MEXBIh	=	0xfb07
                         0000FB0C   439 _g_OLDSTT	=	0xfb0c
                         0000FB0C   440 _g_OLDINT	=	0xfb0c
                         0000FB16   441 _g_DEVNUM	=	0xfb16
                         0000FB17   442 _g_DATCNT	=	0xfb17
                         0000FB1A   443 _g_ERRORS	=	0xfb1a
                         0000FB1B   444 _g_FLAGS	=	0xfb1b
                         0000FB1C   445 _g_ESTBLS	=	0xfb1c
                         0000FB1D   446 _g_COMMSK	=	0xfb1d
                         0000FB1E   447 _g_LSTCOM	=	0xfb1e
                         0000FB1F   448 _g_LSTMOD	=	0xfb1f
                         0000FB35   449 _g_PRSCNT	=	0xfb35
                         0000FB36   450 _g_SAVSP	=	0xfb36
                         0000FB38   451 _g_VOICEN	=	0xfb38
                         0000FB39   452 _g_SAVVOL	=	0xfb39
                         0000FB3B   453 _g_MCLLEN	=	0xfb3b
                         0000FB3C   454 _g_MCLPTR	=	0xfb3c
                         0000FB3E   455 _g_QUEUEN	=	0xfb3e
                         0000FB3F   456 _g_MUSICF	=	0xfb3f
                         0000FB40   457 _g_PLYCNT	=	0xfb40
                         0000FB41   458 _g_VCBA	=	0xfb41
                         0000FB66   459 _g_VCBB	=	0xfb66
                         0000FB8B   460 _g_VCBC	=	0xfb8b
                         0000FBB0   461 _g_ENSTOP	=	0xfbb0
                         0000FBB1   462 _g_BASROM	=	0xfbb1
                         0000FBB2   463 _g_LINTTB	=	0xfbb2
                         0000FBCA   464 _g_FSTPOS	=	0xfbca
                         0000FBCC   465 _g_CODSAV	=	0xfbcc
                         0000FBCD   466 _g_FNKSWI	=	0xfbcd
                         0000FBCE   467 _g_FNKFLG	=	0xfbce
                         0000FBD8   468 _g_ONGSBF	=	0xfbd8
                         0000FBD9   469 _g_CLIKFL	=	0xfbd9
                         0000FBDA   470 _g_OLDKEY	=	0xfbda
                         0000FBE5   471 _g_NEWKEY	=	0xfbe5
                         0000FBF0   472 _g_KEYBUF	=	0xfbf0
                         0000FC18   473 _g_LINWRK	=	0xfc18
                         0000FC40   474 _g_PATWRK	=	0xfc40
                         0000FC48   475 _g_BOTTOM	=	0xfc48
                         0000FC4A   476 _g_HIMEM	=	0xfc4a
                         0000FC4C   477 _g_TRPTBL	=	0xfc4c
                         0000FC9A   478 _g_RTYCNT	=	0xfc9a
                         0000FC9B   479 _g_INTFLG	=	0xfc9b
                         0000FC9C   480 _g_PADY	=	0xfc9c
                         0000FC9D   481 _g_PADX	=	0xfc9d
                         0000FC9E   482 _g_JIFFY	=	0xfc9e
                         0000FCA0   483 _g_INTVAL	=	0xfca0
                         0000FCA2   484 _g_INTCNT	=	0xfca2
                         0000FCA4   485 _g_LOWLIM	=	0xfca4
                         0000FCA5   486 _g_WINWID	=	0xfca5
                         0000FCA6   487 _g_GRPHED	=	0xfca6
                         0000FCA7   488 _g_ESCCNT	=	0xfca7
                         0000FCA8   489 _g_INSFLG	=	0xfca8
                         0000FCA9   490 _g_CSRSW	=	0xfca9
                         0000FCAA   491 _g_CSTYLE	=	0xfcaa
                         0000FCAB   492 _g_CAPST	=	0xfcab
                         0000FCAC   493 _g_KANAST	=	0xfcac
                         0000FCAD   494 _g_KANAMD	=	0xfcad
                         0000FCAE   495 _g_FLBMEM	=	0xfcae
                         0000FCAF   496 _g_SCRMOD	=	0xfcaf
                         0000FCB0   497 _g_OLDSCR	=	0xfcb0
                         0000FCB1   498 _g_CASPRV	=	0xfcb1
                         0000FCB2   499 _g_BRDATR	=	0xfcb2
                         0000FCB3   500 _g_GXPOS	=	0xfcb3
                         0000FCB5   501 _g_GYPOS	=	0xfcb5
                         0000FCBB   502 _g_DRWFLG	=	0xfcbb
                         0000FCBC   503 _g_DRWSCL	=	0xfcbc
                         0000FCBD   504 _g_DRWANG	=	0xfcbd
                         0000FCC1   505 _g_MNROM	=	0xfcc1
                         0000FCC1   506 _g_EXPTBL	=	0xfcc1
                         0000FCC5   507 _g_SLTTBL	=	0xfcc5
                         0000FCC9   508 _g_SLTATR	=	0xfcc9
                         0000FD09   509 _g_SLTWRK	=	0xfd09
                         0000FD89   510 _g_PROCNM	=	0xfd89
                         0000FFE7   511 _g_RG08SAV	=	0xffe7
                         0000FFE8   512 _g_RG09SAV	=	0xffe8
                         0000FFE9   513 _g_RG10SAV	=	0xffe9
                         0000FFEA   514 _g_RG11SAV	=	0xffea
                         0000FFEB   515 _g_RG12SAV	=	0xffeb
                         0000FFEC   516 _g_RG13SAV	=	0xffec
                         0000FFED   517 _g_RG14SAV	=	0xffed
                         0000FFEE   518 _g_RG15SAV	=	0xffee
                         0000FFEF   519 _g_RG16SAV	=	0xffef
                         0000FFF0   520 _g_RG17SAV	=	0xfff0
                         0000FFF1   521 _g_RG18SAV	=	0xfff1
                         0000FFF2   522 _g_RG19SAV	=	0xfff2
                         0000FFF3   523 _g_RG20SAV	=	0xfff3
                         0000FFF4   524 _g_RG21SAV	=	0xfff4
                         0000FFF5   525 _g_RG22SAV	=	0xfff5
                         0000FFF6   526 _g_RG23SAV	=	0xfff6
                         0000FFF7   527 _g_MINROM	=	0xfff7
                         0000FFF8   528 _g_SVFFF8	=	0xfff8
                         0000FFFA   529 _g_RG25SAV	=	0xfffa
                         0000FFFB   530 _g_RG26SAV	=	0xfffb
                         0000FFFC   531 _g_RG27SAV	=	0xfffc
                         0000FFFD   532 _g_SVFFFD	=	0xfffd
                         00000004   533 _g_CGTABL	=	0x0004
                         00000006   534 _g_VDP_DR	=	0x0006
                         00000007   535 _g_VDP_DW	=	0x0007
                         0000002B   536 _g_BASRVN	=	0x002b
                         0000002B   537 _g_ROMVersion	=	0x002b
                         0000002D   538 _g_MSXVER	=	0x002d
                         0000002E   539 _g_MSXMID	=	0x002e
                         00000034   540 _g_CHAR_16	=	0x0034
                         00000000   541 _g_SUBRID	=	0x0000
                         00000002   542 _g_STRSRC	=	0x0002
                         0000F30F   543 _g_KANJTABLE	=	0xf30f
                         0000F323   544 _g_DISKVE	=	0xf323
                         0000F325   545 _g_BREAKV	=	0xf325
                         0000F341   546 _g_RAMAD0	=	0xf341
                         0000F342   547 _g_RAMAD1	=	0xf342
                         0000F343   548 _g_RAMAD2	=	0xf343
                         0000F344   549 _g_RAMAD3	=	0xf344
                         0000F348   550 _g_MASTER	=	0xf348
                         0000F37D   551 _g_BDOS	=	0xf37d
                                    552 ;E:\Dropbox\FAUSTO\SVILUPPI\MSX\CODE\C\MSXgl\projects\soccerlgSCC/soccerlg_s5_b3.c:39: void PerformPass(u8 toPlayerId) {
                                    553 ;	---------------------------------
                                    554 ; Function PerformPass
                                    555 ; ---------------------------------
    00000017                        556 _PerformPass::
    00000017 DD E5            [15]  557 	push	ix
    00000019 DD 21 00 00      [14]  558 	ld	ix,#0
    0000001D DD 39            [15]  559 	add	ix,sp
    0000001F 21 EB FF         [10]  560 	ld	hl, #-21
    00000022 39               [11]  561 	add	hl, sp
    00000023 F9               [ 6]  562 	ld	sp, hl
    00000024 DD 77 FF         [19]  563 	ld	-1 (ix), a
                                    564 ;E:\Dropbox\FAUSTO\SVILUPPI\MSX\CODE\C\MSXgl\projects\soccerlgSCC/soccerlg_s5_b3.c:41: u8 fromId = g_Ball.PossessionPlayerId;
    00000027 3Ar06r00         [13]  565 	ld	a, (#(_g_Ball + 6) + 0)
                                    566 ;E:\Dropbox\FAUSTO\SVILUPPI\MSX\CODE\C\MSXgl\projects\soccerlgSCC/soccerlg_s5_b3.c:45: if (fromId == NO_VALUE) return;
    0000002A DD 77 FE         [19]  567 	ld	-2 (ix), a
    0000002D 3C               [ 4]  568 	inc	a
    0000002E CArE7r03         [10]  569 	jp	Z,00155$
    00000031 C3r34r00         [10]  570 	jp	00102$
    00000034                        571 00102$:
                                    572 ;E:\Dropbox\FAUSTO\SVILUPPI\MSX\CODE\C\MSXgl\projects\soccerlgSCC/soccerlg_s5_b3.c:46: if (toPlayerId == NO_VALUE) return;
    00000034 DD 7E FF         [19]  573 	ld	a, -1 (ix)
    00000037 3C               [ 4]  574 	inc	a
    00000038 CArE7r03         [10]  575 	jp	Z,00155$
    0000003B C3r3Er00         [10]  576 	jp	00104$
    0000003E                        577 00104$:
                                    578 ;E:\Dropbox\FAUSTO\SVILUPPI\MSX\CODE\C\MSXgl\projects\soccerlgSCC/soccerlg_s5_b3.c:49: if (g_Players[toPlayerId].Role == PLAYER_ROLE_GOALKEEPER) return;
    0000003E 01r00r00         [10]  579 	ld	bc, #_g_Players+0
    00000041 DD 5E FF         [19]  580 	ld	e, -1 (ix)
    00000044 16 00            [ 7]  581 	ld	d, #0x00
    00000046 6B               [ 4]  582 	ld	l, e
    00000047 62               [ 4]  583 	ld	h, d
    00000048 29               [11]  584 	add	hl, hl
    00000049 29               [11]  585 	add	hl, hl
    0000004A 19               [11]  586 	add	hl, de
    0000004B 29               [11]  587 	add	hl, hl
    0000004C 29               [11]  588 	add	hl, hl
    0000004D 19               [11]  589 	add	hl, de
    0000004E 09               [11]  590 	add	hl, bc
    0000004F E3               [19]  591 	ex	(sp), hl
    00000050 D1               [10]  592 	pop	de
    00000051 D5               [11]  593 	push	de
    00000052 21 0D 00         [10]  594 	ld	hl, #13
    00000055 19               [11]  595 	add	hl, de
    00000056 7E               [ 7]  596 	ld	a, (hl)
    00000057 B7               [ 4]  597 	or	a, a
    00000058 CArE7r03         [10]  598 	jp	Z,00155$
                                    599 ;E:\Dropbox\FAUSTO\SVILUPPI\MSX\CODE\C\MSXgl\projects\soccerlgSCC/soccerlg_s5_b3.c:53: if (g_Players[fromId].Role != PLAYER_ROLE_GOALKEEPER) {
    0000005B DD 5E FE         [19]  600 	ld	e, -2 (ix)
    0000005E 16 00            [ 7]  601 	ld	d, #0x00
    00000060 6B               [ 4]  602 	ld	l, e
    00000061 62               [ 4]  603 	ld	h, d
    00000062 29               [11]  604 	add	hl, hl
    00000063 29               [11]  605 	add	hl, hl
    00000064 19               [11]  606 	add	hl, de
    00000065 29               [11]  607 	add	hl, hl
    00000066 29               [11]  608 	add	hl, hl
    00000067 19               [11]  609 	add	hl, de
    00000068 09               [11]  610 	add	hl, bc
    00000069 DD 75 ED         [19]  611 	ld	-19 (ix), l
    0000006C DD 74 EE         [19]  612 	ld	-18 (ix), h
    0000006F DD 7E ED         [19]  613 	ld	a, -19 (ix)
    00000072 C6 0D            [ 7]  614 	add	a, #0x0d
    00000074 DD 77 EF         [19]  615 	ld	-17 (ix), a
    00000077 DD 7E EE         [19]  616 	ld	a, -18 (ix)
    0000007A CE 00            [ 7]  617 	adc	a, #0x00
    0000007C DD 77 F0         [19]  618 	ld	-16 (ix), a
    0000007F DD 6E EF         [19]  619 	ld	l, -17 (ix)
    00000082 DD 66 F0         [19]  620 	ld	h, -16 (ix)
    00000085 7E               [ 7]  621 	ld	a, (hl)
    00000086 B7               [ 4]  622 	or	a, a
    00000087 28 0A            [12]  623 	jr	Z, 00110$
                                    624 ;E:\Dropbox\FAUSTO\SVILUPPI\MSX\CODE\C\MSXgl\projects\soccerlgSCC/soccerlg_s5_b3.c:54: if (IsOffside(toPlayerId)) {
    00000089 DD 7E FF         [19]  625 	ld	a, -1 (ix)
    0000008C CDrECr03         [17]  626 	call	_IsOffside
    0000008F B7               [ 4]  627 	or	a, a
                                    628 ;E:\Dropbox\FAUSTO\SVILUPPI\MSX\CODE\C\MSXgl\projects\soccerlgSCC/soccerlg_s5_b3.c:56: return;
    00000090 C2rE7r03         [10]  629 	jp	NZ,00155$
    00000093                        630 00110$:
                                    631 ;E:\Dropbox\FAUSTO\SVILUPPI\MSX\CODE\C\MSXgl\projects\soccerlgSCC/soccerlg_s5_b3.c:61: dx = (i16)g_Players[toPlayerId].X - (i16)g_Players[fromId].X;
    00000093 DD 7E EB         [19]  632 	ld	a, -21 (ix)
    00000096 C6 02            [ 7]  633 	add	a, #0x02
    00000098 DD 77 F1         [19]  634 	ld	-15 (ix), a
    0000009B DD 7E EC         [19]  635 	ld	a, -20 (ix)
    0000009E CE 00            [ 7]  636 	adc	a, #0x00
    000000A0 DD 77 F2         [19]  637 	ld	-14 (ix), a
    000000A3 DD 6E F1         [19]  638 	ld	l, -15 (ix)
    000000A6 DD 66 F2         [19]  639 	ld	h, -14 (ix)
    000000A9 4E               [ 7]  640 	ld	c, (hl)
    000000AA 23               [ 6]  641 	inc	hl
    000000AB 46               [ 7]  642 	ld	b, (hl)
    000000AC DD 7E ED         [19]  643 	ld	a, -19 (ix)
    000000AF C6 02            [ 7]  644 	add	a, #0x02
    000000B1 DD 77 F3         [19]  645 	ld	-13 (ix), a
    000000B4 DD 7E EE         [19]  646 	ld	a, -18 (ix)
    000000B7 CE 00            [ 7]  647 	adc	a, #0x00
    000000B9 DD 77 F4         [19]  648 	ld	-12 (ix), a
    000000BC DD 6E F3         [19]  649 	ld	l, -13 (ix)
    000000BF DD 66 F4         [19]  650 	ld	h, -12 (ix)
    000000C2 5E               [ 7]  651 	ld	e, (hl)
    000000C3 23               [ 6]  652 	inc	hl
    000000C4 56               [ 7]  653 	ld	d, (hl)
    000000C5 79               [ 4]  654 	ld	a, c
    000000C6 93               [ 4]  655 	sub	a, e
    000000C7 DD 77 FB         [19]  656 	ld	-5 (ix), a
    000000CA 78               [ 4]  657 	ld	a, b
    000000CB 9A               [ 4]  658 	sbc	a, d
    000000CC DD 77 FC         [19]  659 	ld	-4 (ix), a
                                    660 ;E:\Dropbox\FAUSTO\SVILUPPI\MSX\CODE\C\MSXgl\projects\soccerlgSCC/soccerlg_s5_b3.c:62: dy = (i16)g_Players[toPlayerId].Y - (i16)g_Players[fromId].Y;
    000000CF E1               [10]  661 	pop	hl
    000000D0 E5               [11]  662 	push	hl
    000000D1 4E               [ 7]  663 	ld	c, (hl)
    000000D2 23               [ 6]  664 	inc	hl
    000000D3 46               [ 7]  665 	ld	b, (hl)
    000000D4 DD 6E ED         [19]  666 	ld	l, -19 (ix)
    000000D7 DD 66 EE         [19]  667 	ld	h, -18 (ix)
    000000DA 5E               [ 7]  668 	ld	e, (hl)
    000000DB 23               [ 6]  669 	inc	hl
    000000DC 56               [ 7]  670 	ld	d, (hl)
    000000DD 79               [ 4]  671 	ld	a, c
    000000DE 93               [ 4]  672 	sub	a, e
    000000DF DD 77 F5         [19]  673 	ld	-11 (ix), a
    000000E2 78               [ 4]  674 	ld	a, b
    000000E3 9A               [ 4]  675 	sbc	a, d
    000000E4 DD 77 F6         [19]  676 	ld	-10 (ix), a
                                    677 ;E:\Dropbox\FAUSTO\SVILUPPI\MSX\CODE\C\MSXgl\projects\soccerlgSCC/soccerlg_s5_b3.c:63: adx = (dx < 0) ? -dx : dx;
    000000E7 DD 7E FB         [19]  678 	ld	a, -5 (ix)
    000000EA DD 77 F7         [19]  679 	ld	-9 (ix), a
    000000ED DD 7E FC         [19]  680 	ld	a, -4 (ix)
    000000F0 DD 77 F8         [19]  681 	ld	-8 (ix), a
    000000F3 DD CB F8 7E      [20]  682 	bit	7, -8 (ix)
    000000F7 28 11            [12]  683 	jr	Z, 00157$
    000000F9 AF               [ 4]  684 	xor	a, a
    000000FA DD 96 FB         [19]  685 	sub	a, -5 (ix)
    000000FD DD 77 FD         [19]  686 	ld	-3 (ix), a
    00000100 9F               [ 4]  687 	sbc	a, a
    00000101 DD 96 FC         [19]  688 	sub	a, -4 (ix)
    00000104 DD 77 FE         [19]  689 	ld	-2 (ix), a
    00000107 C3r16r01         [10]  690 	jp	00158$
    0000010A                        691 00157$:
    0000010A DD 7E FB         [19]  692 	ld	a, -5 (ix)
    0000010D DD 77 FD         [19]  693 	ld	-3 (ix), a
    00000110 DD 7E FC         [19]  694 	ld	a, -4 (ix)
    00000113 DD 77 FE         [19]  695 	ld	-2 (ix), a
    00000116                        696 00158$:
    00000116 DD 7E FD         [19]  697 	ld	a, -3 (ix)
    00000119 DD 77 F9         [19]  698 	ld	-7 (ix), a
    0000011C DD 7E FE         [19]  699 	ld	a, -2 (ix)
    0000011F DD 77 FA         [19]  700 	ld	-6 (ix), a
                                    701 ;E:\Dropbox\FAUSTO\SVILUPPI\MSX\CODE\C\MSXgl\projects\soccerlgSCC/soccerlg_s5_b3.c:64: ady = (dy < 0) ? -dy : dy;
    00000122 DD 7E F5         [19]  702 	ld	a, -11 (ix)
    00000125 DD 77 FB         [19]  703 	ld	-5 (ix), a
    00000128 DD 7E F6         [19]  704 	ld	a, -10 (ix)
    0000012B DD 77 FC         [19]  705 	ld	-4 (ix), a
    0000012E DD CB FC 7E      [20]  706 	bit	7, -4 (ix)
    00000132 28 11            [12]  707 	jr	Z, 00159$
    00000134 AF               [ 4]  708 	xor	a, a
    00000135 DD 96 F5         [19]  709 	sub	a, -11 (ix)
    00000138 DD 77 FD         [19]  710 	ld	-3 (ix), a
    0000013B 9F               [ 4]  711 	sbc	a, a
    0000013C DD 96 F6         [19]  712 	sub	a, -10 (ix)
    0000013F DD 77 FE         [19]  713 	ld	-2 (ix), a
    00000142 C3r51r01         [10]  714 	jp	00160$
    00000145                        715 00159$:
    00000145 DD 7E F5         [19]  716 	ld	a, -11 (ix)
    00000148 DD 77 FD         [19]  717 	ld	-3 (ix), a
    0000014B DD 7E F6         [19]  718 	ld	a, -10 (ix)
    0000014E DD 77 FE         [19]  719 	ld	-2 (ix), a
    00000151                        720 00160$:
    00000151 DD 4E FD         [19]  721 	ld	c, -3 (ix)
    00000154 DD 46 FE         [19]  722 	ld	b, -2 (ix)
                                    723 ;E:\Dropbox\FAUSTO\SVILUPPI\MSX\CODE\C\MSXgl\projects\soccerlgSCC/soccerlg_s5_b3.c:66: if (adx > ady * 2) {
    00000157 69               [ 4]  724 	ld	l, c
    00000158 60               [ 4]  725 	ld	h, b
    00000159 29               [11]  726 	add	hl, hl
    0000015A DD 5E F9         [19]  727 	ld	e, -7 (ix)
    0000015D DD 56 FA         [19]  728 	ld	d, -6 (ix)
    00000160 7D               [ 4]  729 	ld	a, l
    00000161 93               [ 4]  730 	sub	a, e
    00000162 7C               [ 4]  731 	ld	a, h
    00000163 9A               [ 4]  732 	sbc	a, d
    00000164 E2r69r01         [10]  733 	jp	PO, 00322$
    00000167 EE 80            [ 7]  734 	xor	a, #0x80
    00000169                        735 00322$:
    00000169 F2r8Ar01         [10]  736 	jp	P, 00118$
                                    737 ;E:\Dropbox\FAUSTO\SVILUPPI\MSX\CODE\C\MSXgl\projects\soccerlgSCC/soccerlg_s5_b3.c:67: newDir = (dx > 0) ? DIRECTION_RIGHT : DIRECTION_LEFT;
    0000016C AF               [ 4]  738 	xor	a, a
    0000016D DD BE F7         [19]  739 	cp	a, -9 (ix)
    00000170 DD 9E F8         [19]  740 	sbc	a, -8 (ix)
    00000173 E2r78r01         [10]  741 	jp	PO, 00323$
    00000176 EE 80            [ 7]  742 	xor	a, #0x80
    00000178                        743 00323$:
    00000178 F2r81r01         [10]  744 	jp	P, 00161$
    0000017B 01 03 00         [10]  745 	ld	bc, #0x0003
    0000017E C3r84r01         [10]  746 	jp	00162$
    00000181                        747 00161$:
    00000181 01 07 00         [10]  748 	ld	bc, #0x0007
    00000184                        749 00162$:
    00000184 DD 71 FC         [19]  750 	ld	-4 (ix), c
    00000187 C3rEEr01         [10]  751 	jp	00119$
    0000018A                        752 00118$:
                                    753 ;E:\Dropbox\FAUSTO\SVILUPPI\MSX\CODE\C\MSXgl\projects\soccerlgSCC/soccerlg_s5_b3.c:68: } else if (ady > adx * 2) {
    0000018A EB               [ 4]  754 	ex	de, hl
    0000018B 29               [11]  755 	add	hl, hl
    0000018C EB               [ 4]  756 	ex	de, hl
                                    757 ;E:\Dropbox\FAUSTO\SVILUPPI\MSX\CODE\C\MSXgl\projects\soccerlgSCC/soccerlg_s5_b3.c:69: newDir = (dy > 0) ? DIRECTION_DOWN : DIRECTION_UP;
    0000018D AF               [ 4]  758 	xor	a, a
    0000018E DD BE FB         [19]  759 	cp	a, -5 (ix)
    00000191 DD 9E FC         [19]  760 	sbc	a, -4 (ix)
    00000194 E2r99r01         [10]  761 	jp	PO, 00324$
    00000197 EE 80            [ 7]  762 	xor	a, #0x80
    00000199                        763 00324$:
    00000199 07               [ 4]  764 	rlca
    0000019A E6 01            [ 7]  765 	and	a,#0x01
    0000019C 6F               [ 4]  766 	ld	l, a
                                    767 ;	spillPairReg hl
                                    768 ;	spillPairReg hl
                                    769 ;E:\Dropbox\FAUSTO\SVILUPPI\MSX\CODE\C\MSXgl\projects\soccerlgSCC/soccerlg_s5_b3.c:68: } else if (ady > adx * 2) {
    0000019D 7B               [ 4]  770 	ld	a, e
    0000019E 91               [ 4]  771 	sub	a, c
    0000019F 7A               [ 4]  772 	ld	a, d
    000001A0 98               [ 4]  773 	sbc	a, b
    000001A1 E2rA6r01         [10]  774 	jp	PO, 00325$
    000001A4 EE 80            [ 7]  775 	xor	a, #0x80
    000001A6                        776 00325$:
    000001A6 F2rBCr01         [10]  777 	jp	P, 00115$
                                    778 ;E:\Dropbox\FAUSTO\SVILUPPI\MSX\CODE\C\MSXgl\projects\soccerlgSCC/soccerlg_s5_b3.c:69: newDir = (dy > 0) ? DIRECTION_DOWN : DIRECTION_UP;
    000001A9 7D               [ 4]  779 	ld	a, l
    000001AA B7               [ 4]  780 	or	a, a
    000001AB 28 06            [12]  781 	jr	Z, 00163$
    000001AD 01 05 00         [10]  782 	ld	bc, #0x0005
    000001B0 C3rB6r01         [10]  783 	jp	00164$
    000001B3                        784 00163$:
    000001B3 01 01 00         [10]  785 	ld	bc, #0x0001
    000001B6                        786 00164$:
    000001B6 DD 71 FC         [19]  787 	ld	-4 (ix), c
    000001B9 C3rEEr01         [10]  788 	jp	00119$
    000001BC                        789 00115$:
                                    790 ;E:\Dropbox\FAUSTO\SVILUPPI\MSX\CODE\C\MSXgl\projects\soccerlgSCC/soccerlg_s5_b3.c:71: if (dx > 0) newDir = (dy > 0) ? DIRECTION_DOWN_RIGHT : DIRECTION_UP_RIGHT;
    000001BC AF               [ 4]  791 	xor	a, a
    000001BD DD BE F7         [19]  792 	cp	a, -9 (ix)
    000001C0 DD 9E F8         [19]  793 	sbc	a, -8 (ix)
    000001C3 E2rC8r01         [10]  794 	jp	PO, 00326$
    000001C6 EE 80            [ 7]  795 	xor	a, #0x80
    000001C8                        796 00326$:
    000001C8 F2rDEr01         [10]  797 	jp	P, 00112$
    000001CB 7D               [ 4]  798 	ld	a, l
    000001CC B7               [ 4]  799 	or	a, a
    000001CD 28 06            [12]  800 	jr	Z, 00165$
    000001CF 01 04 00         [10]  801 	ld	bc, #0x0004
    000001D2 C3rD8r01         [10]  802 	jp	00166$
    000001D5                        803 00165$:
    000001D5 01 02 00         [10]  804 	ld	bc, #0x0002
    000001D8                        805 00166$:
    000001D8 DD 71 FC         [19]  806 	ld	-4 (ix), c
    000001DB C3rEEr01         [10]  807 	jp	00119$
    000001DE                        808 00112$:
                                    809 ;E:\Dropbox\FAUSTO\SVILUPPI\MSX\CODE\C\MSXgl\projects\soccerlgSCC/soccerlg_s5_b3.c:72: else newDir = (dy > 0) ? DIRECTION_DOWN_LEFT : DIRECTION_UP_LEFT;
    000001DE 7D               [ 4]  810 	ld	a, l
    000001DF B7               [ 4]  811 	or	a, a
    000001E0 28 06            [12]  812 	jr	Z, 00167$
    000001E2 01 06 00         [10]  813 	ld	bc, #0x0006
    000001E5 C3rEBr01         [10]  814 	jp	00168$
    000001E8                        815 00167$:
    000001E8 01 08 00         [10]  816 	ld	bc, #0x0008
    000001EB                        817 00168$:
    000001EB DD 71 FC         [19]  818 	ld	-4 (ix), c
    000001EE                        819 00119$:
                                    820 ;E:\Dropbox\FAUSTO\SVILUPPI\MSX\CODE\C\MSXgl\projects\soccerlgSCC/soccerlg_s5_b3.c:74: g_Players[fromId].Direction = newDir;
    000001EE DD 6E ED         [19]  821 	ld	l, -19 (ix)
    000001F1 DD 66 EE         [19]  822 	ld	h, -18 (ix)
    000001F4 11 0A 00         [10]  823 	ld	de, #0x000a
    000001F7 19               [11]  824 	add	hl, de
    000001F8 DD 7E FC         [19]  825 	ld	a, -4 (ix)
    000001FB 77               [ 7]  826 	ld	(hl), a
                                    827 ;E:\Dropbox\FAUSTO\SVILUPPI\MSX\CODE\C\MSXgl\projects\soccerlgSCC/soccerlg_s5_b3.c:77: if (newDir == DIRECTION_UP || newDir == DIRECTION_UP_LEFT || newDir == DIRECTION_UP_RIGHT) g_Players[fromId].PatternId = PLAYER_POSE_SHOT_FRONT;
    000001FC DD 7E FC         [19]  828 	ld	a, -4 (ix)
    000001FF 3D               [ 4]  829 	dec	a
    00000200 28 0E            [12]  830 	jr	Z, 00130$
    00000202 DD 7E FC         [19]  831 	ld	a, -4 (ix)
    00000205 D6 08            [ 7]  832 	sub	a, #0x08
    00000207 28 07            [12]  833 	jr	Z, 00130$
    00000209 DD 7E FC         [19]  834 	ld	a, -4 (ix)
    0000020C D6 02            [ 7]  835 	sub	a, #0x02
    0000020E 20 1B            [12]  836 	jr	NZ, 00131$
    00000210                        837 00130$:
    00000210 DD 7E ED         [19]  838 	ld	a, -19 (ix)
    00000213 C6 08            [ 7]  839 	add	a, #0x08
    00000215 DD 77 FD         [19]  840 	ld	-3 (ix), a
    00000218 DD 7E EE         [19]  841 	ld	a, -18 (ix)
    0000021B CE 00            [ 7]  842 	adc	a, #0x00
    0000021D DD 77 FE         [19]  843 	ld	-2 (ix), a
    00000220 DD 6E FD         [19]  844 	ld	l, -3 (ix)
    00000223 DD 66 FE         [19]  845 	ld	h, -2 (ix)
    00000226 36 18            [10]  846 	ld	(hl), #0x18
    00000228 C3r78r02         [10]  847 	jp	00132$
    0000022B                        848 00131$:
                                    849 ;E:\Dropbox\FAUSTO\SVILUPPI\MSX\CODE\C\MSXgl\projects\soccerlgSCC/soccerlg_s5_b3.c:78: else if (newDir == DIRECTION_DOWN || newDir == DIRECTION_DOWN_LEFT || newDir == DIRECTION_DOWN_RIGHT) g_Players[fromId].PatternId = PLAYER_POSE_SHOT_BACK;
    0000022B DD 7E FC         [19]  850 	ld	a, -4 (ix)
    0000022E D6 05            [ 7]  851 	sub	a, #0x05
    00000230 28 0E            [12]  852 	jr	Z, 00125$
    00000232 DD 7E FC         [19]  853 	ld	a, -4 (ix)
    00000235 D6 06            [ 7]  854 	sub	a, #0x06
    00000237 28 07            [12]  855 	jr	Z, 00125$
    00000239 DD 7E FC         [19]  856 	ld	a, -4 (ix)
    0000023C D6 04            [ 7]  857 	sub	a, #0x04
    0000023E 20 0F            [12]  858 	jr	NZ, 00126$
    00000240                        859 00125$:
    00000240 DD 6E ED         [19]  860 	ld	l, -19 (ix)
    00000243 DD 66 EE         [19]  861 	ld	h, -18 (ix)
    00000246 11 08 00         [10]  862 	ld	de, #0x0008
    00000249 19               [11]  863 	add	hl, de
    0000024A 36 15            [10]  864 	ld	(hl), #0x15
    0000024C C3r78r02         [10]  865 	jp	00132$
    0000024F                        866 00126$:
                                    867 ;E:\Dropbox\FAUSTO\SVILUPPI\MSX\CODE\C\MSXgl\projects\soccerlgSCC/soccerlg_s5_b3.c:79: else if (newDir == DIRECTION_LEFT) g_Players[fromId].PatternId = PLAYER_POSE_SHOT_LEFT;
    0000024F DD 7E FC         [19]  868 	ld	a, -4 (ix)
    00000252 D6 07            [ 7]  869 	sub	a, #0x07
    00000254 20 0F            [12]  870 	jr	NZ, 00123$
    00000256 DD 6E ED         [19]  871 	ld	l, -19 (ix)
    00000259 DD 66 EE         [19]  872 	ld	h, -18 (ix)
    0000025C 11 08 00         [10]  873 	ld	de, #0x0008
    0000025F 19               [11]  874 	add	hl, de
    00000260 36 A4            [10]  875 	ld	(hl), #0xa4
    00000262 C3r78r02         [10]  876 	jp	00132$
    00000265                        877 00123$:
                                    878 ;E:\Dropbox\FAUSTO\SVILUPPI\MSX\CODE\C\MSXgl\projects\soccerlgSCC/soccerlg_s5_b3.c:80: else if (newDir == DIRECTION_RIGHT) g_Players[fromId].PatternId = PLAYER_POSE_SHOT_RIGHT;
    00000265 DD 7E FC         [19]  879 	ld	a, -4 (ix)
    00000268 D6 03            [ 7]  880 	sub	a, #0x03
    0000026A 20 0C            [12]  881 	jr	NZ, 00132$
    0000026C DD 6E ED         [19]  882 	ld	l, -19 (ix)
    0000026F DD 66 EE         [19]  883 	ld	h, -18 (ix)
    00000272 11 08 00         [10]  884 	ld	de, #0x0008
    00000275 19               [11]  885 	add	hl, de
    00000276 36 1B            [10]  886 	ld	(hl), #0x1b
    00000278                        887 00132$:
                                    888 ;E:\Dropbox\FAUSTO\SVILUPPI\MSX\CODE\C\MSXgl\projects\soccerlgSCC/soccerlg_s5_b3.c:82: g_Players[fromId].Status = PLAYER_STATUS_POSITIONED; // Lock pose for this frame
    00000278 DD 6E ED         [19]  889 	ld	l, -19 (ix)
    0000027B DD 66 EE         [19]  890 	ld	h, -18 (ix)
    0000027E 11 12 00         [10]  891 	ld	de, #0x0012
    00000281 19               [11]  892 	add	hl, de
    00000282 36 04            [10]  893 	ld	(hl), #0x04
    00000284 23               [ 6]  894 	inc	hl
    00000285 36 00            [10]  895 	ld	(hl), #0x00
                                    896 ;E:\Dropbox\FAUSTO\SVILUPPI\MSX\CODE\C\MSXgl\projects\soccerlgSCC/soccerlg_s5_b3.c:85: g_Players[fromId].TargetX = g_Players[fromId].X;
    00000287 DD 7E ED         [19]  897 	ld	a, -19 (ix)
    0000028A C6 10            [ 7]  898 	add	a, #0x10
    0000028C 4F               [ 4]  899 	ld	c, a
    0000028D DD 7E EE         [19]  900 	ld	a, -18 (ix)
    00000290 CE 00            [ 7]  901 	adc	a, #0x00
    00000292 47               [ 4]  902 	ld	b, a
    00000293 DD 6E F3         [19]  903 	ld	l, -13 (ix)
    00000296 DD 66 F4         [19]  904 	ld	h, -12 (ix)
    00000299 5E               [ 7]  905 	ld	e, (hl)
    0000029A 23               [ 6]  906 	inc	hl
    0000029B 56               [ 7]  907 	ld	d, (hl)
    0000029C 7B               [ 4]  908 	ld	a, e
    0000029D 02               [ 7]  909 	ld	(bc), a
    0000029E 03               [ 6]  910 	inc	bc
    0000029F 7A               [ 4]  911 	ld	a, d
    000002A0 02               [ 7]  912 	ld	(bc), a
                                    913 ;E:\Dropbox\FAUSTO\SVILUPPI\MSX\CODE\C\MSXgl\projects\soccerlgSCC/soccerlg_s5_b3.c:86: g_Players[fromId].TargetY = g_Players[fromId].Y;
    000002A1 DD 7E ED         [19]  914 	ld	a, -19 (ix)
    000002A4 C6 0E            [ 7]  915 	add	a, #0x0e
    000002A6 4F               [ 4]  916 	ld	c, a
    000002A7 DD 7E EE         [19]  917 	ld	a, -18 (ix)
    000002AA CE 00            [ 7]  918 	adc	a, #0x00
    000002AC 47               [ 4]  919 	ld	b, a
    000002AD DD 6E ED         [19]  920 	ld	l, -19 (ix)
    000002B0 DD 66 EE         [19]  921 	ld	h, -18 (ix)
    000002B3 5E               [ 7]  922 	ld	e, (hl)
    000002B4 23               [ 6]  923 	inc	hl
    000002B5 56               [ 7]  924 	ld	d, (hl)
    000002B6 7B               [ 4]  925 	ld	a, e
    000002B7 02               [ 7]  926 	ld	(bc), a
    000002B8 03               [ 6]  927 	inc	bc
    000002B9 7A               [ 4]  928 	ld	a, d
    000002BA 02               [ 7]  929 	ld	(bc), a
                                    930 ;E:\Dropbox\FAUSTO\SVILUPPI\MSX\CODE\C\MSXgl\projects\soccerlgSCC/soccerlg_s5_b3.c:89: CallFnc_VOID_P1(4,SetPlayerBallPossession,NO_VALUE); 
    000002BB 3E FF            [ 7]  931 	ld	a, #0xff
    000002BD F5               [11]  932 	push	af
    000002BE 33               [ 6]  933 	inc	sp
    000002BF 11r00r00         [10]  934 	ld	de, #_SetPlayerBallPossession
    000002C2 3E 04            [ 7]  935 	ld	a, #0x04
    000002C4 CDr00r00         [17]  936 	call	_CallFnc_VOID_P1
                                    937 ;E:\Dropbox\FAUSTO\SVILUPPI\MSX\CODE\C\MSXgl\projects\soccerlgSCC/soccerlg_s5_b3.c:90: g_Ball.PossessionPlayerId = NO_VALUE; 
    000002C7 21r06r00         [10]  938 	ld	hl, #(_g_Ball + 6)
    000002CA 36 FF            [10]  939 	ld	(hl), #0xff
                                    940 ;E:\Dropbox\FAUSTO\SVILUPPI\MSX\CODE\C\MSXgl\projects\soccerlgSCC/soccerlg_s5_b3.c:92: g_Ball.PassTargetPlayerId = toPlayerId;
    000002CC 21r10r00         [10]  941 	ld	hl, #(_g_Ball + 16)
    000002CF DD 7E FF         [19]  942 	ld	a, -1 (ix)
    000002D2 77               [ 7]  943 	ld	(hl), a
                                    944 ;E:\Dropbox\FAUSTO\SVILUPPI\MSX\CODE\C\MSXgl\projects\soccerlgSCC/soccerlg_s5_b3.c:93: g_Ball.ShotActive = 0; // Not a shot
    000002D3 21r1Br00         [10]  945 	ld	hl, #(_g_Ball + 27)
    000002D6 36 00            [10]  946 	ld	(hl), #0x00
                                    947 ;E:\Dropbox\FAUSTO\SVILUPPI\MSX\CODE\C\MSXgl\projects\soccerlgSCC/soccerlg_s5_b3.c:96: if (g_Players[fromId].Role == PLAYER_ROLE_GOALKEEPER) {
    000002D8 DD 6E EF         [19]  948 	ld	l, -17 (ix)
    000002DB DD 66 F0         [19]  949 	ld	h, -16 (ix)
                                    950 ;E:\Dropbox\FAUSTO\SVILUPPI\MSX\CODE\C\MSXgl\projects\soccerlgSCC/soccerlg_s5_b3.c:108: g_Ball.X = g_Ball.X; 
                                    951 ;E:\Dropbox\FAUSTO\SVILUPPI\MSX\CODE\C\MSXgl\projects\soccerlgSCC/soccerlg_s5_b3.c:96: if (g_Players[fromId].Role == PLAYER_ROLE_GOALKEEPER) {
    000002DE 7E               [ 7]  952 	ld	a, (hl)
    000002DF B7               [ 4]  953 	or	a, a
    000002E0 C2r8Cr03         [10]  954 	jp	NZ, 00154$
                                    955 ;E:\Dropbox\FAUSTO\SVILUPPI\MSX\CODE\C\MSXgl\projects\soccerlgSCC/soccerlg_s5_b3.c:99: bool applyOffset = true;
    000002E3 0E 01            [ 7]  956 	ld	c, #0x01
                                    957 ;E:\Dropbox\FAUSTO\SVILUPPI\MSX\CODE\C\MSXgl\projects\soccerlgSCC/soccerlg_s5_b3.c:101: if (g_GkIsGroundKick) {
    000002E5 3Ar00r00         [13]  958 	ld	a, (_g_GkIsGroundKick+0)
    000002E8 B7               [ 4]  959 	or	a, a
    000002E9 28 12            [12]  960 	jr	Z, 00136$
                                    961 ;E:\Dropbox\FAUSTO\SVILUPPI\MSX\CODE\C\MSXgl\projects\soccerlgSCC/soccerlg_s5_b3.c:102: applyOffset = false;
    000002EB 0E 00            [ 7]  962 	ld	c, #0x00
                                    963 ;E:\Dropbox\FAUSTO\SVILUPPI\MSX\CODE\C\MSXgl\projects\soccerlgSCC/soccerlg_s5_b3.c:108: g_Ball.X = g_Ball.X; 
    000002ED ED 5Br02r00      [20]  964 	ld	de, (#(_g_Ball + 2) + 0)
    000002F1 ED 53r02r00      [20]  965 	ld	((_g_Ball + 2)), de
                                    966 ;E:\Dropbox\FAUSTO\SVILUPPI\MSX\CODE\C\MSXgl\projects\soccerlgSCC/soccerlg_s5_b3.c:109: g_Ball.Y = g_Ball.Y;
    000002F5 ED 5Br00r00      [20]  967 	ld	de, (#_g_Ball + 0)
    000002F9 ED 53r00r00      [20]  968 	ld	(_g_Ball), de
    000002FD                        969 00136$:
                                    970 ;E:\Dropbox\FAUSTO\SVILUPPI\MSX\CODE\C\MSXgl\projects\soccerlgSCC/soccerlg_s5_b3.c:113: if (g_MatchStatus == MATCH_CORNER_KICK || g_MatchStatus == MATCH_BEFORE_CORNER_KICK ||
    000002FD 3Ar00r00         [13]  971 	ld	a,(_g_MatchStatus+0)
    00000300 FE 09            [ 7]  972 	cp	a,#0x09
    00000302 28 0C            [12]  973 	jr	Z, 00137$
                                    974 ;E:\Dropbox\FAUSTO\SVILUPPI\MSX\CODE\C\MSXgl\projects\soccerlgSCC/soccerlg_s5_b3.c:114: g_MatchStatus == MATCH_GOAL_KICK || g_MatchStatus == MATCH_BEFORE_GOAL_KICK) {
    00000304 FE 02            [ 7]  975 	cp	a,#0x02
    00000306 28 08            [12]  976 	jr	Z, 00137$
    00000308 FE 0A            [ 7]  977 	cp	a,#0x0a
    0000030A 28 04            [12]  978 	jr	Z, 00137$
    0000030C D6 05            [ 7]  979 	sub	a, #0x05
    0000030E 20 02            [12]  980 	jr	NZ, 00138$
    00000310                        981 00137$:
                                    982 ;E:\Dropbox\FAUSTO\SVILUPPI\MSX\CODE\C\MSXgl\projects\soccerlgSCC/soccerlg_s5_b3.c:115: applyOffset = false;
    00000310 0E 00            [ 7]  983 	ld	c, #0x00
    00000312                        984 00138$:
                                    985 ;E:\Dropbox\FAUSTO\SVILUPPI\MSX\CODE\C\MSXgl\projects\soccerlgSCC/soccerlg_s5_b3.c:120: if (applyOffset) {
    00000312 79               [ 4]  986 	ld	a, c
    00000313 B7               [ 4]  987 	or	a, a
    00000314 28 76            [12]  988 	jr	Z, 00154$
                                    989 ;E:\Dropbox\FAUSTO\SVILUPPI\MSX\CODE\C\MSXgl\projects\soccerlgSCC/soccerlg_s5_b3.c:121: i8 offX = 0; i8 offY = 0;
    00000316 01 00 00         [10]  990 	ld	bc, #0x0
                                    991 ;E:\Dropbox\FAUSTO\SVILUPPI\MSX\CODE\C\MSXgl\projects\soccerlgSCC/soccerlg_s5_b3.c:122: switch (newDir) {
    00000319 3E 08            [ 7]  992 	ld	a, #0x08
    0000031B DD 96 FC         [19]  993 	sub	a, -4 (ix)
    0000031E 38 50            [12]  994 	jr	C, 00150$
    00000320 DD 5E FC         [19]  995 	ld	e, -4 (ix)
    00000323 16 00            [ 7]  996 	ld	d, #0x00
    00000325 21r2Cr03         [10]  997 	ld	hl, #00344$
    00000328 19               [11]  998 	add	hl, de
    00000329 19               [11]  999 	add	hl, de
    0000032A 19               [11] 1000 	add	hl, de
    0000032B E9               [ 4] 1001 	jp	(hl)
    0000032C                       1002 00344$:
    0000032C C3r70r03         [10] 1003 	jp	00150$
    0000032F C3r47r03         [10] 1004 	jp	00142$
    00000332 C3r61r03         [10] 1005 	jp	00147$
    00000335 C3r56r03         [10] 1006 	jp	00145$
    00000338 C3r6Dr03         [10] 1007 	jp	00149$
    0000033B C3r4Cr03         [10] 1008 	jp	00143$
    0000033E C3r67r03         [10] 1009 	jp	00148$
    00000341 C3r51r03         [10] 1010 	jp	00144$
    00000344 C3r5Br03         [10] 1011 	jp	00146$
                                   1012 ;E:\Dropbox\FAUSTO\SVILUPPI\MSX\CODE\C\MSXgl\projects\soccerlgSCC/soccerlg_s5_b3.c:123: case DIRECTION_UP:        offY = -30; break;
    00000347                       1013 00142$:
    00000347 06 E2            [ 7] 1014 	ld	b, #0xe2
    00000349 C3r70r03         [10] 1015 	jp	00150$
                                   1016 ;E:\Dropbox\FAUSTO\SVILUPPI\MSX\CODE\C\MSXgl\projects\soccerlgSCC/soccerlg_s5_b3.c:124: case DIRECTION_DOWN:      offY = 30; break;
    0000034C                       1017 00143$:
    0000034C 06 1E            [ 7] 1018 	ld	b, #0x1e
    0000034E C3r70r03         [10] 1019 	jp	00150$
                                   1020 ;E:\Dropbox\FAUSTO\SVILUPPI\MSX\CODE\C\MSXgl\projects\soccerlgSCC/soccerlg_s5_b3.c:125: case DIRECTION_LEFT:      offX = -30; break;
    00000351                       1021 00144$:
    00000351 0E E2            [ 7] 1022 	ld	c, #0xe2
    00000353 C3r70r03         [10] 1023 	jp	00150$
                                   1024 ;E:\Dropbox\FAUSTO\SVILUPPI\MSX\CODE\C\MSXgl\projects\soccerlgSCC/soccerlg_s5_b3.c:126: case DIRECTION_RIGHT:     offX = 30; break;
    00000356                       1025 00145$:
    00000356 0E 1E            [ 7] 1026 	ld	c, #0x1e
    00000358 C3r70r03         [10] 1027 	jp	00150$
                                   1028 ;E:\Dropbox\FAUSTO\SVILUPPI\MSX\CODE\C\MSXgl\projects\soccerlgSCC/soccerlg_s5_b3.c:127: case DIRECTION_UP_LEFT:   offX = -21; offY = -21; break;
    0000035B                       1029 00146$:
    0000035B 01 EB EB         [10] 1030 	ld	bc, #0xebeb
    0000035E C3r70r03         [10] 1031 	jp	00150$
                                   1032 ;E:\Dropbox\FAUSTO\SVILUPPI\MSX\CODE\C\MSXgl\projects\soccerlgSCC/soccerlg_s5_b3.c:128: case DIRECTION_UP_RIGHT:  offX = 21; offY = -21; break;
    00000361                       1033 00147$:
    00000361 01 15 EB         [10] 1034 	ld	bc, #0xeb15
    00000364 C3r70r03         [10] 1035 	jp	00150$
                                   1036 ;E:\Dropbox\FAUSTO\SVILUPPI\MSX\CODE\C\MSXgl\projects\soccerlgSCC/soccerlg_s5_b3.c:129: case DIRECTION_DOWN_LEFT: offX = -21; offY = 21; break;
    00000367                       1037 00148$:
    00000367 01 EB 15         [10] 1038 	ld	bc, #0x15eb
    0000036A C3r70r03         [10] 1039 	jp	00150$
                                   1040 ;E:\Dropbox\FAUSTO\SVILUPPI\MSX\CODE\C\MSXgl\projects\soccerlgSCC/soccerlg_s5_b3.c:130: case DIRECTION_DOWN_RIGHT:offX = 21; offY = 21; break;
    0000036D                       1041 00149$:
    0000036D 01 15 15         [10] 1042 	ld	bc, #0x1515
                                   1043 ;E:\Dropbox\FAUSTO\SVILUPPI\MSX\CODE\C\MSXgl\projects\soccerlgSCC/soccerlg_s5_b3.c:131: }
    00000370                       1044 00150$:
                                   1045 ;E:\Dropbox\FAUSTO\SVILUPPI\MSX\CODE\C\MSXgl\projects\soccerlgSCC/soccerlg_s5_b3.c:132: g_Ball.X += offX;
    00000370 2Ar02r00         [16] 1046 	ld	hl, (#(_g_Ball + 2) + 0)
    00000373 79               [ 4] 1047 	ld	a, c
    00000374 5F               [ 4] 1048 	ld	e, a
    00000375 07               [ 4] 1049 	rlca
    00000376 9F               [ 4] 1050 	sbc	a, a
    00000377 57               [ 4] 1051 	ld	d, a
    00000378 19               [11] 1052 	add	hl, de
    00000379 EB               [ 4] 1053 	ex	de, hl
    0000037A ED 53r02r00      [20] 1054 	ld	((_g_Ball + 2)), de
                                   1055 ;E:\Dropbox\FAUSTO\SVILUPPI\MSX\CODE\C\MSXgl\projects\soccerlgSCC/soccerlg_s5_b3.c:133: g_Ball.Y += offY;
    0000037E 2Ar00r00         [16] 1056 	ld	hl, (#_g_Ball + 0)
    00000381 78               [ 4] 1057 	ld	a, b
    00000382 4F               [ 4] 1058 	ld	c, a
    00000383 07               [ 4] 1059 	rlca
    00000384 9F               [ 4] 1060 	sbc	a, a
    00000385 47               [ 4] 1061 	ld	b, a
    00000386 09               [11] 1062 	add	hl, bc
    00000387 EB               [ 4] 1063 	ex	de, hl
    00000388 ED 53r00r00      [20] 1064 	ld	(_g_Ball), de
    0000038C                       1065 00154$:
                                   1066 ;E:\Dropbox\FAUSTO\SVILUPPI\MSX\CODE\C\MSXgl\projects\soccerlgSCC/soccerlg_s5_b3.c:139: g_Ball.PassStartX = g_Ball.X;
    0000038C ED 4Br02r00      [20] 1067 	ld	bc, (#(_g_Ball + 2) + 0)
    00000390 ED 43r11r00      [20] 1068 	ld	((_g_Ball + 17)), bc
                                   1069 ;E:\Dropbox\FAUSTO\SVILUPPI\MSX\CODE\C\MSXgl\projects\soccerlgSCC/soccerlg_s5_b3.c:140: g_Ball.PassStartY = g_Ball.Y;
    00000394 ED 4Br00r00      [20] 1070 	ld	bc, (#_g_Ball + 0)
    00000398 ED 43r13r00      [20] 1071 	ld	((_g_Ball + 19)), bc
                                   1072 ;E:\Dropbox\FAUSTO\SVILUPPI\MSX\CODE\C\MSXgl\projects\soccerlgSCC/soccerlg_s5_b3.c:143: g_ActionCooldown = 20;
    0000039C 21r00r00         [10] 1073 	ld	hl, #_g_ActionCooldown
    0000039F 36 14            [10] 1074 	ld	(hl), #0x14
                                   1075 ;E:\Dropbox\FAUSTO\SVILUPPI\MSX\CODE\C\MSXgl\projects\soccerlgSCC/soccerlg_s5_b3.c:144: g_Ball.KickMoveState = 0;
    000003A1 21r0Dr00         [10] 1076 	ld	hl, #(_g_Ball + 13)
    000003A4 36 00            [10] 1077 	ld	(hl), #0x00
                                   1078 ;E:\Dropbox\FAUSTO\SVILUPPI\MSX\CODE\C\MSXgl\projects\soccerlgSCC/soccerlg_s5_b3.c:146: dx = (i16)g_Players[toPlayerId].X - (i16)g_Ball.X;
    000003A6 DD 6E F1         [19] 1079 	ld	l, -15 (ix)
    000003A9 DD 66 F2         [19] 1080 	ld	h, -14 (ix)
    000003AC 4E               [ 7] 1081 	ld	c, (hl)
    000003AD 23               [ 6] 1082 	inc	hl
    000003AE 46               [ 7] 1083 	ld	b, (hl)
    000003AF 2Ar02r00         [16] 1084 	ld	hl, (#(_g_Ball + 2) + 0)
    000003B2 79               [ 4] 1085 	ld	a, c
    000003B3 95               [ 4] 1086 	sub	a, l
    000003B4 4F               [ 4] 1087 	ld	c, a
    000003B5 78               [ 4] 1088 	ld	a, b
    000003B6 9C               [ 4] 1089 	sbc	a, h
    000003B7 47               [ 4] 1090 	ld	b, a
                                   1091 ;E:\Dropbox\FAUSTO\SVILUPPI\MSX\CODE\C\MSXgl\projects\soccerlgSCC/soccerlg_s5_b3.c:147: dy = (i16)g_Players[toPlayerId].Y - (i16)g_Ball.Y;
    000003B8 E1               [10] 1092 	pop	hl
    000003B9 E5               [11] 1093 	push	hl
    000003BA 5E               [ 7] 1094 	ld	e, (hl)
    000003BB 23               [ 6] 1095 	inc	hl
    000003BC 56               [ 7] 1096 	ld	d, (hl)
    000003BD 2Ar00r00         [16] 1097 	ld	hl, (#_g_Ball + 0)
    000003C0 7B               [ 4] 1098 	ld	a, e
    000003C1 95               [ 4] 1099 	sub	a, l
    000003C2 5F               [ 4] 1100 	ld	e, a
    000003C3 7A               [ 4] 1101 	ld	a, d
    000003C4 9C               [ 4] 1102 	sbc	a, h
    000003C5 57               [ 4] 1103 	ld	d, a
                                   1104 ;E:\Dropbox\FAUSTO\SVILUPPI\MSX\CODE\C\MSXgl\projects\soccerlgSCC/soccerlg_s5_b3.c:148: g_Ball.PassTotalDist = (u16)((dx<0?-dx:dx) + (dy<0?-dy:dy)); 
                                   1105 ;	spillPairReg hl
                                   1106 ;	spillPairReg hl
    000003C6 60               [ 4] 1107 	ld	h, b
                                   1108 ;	spillPairReg hl
                                   1109 ;	spillPairReg hl
    000003C7 CB 7C            [ 8] 1110 	bit	7, h
    000003C9 28 06            [12] 1111 	jr	Z, 00169$
    000003CB AF               [ 4] 1112 	xor	a, a
    000003CC 91               [ 4] 1113 	sub	a, c
    000003CD 4F               [ 4] 1114 	ld	c, a
    000003CE 9F               [ 4] 1115 	sbc	a, a
    000003CF 90               [ 4] 1116 	sub	a, b
    000003D0 47               [ 4] 1117 	ld	b, a
    000003D1                       1118 00169$:
    000003D1 6B               [ 4] 1119 	ld	l, e
                                   1120 ;	spillPairReg hl
                                   1121 ;	spillPairReg hl
    000003D2 62               [ 4] 1122 	ld	h, d
                                   1123 ;	spillPairReg hl
                                   1124 ;	spillPairReg hl
    000003D3 CB 7C            [ 8] 1125 	bit	7, h
    000003D5 28 09            [12] 1126 	jr	Z, 00171$
    000003D7 21 00 00         [10] 1127 	ld	hl, #0x0000
    000003DA BF               [ 4] 1128 	cp	a, a
    000003DB ED 52            [15] 1129 	sbc	hl, de
    000003DD C3rE1r03         [10] 1130 	jp	00172$
    000003E0                       1131 00171$:
    000003E0 EB               [ 4] 1132 	ex	de, hl
    000003E1                       1133 00172$:
    000003E1 09               [11] 1134 	add	hl, bc
    000003E2 EB               [ 4] 1135 	ex	de, hl
    000003E3 ED 53r15r00      [20] 1136 	ld	((_g_Ball + 21)), de
    000003E7                       1137 00155$:
                                   1138 ;E:\Dropbox\FAUSTO\SVILUPPI\MSX\CODE\C\MSXgl\projects\soccerlgSCC/soccerlg_s5_b3.c:149: }
    000003E7 DD F9            [10] 1139 	ld	sp, ix
    000003E9 DD E1            [14] 1140 	pop	ix
    000003EB C9               [10] 1141 	ret
                                   1142 ;E:\Dropbox\FAUSTO\SVILUPPI\MSX\CODE\C\MSXgl\projects\soccerlgSCC/soccerlg_s5_b3.c:151: bool IsOffside(u8 playerId) {
                                   1143 ;	---------------------------------
                                   1144 ; Function IsOffside
                                   1145 ; ---------------------------------
    000003EC                       1146 _IsOffside::
    000003EC DD E5            [15] 1147 	push	ix
    000003EE DD 21 00 00      [14] 1148 	ld	ix,#0
    000003F2 DD 39            [15] 1149 	add	ix,sp
    000003F4 21 F9 FF         [10] 1150 	ld	hl, #-7
    000003F7 39               [11] 1151 	add	hl, sp
    000003F8 F9               [ 6] 1152 	ld	sp, hl
    000003F9 4F               [ 4] 1153 	ld	c, a
                                   1154 ;E:\Dropbox\FAUSTO\SVILUPPI\MSX\CODE\C\MSXgl\projects\soccerlgSCC/soccerlg_s5_b3.c:152: u8 teamId = g_Players[playerId].TeamId;
    000003FA 06 00            [ 7] 1155 	ld	b, #0x00
    000003FC 69               [ 4] 1156 	ld	l, c
    000003FD 60               [ 4] 1157 	ld	h, b
    000003FE 29               [11] 1158 	add	hl, hl
    000003FF 29               [11] 1159 	add	hl, hl
    00000400 09               [11] 1160 	add	hl, bc
    00000401 29               [11] 1161 	add	hl, hl
    00000402 29               [11] 1162 	add	hl, hl
    00000403 09               [11] 1163 	add	hl, bc
    00000404 EB               [ 4] 1164 	ex	de, hl
    00000405 21r00r00         [10] 1165 	ld	hl, #_g_Players
    00000408 19               [11] 1166 	add	hl, de
    00000409 EB               [ 4] 1167 	ex	de, hl
    0000040A D5               [11] 1168 	push	de
    0000040B FD E1            [14] 1169 	pop	iy
    0000040D FD 7E 09         [19] 1170 	ld	a, 9 (iy)
    00000410 DD 77 F9         [19] 1171 	ld	-7 (ix), a
                                   1172 ;E:\Dropbox\FAUSTO\SVILUPPI\MSX\CODE\C\MSXgl\projects\soccerlgSCC/soccerlg_s5_b3.c:153: u16 playerY = g_Players[playerId].Y;
    00000413 1A               [ 7] 1173 	ld	a, (de)
    00000414 DD 77 FA         [19] 1174 	ld	-6 (ix), a
    00000417 13               [ 6] 1175 	inc	de
    00000418 1A               [ 7] 1176 	ld	a, (de)
    00000419 DD 77 FB         [19] 1177 	ld	-5 (ix), a
                                   1178 ;E:\Dropbox\FAUSTO\SVILUPPI\MSX\CODE\C\MSXgl\projects\soccerlgSCC/soccerlg_s5_b3.c:154: u8 opponentCount = 0;
    0000041C DD 36 FF 00      [19] 1179 	ld	-1 (ix), #0x00
                                   1180 ;E:\Dropbox\FAUSTO\SVILUPPI\MSX\CODE\C\MSXgl\projects\soccerlgSCC/soccerlg_s5_b3.c:158: if (teamId == TEAM_1) {
    00000420 DD 7E F9         [19] 1181 	ld	a, -7 (ix)
    00000423 3D               [ 4] 1182 	dec	a
    00000424 3E 01            [ 7] 1183 	ld	a, #0x01
    00000426 28 01            [12] 1184 	jr	Z, 00198$
    00000428 AF               [ 4] 1185 	xor	a, a
    00000429                       1186 00198$:
    00000429 DD 77 FC         [19] 1187 	ld	-4 (ix), a
                                   1188 ;E:\Dropbox\FAUSTO\SVILUPPI\MSX\CODE\C\MSXgl\projects\soccerlgSCC/soccerlg_s5_b3.c:159: if (playerY >= FIELD_POS_Y_CENTER) return FALSE; // Own half
    0000042C DD 7E FA         [19] 1189 	ld	a, -6 (ix)
    0000042F DD 77 FD         [19] 1190 	ld	-3 (ix), a
    00000432 DD 7E FB         [19] 1191 	ld	a, -5 (ix)
    00000435 DD 77 FE         [19] 1192 	ld	-2 (ix), a
                                   1193 ;E:\Dropbox\FAUSTO\SVILUPPI\MSX\CODE\C\MSXgl\projects\soccerlgSCC/soccerlg_s5_b3.c:158: if (teamId == TEAM_1) {
    00000438 DD 7E FC         [19] 1194 	ld	a, -4 (ix)
    0000043B B7               [ 4] 1195 	or	a, a
    0000043C 28 10            [12] 1196 	jr	Z, 00106$
                                   1197 ;E:\Dropbox\FAUSTO\SVILUPPI\MSX\CODE\C\MSXgl\projects\soccerlgSCC/soccerlg_s5_b3.c:159: if (playerY >= FIELD_POS_Y_CENTER) return FALSE; // Own half
    0000043E DD 7E FD         [19] 1198 	ld	a, -3 (ix)
    00000441 D6 F3            [ 7] 1199 	sub	a, #0xf3
    00000443 DD 7E FE         [19] 1200 	ld	a, -2 (ix)
    00000446 DE 00            [ 7] 1201 	sbc	a, #0x00
    00000448 38 14            [12] 1202 	jr	C, 00107$
    0000044A AF               [ 4] 1203 	xor	a, a
    0000044B C3rDEr04         [10] 1204 	jp	00129$
    0000044E                       1205 00106$:
                                   1206 ;E:\Dropbox\FAUSTO\SVILUPPI\MSX\CODE\C\MSXgl\projects\soccerlgSCC/soccerlg_s5_b3.c:161: if (playerY <= FIELD_POS_Y_CENTER) return FALSE; // Own half
    0000044E 3E F3            [ 7] 1207 	ld	a, #0xf3
    00000450 DD BE FD         [19] 1208 	cp	a, -3 (ix)
    00000453 3E 00            [ 7] 1209 	ld	a, #0x00
    00000455 DD 9E FE         [19] 1210 	sbc	a, -2 (ix)
    00000458 38 04            [12] 1211 	jr	C, 00107$
    0000045A AF               [ 4] 1212 	xor	a, a
    0000045B C3rDEr04         [10] 1213 	jp	00129$
    0000045E                       1214 00107$:
                                   1215 ;E:\Dropbox\FAUSTO\SVILUPPI\MSX\CODE\C\MSXgl\projects\soccerlgSCC/soccerlg_s5_b3.c:166: if (teamId == TEAM_1) {
    0000045E DD 7E FC         [19] 1216 	ld	a, -4 (ix)
    00000461 B7               [ 4] 1217 	or	a, a
    00000462 28 11            [12] 1218 	jr	Z, 00113$
                                   1219 ;E:\Dropbox\FAUSTO\SVILUPPI\MSX\CODE\C\MSXgl\projects\soccerlgSCC/soccerlg_s5_b3.c:167: if (playerY >= g_Ball.Y) return FALSE; 
    00000464 2Ar00r00         [16] 1220 	ld	hl, (#_g_Ball + 0)
    00000467 DD 7E FA         [19] 1221 	ld	a, -6 (ix)
    0000046A 95               [ 4] 1222 	sub	a, l
    0000046B DD 7E FB         [19] 1223 	ld	a, -5 (ix)
    0000046E 9C               [ 4] 1224 	sbc	a, h
    0000046F 38 15            [12] 1225 	jr	C, 00141$
    00000471 AF               [ 4] 1226 	xor	a, a
    00000472 C3rDEr04         [10] 1227 	jp	00129$
    00000475                       1228 00113$:
                                   1229 ;E:\Dropbox\FAUSTO\SVILUPPI\MSX\CODE\C\MSXgl\projects\soccerlgSCC/soccerlg_s5_b3.c:169: if (playerY <= g_Ball.Y) return FALSE;
    00000475 2Ar00r00         [16] 1230 	ld	hl, (#_g_Ball + 0)
    00000478 7D               [ 4] 1231 	ld	a, l
    00000479 DD 96 FA         [19] 1232 	sub	a, -6 (ix)
    0000047C 7C               [ 4] 1233 	ld	a, h
    0000047D DD 9E FB         [19] 1234 	sbc	a, -5 (ix)
    00000480 38 04            [12] 1235 	jr	C, 00141$
    00000482 AF               [ 4] 1236 	xor	a, a
    00000483 C3rDEr04         [10] 1237 	jp	00129$
                                   1238 ;E:\Dropbox\FAUSTO\SVILUPPI\MSX\CODE\C\MSXgl\projects\soccerlgSCC/soccerlg_s5_b3.c:173: for (i = 0; i < 14; i++) {
    00000486                       1239 00141$:
    00000486 0E 00            [ 7] 1240 	ld	c, #0x00
    00000488                       1241 00128$:
                                   1242 ;E:\Dropbox\FAUSTO\SVILUPPI\MSX\CODE\C\MSXgl\projects\soccerlgSCC/soccerlg_s5_b3.c:174: if (g_Players[i].TeamId == teamId) continue;
    00000488 06 00            [ 7] 1243 	ld	b, #0x00
    0000048A 69               [ 4] 1244 	ld	l, c
    0000048B 60               [ 4] 1245 	ld	h, b
    0000048C 29               [11] 1246 	add	hl, hl
    0000048D 29               [11] 1247 	add	hl, hl
    0000048E 09               [11] 1248 	add	hl, bc
    0000048F 29               [11] 1249 	add	hl, hl
    00000490 29               [11] 1250 	add	hl, hl
    00000491 09               [11] 1251 	add	hl, bc
    00000492 11r00r00         [10] 1252 	ld	de, #_g_Players
    00000495 19               [11] 1253 	add	hl, de
                                   1254 ;	spillPairReg hl
                                   1255 ;	spillPairReg hl
    00000496 5D               [ 4] 1256 	ld	e, l
    00000497 54               [ 4] 1257 	ld	d, h
                                   1258 ;	spillPairReg hl
                                   1259 ;	spillPairReg hl
    00000498 C5               [11] 1260 	push	bc
    00000499 01 09 00         [10] 1261 	ld	bc, #0x0009
    0000049C 09               [11] 1262 	add	hl, bc
    0000049D C1               [10] 1263 	pop	bc
    0000049E DD 7E F9         [19] 1264 	ld	a,-7 (ix)
    000004A1 96               [ 7] 1265 	sub	a,(hl)
    000004A2 28 27            [12] 1266 	jr	Z, 00124$
                                   1267 ;E:\Dropbox\FAUSTO\SVILUPPI\MSX\CODE\C\MSXgl\projects\soccerlgSCC/soccerlg_s5_b3.c:178: if (g_Players[i].Y <= playerY) opponentCount++;
    000004A4 EB               [ 4] 1268 	ex	de,hl
    000004A5 5E               [ 7] 1269 	ld	e, (hl)
    000004A6 23               [ 6] 1270 	inc	hl
    000004A7 56               [ 7] 1271 	ld	d, (hl)
                                   1272 ;E:\Dropbox\FAUSTO\SVILUPPI\MSX\CODE\C\MSXgl\projects\soccerlgSCC/soccerlg_s5_b3.c:177: if (teamId == TEAM_1) { // Attacking UP
    000004A8 DD 7E FC         [19] 1273 	ld	a, -4 (ix)
    000004AB B7               [ 4] 1274 	or	a, a
    000004AC 28 10            [12] 1275 	jr	Z, 00122$
                                   1276 ;E:\Dropbox\FAUSTO\SVILUPPI\MSX\CODE\C\MSXgl\projects\soccerlgSCC/soccerlg_s5_b3.c:178: if (g_Players[i].Y <= playerY) opponentCount++;
    000004AE DD 7E FA         [19] 1277 	ld	a, -6 (ix)
    000004B1 93               [ 4] 1278 	sub	a, e
    000004B2 DD 7E FB         [19] 1279 	ld	a, -5 (ix)
    000004B5 9A               [ 4] 1280 	sbc	a, d
    000004B6 38 13            [12] 1281 	jr	C, 00124$
    000004B8 DD 34 FF         [23] 1282 	inc	-1 (ix)
    000004BB C3rCBr04         [10] 1283 	jp	00124$
    000004BE                       1284 00122$:
                                   1285 ;E:\Dropbox\FAUSTO\SVILUPPI\MSX\CODE\C\MSXgl\projects\soccerlgSCC/soccerlg_s5_b3.c:180: if (g_Players[i].Y >= playerY) opponentCount++;
    000004BE 7B               [ 4] 1286 	ld	a, e
    000004BF DD 96 FA         [19] 1287 	sub	a, -6 (ix)
    000004C2 7A               [ 4] 1288 	ld	a, d
    000004C3 DD 9E FB         [19] 1289 	sbc	a, -5 (ix)
    000004C6 38 03            [12] 1290 	jr	C, 00124$
    000004C8 DD 34 FF         [23] 1291 	inc	-1 (ix)
    000004CB                       1292 00124$:
                                   1293 ;E:\Dropbox\FAUSTO\SVILUPPI\MSX\CODE\C\MSXgl\projects\soccerlgSCC/soccerlg_s5_b3.c:173: for (i = 0; i < 14; i++) {
    000004CB 0C               [ 4] 1294 	inc	c
    000004CC 79               [ 4] 1295 	ld	a, c
    000004CD D6 0E            [ 7] 1296 	sub	a, #0x0e
    000004CF 38 B7            [12] 1297 	jr	C, 00128$
                                   1298 ;E:\Dropbox\FAUSTO\SVILUPPI\MSX\CODE\C\MSXgl\projects\soccerlgSCC/soccerlg_s5_b3.c:184: if (opponentCount < 2) return TRUE;
    000004D1 DD 7E FF         [19] 1299 	ld	a, -1 (ix)
    000004D4 D6 02            [ 7] 1300 	sub	a, #0x02
    000004D6 30 05            [12] 1301 	jr	NC, 00127$
    000004D8 3E 01            [ 7] 1302 	ld	a, #0x01
    000004DA C3rDEr04         [10] 1303 	jp	00129$
    000004DD                       1304 00127$:
                                   1305 ;E:\Dropbox\FAUSTO\SVILUPPI\MSX\CODE\C\MSXgl\projects\soccerlgSCC/soccerlg_s5_b3.c:185: return FALSE;
    000004DD AF               [ 4] 1306 	xor	a, a
    000004DE                       1307 00129$:
                                   1308 ;E:\Dropbox\FAUSTO\SVILUPPI\MSX\CODE\C\MSXgl\projects\soccerlgSCC/soccerlg_s5_b3.c:186: }
    000004DE DD F9            [10] 1309 	ld	sp, ix
    000004E0 DD E1            [14] 1310 	pop	ix
    000004E2 C9               [10] 1311 	ret
                                   1312 ;E:\Dropbox\FAUSTO\SVILUPPI\MSX\CODE\C\MSXgl\projects\soccerlgSCC/soccerlg_s5_b3.c:188: void TickGoalKick() {
                                   1313 ;	---------------------------------
                                   1314 ; Function TickGoalKick
                                   1315 ; ---------------------------------
    000004E3                       1316 _TickGoalKick::
    000004E3 DD E5            [15] 1317 	push	ix
    000004E5 DD 21 00 00      [14] 1318 	ld	ix,#0
    000004E9 DD 39            [15] 1319 	add	ix,sp
    000004EB 21 F6 FF         [10] 1320 	ld	hl, #-10
    000004EE 39               [11] 1321 	add	hl, sp
    000004EF F9               [ 6] 1322 	ld	sp, hl
                                   1323 ;E:\Dropbox\FAUSTO\SVILUPPI\MSX\CODE\C\MSXgl\projects\soccerlgSCC/soccerlg_s5_b3.c:189: if (g_MatchStatus != MATCH_BEFORE_GOAL_KICK) return;
    000004F0 3Ar00r00         [13] 1324 	ld	a, (_g_MatchStatus+0)
    000004F3 D6 05            [ 7] 1325 	sub	a, #0x05
    000004F5 C2r9Dr0A         [10] 1326 	jp	NZ,00244$
                                   1327 ;E:\Dropbox\FAUSTO\SVILUPPI\MSX\CODE\C\MSXgl\projects\soccerlgSCC/soccerlg_s5_b3.c:196: if (g_RestartKickTeamId == TEAM_1) gkId = CallFnc_U8_P2(4,GetPlayerIdByRole,TEAM_1, PLAYER_ROLE_GOALKEEPER);
    000004F8 3Ar00r00         [13] 1328 	ld	a, (_g_RestartKickTeamId+0)
    000004FB 3D               [ 4] 1329 	dec	a
    000004FC 20 12            [12] 1330 	jr	NZ, 00104$
    000004FE 21 01 00         [10] 1331 	ld	hl, #0x01
    00000501 E5               [11] 1332 	push	hl
    00000502 11r00r00         [10] 1333 	ld	de, #_GetPlayerIdByRole
    00000505 3E 04            [ 7] 1334 	ld	a, #0x04
    00000507 CDr00r00         [17] 1335 	call	_CallFnc_U8_P2
    0000050A DD 77 F6         [19] 1336 	ld	-10 (ix), a
    0000050D C3r1Fr05         [10] 1337 	jp	00105$
    00000510                       1338 00104$:
                                   1339 ;E:\Dropbox\FAUSTO\SVILUPPI\MSX\CODE\C\MSXgl\projects\soccerlgSCC/soccerlg_s5_b3.c:197: else gkId = CallFnc_U8_P2(4,GetPlayerIdByRole,TEAM_2, PLAYER_ROLE_GOALKEEPER);
    00000510 21 02 00         [10] 1340 	ld	hl, #0x02
    00000513 E5               [11] 1341 	push	hl
    00000514 11r00r00         [10] 1342 	ld	de, #_GetPlayerIdByRole
    00000517 3E 04            [ 7] 1343 	ld	a, #0x04
    00000519 CDr00r00         [17] 1344 	call	_CallFnc_U8_P2
    0000051C DD 77 F6         [19] 1345 	ld	-10 (ix), a
    0000051F                       1346 00105$:
                                   1347 ;E:\Dropbox\FAUSTO\SVILUPPI\MSX\CODE\C\MSXgl\projects\soccerlgSCC/soccerlg_s5_b3.c:199: if (gkId == NO_VALUE) return; 
    0000051F DD 7E F6         [19] 1348 	ld	a, -10 (ix)
    00000522 3C               [ 4] 1349 	inc	a
    00000523 CAr9Dr0A         [10] 1350 	jp	Z,00244$
    00000526 C3r29r05         [10] 1351 	jp	00107$
    00000529                       1352 00107$:
                                   1353 ;E:\Dropbox\FAUSTO\SVILUPPI\MSX\CODE\C\MSXgl\projects\soccerlgSCC/soccerlg_s5_b3.c:202: if (g_Timer < 10) {
    00000529 3Ar00r00         [13] 1354 	ld	a, (_g_Timer+0)
    0000052C D6 0A            [ 7] 1355 	sub	a, #0x0a
    0000052E 30 0B            [12] 1356 	jr	NC, 00109$
                                   1357 ;E:\Dropbox\FAUSTO\SVILUPPI\MSX\CODE\C\MSXgl\projects\soccerlgSCC/soccerlg_s5_b3.c:203: s_SetupDone = false;
    00000530 21r02r00         [10] 1358 	ld	hl, #_TickGoalKick_s_SetupDone_65537_1249
    00000533 36 00            [10] 1359 	ld	(hl), #0x00
                                   1360 ;E:\Dropbox\FAUSTO\SVILUPPI\MSX\CODE\C\MSXgl\projects\soccerlgSCC/soccerlg_s5_b3.c:204: s_SafetyTimeout = 0;
    00000535 21 00 00         [10] 1361 	ld	hl, #0x0000
    00000538 22r00r00         [16] 1362 	ld	(_TickGoalKick_s_SafetyTimeout_65537_1249), hl
    0000053B                       1363 00109$:
                                   1364 ;E:\Dropbox\FAUSTO\SVILUPPI\MSX\CODE\C\MSXgl\projects\soccerlgSCC/soccerlg_s5_b3.c:208: if (g_Timer < 60) {
    0000053B 3Ar00r00         [13] 1365 	ld	a, (_g_Timer+0)
    0000053E D6 3C            [ 7] 1366 	sub	a, #0x3c
    00000540 30 07            [12] 1367 	jr	NC, 00111$
                                   1368 ;E:\Dropbox\FAUSTO\SVILUPPI\MSX\CODE\C\MSXgl\projects\soccerlgSCC/soccerlg_s5_b3.c:209: g_Timer++;
    00000542 21r00r00         [10] 1369 	ld	hl, #_g_Timer
    00000545 34               [11] 1370 	inc	(hl)
                                   1371 ;E:\Dropbox\FAUSTO\SVILUPPI\MSX\CODE\C\MSXgl\projects\soccerlgSCC/soccerlg_s5_b3.c:210: return;
    00000546 C3r9Dr0A         [10] 1372 	jp	00244$
    00000549                       1373 00111$:
                                   1374 ;E:\Dropbox\FAUSTO\SVILUPPI\MSX\CODE\C\MSXgl\projects\soccerlgSCC/soccerlg_s5_b3.c:212: g_Ball.Size = 1;
    00000549 21r04r00         [10] 1375 	ld	hl, #(_g_Ball + 4)
    0000054C 36 01            [10] 1376 	ld	(hl), #0x01
                                   1377 ;E:\Dropbox\FAUSTO\SVILUPPI\MSX\CODE\C\MSXgl\projects\soccerlgSCC/soccerlg_s5_b3.c:214: if (!s_SetupDone) {
    0000054E 3Ar02r00         [13] 1378 	ld	a, (_TickGoalKick_s_SetupDone_65537_1249+0)
    00000551 B7               [ 4] 1379 	or	a, a
    00000552 C2rD9r07         [10] 1380 	jp	NZ, 00177$
                                   1381 ;E:\Dropbox\FAUSTO\SVILUPPI\MSX\CODE\C\MSXgl\projects\soccerlgSCC/soccerlg_s5_b3.c:215: s_SetupDone = true;
    00000555 21r02r00         [10] 1382 	ld	hl, #_TickGoalKick_s_SetupDone_65537_1249
    00000558 36 01            [10] 1383 	ld	(hl), #0x01
                                   1384 ;E:\Dropbox\FAUSTO\SVILUPPI\MSX\CODE\C\MSXgl\projects\soccerlgSCC/soccerlg_s5_b3.c:216: s_SafetyTimeout = 0;
    0000055A 21 00 00         [10] 1385 	ld	hl, #0x0000
    0000055D 22r00r00         [16] 1386 	ld	(_TickGoalKick_s_SafetyTimeout_65537_1249), hl
                                   1387 ;E:\Dropbox\FAUSTO\SVILUPPI\MSX\CODE\C\MSXgl\projects\soccerlgSCC/soccerlg_s5_b3.c:219: if (g_GoalKickSide == CORNER_SIDE_LEFT) targetX = GK_BOX_X_MIN;
    00000560 3Ar00r00         [13] 1388 	ld	a, (_g_GoalKickSide+0)
    00000563 B7               [ 4] 1389 	or	a, a
    00000564 20 06            [12] 1390 	jr	NZ, 00113$
    00000566 01 50 00         [10] 1391 	ld	bc, #0x0050
    00000569 C3r6Fr05         [10] 1392 	jp	00114$
    0000056C                       1393 00113$:
                                   1394 ;E:\Dropbox\FAUSTO\SVILUPPI\MSX\CODE\C\MSXgl\projects\soccerlgSCC/soccerlg_s5_b3.c:220: else targetX = GK_BOX_X_MAX;
    0000056C 01 A0 00         [10] 1395 	ld	bc, #0x00a0
    0000056F                       1396 00114$:
                                   1397 ;E:\Dropbox\FAUSTO\SVILUPPI\MSX\CODE\C\MSXgl\projects\soccerlgSCC/soccerlg_s5_b3.c:223: if (g_RestartKickTeamId == TEAM_1) { // Bottom Goal
    0000056F 3Ar00r00         [13] 1398 	ld	a, (_g_RestartKickTeamId+0)
    00000572 3D               [ 4] 1399 	dec	a
    00000573 20 06            [12] 1400 	jr	NZ, 00116$
                                   1401 ;E:\Dropbox\FAUSTO\SVILUPPI\MSX\CODE\C\MSXgl\projects\soccerlgSCC/soccerlg_s5_b3.c:224: ballY = GK_BOX_Y_BOTTOM_MIN; 
    00000575 11 95 01         [10] 1402 	ld	de, #0x0195
    00000578 C3r7Er05         [10] 1403 	jp	00117$
    0000057B                       1404 00116$:
                                   1405 ;E:\Dropbox\FAUSTO\SVILUPPI\MSX\CODE\C\MSXgl\projects\soccerlgSCC/soccerlg_s5_b3.c:226: ballY = GK_BOX_Y_TOP_MAX; 
    0000057B 11 4B 00         [10] 1406 	ld	de, #0x004b
    0000057E                       1407 00117$:
                                   1408 ;E:\Dropbox\FAUSTO\SVILUPPI\MSX\CODE\C\MSXgl\projects\soccerlgSCC/soccerlg_s5_b3.c:230: g_Ball.X = targetX;
    0000057E ED 43r02r00      [20] 1409 	ld	((_g_Ball + 2)), bc
                                   1410 ;E:\Dropbox\FAUSTO\SVILUPPI\MSX\CODE\C\MSXgl\projects\soccerlgSCC/soccerlg_s5_b3.c:231: g_Ball.Y = ballY;
    00000582 ED 53r00r00      [20] 1411 	ld	(_g_Ball), de
                                   1412 ;E:\Dropbox\FAUSTO\SVILUPPI\MSX\CODE\C\MSXgl\projects\soccerlgSCC/soccerlg_s5_b3.c:232: g_Ball.PossessionPlayerId = NO_VALUE;
    00000586 21r06r00         [10] 1413 	ld	hl, #(_g_Ball + 6)
    00000589 36 FF            [10] 1414 	ld	(hl), #0xff
                                   1415 ;E:\Dropbox\FAUSTO\SVILUPPI\MSX\CODE\C\MSXgl\projects\soccerlgSCC/soccerlg_s5_b3.c:237: runStartY = ballY + 32; 
                                   1416 ;E:\Dropbox\FAUSTO\SVILUPPI\MSX\CODE\C\MSXgl\projects\soccerlgSCC/soccerlg_s5_b3.c:236: if (g_RestartKickTeamId == TEAM_1) {
    0000058B 3Ar00r00         [13] 1417 	ld	a, (_g_RestartKickTeamId+0)
    0000058E 3D               [ 4] 1418 	dec	a
    0000058F 20 1E            [12] 1419 	jr	NZ, 00123$
                                   1420 ;E:\Dropbox\FAUSTO\SVILUPPI\MSX\CODE\C\MSXgl\projects\soccerlgSCC/soccerlg_s5_b3.c:237: runStartY = ballY + 32; 
    00000591 21 20 00         [10] 1421 	ld	hl, #0x0020
    00000594 19               [11] 1422 	add	hl, de
                                   1423 ;E:\Dropbox\FAUSTO\SVILUPPI\MSX\CODE\C\MSXgl\projects\soccerlgSCC/soccerlg_s5_b3.c:238: if(runStartY > FIELD_BOUND_Y_BOTTOM) runStartY = FIELD_BOUND_Y_BOTTOM;
    00000595 DD 75 FE         [19] 1424 	ld	-2 (ix), l
    00000598 DD 74 FF         [19] 1425 	ld	-1 (ix), h
    0000059B EB               [ 4] 1426 	ex	de,hl
    0000059C 3E B3            [ 7] 1427 	ld	a, #0xb3
    0000059E BB               [ 4] 1428 	cp	a, e
    0000059F 3E 01            [ 7] 1429 	ld	a, #0x01
    000005A1 9A               [ 4] 1430 	sbc	a, d
    000005A2 30 29            [12] 1431 	jr	NC, 00124$
    000005A4 DD 36 FE B3      [19] 1432 	ld	-2 (ix), #0xb3
    000005A8 DD 36 FF 01      [19] 1433 	ld	-1 (ix), #0x01
    000005AC C3rCDr05         [10] 1434 	jp	00124$
    000005AF                       1435 00123$:
                                   1436 ;E:\Dropbox\FAUSTO\SVILUPPI\MSX\CODE\C\MSXgl\projects\soccerlgSCC/soccerlg_s5_b3.c:240: runStartY = ballY - 32;
    000005AF 7B               [ 4] 1437 	ld	a, e
    000005B0 C6 E0            [ 7] 1438 	add	a, #0xe0
    000005B2 5F               [ 4] 1439 	ld	e, a
    000005B3 7A               [ 4] 1440 	ld	a, d
    000005B4 CE FF            [ 7] 1441 	adc	a, #0xff
                                   1442 ;E:\Dropbox\FAUSTO\SVILUPPI\MSX\CODE\C\MSXgl\projects\soccerlgSCC/soccerlg_s5_b3.c:241: if(runStartY < FIELD_BOUND_Y_TOP) runStartY = FIELD_BOUND_Y_TOP;
    000005B6 DD 73 FE         [19] 1443 	ld	-2 (ix), e
    000005B9 DD 77 FF         [19] 1444 	ld	-1 (ix), a
    000005BC 57               [ 4] 1445 	ld	d, a
    000005BD 7B               [ 4] 1446 	ld	a, e
    000005BE D6 32            [ 7] 1447 	sub	a, #0x32
    000005C0 7A               [ 4] 1448 	ld	a, d
    000005C1 DE 00            [ 7] 1449 	sbc	a, #0x00
    000005C3 30 08            [12] 1450 	jr	NC, 00124$
    000005C5 DD 36 FE 32      [19] 1451 	ld	-2 (ix), #0x32
    000005C9 DD 36 FF 00      [19] 1452 	ld	-1 (ix), #0
    000005CD                       1453 00124$:
                                   1454 ;E:\Dropbox\FAUSTO\SVILUPPI\MSX\CODE\C\MSXgl\projects\soccerlgSCC/soccerlg_s5_b3.c:244: g_Players[gkId].TargetX = targetX;
    000005CD DD 5E F6         [19] 1455 	ld	e, -10 (ix)
    000005D0 16 00            [ 7] 1456 	ld	d, #0x00
    000005D2 6B               [ 4] 1457 	ld	l, e
    000005D3 62               [ 4] 1458 	ld	h, d
    000005D4 29               [11] 1459 	add	hl, hl
    000005D5 29               [11] 1460 	add	hl, hl
    000005D6 19               [11] 1461 	add	hl, de
    000005D7 29               [11] 1462 	add	hl, hl
    000005D8 29               [11] 1463 	add	hl, hl
    000005D9 19               [11] 1464 	add	hl, de
    000005DA EB               [ 4] 1465 	ex	de, hl
    000005DB 21r00r00         [10] 1466 	ld	hl, #_g_Players
    000005DE 19               [11] 1467 	add	hl, de
    000005DF EB               [ 4] 1468 	ex	de, hl
    000005E0 21 10 00         [10] 1469 	ld	hl, #0x0010
    000005E3 19               [11] 1470 	add	hl, de
    000005E4 71               [ 7] 1471 	ld	(hl), c
    000005E5 23               [ 6] 1472 	inc	hl
    000005E6 70               [ 7] 1473 	ld	(hl), b
                                   1474 ;E:\Dropbox\FAUSTO\SVILUPPI\MSX\CODE\C\MSXgl\projects\soccerlgSCC/soccerlg_s5_b3.c:245: g_Players[gkId].TargetY = runStartY;
    000005E7 21 0E 00         [10] 1475 	ld	hl, #0x000e
    000005EA 19               [11] 1476 	add	hl, de
    000005EB DD 7E FE         [19] 1477 	ld	a, -2 (ix)
    000005EE 77               [ 7] 1478 	ld	(hl), a
    000005EF 23               [ 6] 1479 	inc	hl
    000005F0 DD 7E FF         [19] 1480 	ld	a, -1 (ix)
    000005F3 77               [ 7] 1481 	ld	(hl), a
                                   1482 ;E:\Dropbox\FAUSTO\SVILUPPI\MSX\CODE\C\MSXgl\projects\soccerlgSCC/soccerlg_s5_b3.c:246: g_Players[gkId].Status = PLAYER_STATUS_NONE; 
    000005F4 21 12 00         [10] 1483 	ld	hl, #0x0012
    000005F7 19               [11] 1484 	add	hl, de
    000005F8 AF               [ 4] 1485 	xor	a, a
    000005F9 77               [ 7] 1486 	ld	(hl), a
    000005FA 23               [ 6] 1487 	inc	hl
    000005FB 77               [ 7] 1488 	ld	(hl), a
                                   1489 ;E:\Dropbox\FAUSTO\SVILUPPI\MSX\CODE\C\MSXgl\projects\soccerlgSCC/soccerlg_s5_b3.c:248: if (g_RestartKickTeamId == TEAM_1) g_Players[gkId].Direction = DIRECTION_UP;
    000005FC 21 0A 00         [10] 1490 	ld	hl, #0x000a
    000005FF 19               [11] 1491 	add	hl, de
    00000600 3Ar00r00         [13] 1492 	ld	a, (_g_RestartKickTeamId+0)
    00000603 3D               [ 4] 1493 	dec	a
    00000604 20 05            [12] 1494 	jr	NZ, 00126$
    00000606 36 01            [10] 1495 	ld	(hl), #0x01
    00000608 C3r0Dr06         [10] 1496 	jp	00127$
    0000060B                       1497 00126$:
                                   1498 ;E:\Dropbox\FAUSTO\SVILUPPI\MSX\CODE\C\MSXgl\projects\soccerlgSCC/soccerlg_s5_b3.c:249: else g_Players[gkId].Direction = DIRECTION_DOWN;
    0000060B 36 05            [10] 1499 	ld	(hl), #0x05
    0000060D                       1500 00127$:
                                   1501 ;E:\Dropbox\FAUSTO\SVILUPPI\MSX\CODE\C\MSXgl\projects\soccerlgSCC/soccerlg_s5_b3.c:251: if (g_RestartKickTeamId == TEAM_1) g_FieldScrollingActionInProgress=FIELD_SOUTH_ZONE;
    0000060D 3Ar00r00         [13] 1502 	ld	a, (_g_RestartKickTeamId+0)
    00000610 3D               [ 4] 1503 	dec	a
    00000611 20 08            [12] 1504 	jr	NZ, 00129$
    00000613 3E 02            [ 7] 1505 	ld	a, #0x02
    00000615 32r00r00         [13] 1506 	ld	(#_g_FieldScrollingActionInProgress), a
    00000618 C3r1Fr06         [10] 1507 	jp	00287$
    0000061B                       1508 00129$:
                                   1509 ;E:\Dropbox\FAUSTO\SVILUPPI\MSX\CODE\C\MSXgl\projects\soccerlgSCC/soccerlg_s5_b3.c:252: else g_FieldScrollingActionInProgress=FIELD_NORTH_ZONE;
    0000061B AF               [ 4] 1510 	xor	a, a
    0000061C 32r00r00         [13] 1511 	ld	(#_g_FieldScrollingActionInProgress), a
                                   1512 ;E:\Dropbox\FAUSTO\SVILUPPI\MSX\CODE\C\MSXgl\projects\soccerlgSCC/soccerlg_s5_b3.c:255: for(u8 i=0; i<14; i++){
    0000061F                       1513 00287$:
    0000061F DD 36 FF 00      [19] 1514 	ld	-1 (ix), #0x00
    00000623                       1515 00241$:
    00000623 DD 7E FF         [19] 1516 	ld	a, -1 (ix)
    00000626 D6 0E            [ 7] 1517 	sub	a, #0x0e
    00000628 D2rD9r07         [10] 1518 	jp	NC, 00177$
                                   1519 ;E:\Dropbox\FAUSTO\SVILUPPI\MSX\CODE\C\MSXgl\projects\soccerlgSCC/soccerlg_s5_b3.c:256: if(i == gkId) continue;
    0000062B DD 7E F6         [19] 1520 	ld	a, -10 (ix)
    0000062E DD 96 FF         [19] 1521 	sub	a, -1 (ix)
    00000631 CArD3r07         [10] 1522 	jp	Z,00174$
                                   1523 ;E:\Dropbox\FAUSTO\SVILUPPI\MSX\CODE\C\MSXgl\projects\soccerlgSCC/soccerlg_s5_b3.c:257: if(g_Players[i].TeamId == REFEREE) continue;
    00000634 DD 4E FF         [19] 1524 	ld	c, -1 (ix)
    00000637 06 00            [ 7] 1525 	ld	b, #0x00
    00000639 69               [ 4] 1526 	ld	l, c
    0000063A 60               [ 4] 1527 	ld	h, b
    0000063B 29               [11] 1528 	add	hl, hl
    0000063C 29               [11] 1529 	add	hl, hl
    0000063D 09               [11] 1530 	add	hl, bc
    0000063E 29               [11] 1531 	add	hl, hl
    0000063F 29               [11] 1532 	add	hl, hl
    00000640 09               [11] 1533 	add	hl, bc
    00000641 11r00r00         [10] 1534 	ld	de, #_g_Players
    00000644 19               [11] 1535 	add	hl, de
    00000645 DD 75 F7         [19] 1536 	ld	-9 (ix), l
    00000648 DD 74 F8         [19] 1537 	ld	-8 (ix), h
    0000064B FD 21 09 00      [14] 1538 	ld	iy, #0x0009
    0000064F DD 5E F7         [19] 1539 	ld	e, -9 (ix)
    00000652 DD 56 F8         [19] 1540 	ld	d, -8 (ix)
    00000655 FD 19            [15] 1541 	add	iy, de
    00000657 FD 7E 00         [19] 1542 	ld	a, 0 (iy)
    0000065A D6 0E            [ 7] 1543 	sub	a, #0x0e
    0000065C CArD3r07         [10] 1544 	jp	Z,00174$
                                   1545 ;E:\Dropbox\FAUSTO\SVILUPPI\MSX\CODE\C\MSXgl\projects\soccerlgSCC/soccerlg_s5_b3.c:258: if(g_Players[i].Role == PLAYER_ROLE_GOALKEEPER) continue;
    0000065F DD 7E F7         [19] 1546 	ld	a, -9 (ix)
    00000662 C6 0D            [ 7] 1547 	add	a, #0x0d
    00000664 5F               [ 4] 1548 	ld	e, a
    00000665 DD 7E F8         [19] 1549 	ld	a, -8 (ix)
    00000668 CE 00            [ 7] 1550 	adc	a, #0x00
    0000066A 57               [ 4] 1551 	ld	d, a
    0000066B 1A               [ 7] 1552 	ld	a, (de)
    0000066C B7               [ 4] 1553 	or	a, a
    0000066D CArD3r07         [10] 1554 	jp	Z, 00174$
                                   1555 ;E:\Dropbox\FAUSTO\SVILUPPI\MSX\CODE\C\MSXgl\projects\soccerlgSCC/soccerlg_s5_b3.c:261: g_Players[i].Status = PLAYER_STATUS_NONE;
    00000670 DD 6E F7         [19] 1556 	ld	l, -9 (ix)
    00000673 DD 66 F8         [19] 1557 	ld	h, -8 (ix)
    00000676 01 12 00         [10] 1558 	ld	bc, #0x0012
    00000679 09               [11] 1559 	add	hl, bc
    0000067A AF               [ 4] 1560 	xor	a, a
    0000067B 77               [ 7] 1561 	ld	(hl), a
    0000067C 23               [ 6] 1562 	inc	hl
    0000067D 77               [ 7] 1563 	ld	(hl), a
                                   1564 ;E:\Dropbox\FAUSTO\SVILUPPI\MSX\CODE\C\MSXgl\projects\soccerlgSCC/soccerlg_s5_b3.c:264: u16 targetX = g_Players[i].X;
    0000067E DD 6E F7         [19] 1565 	ld	l, -9 (ix)
                                   1566 ;	spillPairReg hl
                                   1567 ;	spillPairReg hl
    00000681 DD 66 F8         [19] 1568 	ld	h, -8 (ix)
                                   1569 ;	spillPairReg hl
                                   1570 ;	spillPairReg hl
    00000684 23               [ 6] 1571 	inc	hl
    00000685 23               [ 6] 1572 	inc	hl
    00000686 7E               [ 7] 1573 	ld	a, (hl)
    00000687 DD 77 F9         [19] 1574 	ld	-7 (ix), a
    0000068A 23               [ 6] 1575 	inc	hl
    0000068B 7E               [ 7] 1576 	ld	a, (hl)
    0000068C DD 77 FA         [19] 1577 	ld	-6 (ix), a
                                   1578 ;E:\Dropbox\FAUSTO\SVILUPPI\MSX\CODE\C\MSXgl\projects\soccerlgSCC/soccerlg_s5_b3.c:257: if(g_Players[i].TeamId == REFEREE) continue;
    0000068F FD 4E 00         [19] 1579 	ld	c, 0 (iy)
                                   1580 ;E:\Dropbox\FAUSTO\SVILUPPI\MSX\CODE\C\MSXgl\projects\soccerlgSCC/soccerlg_s5_b3.c:258: if(g_Players[i].Role == PLAYER_ROLE_GOALKEEPER) continue;
    00000692 1A               [ 7] 1581 	ld	a, (de)
                                   1582 ;E:\Dropbox\FAUSTO\SVILUPPI\MSX\CODE\C\MSXgl\projects\soccerlgSCC/soccerlg_s5_b3.c:271: if (g_Players[i].Role == PLAYER_ROLE_LEFT_STRIKER || g_Players[i].Role == PLAYER_ROLE_RIGHT_STRIKER) targetY = 200;
    00000693 DD 77 FB         [19] 1583 	ld	-5 (ix), a
    00000696 D6 05            [ 7] 1584 	sub	a, #0x05
    00000698 3E 01            [ 7] 1585 	ld	a, #0x01
    0000069A 28 01            [12] 1586 	jr	Z, 00583$
    0000069C AF               [ 4] 1587 	xor	a, a
    0000069D                       1588 00583$:
    0000069D 5F               [ 4] 1589 	ld	e, a
                                   1590 ;E:\Dropbox\FAUSTO\SVILUPPI\MSX\CODE\C\MSXgl\projects\soccerlgSCC/soccerlg_s5_b3.c:272: if (g_Players[i].Role == PLAYER_ROLE_LEFT_DEFENDER || g_Players[i].Role == PLAYER_ROLE_RIGHT_DEFENDER) targetY = 320; // Defenders move out of box (Safe < 350)
    0000069E DD 7E FB         [19] 1591 	ld	a, -5 (ix)
    000006A1 3D               [ 4] 1592 	dec	a
    000006A2 3E 01            [ 7] 1593 	ld	a, #0x01
    000006A4 28 01            [12] 1594 	jr	Z, 00585$
    000006A6 AF               [ 4] 1595 	xor	a, a
    000006A7                       1596 00585$:
    000006A7 DD 77 FC         [19] 1597 	ld	-4 (ix), a
                                   1598 ;E:\Dropbox\FAUSTO\SVILUPPI\MSX\CODE\C\MSXgl\projects\soccerlgSCC/soccerlg_s5_b3.c:266: if (g_RestartKickTeamId == TEAM_1) {
    000006AA 3Ar00r00         [13] 1599 	ld	a, (_g_RestartKickTeamId+0)
    000006AD 3D               [ 4] 1600 	dec	a
    000006AE 20 6A            [12] 1601 	jr	NZ, 00168$
                                   1602 ;E:\Dropbox\FAUSTO\SVILUPPI\MSX\CODE\C\MSXgl\projects\soccerlgSCC/soccerlg_s5_b3.c:268: if(g_Players[i].TeamId == TEAM_1) {
    000006B0 0D               [ 4] 1603 	dec	c
    000006B1 20 34            [12] 1604 	jr	NZ, 00150$
                                   1605 ;E:\Dropbox\FAUSTO\SVILUPPI\MSX\CODE\C\MSXgl\projects\soccerlgSCC/soccerlg_s5_b3.c:270: targetY = 260; // Midfielders (Closer to center)
    000006B3 DD 36 FD 04      [19] 1606 	ld	-3 (ix), #0x04
    000006B7 DD 36 FE 01      [19] 1607 	ld	-2 (ix), #0x01
                                   1608 ;E:\Dropbox\FAUSTO\SVILUPPI\MSX\CODE\C\MSXgl\projects\soccerlgSCC/soccerlg_s5_b3.c:271: if (g_Players[i].Role == PLAYER_ROLE_LEFT_STRIKER || g_Players[i].Role == PLAYER_ROLE_RIGHT_STRIKER) targetY = 200;
    000006BB 7B               [ 4] 1609 	ld	a, e
    000006BC B7               [ 4] 1610 	or	a, a
    000006BD 20 07            [12] 1611 	jr	NZ, 00137$
    000006BF DD 7E FB         [19] 1612 	ld	a, -5 (ix)
    000006C2 D6 06            [ 7] 1613 	sub	a, #0x06
    000006C4 20 08            [12] 1614 	jr	NZ, 00138$
    000006C6                       1615 00137$:
    000006C6 DD 36 FD C8      [19] 1616 	ld	-3 (ix), #0xc8
    000006CA DD 36 FE 00      [19] 1617 	ld	-2 (ix), #0
    000006CE                       1618 00138$:
                                   1619 ;E:\Dropbox\FAUSTO\SVILUPPI\MSX\CODE\C\MSXgl\projects\soccerlgSCC/soccerlg_s5_b3.c:272: if (g_Players[i].Role == PLAYER_ROLE_LEFT_DEFENDER || g_Players[i].Role == PLAYER_ROLE_RIGHT_DEFENDER) targetY = 320; // Defenders move out of box (Safe < 350)
    000006CE DD 7E FC         [19] 1620 	ld	a, -4 (ix)
    000006D1 B7               [ 4] 1621 	or	a, a
    000006D2 20 08            [12] 1622 	jr	NZ, 00140$
    000006D4 DD 7E FB         [19] 1623 	ld	a, -5 (ix)
    000006D7 D6 02            [ 7] 1624 	sub	a, #0x02
    000006D9 C2r82r07         [10] 1625 	jp	NZ,00169$
    000006DC                       1626 00140$:
    000006DC DD 36 FD 40      [19] 1627 	ld	-3 (ix), #0x40
    000006E0 DD 36 FE 01      [19] 1628 	ld	-2 (ix), #0x01
    000006E4 C3r82r07         [10] 1629 	jp	00169$
    000006E7                       1630 00150$:
                                   1631 ;E:\Dropbox\FAUSTO\SVILUPPI\MSX\CODE\C\MSXgl\projects\soccerlgSCC/soccerlg_s5_b3.c:274: targetY = 250;
    000006E7 DD 36 FD FA      [19] 1632 	ld	-3 (ix), #0xfa
    000006EB DD 36 FE 00      [19] 1633 	ld	-2 (ix), #0
                                   1634 ;E:\Dropbox\FAUSTO\SVILUPPI\MSX\CODE\C\MSXgl\projects\soccerlgSCC/soccerlg_s5_b3.c:275: if (g_Players[i].Role == PLAYER_ROLE_LEFT_STRIKER || g_Players[i].Role == PLAYER_ROLE_RIGHT_STRIKER) targetY = 240; // Keep distance (Safer < 250)
    000006EF 7B               [ 4] 1635 	ld	a, e
    000006F0 B7               [ 4] 1636 	or	a, a
    000006F1 20 07            [12] 1637 	jr	NZ, 00143$
    000006F3 DD 7E FB         [19] 1638 	ld	a, -5 (ix)
    000006F6 D6 06            [ 7] 1639 	sub	a, #0x06
    000006F8 20 08            [12] 1640 	jr	NZ, 00144$
    000006FA                       1641 00143$:
    000006FA DD 36 FD F0      [19] 1642 	ld	-3 (ix), #0xf0
    000006FE DD 36 FE 00      [19] 1643 	ld	-2 (ix), #0
    00000702                       1644 00144$:
                                   1645 ;E:\Dropbox\FAUSTO\SVILUPPI\MSX\CODE\C\MSXgl\projects\soccerlgSCC/soccerlg_s5_b3.c:276: if (g_Players[i].Role == PLAYER_ROLE_LEFT_DEFENDER || g_Players[i].Role == PLAYER_ROLE_RIGHT_DEFENDER) targetY = 150;
    00000702 DD 7E FC         [19] 1646 	ld	a, -4 (ix)
    00000705 B7               [ 4] 1647 	or	a, a
    00000706 20 07            [12] 1648 	jr	NZ, 00146$
    00000708 DD 7E FB         [19] 1649 	ld	a, -5 (ix)
    0000070B D6 02            [ 7] 1650 	sub	a, #0x02
    0000070D 20 73            [12] 1651 	jr	NZ, 00169$
    0000070F                       1652 00146$:
    0000070F DD 36 FD 96      [19] 1653 	ld	-3 (ix), #0x96
    00000713 DD 36 FE 00      [19] 1654 	ld	-2 (ix), #0
    00000717 C3r82r07         [10] 1655 	jp	00169$
    0000071A                       1656 00168$:
                                   1657 ;E:\Dropbox\FAUSTO\SVILUPPI\MSX\CODE\C\MSXgl\projects\soccerlgSCC/soccerlg_s5_b3.c:280: if(g_Players[i].TeamId == TEAM_2) {
    0000071A 79               [ 4] 1658 	ld	a, c
    0000071B D6 02            [ 7] 1659 	sub	a, #0x02
    0000071D 20 33            [12] 1660 	jr	NZ, 00165$
                                   1661 ;E:\Dropbox\FAUSTO\SVILUPPI\MSX\CODE\C\MSXgl\projects\soccerlgSCC/soccerlg_s5_b3.c:282: targetY = 220; // Midfielders (Closer to center)
    0000071F DD 36 FD DC      [19] 1662 	ld	-3 (ix), #0xdc
    00000723 DD 36 FE 00      [19] 1663 	ld	-2 (ix), #0
                                   1664 ;E:\Dropbox\FAUSTO\SVILUPPI\MSX\CODE\C\MSXgl\projects\soccerlgSCC/soccerlg_s5_b3.c:283: if (g_Players[i].Role == PLAYER_ROLE_LEFT_STRIKER || g_Players[i].Role == PLAYER_ROLE_RIGHT_STRIKER) targetY = 250;
    00000727 7B               [ 4] 1665 	ld	a, e
    00000728 B7               [ 4] 1666 	or	a, a
    00000729 20 07            [12] 1667 	jr	NZ, 00152$
    0000072B DD 7E FB         [19] 1668 	ld	a, -5 (ix)
    0000072E D6 06            [ 7] 1669 	sub	a, #0x06
    00000730 20 08            [12] 1670 	jr	NZ, 00153$
    00000732                       1671 00152$:
    00000732 DD 36 FD FA      [19] 1672 	ld	-3 (ix), #0xfa
    00000736 DD 36 FE 00      [19] 1673 	ld	-2 (ix), #0
    0000073A                       1674 00153$:
                                   1675 ;E:\Dropbox\FAUSTO\SVILUPPI\MSX\CODE\C\MSXgl\projects\soccerlgSCC/soccerlg_s5_b3.c:284: if (g_Players[i].Role == PLAYER_ROLE_LEFT_DEFENDER || g_Players[i].Role == PLAYER_ROLE_RIGHT_DEFENDER) targetY = 160; // Defenders move out of box (Safe > 130)
    0000073A DD 7E FC         [19] 1676 	ld	a, -4 (ix)
    0000073D B7               [ 4] 1677 	or	a, a
    0000073E 20 07            [12] 1678 	jr	NZ, 00155$
    00000740 DD 7E FB         [19] 1679 	ld	a, -5 (ix)
    00000743 D6 02            [ 7] 1680 	sub	a, #0x02
    00000745 20 3B            [12] 1681 	jr	NZ, 00169$
    00000747                       1682 00155$:
    00000747 DD 36 FD A0      [19] 1683 	ld	-3 (ix), #0xa0
    0000074B DD 36 FE 00      [19] 1684 	ld	-2 (ix), #0
    0000074F C3r82r07         [10] 1685 	jp	00169$
    00000752                       1686 00165$:
                                   1687 ;E:\Dropbox\FAUSTO\SVILUPPI\MSX\CODE\C\MSXgl\projects\soccerlgSCC/soccerlg_s5_b3.c:286: targetY = 240; // Keep distance (Safer > 230)
    00000752 DD 36 FD F0      [19] 1688 	ld	-3 (ix), #0xf0
    00000756 DD 36 FE 00      [19] 1689 	ld	-2 (ix), #0
                                   1690 ;E:\Dropbox\FAUSTO\SVILUPPI\MSX\CODE\C\MSXgl\projects\soccerlgSCC/soccerlg_s5_b3.c:287: if (g_Players[i].Role == PLAYER_ROLE_LEFT_STRIKER || g_Players[i].Role == PLAYER_ROLE_RIGHT_STRIKER) targetY = 240; // Keep distance
    0000075A 7B               [ 4] 1691 	ld	a, e
    0000075B B7               [ 4] 1692 	or	a, a
    0000075C 20 07            [12] 1693 	jr	NZ, 00158$
    0000075E DD 7E FB         [19] 1694 	ld	a, -5 (ix)
    00000761 D6 06            [ 7] 1695 	sub	a, #0x06
    00000763 20 08            [12] 1696 	jr	NZ, 00159$
    00000765                       1697 00158$:
    00000765 DD 36 FD F0      [19] 1698 	ld	-3 (ix), #0xf0
    00000769 DD 36 FE 00      [19] 1699 	ld	-2 (ix), #0
    0000076D                       1700 00159$:
                                   1701 ;E:\Dropbox\FAUSTO\SVILUPPI\MSX\CODE\C\MSXgl\projects\soccerlgSCC/soccerlg_s5_b3.c:288: if (g_Players[i].Role == PLAYER_ROLE_LEFT_DEFENDER || g_Players[i].Role == PLAYER_ROLE_RIGHT_DEFENDER) targetY = 300;
    0000076D DD 7E FC         [19] 1702 	ld	a, -4 (ix)
    00000770 B7               [ 4] 1703 	or	a, a
    00000771 20 07            [12] 1704 	jr	NZ, 00161$
    00000773 DD 7E FB         [19] 1705 	ld	a, -5 (ix)
    00000776 D6 02            [ 7] 1706 	sub	a, #0x02
    00000778 20 08            [12] 1707 	jr	NZ, 00169$
    0000077A                       1708 00161$:
    0000077A DD 36 FD 2C      [19] 1709 	ld	-3 (ix), #0x2c
    0000077E DD 36 FE 01      [19] 1710 	ld	-2 (ix), #0x01
    00000782                       1711 00169$:
                                   1712 ;E:\Dropbox\FAUSTO\SVILUPPI\MSX\CODE\C\MSXgl\projects\soccerlgSCC/soccerlg_s5_b3.c:293: if (targetX < 30) targetX = 30;
    00000782 DD 7E F9         [19] 1713 	ld	a, -7 (ix)
    00000785 DD 46 FA         [19] 1714 	ld	b, -6 (ix)
    00000788 D6 1E            [ 7] 1715 	sub	a, #0x1e
    0000078A 78               [ 4] 1716 	ld	a, b
    0000078B DE 00            [ 7] 1717 	sbc	a, #0x00
    0000078D 30 08            [12] 1718 	jr	NC, 00171$
    0000078F DD 36 F9 1E      [19] 1719 	ld	-7 (ix), #0x1e
    00000793 DD 36 FA 00      [19] 1720 	ld	-6 (ix), #0
    00000797                       1721 00171$:
                                   1722 ;E:\Dropbox\FAUSTO\SVILUPPI\MSX\CODE\C\MSXgl\projects\soccerlgSCC/soccerlg_s5_b3.c:294: if (targetX > 220) targetX = 220;
    00000797 DD 4E F9         [19] 1723 	ld	c, -7 (ix)
    0000079A DD 46 FA         [19] 1724 	ld	b, -6 (ix)
    0000079D 3E DC            [ 7] 1725 	ld	a, #0xdc
    0000079F B9               [ 4] 1726 	cp	a, c
    000007A0 3E 00            [ 7] 1727 	ld	a, #0x00
    000007A2 98               [ 4] 1728 	sbc	a, b
    000007A3 30 08            [12] 1729 	jr	NC, 00173$
    000007A5 DD 36 F9 DC      [19] 1730 	ld	-7 (ix), #0xdc
    000007A9 DD 36 FA 00      [19] 1731 	ld	-6 (ix), #0
    000007AD                       1732 00173$:
                                   1733 ;E:\Dropbox\FAUSTO\SVILUPPI\MSX\CODE\C\MSXgl\projects\soccerlgSCC/soccerlg_s5_b3.c:296: g_Players[i].TargetX = targetX;
    000007AD DD 6E F7         [19] 1734 	ld	l, -9 (ix)
    000007B0 DD 66 F8         [19] 1735 	ld	h, -8 (ix)
    000007B3 11 10 00         [10] 1736 	ld	de, #0x0010
    000007B6 19               [11] 1737 	add	hl, de
    000007B7 DD 7E F9         [19] 1738 	ld	a, -7 (ix)
    000007BA 77               [ 7] 1739 	ld	(hl), a
    000007BB 23               [ 6] 1740 	inc	hl
    000007BC DD 7E FA         [19] 1741 	ld	a, -6 (ix)
    000007BF 77               [ 7] 1742 	ld	(hl), a
                                   1743 ;E:\Dropbox\FAUSTO\SVILUPPI\MSX\CODE\C\MSXgl\projects\soccerlgSCC/soccerlg_s5_b3.c:297: g_Players[i].TargetY = targetY;
    000007C0 DD 6E F7         [19] 1744 	ld	l, -9 (ix)
    000007C3 DD 66 F8         [19] 1745 	ld	h, -8 (ix)
    000007C6 11 0E 00         [10] 1746 	ld	de, #0x000e
    000007C9 19               [11] 1747 	add	hl, de
    000007CA DD 7E FD         [19] 1748 	ld	a, -3 (ix)
    000007CD 77               [ 7] 1749 	ld	(hl), a
    000007CE 23               [ 6] 1750 	inc	hl
    000007CF DD 7E FE         [19] 1751 	ld	a, -2 (ix)
    000007D2 77               [ 7] 1752 	ld	(hl), a
    000007D3                       1753 00174$:
                                   1754 ;E:\Dropbox\FAUSTO\SVILUPPI\MSX\CODE\C\MSXgl\projects\soccerlgSCC/soccerlg_s5_b3.c:255: for(u8 i=0; i<14; i++){
    000007D3 DD 34 FF         [23] 1755 	inc	-1 (ix)
    000007D6 C3r23r06         [10] 1756 	jp	00241$
    000007D9                       1757 00177$:
                                   1758 ;E:\Dropbox\FAUSTO\SVILUPPI\MSX\CODE\C\MSXgl\projects\soccerlgSCC/soccerlg_s5_b3.c:302: if (g_Timer >= 60 && g_Timer < 115) {
    000007D9 3Ar00r00         [13] 1759 	ld	a,(_g_Timer+0)
    000007DC FE 3C            [ 7] 1760 	cp	a,#0x3c
    000007DE 38 2F            [12] 1761 	jr	C, 00185$
    000007E0 D6 73            [ 7] 1762 	sub	a, #0x73
    000007E2 30 2B            [12] 1763 	jr	NC, 00185$
                                   1764 ;E:\Dropbox\FAUSTO\SVILUPPI\MSX\CODE\C\MSXgl\projects\soccerlgSCC/soccerlg_s5_b3.c:304: if (g_RestartKickTeamId == TEAM_1) ballY = GK_BOX_Y_BOTTOM_MIN; 
    000007E4 3Ar00r00         [13] 1765 	ld	a, (_g_RestartKickTeamId+0)
    000007E7 3D               [ 4] 1766 	dec	a
    000007E8 20 06            [12] 1767 	jr	NZ, 00179$
    000007EA 01 95 01         [10] 1768 	ld	bc, #0x0195
    000007ED C3rF3r07         [10] 1769 	jp	00180$
    000007F0                       1770 00179$:
                                   1771 ;E:\Dropbox\FAUSTO\SVILUPPI\MSX\CODE\C\MSXgl\projects\soccerlgSCC/soccerlg_s5_b3.c:305: else ballY = GK_BOX_Y_TOP_MAX;
    000007F0 01 4B 00         [10] 1772 	ld	bc, #0x004b
    000007F3                       1773 00180$:
                                   1774 ;E:\Dropbox\FAUSTO\SVILUPPI\MSX\CODE\C\MSXgl\projects\soccerlgSCC/soccerlg_s5_b3.c:308: if (g_GoalKickSide == CORNER_SIDE_LEFT) targetX = GK_BOX_X_MIN;
    000007F3 3Ar00r00         [13] 1775 	ld	a, (_g_GoalKickSide+0)
    000007F6 B7               [ 4] 1776 	or	a, a
    000007F7 20 06            [12] 1777 	jr	NZ, 00182$
    000007F9 11 50 00         [10] 1778 	ld	de, #0x0050
    000007FC C3r02r08         [10] 1779 	jp	00183$
    000007FF                       1780 00182$:
                                   1781 ;E:\Dropbox\FAUSTO\SVILUPPI\MSX\CODE\C\MSXgl\projects\soccerlgSCC/soccerlg_s5_b3.c:309: else targetX = GK_BOX_X_MAX;
    000007FF 11 A0 00         [10] 1782 	ld	de, #0x00a0
    00000802                       1783 00183$:
                                   1784 ;E:\Dropbox\FAUSTO\SVILUPPI\MSX\CODE\C\MSXgl\projects\soccerlgSCC/soccerlg_s5_b3.c:311: g_Ball.X = targetX;
    00000802 ED 53r02r00      [20] 1785 	ld	((_g_Ball + 2)), de
                                   1786 ;E:\Dropbox\FAUSTO\SVILUPPI\MSX\CODE\C\MSXgl\projects\soccerlgSCC/soccerlg_s5_b3.c:312: g_Ball.Y = ballY;
    00000806 ED 43r00r00      [20] 1787 	ld	(_g_Ball), bc
                                   1788 ;E:\Dropbox\FAUSTO\SVILUPPI\MSX\CODE\C\MSXgl\projects\soccerlgSCC/soccerlg_s5_b3.c:313: g_Ball.PossessionPlayerId = NO_VALUE; // Ensure no one grabs it
    0000080A 21r06r00         [10] 1789 	ld	hl, #(_g_Ball + 6)
    0000080D 36 FF            [10] 1790 	ld	(hl), #0xff
    0000080F                       1791 00185$:
                                   1792 ;E:\Dropbox\FAUSTO\SVILUPPI\MSX\CODE\C\MSXgl\projects\soccerlgSCC/soccerlg_s5_b3.c:317: i16 dx = (i16)g_Players[gkId].X - (i16)g_Players[gkId].TargetX;
    0000080F DD 4E F6         [19] 1793 	ld	c, -10 (ix)
    00000812 06 00            [ 7] 1794 	ld	b, #0x00
    00000814 69               [ 4] 1795 	ld	l, c
    00000815 60               [ 4] 1796 	ld	h, b
    00000816 29               [11] 1797 	add	hl, hl
    00000817 29               [11] 1798 	add	hl, hl
    00000818 09               [11] 1799 	add	hl, bc
    00000819 29               [11] 1800 	add	hl, hl
    0000081A 29               [11] 1801 	add	hl, hl
    0000081B 09               [11] 1802 	add	hl, bc
    0000081C EB               [ 4] 1803 	ex	de, hl
    0000081D 21r00r00         [10] 1804 	ld	hl, #_g_Players
    00000820 19               [11] 1805 	add	hl, de
    00000821 EB               [ 4] 1806 	ex	de, hl
    00000822 21 02 00         [10] 1807 	ld	hl, #0x0002
    00000825 19               [11] 1808 	add	hl, de
    00000826 DD 75 F8         [19] 1809 	ld	-8 (ix), l
    00000829 DD 74 F9         [19] 1810 	ld	-7 (ix), h
    0000082C 4E               [ 7] 1811 	ld	c, (hl)
    0000082D 23               [ 6] 1812 	inc	hl
    0000082E 46               [ 7] 1813 	ld	b, (hl)
    0000082F D5               [11] 1814 	push	de
    00000830 FD E1            [14] 1815 	pop	iy
    00000832 FD 7E 10         [19] 1816 	ld	a, 16 (iy)
    00000835 DD 77 FA         [19] 1817 	ld	-6 (ix), a
    00000838 FD 7E 11         [19] 1818 	ld	a, 17 (iy)
    0000083B DD 77 FB         [19] 1819 	ld	-5 (ix), a
    0000083E DD 6E FA         [19] 1820 	ld	l, -6 (ix)
                                   1821 ;	spillPairReg hl
                                   1822 ;	spillPairReg hl
    00000841 DD 66 FB         [19] 1823 	ld	h, -5 (ix)
                                   1824 ;	spillPairReg hl
                                   1825 ;	spillPairReg hl
    00000844 79               [ 4] 1826 	ld	a, c
    00000845 95               [ 4] 1827 	sub	a, l
    00000846 4F               [ 4] 1828 	ld	c, a
    00000847 78               [ 4] 1829 	ld	a, b
    00000848 9C               [ 4] 1830 	sbc	a, h
    00000849 47               [ 4] 1831 	ld	b, a
    0000084A DD 71 FC         [19] 1832 	ld	-4 (ix), c
    0000084D DD 70 FD         [19] 1833 	ld	-3 (ix), b
                                   1834 ;E:\Dropbox\FAUSTO\SVILUPPI\MSX\CODE\C\MSXgl\projects\soccerlgSCC/soccerlg_s5_b3.c:318: i16 dy = (i16)g_Players[gkId].Y - (i16)g_Players[gkId].TargetY;
    00000850 6B               [ 4] 1835 	ld	l, e
    00000851 62               [ 4] 1836 	ld	h, d
    00000852 4E               [ 7] 1837 	ld	c, (hl)
    00000853 23               [ 6] 1838 	inc	hl
    00000854 46               [ 7] 1839 	ld	b, (hl)
    00000855 21 0E 00         [10] 1840 	ld	hl, #0x000e
    00000858 19               [11] 1841 	add	hl, de
    00000859 DD 75 FE         [19] 1842 	ld	-2 (ix), l
    0000085C DD 74 FF         [19] 1843 	ld	-1 (ix), h
    0000085F 7E               [ 7] 1844 	ld	a, (hl)
    00000860 23               [ 6] 1845 	inc	hl
    00000861 66               [ 7] 1846 	ld	h, (hl)
                                   1847 ;	spillPairReg hl
    00000862 6F               [ 4] 1848 	ld	l, a
                                   1849 ;	spillPairReg hl
                                   1850 ;	spillPairReg hl
    00000863 79               [ 4] 1851 	ld	a, c
    00000864 95               [ 4] 1852 	sub	a, l
    00000865 4F               [ 4] 1853 	ld	c, a
    00000866 78               [ 4] 1854 	ld	a, b
    00000867 9C               [ 4] 1855 	sbc	a, h
    00000868 47               [ 4] 1856 	ld	b, a
                                   1857 ;E:\Dropbox\FAUSTO\SVILUPPI\MSX\CODE\C\MSXgl\projects\soccerlgSCC/soccerlg_s5_b3.c:320: bool arrived = (dx >= -4 && dx <= 4 && dy >= -4 && dy <= 4);
    00000869 DD 7E FC         [19] 1858 	ld	a, -4 (ix)
    0000086C D6 FC            [ 7] 1859 	sub	a, #0xfc
    0000086E DD 7E FD         [19] 1860 	ld	a, -3 (ix)
    00000871 17               [ 4] 1861 	rla
    00000872 3F               [ 4] 1862 	ccf
    00000873 1F               [ 4] 1863 	rra
    00000874 DE 7F            [ 7] 1864 	sbc	a, #0x7f
    00000876 38 2D            [12] 1865 	jr	C, 00246$
    00000878 DD 6E FC         [19] 1866 	ld	l, -4 (ix)
                                   1867 ;	spillPairReg hl
                                   1868 ;	spillPairReg hl
    0000087B DD 66 FD         [19] 1869 	ld	h, -3 (ix)
                                   1870 ;	spillPairReg hl
                                   1871 ;	spillPairReg hl
    0000087E 3E 04            [ 7] 1872 	ld	a, #0x04
    00000880 BD               [ 4] 1873 	cp	a, l
    00000881 3E 00            [ 7] 1874 	ld	a, #0x00
    00000883 9C               [ 4] 1875 	sbc	a, h
    00000884 E2r89r08         [10] 1876 	jp	PO, 00610$
    00000887 EE 80            [ 7] 1877 	xor	a, #0x80
    00000889                       1878 00610$:
    00000889 FArA5r08         [10] 1879 	jp	M, 00246$
    0000088C 79               [ 4] 1880 	ld	a, c
    0000088D D6 FC            [ 7] 1881 	sub	a, #0xfc
    0000088F 78               [ 4] 1882 	ld	a, b
    00000890 17               [ 4] 1883 	rla
    00000891 3F               [ 4] 1884 	ccf
    00000892 1F               [ 4] 1885 	rra
    00000893 DE 7F            [ 7] 1886 	sbc	a, #0x7f
    00000895 38 0E            [12] 1887 	jr	C, 00246$
    00000897 3E 04            [ 7] 1888 	ld	a, #0x04
    00000899 B9               [ 4] 1889 	cp	a, c
    0000089A 3E 00            [ 7] 1890 	ld	a, #0x00
    0000089C 98               [ 4] 1891 	sbc	a, b
    0000089D E2rA2r08         [10] 1892 	jp	PO, 00611$
    000008A0 EE 80            [ 7] 1893 	xor	a, #0x80
    000008A2                       1894 00611$:
    000008A2 F2rA9r08         [10] 1895 	jp	P, 00247$
    000008A5                       1896 00246$:
    000008A5 AF               [ 4] 1897 	xor	a, a
    000008A6 C3rABr08         [10] 1898 	jp	00248$
    000008A9                       1899 00247$:
    000008A9 3E 01            [ 7] 1900 	ld	a, #0x01
    000008AB                       1901 00248$:
                                   1902 ;E:\Dropbox\FAUSTO\SVILUPPI\MSX\CODE\C\MSXgl\projects\soccerlgSCC/soccerlg_s5_b3.c:322: if (arrived) {
    000008AB B7               [ 4] 1903 	or	a, a
    000008AC CAr89r0A         [10] 1904 	jp	Z, 00238$
                                   1905 ;E:\Dropbox\FAUSTO\SVILUPPI\MSX\CODE\C\MSXgl\projects\soccerlgSCC/soccerlg_s5_b3.c:323: g_Players[gkId].X = g_Players[gkId].TargetX;
    000008AF C1               [10] 1906 	pop	bc
    000008B0 E1               [10] 1907 	pop	hl
    000008B1 E5               [11] 1908 	push	hl
    000008B2 C5               [11] 1909 	push	bc
    000008B3 DD 7E FA         [19] 1910 	ld	a, -6 (ix)
    000008B6 77               [ 7] 1911 	ld	(hl), a
    000008B7 23               [ 6] 1912 	inc	hl
    000008B8 DD 7E FB         [19] 1913 	ld	a, -5 (ix)
    000008BB 77               [ 7] 1914 	ld	(hl), a
                                   1915 ;E:\Dropbox\FAUSTO\SVILUPPI\MSX\CODE\C\MSXgl\projects\soccerlgSCC/soccerlg_s5_b3.c:324: g_Players[gkId].Y = g_Players[gkId].TargetY;
    000008BC DD 6E FE         [19] 1916 	ld	l, -2 (ix)
    000008BF DD 66 FF         [19] 1917 	ld	h, -1 (ix)
    000008C2 4E               [ 7] 1918 	ld	c, (hl)
    000008C3 23               [ 6] 1919 	inc	hl
    000008C4 46               [ 7] 1920 	ld	b, (hl)
    000008C5 6B               [ 4] 1921 	ld	l, e
    000008C6 62               [ 4] 1922 	ld	h, d
    000008C7 71               [ 7] 1923 	ld	(hl), c
    000008C8 23               [ 6] 1924 	inc	hl
    000008C9 70               [ 7] 1925 	ld	(hl), b
                                   1926 ;E:\Dropbox\FAUSTO\SVILUPPI\MSX\CODE\C\MSXgl\projects\soccerlgSCC/soccerlg_s5_b3.c:326: if (g_RestartKickTeamId == TEAM_1) g_Players[gkId].Direction = DIRECTION_UP;
    000008CA 21 0A 00         [10] 1927 	ld	hl, #0x000a
    000008CD 19               [11] 1928 	add	hl, de
    000008CE 4D               [ 4] 1929 	ld	c, l
    000008CF 44               [ 4] 1930 	ld	b, h
    000008D0 3Ar00r00         [13] 1931 	ld	a, (_g_RestartKickTeamId+0)
    000008D3 3D               [ 4] 1932 	dec	a
    000008D4 20 06            [12] 1933 	jr	NZ, 00188$
    000008D6 3E 01            [ 7] 1934 	ld	a, #0x01
    000008D8 02               [ 7] 1935 	ld	(bc), a
    000008D9 C3rDFr08         [10] 1936 	jp	00189$
    000008DC                       1937 00188$:
                                   1938 ;E:\Dropbox\FAUSTO\SVILUPPI\MSX\CODE\C\MSXgl\projects\soccerlgSCC/soccerlg_s5_b3.c:327: else g_Players[gkId].Direction = DIRECTION_DOWN;
    000008DC 3E 05            [ 7] 1939 	ld	a, #0x05
    000008DE 02               [ 7] 1940 	ld	(bc), a
    000008DF                       1941 00189$:
                                   1942 ;E:\Dropbox\FAUSTO\SVILUPPI\MSX\CODE\C\MSXgl\projects\soccerlgSCC/soccerlg_s5_b3.c:328: g_Players[gkId].PatternId = CallFnc_U8_P1(8,GetNoMovingPlayerPatternId,g_Players[gkId].Direction);
    000008DF 21 08 00         [10] 1943 	ld	hl, #0x0008
    000008E2 19               [11] 1944 	add	hl, de
    000008E3 0A               [ 7] 1945 	ld	a, (bc)
    000008E4 E5               [11] 1946 	push	hl
    000008E5 D5               [11] 1947 	push	de
    000008E6 F5               [11] 1948 	push	af
    000008E7 33               [ 6] 1949 	inc	sp
    000008E8 11r00r00         [10] 1950 	ld	de, #_GetNoMovingPlayerPatternId
    000008EB 3E 08            [ 7] 1951 	ld	a, #0x08
    000008ED CDr00r00         [17] 1952 	call	_CallFnc_U8_P1
    000008F0 D1               [10] 1953 	pop	de
    000008F1 E1               [10] 1954 	pop	hl
    000008F2 77               [ 7] 1955 	ld	(hl), a
                                   1956 ;E:\Dropbox\FAUSTO\SVILUPPI\MSX\CODE\C\MSXgl\projects\soccerlgSCC/soccerlg_s5_b3.c:329: g_Players[gkId].Status = PLAYER_STATUS_POSITIONED;
    000008F3 21 12 00         [10] 1957 	ld	hl, #0x0012
    000008F6 19               [11] 1958 	add	hl, de
    000008F7 4D               [ 4] 1959 	ld	c,l
    000008F8 44               [ 4] 1960 	ld	b,h
    000008F9 36 04            [10] 1961 	ld	(hl), #0x04
    000008FB 23               [ 6] 1962 	inc	hl
    000008FC 36 00            [10] 1963 	ld	(hl), #0x00
                                   1964 ;E:\Dropbox\FAUSTO\SVILUPPI\MSX\CODE\C\MSXgl\projects\soccerlgSCC/soccerlg_s5_b3.c:318: i16 dy = (i16)g_Players[gkId].Y - (i16)g_Players[gkId].TargetY;
    000008FE EB               [ 4] 1965 	ex	de,hl
    000008FF 5E               [ 7] 1966 	ld	e, (hl)
    00000900 23               [ 6] 1967 	inc	hl
    00000901 56               [ 7] 1968 	ld	d, (hl)
                                   1969 ;E:\Dropbox\FAUSTO\SVILUPPI\MSX\CODE\C\MSXgl\projects\soccerlgSCC/soccerlg_s5_b3.c:332: u16 distY = (g_Players[gkId].Y > g_Ball.Y) ? (g_Players[gkId].Y - g_Ball.Y) : (g_Ball.Y - g_Players[gkId].Y);
    00000902 21r00r00         [10] 1970 	ld	hl, #_g_Ball
    00000905 7E               [ 7] 1971 	ld	a, (hl)
    00000906 DD 77 FC         [19] 1972 	ld	-4 (ix), a
    00000909 23               [ 6] 1973 	inc	hl
    0000090A 7E               [ 7] 1974 	ld	a, (hl)
    0000090B DD 77 FD         [19] 1975 	ld	-3 (ix), a
    0000090E DD 7E FC         [19] 1976 	ld	a, -4 (ix)
    00000911 93               [ 4] 1977 	sub	a, e
    00000912 DD 7E FD         [19] 1978 	ld	a, -3 (ix)
    00000915 9A               [ 4] 1979 	sbc	a, d
    00000916 30 0C            [12] 1980 	jr	NC, 00255$
    00000918 7B               [ 4] 1981 	ld	a, e
    00000919 DD 96 FC         [19] 1982 	sub	a, -4 (ix)
    0000091C 5F               [ 4] 1983 	ld	e, a
    0000091D 7A               [ 4] 1984 	ld	a, d
    0000091E DD 9E FD         [19] 1985 	sbc	a, -3 (ix)
    00000921 C3r2Dr09         [10] 1986 	jp	00256$
    00000924                       1987 00255$:
    00000924 DD 7E FC         [19] 1988 	ld	a, -4 (ix)
    00000927 93               [ 4] 1989 	sub	a, e
    00000928 5F               [ 4] 1990 	ld	e, a
    00000929 DD 7E FD         [19] 1991 	ld	a, -3 (ix)
    0000092C 9A               [ 4] 1992 	sbc	a, d
    0000092D                       1993 00256$:
                                   1994 ;E:\Dropbox\FAUSTO\SVILUPPI\MSX\CODE\C\MSXgl\projects\soccerlgSCC/soccerlg_s5_b3.c:334: if (distY > 16) {
    0000092D 57               [ 4] 1995 	ld	d, a
    0000092E 3E 10            [ 7] 1996 	ld	a, #0x10
    00000930 BB               [ 4] 1997 	cp	a, e
    00000931 3E 00            [ 7] 1998 	ld	a, #0x00
    00000933 9A               [ 4] 1999 	sbc	a, d
    00000934 D2r60r0A         [10] 2000 	jp	NC, 00232$
                                   2001 ;E:\Dropbox\FAUSTO\SVILUPPI\MSX\CODE\C\MSXgl\projects\soccerlgSCC/soccerlg_s5_b3.c:338: bool areaSafe = true;
    00000937 1E 01            [ 7] 2002 	ld	e, #0x01
                                   2003 ;E:\Dropbox\FAUSTO\SVILUPPI\MSX\CODE\C\MSXgl\projects\soccerlgSCC/soccerlg_s5_b3.c:339: for(u8 i=0; i<14; i++) {
    00000939 DD 36 FD 00      [19] 2004 	ld	-3 (ix), #0x00
    0000093D                       2005 00243$:
    0000093D DD 7E FD         [19] 2006 	ld	a, -3 (ix)
    00000940 D6 0E            [ 7] 2007 	sub	a, #0x0e
    00000942 D2rF8r09         [10] 2008 	jp	NC, 00214$
                                   2009 ;E:\Dropbox\FAUSTO\SVILUPPI\MSX\CODE\C\MSXgl\projects\soccerlgSCC/soccerlg_s5_b3.c:340: if (i == gkId) continue;
    00000945 DD 7E F6         [19] 2010 	ld	a, -10 (ix)
    00000948 DD 96 FD         [19] 2011 	sub	a, -3 (ix)
    0000094B CArF2r09         [10] 2012 	jp	Z,00213$
                                   2013 ;E:\Dropbox\FAUSTO\SVILUPPI\MSX\CODE\C\MSXgl\projects\soccerlgSCC/soccerlg_s5_b3.c:341: if (g_Players[i].TeamId == REFEREE) continue;
    0000094E D5               [11] 2014 	push	de
    0000094F DD 5E FD         [19] 2015 	ld	e, -3 (ix)
    00000952 16 00            [ 7] 2016 	ld	d, #0x00
    00000954 6B               [ 4] 2017 	ld	l, e
    00000955 62               [ 4] 2018 	ld	h, d
    00000956 29               [11] 2019 	add	hl, hl
    00000957 29               [11] 2020 	add	hl, hl
    00000958 19               [11] 2021 	add	hl, de
    00000959 29               [11] 2022 	add	hl, hl
    0000095A 29               [11] 2023 	add	hl, hl
    0000095B 19               [11] 2024 	add	hl, de
    0000095C D1               [10] 2025 	pop	de
    0000095D FD 21r00r00      [14] 2026 	ld	iy, #_g_Players
    00000961 C5               [11] 2027 	push	bc
    00000962 4D               [ 4] 2028 	ld	c, l
    00000963 44               [ 4] 2029 	ld	b, h
    00000964 FD 09            [15] 2030 	add	iy, bc
    00000966 C1               [10] 2031 	pop	bc
    00000967 FD E5            [15] 2032 	push	iy
    00000969 E1               [10] 2033 	pop	hl
    0000096A C5               [11] 2034 	push	bc
    0000096B 01 09 00         [10] 2035 	ld	bc, #0x0009
    0000096E 09               [11] 2036 	add	hl, bc
    0000096F C1               [10] 2037 	pop	bc
    00000970 56               [ 7] 2038 	ld	d, (hl)
    00000971 7A               [ 4] 2039 	ld	a, d
    00000972 D6 0E            [ 7] 2040 	sub	a, #0x0e
    00000974 28 7C            [12] 2041 	jr	Z, 00213$
                                   2042 ;E:\Dropbox\FAUSTO\SVILUPPI\MSX\CODE\C\MSXgl\projects\soccerlgSCC/soccerlg_s5_b3.c:343: u16 py = g_Players[i].Y;
    00000976 FD 7E 00         [19] 2043 	ld	a, 0 (iy)
    00000979 DD 77 FB         [19] 2044 	ld	-5 (ix), a
    0000097C FD 7E 01         [19] 2045 	ld	a, 1 (iy)
    0000097F DD 77 FC         [19] 2046 	ld	-4 (ix), a
                                   2047 ;E:\Dropbox\FAUSTO\SVILUPPI\MSX\CODE\C\MSXgl\projects\soccerlgSCC/soccerlg_s5_b3.c:345: if (g_RestartKickTeamId == TEAM_1) { // Bottom Goal (Y=430)
    00000982 3Ar00r00         [13] 2048 	ld	a, (_g_RestartKickTeamId+0)
    00000985 3D               [ 4] 2049 	dec	a
    00000986 20 34            [12] 2050 	jr	NZ, 00209$
                                   2051 ;E:\Dropbox\FAUSTO\SVILUPPI\MSX\CODE\C\MSXgl\projects\soccerlgSCC/soccerlg_s5_b3.c:347: if (g_Players[i].TeamId == TEAM_1 && py > 350) areaSafe = false;
    00000988 15               [ 4] 2052 	dec	d
    00000989 3E 01            [ 7] 2053 	ld	a, #0x01
    0000098B 28 01            [12] 2054 	jr	Z, 00619$
    0000098D AF               [ 4] 2055 	xor	a, a
    0000098E                       2056 00619$:
    0000098E 57               [ 4] 2057 	ld	d, a
    0000098F B7               [ 4] 2058 	or	a, a
    00000990 28 13            [12] 2059 	jr	Z, 00198$
    00000992 DD 6E FB         [19] 2060 	ld	l, -5 (ix)
                                   2061 ;	spillPairReg hl
                                   2062 ;	spillPairReg hl
    00000995 DD 66 FC         [19] 2063 	ld	h, -4 (ix)
                                   2064 ;	spillPairReg hl
                                   2065 ;	spillPairReg hl
    00000998 3E 5E            [ 7] 2066 	ld	a, #0x5e
    0000099A BD               [ 4] 2067 	cp	a, l
    0000099B 3E 01            [ 7] 2068 	ld	a, #0x01
    0000099D 9C               [ 4] 2069 	sbc	a, h
    0000099E 30 05            [12] 2070 	jr	NC, 00198$
    000009A0 1E 00            [ 7] 2071 	ld	e, #0x00
    000009A2 C3rEEr09         [10] 2072 	jp	00210$
    000009A5                       2073 00198$:
                                   2074 ;E:\Dropbox\FAUSTO\SVILUPPI\MSX\CODE\C\MSXgl\projects\soccerlgSCC/soccerlg_s5_b3.c:348: else if (g_Players[i].TeamId != TEAM_1 && py > 280) areaSafe = false; // Relaxed to 280
    000009A5 CB 42            [ 8] 2075 	bit	0, d
    000009A7 20 45            [12] 2076 	jr	NZ, 00210$
    000009A9 DD 56 FB         [19] 2077 	ld	d, -5 (ix)
    000009AC DD 6E FC         [19] 2078 	ld	l, -4 (ix)
                                   2079 ;	spillPairReg hl
                                   2080 ;	spillPairReg hl
    000009AF 3E 18            [ 7] 2081 	ld	a, #0x18
    000009B1 BA               [ 4] 2082 	cp	a, d
    000009B2 3E 01            [ 7] 2083 	ld	a, #0x01
    000009B4 9D               [ 4] 2084 	sbc	a, l
    000009B5 30 37            [12] 2085 	jr	NC, 00210$
    000009B7 1E 00            [ 7] 2086 	ld	e, #0x00
    000009B9 C3rEEr09         [10] 2087 	jp	00210$
    000009BC                       2088 00209$:
                                   2089 ;E:\Dropbox\FAUSTO\SVILUPPI\MSX\CODE\C\MSXgl\projects\soccerlgSCC/soccerlg_s5_b3.c:351: if (g_Players[i].TeamId == TEAM_2 && py < 130) areaSafe = false;
    000009BC 7A               [ 4] 2090 	ld	a, d
    000009BD D6 02            [ 7] 2091 	sub	a, #0x02
    000009BF 3E 01            [ 7] 2092 	ld	a, #0x01
    000009C1 28 01            [12] 2093 	jr	Z, 00621$
    000009C3 AF               [ 4] 2094 	xor	a, a
    000009C4                       2095 00621$:
    000009C4 57               [ 4] 2096 	ld	d, a
    000009C5 B7               [ 4] 2097 	or	a, a
    000009C6 28 12            [12] 2098 	jr	Z, 00205$
                                   2099 ;	spillPairReg hl
                                   2100 ;	spillPairReg hl
                                   2101 ;	spillPairReg hl
                                   2102 ;	spillPairReg hl
    000009C8 DD 7E FB         [19] 2103 	ld	a, -5 (ix)
    000009CB DD 66 FC         [19] 2104 	ld	h, -4 (ix)
    000009CE D6 82            [ 7] 2105 	sub	a, #0x82
    000009D0 7C               [ 4] 2106 	ld	a, h
    000009D1 DE 00            [ 7] 2107 	sbc	a, #0x00
    000009D3 30 05            [12] 2108 	jr	NC, 00205$
    000009D5 1E 00            [ 7] 2109 	ld	e, #0x00
    000009D7 C3rEEr09         [10] 2110 	jp	00210$
    000009DA                       2111 00205$:
                                   2112 ;E:\Dropbox\FAUSTO\SVILUPPI\MSX\CODE\C\MSXgl\projects\soccerlgSCC/soccerlg_s5_b3.c:352: else if (g_Players[i].TeamId != TEAM_2 && py < 200) areaSafe = false; // Relaxed to 200
    000009DA CB 42            [ 8] 2113 	bit	0, d
    000009DC 20 10            [12] 2114 	jr	NZ, 00210$
    000009DE DD 56 FB         [19] 2115 	ld	d, -5 (ix)
    000009E1 DD 6E FC         [19] 2116 	ld	l, -4 (ix)
                                   2117 ;	spillPairReg hl
                                   2118 ;	spillPairReg hl
    000009E4 7A               [ 4] 2119 	ld	a, d
    000009E5 D6 C8            [ 7] 2120 	sub	a, #0xc8
    000009E7 7D               [ 4] 2121 	ld	a, l
    000009E8 DE 00            [ 7] 2122 	sbc	a, #0x00
    000009EA 30 02            [12] 2123 	jr	NC, 00210$
    000009EC 1E 00            [ 7] 2124 	ld	e, #0x00
    000009EE                       2125 00210$:
                                   2126 ;E:\Dropbox\FAUSTO\SVILUPPI\MSX\CODE\C\MSXgl\projects\soccerlgSCC/soccerlg_s5_b3.c:354: if (!areaSafe) break;
    000009EE 7B               [ 4] 2127 	ld	a, e
    000009EF B7               [ 4] 2128 	or	a, a
    000009F0 28 06            [12] 2129 	jr	Z, 00214$
    000009F2                       2130 00213$:
                                   2131 ;E:\Dropbox\FAUSTO\SVILUPPI\MSX\CODE\C\MSXgl\projects\soccerlgSCC/soccerlg_s5_b3.c:339: for(u8 i=0; i<14; i++) {
    000009F2 DD 34 FD         [23] 2132 	inc	-3 (ix)
    000009F5 C3r3Dr09         [10] 2133 	jp	00243$
    000009F8                       2134 00214$:
                                   2135 ;E:\Dropbox\FAUSTO\SVILUPPI\MSX\CODE\C\MSXgl\projects\soccerlgSCC/soccerlg_s5_b3.c:357: if (areaSafe) {
    000009F8 7B               [ 4] 2136 	ld	a, e
    000009F9 B7               [ 4] 2137 	or	a, a
    000009FA 28 07            [12] 2138 	jr	Z, 00222$
                                   2139 ;E:\Dropbox\FAUSTO\SVILUPPI\MSX\CODE\C\MSXgl\projects\soccerlgSCC/soccerlg_s5_b3.c:358: g_Timer++;
    000009FC 21r00r00         [10] 2140 	ld	hl, #_g_Timer
    000009FF 34               [11] 2141 	inc	(hl)
    00000A00 C3r2Fr0A         [10] 2142 	jp	00223$
    00000A03                       2143 00222$:
                                   2144 ;E:\Dropbox\FAUSTO\SVILUPPI\MSX\CODE\C\MSXgl\projects\soccerlgSCC/soccerlg_s5_b3.c:360: s_SafetyTimeout++;
    00000A03 2Ar00r00         [16] 2145 	ld	hl, (_TickGoalKick_s_SafetyTimeout_65537_1249)
    00000A06 23               [ 6] 2146 	inc	hl
                                   2147 ;E:\Dropbox\FAUSTO\SVILUPPI\MSX\CODE\C\MSXgl\projects\soccerlgSCC/soccerlg_s5_b3.c:361: if (s_SafetyTimeout > 240) { // 4 seconds timeout force proceed
    00000A07 22r00r00         [16] 2148 	ld	(_TickGoalKick_s_SafetyTimeout_65537_1249), hl
    00000A0A 3E F0            [ 7] 2149 	ld	a, #0xf0
    00000A0C BD               [ 4] 2150 	cp	a, l
    00000A0D 3E 00            [ 7] 2151 	ld	a, #0x00
    00000A0F 9C               [ 4] 2152 	sbc	a, h
    00000A10 30 07            [12] 2153 	jr	NC, 00219$
                                   2154 ;E:\Dropbox\FAUSTO\SVILUPPI\MSX\CODE\C\MSXgl\projects\soccerlgSCC/soccerlg_s5_b3.c:362: g_Timer++;
    00000A12 21r00r00         [10] 2155 	ld	hl, #_g_Timer
    00000A15 34               [11] 2156 	inc	(hl)
    00000A16 C3r2Fr0A         [10] 2157 	jp	00223$
    00000A19                       2158 00219$:
                                   2159 ;E:\Dropbox\FAUSTO\SVILUPPI\MSX\CODE\C\MSXgl\projects\soccerlgSCC/soccerlg_s5_b3.c:364: if (g_Timer > 90) g_Timer = 90; // Hold timer until safe
    00000A19 3E 5A            [ 7] 2160 	ld	a, #0x5a
    00000A1B FD 21r00r00      [14] 2161 	ld	iy, #_g_Timer
    00000A1F FD 96 00         [19] 2162 	sub	a, 0 (iy)
    00000A22 30 07            [12] 2163 	jr	NC, 00216$
    00000A24 FD 36 00 5A      [19] 2164 	ld	0 (iy), #0x5a
    00000A28 C3r2Fr0A         [10] 2165 	jp	00223$
    00000A2B                       2166 00216$:
                                   2167 ;E:\Dropbox\FAUSTO\SVILUPPI\MSX\CODE\C\MSXgl\projects\soccerlgSCC/soccerlg_s5_b3.c:365: else g_Timer++; // Allow advancing up to wait point
    00000A2B 21r00r00         [10] 2168 	ld	hl, #_g_Timer
    00000A2E 34               [11] 2169 	inc	(hl)
    00000A2F                       2170 00223$:
                                   2171 ;E:\Dropbox\FAUSTO\SVILUPPI\MSX\CODE\C\MSXgl\projects\soccerlgSCC/soccerlg_s5_b3.c:369: if (g_Timer > 100) {
    00000A2F 3E 64            [ 7] 2172 	ld	a, #0x64
    00000A31 21r00r00         [10] 2173 	ld	hl, #_g_Timer
    00000A34 96               [ 7] 2174 	sub	a, (hl)
    00000A35 30 66            [12] 2175 	jr	NC, 00244$
                                   2176 ;E:\Dropbox\FAUSTO\SVILUPPI\MSX\CODE\C\MSXgl\projects\soccerlgSCC/soccerlg_s5_b3.c:332: u16 distY = (g_Players[gkId].Y > g_Ball.Y) ? (g_Players[gkId].Y - g_Ball.Y) : (g_Ball.Y - g_Players[gkId].Y);
    00000A37 ED 5Br00r00      [20] 2177 	ld	de, (#_g_Ball + 0)
                                   2178 ;E:\Dropbox\FAUSTO\SVILUPPI\MSX\CODE\C\MSXgl\projects\soccerlgSCC/soccerlg_s5_b3.c:372: if (g_RestartKickTeamId == TEAM_1) kickY = g_Ball.Y + 4; // Adjusted for perfect foot alignment
    00000A3B 3Ar00r00         [13] 2179 	ld	a, (_g_RestartKickTeamId+0)
    00000A3E 3D               [ 4] 2180 	dec	a
    00000A3F 20 07            [12] 2181 	jr	NZ, 00225$
    00000A41 13               [ 6] 2182 	inc	de
    00000A42 13               [ 6] 2183 	inc	de
    00000A43 13               [ 6] 2184 	inc	de
    00000A44 13               [ 6] 2185 	inc	de
    00000A45 C3r50r0A         [10] 2186 	jp	00226$
    00000A48                       2187 00225$:
                                   2188 ;E:\Dropbox\FAUSTO\SVILUPPI\MSX\CODE\C\MSXgl\projects\soccerlgSCC/soccerlg_s5_b3.c:373: else kickY = g_Ball.Y - 6;
    00000A48 7B               [ 4] 2189 	ld	a, e
    00000A49 C6 FA            [ 7] 2190 	add	a, #0xfa
    00000A4B 5F               [ 4] 2191 	ld	e, a
    00000A4C 7A               [ 4] 2192 	ld	a, d
    00000A4D CE FF            [ 7] 2193 	adc	a, #0xff
    00000A4F 57               [ 4] 2194 	ld	d, a
    00000A50                       2195 00226$:
                                   2196 ;E:\Dropbox\FAUSTO\SVILUPPI\MSX\CODE\C\MSXgl\projects\soccerlgSCC/soccerlg_s5_b3.c:375: g_Players[gkId].TargetY = kickY;
    00000A50 DD 6E FE         [19] 2197 	ld	l, -2 (ix)
    00000A53 DD 66 FF         [19] 2198 	ld	h, -1 (ix)
    00000A56 73               [ 7] 2199 	ld	(hl), e
    00000A57 23               [ 6] 2200 	inc	hl
    00000A58 72               [ 7] 2201 	ld	(hl), d
                                   2202 ;E:\Dropbox\FAUSTO\SVILUPPI\MSX\CODE\C\MSXgl\projects\soccerlgSCC/soccerlg_s5_b3.c:376: g_Players[gkId].Status = PLAYER_STATUS_NONE;
    00000A59 AF               [ 4] 2203 	xor	a, a
    00000A5A 02               [ 7] 2204 	ld	(bc), a
    00000A5B 03               [ 6] 2205 	inc	bc
    00000A5C 02               [ 7] 2206 	ld	(bc), a
    00000A5D C3r9Dr0A         [10] 2207 	jp	00244$
    00000A60                       2208 00232$:
                                   2209 ;E:\Dropbox\FAUSTO\SVILUPPI\MSX\CODE\C\MSXgl\projects\soccerlgSCC/soccerlg_s5_b3.c:380: g_Timer++;
    00000A60 FD 21r00r00      [14] 2210 	ld	iy, #_g_Timer
    00000A64 FD 34 00         [23] 2211 	inc	0 (iy)
                                   2212 ;E:\Dropbox\FAUSTO\SVILUPPI\MSX\CODE\C\MSXgl\projects\soccerlgSCC/soccerlg_s5_b3.c:381: if (g_Timer > 102) { // Kick immediately upon arrival (was 110)
    00000A67 3E 66            [ 7] 2213 	ld	a, #0x66
    00000A69 FD 96 00         [19] 2214 	sub	a, 0 (iy)
    00000A6C 30 2F            [12] 2215 	jr	NC, 00244$
                                   2216 ;E:\Dropbox\FAUSTO\SVILUPPI\MSX\CODE\C\MSXgl\projects\soccerlgSCC/soccerlg_s5_b3.c:382: V9990_ClearTextFromLayerA(10, 18, 9); 
    00000A6E 3E 09            [ 7] 2217 	ld	a, #0x09
    00000A70 F5               [11] 2218 	push	af
    00000A71 33               [ 6] 2219 	inc	sp
    00000A72 2E 12            [ 7] 2220 	ld	l, #0x12
                                   2221 ;	spillPairReg hl
                                   2222 ;	spillPairReg hl
    00000A74 3E 0A            [ 7] 2223 	ld	a, #0x0a
    00000A76 CDr00r00         [17] 2224 	call	_V9990_ClearTextFromLayerA
                                   2225 ;E:\Dropbox\FAUSTO\SVILUPPI\MSX\CODE\C\MSXgl\projects\soccerlgSCC/soccerlg_s5_b3.c:383: GoalkeeperWithBall(g_RestartKickTeamId, true); 
    00000A79 2E 01            [ 7] 2226 	ld	l, #0x01
                                   2227 ;	spillPairReg hl
                                   2228 ;	spillPairReg hl
    00000A7B 3Ar00r00         [13] 2229 	ld	a, (_g_RestartKickTeamId+0)
    00000A7E CDrA2r0A         [17] 2230 	call	_GoalkeeperWithBall
                                   2231 ;E:\Dropbox\FAUSTO\SVILUPPI\MSX\CODE\C\MSXgl\projects\soccerlgSCC/soccerlg_s5_b3.c:384: g_GkRecoilY = 0;
    00000A81 21r00r00         [10] 2232 	ld	hl, #_g_GkRecoilY
    00000A84 36 00            [10] 2233 	ld	(hl), #0x00
    00000A86 C3r9Dr0A         [10] 2234 	jp	00244$
    00000A89                       2235 00238$:
                                   2236 ;E:\Dropbox\FAUSTO\SVILUPPI\MSX\CODE\C\MSXgl\projects\soccerlgSCC/soccerlg_s5_b3.c:389: if (g_Timer < 100) g_Timer = 61; // Hold at 61 while moving to start
    00000A89 3Ar00r00         [13] 2237 	ld	a, (_g_Timer+0)
    00000A8C D6 64            [ 7] 2238 	sub	a, #0x64
    00000A8E 30 08            [12] 2239 	jr	NC, 00235$
    00000A90 21r00r00         [10] 2240 	ld	hl, #_g_Timer
    00000A93 36 3D            [10] 2241 	ld	(hl), #0x3d
    00000A95 C3r9Dr0A         [10] 2242 	jp	00244$
    00000A98                       2243 00235$:
                                   2244 ;E:\Dropbox\FAUSTO\SVILUPPI\MSX\CODE\C\MSXgl\projects\soccerlgSCC/soccerlg_s5_b3.c:390: else g_Timer = 101; // Hold at 101 while moving to ball
    00000A98 21r00r00         [10] 2245 	ld	hl, #_g_Timer
    00000A9B 36 65            [10] 2246 	ld	(hl), #0x65
    00000A9D                       2247 00244$:
                                   2248 ;E:\Dropbox\FAUSTO\SVILUPPI\MSX\CODE\C\MSXgl\projects\soccerlgSCC/soccerlg_s5_b3.c:392: }
    00000A9D DD F9            [10] 2249 	ld	sp, ix
    00000A9F DD E1            [14] 2250 	pop	ix
    00000AA1 C9               [10] 2251 	ret
                                   2252 ;E:\Dropbox\FAUSTO\SVILUPPI\MSX\CODE\C\MSXgl\projects\soccerlgSCC/soccerlg_s5_b3.c:394: void GoalkeeperWithBall(u8 teamId, bool isSteal) {
                                   2253 ;	---------------------------------
                                   2254 ; Function GoalkeeperWithBall
                                   2255 ; ---------------------------------
    00000AA2                       2256 _GoalkeeperWithBall::
    00000AA2 DD E5            [15] 2257 	push	ix
    00000AA4 DD 21 00 00      [14] 2258 	ld	ix,#0
    00000AA8 DD 39            [15] 2259 	add	ix,sp
    00000AAA FD 21 F9 FF      [14] 2260 	ld	iy, #-7
    00000AAE FD 39            [15] 2261 	add	iy, sp
    00000AB0 FD F9            [10] 2262 	ld	sp, iy
    00000AB2 DD 77 FE         [19] 2263 	ld	-2 (ix), a
    00000AB5 DD 75 FD         [19] 2264 	ld	-3 (ix), l
                                   2265 ;E:\Dropbox\FAUSTO\SVILUPPI\MSX\CODE\C\MSXgl\projects\soccerlgSCC/soccerlg_s5_b3.c:395: u8 gkId = CallFnc_U8_P2(4,GetPlayerIdByRole,teamId, PLAYER_ROLE_GOALKEEPER);
    00000AB8 AF               [ 4] 2266 	xor	a, a
    00000AB9 F5               [11] 2267 	push	af
    00000ABA 33               [ 6] 2268 	inc	sp
    00000ABB DD 7E FE         [19] 2269 	ld	a, -2 (ix)
    00000ABE F5               [11] 2270 	push	af
    00000ABF 33               [ 6] 2271 	inc	sp
    00000AC0 11r00r00         [10] 2272 	ld	de, #_GetPlayerIdByRole
    00000AC3 3E 04            [ 7] 2273 	ld	a, #0x04
    00000AC5 CDr00r00         [17] 2274 	call	_CallFnc_U8_P2
                                   2275 ;E:\Dropbox\FAUSTO\SVILUPPI\MSX\CODE\C\MSXgl\projects\soccerlgSCC/soccerlg_s5_b3.c:396: if(gkId == NO_VALUE) return;
    00000AC8 DD 77 F9         [19] 2276 	ld	-7 (ix), a
    00000ACB 3C               [ 4] 2277 	inc	a
    00000ACC CArBEr0C         [10] 2278 	jp	Z,00162$
    00000ACF C3rD2r0A         [10] 2279 	jp	00102$
    00000AD2                       2280 00102$:
                                   2281 ;E:\Dropbox\FAUSTO\SVILUPPI\MSX\CODE\C\MSXgl\projects\soccerlgSCC/soccerlg_s5_b3.c:398: g_GkAnimPlayerId = gkId;
    00000AD2 DD 7E F9         [19] 2282 	ld	a, -7 (ix)
    00000AD5 32r00r00         [13] 2283 	ld	(_g_GkAnimPlayerId+0), a
                                   2284 ;E:\Dropbox\FAUSTO\SVILUPPI\MSX\CODE\C\MSXgl\projects\soccerlgSCC/soccerlg_s5_b3.c:399: g_GkAnimTimer = 0;
    00000AD8 21r00r00         [10] 2285 	ld	hl, #_g_GkAnimTimer
    00000ADB 36 00            [10] 2286 	ld	(hl), #0x00
                                   2287 ;E:\Dropbox\FAUSTO\SVILUPPI\MSX\CODE\C\MSXgl\projects\soccerlgSCC/soccerlg_s5_b3.c:402: if (teamId == TEAM_1) {
    00000ADD DD 7E FE         [19] 2288 	ld	a, -2 (ix)
    00000AE0 3D               [ 4] 2289 	dec	a
    00000AE1 3E 01            [ 7] 2290 	ld	a, #0x01
    00000AE3 28 01            [12] 2291 	jr	Z, 00283$
    00000AE5 AF               [ 4] 2292 	xor	a, a
    00000AE6                       2293 00283$:
    00000AE6 DD 77 FA         [19] 2294 	ld	-6 (ix), a
                                   2295 ;E:\Dropbox\FAUSTO\SVILUPPI\MSX\CODE\C\MSXgl\projects\soccerlgSCC/soccerlg_s5_b3.c:403: if (isSteal) g_Players[gkId].PatternId = PLAYER_POSE_BACK;
    00000AE9 DD 4E F9         [19] 2296 	ld	c, -7 (ix)
    00000AEC 06 00            [ 7] 2297 	ld	b, #0x00
    00000AEE 69               [ 4] 2298 	ld	l, c
    00000AEF 60               [ 4] 2299 	ld	h, b
    00000AF0 29               [11] 2300 	add	hl, hl
    00000AF1 29               [11] 2301 	add	hl, hl
    00000AF2 09               [11] 2302 	add	hl, bc
    00000AF3 29               [11] 2303 	add	hl, hl
    00000AF4 29               [11] 2304 	add	hl, hl
    00000AF5 09               [11] 2305 	add	hl, bc
    00000AF6 DD 75 FB         [19] 2306 	ld	-5 (ix), l
    00000AF9 DD 74 FC         [19] 2307 	ld	-4 (ix), h
                                   2308 ;E:\Dropbox\FAUSTO\SVILUPPI\MSX\CODE\C\MSXgl\projects\soccerlgSCC/soccerlg_s5_b3.c:402: if (teamId == TEAM_1) {
    00000AFC DD 7E FA         [19] 2309 	ld	a, -6 (ix)
    00000AFF B7               [ 4] 2310 	or	a, a
    00000B00 28 3E            [12] 2311 	jr	Z, 00107$
                                   2312 ;E:\Dropbox\FAUSTO\SVILUPPI\MSX\CODE\C\MSXgl\projects\soccerlgSCC/soccerlg_s5_b3.c:403: if (isSteal) g_Players[gkId].PatternId = PLAYER_POSE_BACK;
    00000B02 DD 7E FD         [19] 2313 	ld	a, -3 (ix)
    00000B05 B7               [ 4] 2314 	or	a, a
    00000B06 28 13            [12] 2315 	jr	Z, 00104$
    00000B08 01r00r00         [10] 2316 	ld	bc, #_g_Players+0
    00000B0B DD 6E FB         [19] 2317 	ld	l, -5 (ix)
    00000B0E DD 66 FC         [19] 2318 	ld	h, -4 (ix)
    00000B11 09               [11] 2319 	add	hl, bc
    00000B12 01 08 00         [10] 2320 	ld	bc, #0x0008
    00000B15 09               [11] 2321 	add	hl, bc
    00000B16 36 11            [10] 2322 	ld	(hl), #0x11
    00000B18 C3r2Dr0B         [10] 2323 	jp	00105$
    00000B1B                       2324 00104$:
                                   2325 ;E:\Dropbox\FAUSTO\SVILUPPI\MSX\CODE\C\MSXgl\projects\soccerlgSCC/soccerlg_s5_b3.c:404: else g_Players[gkId].PatternId = PLAYER_POSE_TEAM1_GK_BALL_FRONT;
    00000B1B 3Er00            [ 7] 2326 	ld	a, #<(_g_Players)
    00000B1D DD 86 FB         [19] 2327 	add	a, -5 (ix)
    00000B20 4F               [ 4] 2328 	ld	c, a
    00000B21 3Es00            [ 7] 2329 	ld	a, #>(_g_Players)
    00000B23 DD 8E FC         [19] 2330 	adc	a, -4 (ix)
    00000B26 47               [ 4] 2331 	ld	b, a
    00000B27 21 08 00         [10] 2332 	ld	hl, #0x0008
    00000B2A 09               [11] 2333 	add	hl, bc
    00000B2B 36 9E            [10] 2334 	ld	(hl), #0x9e
    00000B2D                       2335 00105$:
                                   2336 ;E:\Dropbox\FAUSTO\SVILUPPI\MSX\CODE\C\MSXgl\projects\soccerlgSCC/soccerlg_s5_b3.c:405: g_Players[gkId].Direction = DIRECTION_UP; // Face Up (Attack Direction)
    00000B2D 01r00r00         [10] 2337 	ld	bc, #_g_Players+0
    00000B30 DD 6E FB         [19] 2338 	ld	l, -5 (ix)
    00000B33 DD 66 FC         [19] 2339 	ld	h, -4 (ix)
    00000B36 09               [11] 2340 	add	hl, bc
    00000B37 01 0A 00         [10] 2341 	ld	bc, #0x000a
    00000B3A 09               [11] 2342 	add	hl, bc
    00000B3B 36 01            [10] 2343 	ld	(hl), #0x01
    00000B3D C3r58r0B         [10] 2344 	jp	00108$
    00000B40                       2345 00107$:
                                   2346 ;E:\Dropbox\FAUSTO\SVILUPPI\MSX\CODE\C\MSXgl\projects\soccerlgSCC/soccerlg_s5_b3.c:408: g_Players[gkId].PatternId = PLAYER_POSE_FRONT; // Team 2 GK plays like a player (feet)
    00000B40 DD 7E FB         [19] 2347 	ld	a, -5 (ix)
    00000B43 C6r00            [ 7] 2348 	add	a, #<(_g_Players)
    00000B45 4F               [ 4] 2349 	ld	c, a
    00000B46 DD 7E FC         [19] 2350 	ld	a, -4 (ix)
    00000B49 CEs00            [ 7] 2351 	adc	a, #>(_g_Players)
    00000B4B 47               [ 4] 2352 	ld	b, a
    00000B4C 21 08 00         [10] 2353 	ld	hl, #0x0008
    00000B4F 09               [11] 2354 	add	hl, bc
    00000B50 36 10            [10] 2355 	ld	(hl), #0x10
                                   2356 ;E:\Dropbox\FAUSTO\SVILUPPI\MSX\CODE\C\MSXgl\projects\soccerlgSCC/soccerlg_s5_b3.c:409: g_Players[gkId].Direction = DIRECTION_DOWN; // Face Down (Attack Direction)
    00000B52 21 0A 00         [10] 2357 	ld	hl, #0x000a
    00000B55 09               [11] 2358 	add	hl, bc
    00000B56 36 05            [10] 2359 	ld	(hl), #0x05
    00000B58                       2360 00108$:
                                   2361 ;E:\Dropbox\FAUSTO\SVILUPPI\MSX\CODE\C\MSXgl\projects\soccerlgSCC/soccerlg_s5_b3.c:413: g_Players[gkId].Status = PLAYER_STATUS_POSITIONED;
    00000B58 DD 7E FB         [19] 2362 	ld	a, -5 (ix)
    00000B5B C6r00            [ 7] 2363 	add	a, #<(_g_Players)
    00000B5D 4F               [ 4] 2364 	ld	c, a
    00000B5E DD 7E FC         [19] 2365 	ld	a, -4 (ix)
    00000B61 CEs00            [ 7] 2366 	adc	a, #>(_g_Players)
    00000B63 47               [ 4] 2367 	ld	b, a
    00000B64 21 12 00         [10] 2368 	ld	hl, #0x0012
    00000B67 09               [11] 2369 	add	hl, bc
    00000B68 36 04            [10] 2370 	ld	(hl), #0x04
    00000B6A 23               [ 6] 2371 	inc	hl
                                   2372 ;E:\Dropbox\FAUSTO\SVILUPPI\MSX\CODE\C\MSXgl\projects\soccerlgSCC/soccerlg_s5_b3.c:417: bool closeToLine = false;
    00000B6B 36 00            [10] 2373 	ld	(hl), #0x00
    00000B6D 5E               [ 7] 2374 	ld	e, (hl)
                                   2375 ;E:\Dropbox\FAUSTO\SVILUPPI\MSX\CODE\C\MSXgl\projects\soccerlgSCC/soccerlg_s5_b3.c:418: if (teamId == TEAM_2) { // GK 2 (Top)
    00000B6E DD 7E FE         [19] 2376 	ld	a, -2 (ix)
    00000B71 D6 02            [ 7] 2377 	sub	a, #0x02
    00000B73 20 17            [12] 2378 	jr	NZ, 00114$
                                   2379 ;E:\Dropbox\FAUSTO\SVILUPPI\MSX\CODE\C\MSXgl\projects\soccerlgSCC/soccerlg_s5_b3.c:419: g_GkRecoilY = -1;
    00000B75 21r00r00         [10] 2380 	ld	hl, #_g_GkRecoilY
    00000B78 36 FF            [10] 2381 	ld	(hl), #0xff
                                   2382 ;E:\Dropbox\FAUSTO\SVILUPPI\MSX\CODE\C\MSXgl\projects\soccerlgSCC/soccerlg_s5_b3.c:420: if (g_Players[gkId].Y <= FIELD_BOUND_Y_TOP + 4) closeToLine = true;
    00000B7A 69               [ 4] 2383 	ld	l, c
    00000B7B 60               [ 4] 2384 	ld	h, b
    00000B7C 4E               [ 7] 2385 	ld	c, (hl)
    00000B7D 23               [ 6] 2386 	inc	hl
    00000B7E 46               [ 7] 2387 	ld	b, (hl)
    00000B7F 3E 36            [ 7] 2388 	ld	a, #0x36
    00000B81 B9               [ 4] 2389 	cp	a, c
    00000B82 3E 00            [ 7] 2390 	ld	a, #0x00
    00000B84 98               [ 4] 2391 	sbc	a, b
    00000B85 38 19            [12] 2392 	jr	C, 00115$
    00000B87 1E 01            [ 7] 2393 	ld	e, #0x01
    00000B89 C3rA0r0B         [10] 2394 	jp	00115$
    00000B8C                       2395 00114$:
                                   2396 ;E:\Dropbox\FAUSTO\SVILUPPI\MSX\CODE\C\MSXgl\projects\soccerlgSCC/soccerlg_s5_b3.c:422: g_GkRecoilY = 1;
    00000B8C 21r00r00         [10] 2397 	ld	hl, #_g_GkRecoilY
    00000B8F 36 01            [10] 2398 	ld	(hl), #0x01
                                   2399 ;E:\Dropbox\FAUSTO\SVILUPPI\MSX\CODE\C\MSXgl\projects\soccerlgSCC/soccerlg_s5_b3.c:423: if (g_Players[gkId].Y >= FIELD_BOUND_Y_BOTTOM - 4) closeToLine = true;
    00000B91 69               [ 4] 2400 	ld	l, c
    00000B92 60               [ 4] 2401 	ld	h, b
    00000B93 4E               [ 7] 2402 	ld	c, (hl)
    00000B94 23               [ 6] 2403 	inc	hl
    00000B95 46               [ 7] 2404 	ld	b, (hl)
    00000B96 79               [ 4] 2405 	ld	a, c
    00000B97 D6 AF            [ 7] 2406 	sub	a, #0xaf
    00000B99 78               [ 4] 2407 	ld	a, b
    00000B9A DE 01            [ 7] 2408 	sbc	a, #0x01
    00000B9C 38 02            [12] 2409 	jr	C, 00115$
    00000B9E 1E 01            [ 7] 2410 	ld	e, #0x01
    00000BA0                       2411 00115$:
                                   2412 ;E:\Dropbox\FAUSTO\SVILUPPI\MSX\CODE\C\MSXgl\projects\soccerlgSCC/soccerlg_s5_b3.c:426: if (closeToLine || isSteal) g_GkRecoilY = 0; // No recoil for Steals
    00000BA0 7B               [ 4] 2413 	ld	a, e
    00000BA1 B7               [ 4] 2414 	or	a, a
    00000BA2 20 06            [12] 2415 	jr	NZ, 00116$
    00000BA4 DD 7E FD         [19] 2416 	ld	a, -3 (ix)
    00000BA7 B7               [ 4] 2417 	or	a, a
    00000BA8 28 05            [12] 2418 	jr	Z, 00117$
    00000BAA                       2419 00116$:
    00000BAA 21r00r00         [10] 2420 	ld	hl, #_g_GkRecoilY
    00000BAD 36 00            [10] 2421 	ld	(hl), #0x00
    00000BAF                       2422 00117$:
                                   2423 ;E:\Dropbox\FAUSTO\SVILUPPI\MSX\CODE\C\MSXgl\projects\soccerlgSCC/soccerlg_s5_b3.c:427: g_GkIsGroundKick = isSteal; // Track if this is a ground kick (no offset needed)
    00000BAF DD 7E FD         [19] 2424 	ld	a, -3 (ix)
    00000BB2 32r00r00         [13] 2425 	ld	(_g_GkIsGroundKick+0), a
                                   2426 ;E:\Dropbox\FAUSTO\SVILUPPI\MSX\CODE\C\MSXgl\projects\soccerlgSCC/soccerlg_s5_b3.c:430: CallFnc_VOID_P1(4,SetPlayerBallPossession,gkId);
    00000BB5 DD 7E F9         [19] 2427 	ld	a, -7 (ix)
    00000BB8 F5               [11] 2428 	push	af
    00000BB9 33               [ 6] 2429 	inc	sp
    00000BBA 11r00r00         [10] 2430 	ld	de, #_SetPlayerBallPossession
    00000BBD 3E 04            [ 7] 2431 	ld	a, #0x04
    00000BBF CDr00r00         [17] 2432 	call	_CallFnc_VOID_P1
                                   2433 ;E:\Dropbox\FAUSTO\SVILUPPI\MSX\CODE\C\MSXgl\projects\soccerlgSCC/soccerlg_s5_b3.c:431: g_Ball.PossessionPlayerId = gkId; // Fix: Ensure AI knows GK has ball immediately to prevent chasing
    00000BC2 21r06r00         [10] 2434 	ld	hl, #(_g_Ball + 6)
    00000BC5 DD 7E F9         [19] 2435 	ld	a, -7 (ix)
    00000BC8 77               [ 7] 2436 	ld	(hl), a
                                   2437 ;E:\Dropbox\FAUSTO\SVILUPPI\MSX\CODE\C\MSXgl\projects\soccerlgSCC/soccerlg_s5_b3.c:432: g_Ball.ShotActive = 0;
    00000BC9 21r1Br00         [10] 2438 	ld	hl, #(_g_Ball + 27)
    00000BCC 36 00            [10] 2439 	ld	(hl), #0x00
                                   2440 ;E:\Dropbox\FAUSTO\SVILUPPI\MSX\CODE\C\MSXgl\projects\soccerlgSCC/soccerlg_s5_b3.c:434: g_MatchStatus = MATCH_BALL_ON_GOALKEEPER;
    00000BCE 21r00r00         [10] 2441 	ld	hl, #_g_MatchStatus
    00000BD1 36 0D            [10] 2442 	ld	(hl), #0x0d
                                   2443 ;E:\Dropbox\FAUSTO\SVILUPPI\MSX\CODE\C\MSXgl\projects\soccerlgSCC/soccerlg_s5_b3.c:437: for(u8 i=0; i<14; i++) {
    00000BD3 DD 36 FF 00      [19] 2444 	ld	-1 (ix), #0x00
    00000BD7                       2445 00161$:
    00000BD7 DD 7E FF         [19] 2446 	ld	a, -1 (ix)
    00000BDA D6 0E            [ 7] 2447 	sub	a, #0x0e
    00000BDC D2rBEr0C         [10] 2448 	jp	NC, 00162$
                                   2449 ;E:\Dropbox\FAUSTO\SVILUPPI\MSX\CODE\C\MSXgl\projects\soccerlgSCC/soccerlg_s5_b3.c:438: if(i == gkId) continue;
    00000BDF DD 7E F9         [19] 2450 	ld	a, -7 (ix)
    00000BE2 DD 96 FF         [19] 2451 	sub	a, -1 (ix)
    00000BE5 CArB8r0C         [10] 2452 	jp	Z,00158$
                                   2453 ;E:\Dropbox\FAUSTO\SVILUPPI\MSX\CODE\C\MSXgl\projects\soccerlgSCC/soccerlg_s5_b3.c:439: if(g_Players[i].TeamId == REFEREE) continue;
    00000BE8 DD 4E FF         [19] 2454 	ld	c, -1 (ix)
    00000BEB 06 00            [ 7] 2455 	ld	b, #0x00
    00000BED 69               [ 4] 2456 	ld	l, c
    00000BEE 60               [ 4] 2457 	ld	h, b
    00000BEF 29               [11] 2458 	add	hl, hl
    00000BF0 29               [11] 2459 	add	hl, hl
    00000BF1 09               [11] 2460 	add	hl, bc
    00000BF2 29               [11] 2461 	add	hl, hl
    00000BF3 29               [11] 2462 	add	hl, hl
    00000BF4 09               [11] 2463 	add	hl, bc
    00000BF5 EB               [ 4] 2464 	ex	de, hl
    00000BF6 21r00r00         [10] 2465 	ld	hl, #_g_Players
    00000BF9 19               [11] 2466 	add	hl, de
    00000BFA DD 75 FB         [19] 2467 	ld	-5 (ix), l
    00000BFD DD 74 FC         [19] 2468 	ld	-4 (ix), h
    00000C00 01 09 00         [10] 2469 	ld	bc,#9
    00000C03 09               [11] 2470 	add	hl,bc
    00000C04 46               [ 7] 2471 	ld	b, (hl)
    00000C05 78               [ 4] 2472 	ld	a, b
    00000C06 D6 0E            [ 7] 2473 	sub	a, #0x0e
    00000C08 CArB8r0C         [10] 2474 	jp	Z,00158$
                                   2475 ;E:\Dropbox\FAUSTO\SVILUPPI\MSX\CODE\C\MSXgl\projects\soccerlgSCC/soccerlg_s5_b3.c:440: if(g_Players[i].Role == PLAYER_ROLE_GOALKEEPER) continue;
    00000C0B DD 5E FB         [19] 2476 	ld	e, -5 (ix)
    00000C0E DD 56 FC         [19] 2477 	ld	d, -4 (ix)
    00000C11 21 0D 00         [10] 2478 	ld	hl, #13
    00000C14 19               [11] 2479 	add	hl, de
    00000C15 4E               [ 7] 2480 	ld	c, (hl)
    00000C16 79               [ 4] 2481 	ld	a, c
    00000C17 B7               [ 4] 2482 	or	a, a
    00000C18 CArB8r0C         [10] 2483 	jp	Z, 00158$
                                   2484 ;E:\Dropbox\FAUSTO\SVILUPPI\MSX\CODE\C\MSXgl\projects\soccerlgSCC/soccerlg_s5_b3.c:450: if (g_Players[i].Role >= PLAYER_ROLE_LEFT_STRIKER) ty = 160;
    00000C1B 79               [ 4] 2485 	ld	a, c
    00000C1C D6 05            [ 7] 2486 	sub	a, #0x05
    00000C1E 3E 00            [ 7] 2487 	ld	a, #0x00
    00000C20 17               [ 4] 2488 	rla
    00000C21 5F               [ 4] 2489 	ld	e, a
                                   2490 ;E:\Dropbox\FAUSTO\SVILUPPI\MSX\CODE\C\MSXgl\projects\soccerlgSCC/soccerlg_s5_b3.c:446: if(g_Players[i].TeamId == teamId) {
    00000C22 DD 7E FE         [19] 2491 	ld	a, -2 (ix)
    00000C25 90               [ 4] 2492 	sub	a, b
    00000C26 20 3C            [12] 2493 	jr	NZ, 00156$
                                   2494 ;E:\Dropbox\FAUSTO\SVILUPPI\MSX\CODE\C\MSXgl\projects\soccerlgSCC/soccerlg_s5_b3.c:449: if(teamId == TEAM_1) { // Moving UP
    00000C28 DD 7E FA         [19] 2495 	ld	a, -6 (ix)
    00000C2B B7               [ 4] 2496 	or	a, a
    00000C2C 28 1B            [12] 2497 	jr	Z, 00138$
                                   2498 ;E:\Dropbox\FAUSTO\SVILUPPI\MSX\CODE\C\MSXgl\projects\soccerlgSCC/soccerlg_s5_b3.c:450: if (g_Players[i].Role >= PLAYER_ROLE_LEFT_STRIKER) ty = 160;
    00000C2E CB 43            [ 8] 2499 	bit	0, e
    00000C30 20 06            [12] 2500 	jr	NZ, 00129$
    00000C32 11 A0 00         [10] 2501 	ld	de, #0x00a0
    00000C35 C3r9Dr0C         [10] 2502 	jp	00157$
    00000C38                       2503 00129$:
                                   2504 ;E:\Dropbox\FAUSTO\SVILUPPI\MSX\CODE\C\MSXgl\projects\soccerlgSCC/soccerlg_s5_b3.c:451: else if (g_Players[i].Role >= PLAYER_ROLE_LEFT_HALFFIELDER) ty = 240;
    00000C38 79               [ 4] 2505 	ld	a, c
    00000C39 D6 03            [ 7] 2506 	sub	a, #0x03
    00000C3B 38 06            [12] 2507 	jr	C, 00126$
    00000C3D 11 F0 00         [10] 2508 	ld	de, #0x00f0
    00000C40 C3r9Dr0C         [10] 2509 	jp	00157$
    00000C43                       2510 00126$:
                                   2511 ;E:\Dropbox\FAUSTO\SVILUPPI\MSX\CODE\C\MSXgl\projects\soccerlgSCC/soccerlg_s5_b3.c:452: else ty = 350;
    00000C43 11 5E 01         [10] 2512 	ld	de, #0x015e
    00000C46 C3r9Dr0C         [10] 2513 	jp	00157$
    00000C49                       2514 00138$:
                                   2515 ;E:\Dropbox\FAUSTO\SVILUPPI\MSX\CODE\C\MSXgl\projects\soccerlgSCC/soccerlg_s5_b3.c:454: if (g_Players[i].Role >= PLAYER_ROLE_LEFT_STRIKER) ty = 320;
    00000C49 CB 43            [ 8] 2516 	bit	0, e
    00000C4B 20 06            [12] 2517 	jr	NZ, 00135$
    00000C4D 11 40 01         [10] 2518 	ld	de, #0x0140
    00000C50 C3r9Dr0C         [10] 2519 	jp	00157$
    00000C53                       2520 00135$:
                                   2521 ;E:\Dropbox\FAUSTO\SVILUPPI\MSX\CODE\C\MSXgl\projects\soccerlgSCC/soccerlg_s5_b3.c:455: else if (g_Players[i].Role >= PLAYER_ROLE_LEFT_HALFFIELDER) ty = 240;
    00000C53 79               [ 4] 2522 	ld	a, c
    00000C54 D6 03            [ 7] 2523 	sub	a, #0x03
    00000C56 38 06            [12] 2524 	jr	C, 00132$
    00000C58 11 F0 00         [10] 2525 	ld	de, #0x00f0
    00000C5B C3r9Dr0C         [10] 2526 	jp	00157$
    00000C5E                       2527 00132$:
                                   2528 ;E:\Dropbox\FAUSTO\SVILUPPI\MSX\CODE\C\MSXgl\projects\soccerlgSCC/soccerlg_s5_b3.c:456: else ty = 130;
    00000C5E 11 82 00         [10] 2529 	ld	de, #0x0082
    00000C61 C3r9Dr0C         [10] 2530 	jp	00157$
    00000C64                       2531 00156$:
                                   2532 ;E:\Dropbox\FAUSTO\SVILUPPI\MSX\CODE\C\MSXgl\projects\soccerlgSCC/soccerlg_s5_b3.c:461: if(teamId == TEAM_1) { // Opponent is Team 2 (Top) -> Retreat UP? No, Team 2 Defends Top.
    00000C64 DD 7E FA         [19] 2533 	ld	a, -6 (ix)
    00000C67 B7               [ 4] 2534 	or	a, a
    00000C68 28 1B            [12] 2535 	jr	Z, 00153$
                                   2536 ;E:\Dropbox\FAUSTO\SVILUPPI\MSX\CODE\C\MSXgl\projects\soccerlgSCC/soccerlg_s5_b3.c:463: if (g_Players[i].Role >= PLAYER_ROLE_LEFT_STRIKER) ty = 243; // Midfield
    00000C6A CB 43            [ 8] 2537 	bit	0, e
    00000C6C 20 06            [12] 2538 	jr	NZ, 00144$
    00000C6E 11 F3 00         [10] 2539 	ld	de, #0x00f3
    00000C71 C3r9Dr0C         [10] 2540 	jp	00157$
    00000C74                       2541 00144$:
                                   2542 ;E:\Dropbox\FAUSTO\SVILUPPI\MSX\CODE\C\MSXgl\projects\soccerlgSCC/soccerlg_s5_b3.c:464: else if (g_Players[i].Role >= PLAYER_ROLE_LEFT_HALFFIELDER) ty = 106;
    00000C74 79               [ 4] 2543 	ld	a, c
    00000C75 D6 03            [ 7] 2544 	sub	a, #0x03
    00000C77 38 06            [12] 2545 	jr	C, 00141$
    00000C79 11 6A 00         [10] 2546 	ld	de, #0x006a
    00000C7C C3r9Dr0C         [10] 2547 	jp	00157$
    00000C7F                       2548 00141$:
                                   2549 ;E:\Dropbox\FAUSTO\SVILUPPI\MSX\CODE\C\MSXgl\projects\soccerlgSCC/soccerlg_s5_b3.c:465: else ty = 130;
    00000C7F 11 82 00         [10] 2550 	ld	de, #0x0082
    00000C82 C3r9Dr0C         [10] 2551 	jp	00157$
    00000C85                       2552 00153$:
                                   2553 ;E:\Dropbox\FAUSTO\SVILUPPI\MSX\CODE\C\MSXgl\projects\soccerlgSCC/soccerlg_s5_b3.c:468: if (g_Players[i].Role >= PLAYER_ROLE_LEFT_STRIKER) ty = 243;
    00000C85 CB 43            [ 8] 2554 	bit	0, e
    00000C87 20 06            [12] 2555 	jr	NZ, 00150$
    00000C89 11 F3 00         [10] 2556 	ld	de, #0x00f3
    00000C8C C3r9Dr0C         [10] 2557 	jp	00157$
    00000C8F                       2558 00150$:
                                   2559 ;E:\Dropbox\FAUSTO\SVILUPPI\MSX\CODE\C\MSXgl\projects\soccerlgSCC/soccerlg_s5_b3.c:469: else if (g_Players[i].Role >= PLAYER_ROLE_LEFT_HALFFIELDER) ty = 318;
    00000C8F 79               [ 4] 2560 	ld	a, c
    00000C90 D6 03            [ 7] 2561 	sub	a, #0x03
    00000C92 38 06            [12] 2562 	jr	C, 00147$
    00000C94 11 3E 01         [10] 2563 	ld	de, #0x013e
    00000C97 C3r9Dr0C         [10] 2564 	jp	00157$
    00000C9A                       2565 00147$:
                                   2566 ;E:\Dropbox\FAUSTO\SVILUPPI\MSX\CODE\C\MSXgl\projects\soccerlgSCC/soccerlg_s5_b3.c:470: else ty = 350;
    00000C9A 11 5E 01         [10] 2567 	ld	de, #0x015e
    00000C9D                       2568 00157$:
                                   2569 ;E:\Dropbox\FAUSTO\SVILUPPI\MSX\CODE\C\MSXgl\projects\soccerlgSCC/soccerlg_s5_b3.c:475: g_Players[i].TargetY = ty;
    00000C9D DD 6E FB         [19] 2570 	ld	l, -5 (ix)
    00000CA0 DD 66 FC         [19] 2571 	ld	h, -4 (ix)
    00000CA3 01 0E 00         [10] 2572 	ld	bc, #0x000e
    00000CA6 09               [11] 2573 	add	hl, bc
    00000CA7 73               [ 7] 2574 	ld	(hl), e
    00000CA8 23               [ 6] 2575 	inc	hl
    00000CA9 72               [ 7] 2576 	ld	(hl), d
                                   2577 ;E:\Dropbox\FAUSTO\SVILUPPI\MSX\CODE\C\MSXgl\projects\soccerlgSCC/soccerlg_s5_b3.c:476: g_Players[i].Status = PLAYER_STATUS_NONE; // Unlock movement
    00000CAA DD 6E FB         [19] 2578 	ld	l, -5 (ix)
    00000CAD DD 66 FC         [19] 2579 	ld	h, -4 (ix)
    00000CB0 11 12 00         [10] 2580 	ld	de, #0x0012
    00000CB3 19               [11] 2581 	add	hl, de
    00000CB4 AF               [ 4] 2582 	xor	a, a
    00000CB5 77               [ 7] 2583 	ld	(hl), a
    00000CB6 23               [ 6] 2584 	inc	hl
    00000CB7 77               [ 7] 2585 	ld	(hl), a
    00000CB8                       2586 00158$:
                                   2587 ;E:\Dropbox\FAUSTO\SVILUPPI\MSX\CODE\C\MSXgl\projects\soccerlgSCC/soccerlg_s5_b3.c:437: for(u8 i=0; i<14; i++) {
    00000CB8 DD 34 FF         [23] 2588 	inc	-1 (ix)
    00000CBB C3rD7r0B         [10] 2589 	jp	00161$
    00000CBE                       2590 00162$:
                                   2591 ;E:\Dropbox\FAUSTO\SVILUPPI\MSX\CODE\C\MSXgl\projects\soccerlgSCC/soccerlg_s5_b3.c:478: }
    00000CBE DD F9            [10] 2592 	ld	sp, ix
    00000CC0 DD E1            [14] 2593 	pop	ix
    00000CC2 C9               [10] 2594 	ret
                                   2595 ;E:\Dropbox\FAUSTO\SVILUPPI\MSX\CODE\C\MSXgl\projects\soccerlgSCC/soccerlg_s5_b3.c:481: void TickPlayerToOwnTarget(){
                                   2596 ;	---------------------------------
                                   2597 ; Function TickPlayerToOwnTarget
                                   2598 ; ---------------------------------
    00000CC3                       2599 _TickPlayerToOwnTarget::
    00000CC3 DD E5            [15] 2600 	push	ix
    00000CC5 DD 21 00 00      [14] 2601 	ld	ix,#0
    00000CC9 DD 39            [15] 2602 	add	ix,sp
    00000CCB 21 E9 FF         [10] 2603 	ld	hl, #-23
    00000CCE 39               [11] 2604 	add	hl, sp
    00000CCF F9               [ 6] 2605 	ld	sp, hl
                                   2606 ;E:\Dropbox\FAUSTO\SVILUPPI\MSX\CODE\C\MSXgl\projects\soccerlgSCC/soccerlg_s5_b3.c:482: if(g_MatchStatus!=MATCH_NOT_STARTED){
    00000CD0 3Ar00r00         [13] 2607 	ld	a, (_g_MatchStatus+0)
    00000CD3 B7               [ 4] 2608 	or	a, a
    00000CD4 CAr32r17         [10] 2609 	jp	Z, 00307$
                                   2610 ;E:\Dropbox\FAUSTO\SVILUPPI\MSX\CODE\C\MSXgl\projects\soccerlgSCC/soccerlg_s5_b3.c:483: bool allPlayersInPosition = true;
    00000CD7 DD 36 EB 01      [19] 2611 	ld	-21 (ix), #0x01
                                   2612 ;E:\Dropbox\FAUSTO\SVILUPPI\MSX\CODE\C\MSXgl\projects\soccerlgSCC/soccerlg_s5_b3.c:486: s_GkMoveTick++;
    00000CDB 21r03r00         [10] 2613 	ld	hl, #_TickPlayerToOwnTarget_s_GkMoveTick_131072_1305
    00000CDE 34               [11] 2614 	inc	(hl)
                                   2615 ;E:\Dropbox\FAUSTO\SVILUPPI\MSX\CODE\C\MSXgl\projects\soccerlgSCC/soccerlg_s5_b3.c:487: for(u8 i=0;i<15;i++){
    00000CDF DD 36 FF 00      [19] 2616 	ld	-1 (ix), #0x00
    00000CE3                       2617 00306$:
    00000CE3 DD 7E FF         [19] 2618 	ld	a, -1 (ix)
    00000CE6 D6 0F            [ 7] 2619 	sub	a, #0x0f
    00000CE8 D2rFFr16         [10] 2620 	jp	NC, 00298$
                                   2621 ;E:\Dropbox\FAUSTO\SVILUPPI\MSX\CODE\C\MSXgl\projects\soccerlgSCC/soccerlg_s5_b3.c:488: if (g_MatchStatus == MATCH_IN_ACTION && g_Players[i].Role == PLAYER_ROLE_GOALKEEPER) {
    00000CEB 3Ar00r00         [13] 2622 	ld	a, (_g_MatchStatus+0)
    00000CEE D6 0C            [ 7] 2623 	sub	a, #0x0c
    00000CF0 C2r65r0E         [10] 2624 	jp	NZ,00117$
    00000CF3 DD 4E FF         [19] 2625 	ld	c, -1 (ix)
    00000CF6 06 00            [ 7] 2626 	ld	b, #0x00
    00000CF8 69               [ 4] 2627 	ld	l, c
    00000CF9 60               [ 4] 2628 	ld	h, b
    00000CFA 29               [11] 2629 	add	hl, hl
    00000CFB 29               [11] 2630 	add	hl, hl
    00000CFC 09               [11] 2631 	add	hl, bc
    00000CFD 29               [11] 2632 	add	hl, hl
    00000CFE 29               [11] 2633 	add	hl, hl
    00000CFF 09               [11] 2634 	add	hl, bc
    00000D00 EB               [ 4] 2635 	ex	de, hl
    00000D01 21r00r00         [10] 2636 	ld	hl, #_g_Players
    00000D04 19               [11] 2637 	add	hl, de
    00000D05 DD 75 F3         [19] 2638 	ld	-13 (ix), l
    00000D08 DD 74 F4         [19] 2639 	ld	-12 (ix), h
    00000D0B 01 0D 00         [10] 2640 	ld	bc,#13
    00000D0E 09               [11] 2641 	add	hl,bc
    00000D0F 7E               [ 7] 2642 	ld	a, (hl)
    00000D10 B7               [ 4] 2643 	or	a, a
    00000D11 C2r65r0E         [10] 2644 	jp	NZ, 00117$
                                   2645 ;E:\Dropbox\FAUSTO\SVILUPPI\MSX\CODE\C\MSXgl\projects\soccerlgSCC/soccerlg_s5_b3.c:489: if (g_Ball.ShotActive) continue; 
    00000D14 3Ar1Br00         [13] 2646 	ld	a, (#_g_Ball + 27)
    00000D17 B7               [ 4] 2647 	or	a, a
    00000D18 C2rF9r16         [10] 2648 	jp	NZ, 00297$
                                   2649 ;E:\Dropbox\FAUSTO\SVILUPPI\MSX\CODE\C\MSXgl\projects\soccerlgSCC/soccerlg_s5_b3.c:491: if ((s_GkMoveTick & 1) == 0) { 
    00000D1B 3Ar03r00         [13] 2650 	ld	a, (_TickPlayerToOwnTarget_s_GkMoveTick_131072_1305+0)
    00000D1E 4F               [ 4] 2651 	ld	c, a
                                   2652 ;E:\Dropbox\FAUSTO\SVILUPPI\MSX\CODE\C\MSXgl\projects\soccerlgSCC/soccerlg_s5_b3.c:504: i16 diff = (i16)desiredX - (i16)g_Players[i].X;
    00000D1F DD 7E F3         [19] 2653 	ld	a, -13 (ix)
    00000D22 C6 02            [ 7] 2654 	add	a, #0x02
    00000D24 DD 77 F5         [19] 2655 	ld	-11 (ix), a
    00000D27 DD 7E F4         [19] 2656 	ld	a, -12 (ix)
    00000D2A CE 00            [ 7] 2657 	adc	a, #0x00
    00000D2C DD 77 F6         [19] 2658 	ld	-10 (ix), a
                                   2659 ;E:\Dropbox\FAUSTO\SVILUPPI\MSX\CODE\C\MSXgl\projects\soccerlgSCC/soccerlg_s5_b3.c:491: if ((s_GkMoveTick & 1) == 0) { 
    00000D2F CB 41            [ 8] 2660 	bit	0, c
    00000D31 C2r4Br0E         [10] 2661 	jp	NZ,00115$
                                   2662 ;E:\Dropbox\FAUSTO\SVILUPPI\MSX\CODE\C\MSXgl\projects\soccerlgSCC/soccerlg_s5_b3.c:494: u16 desiredX = g_Ball.X;
    00000D34 21r02r00         [10] 2663 	ld	hl, #(_g_Ball + 2)
    00000D37 7E               [ 7] 2664 	ld	a, (hl)
    00000D38 DD 77 FD         [19] 2665 	ld	-3 (ix), a
    00000D3B 23               [ 6] 2666 	inc	hl
    00000D3C 7E               [ 7] 2667 	ld	a, (hl)
    00000D3D DD 77 FE         [19] 2668 	ld	-2 (ix), a
                                   2669 ;E:\Dropbox\FAUSTO\SVILUPPI\MSX\CODE\C\MSXgl\projects\soccerlgSCC/soccerlg_s5_b3.c:496: const TeamStats* stats = GetTeamStats(g_Players[i].TeamId);
    00000D40 DD 7E F3         [19] 2670 	ld	a, -13 (ix)
    00000D43 DD 77 FB         [19] 2671 	ld	-5 (ix), a
    00000D46 DD 7E F4         [19] 2672 	ld	a, -12 (ix)
    00000D49 DD 77 FC         [19] 2673 	ld	-4 (ix), a
    00000D4C DD 6E FB         [19] 2674 	ld	l, -5 (ix)
    00000D4F DD 66 FC         [19] 2675 	ld	h, -4 (ix)
    00000D52 11 09 00         [10] 2676 	ld	de, #0x0009
    00000D55 19               [11] 2677 	add	hl, de
    00000D56 7E               [ 7] 2678 	ld	a, (hl)
    00000D57 CDr00r00         [17] 2679 	call	_GetTeamStats
                                   2680 ;E:\Dropbox\FAUSTO\SVILUPPI\MSX\CODE\C\MSXgl\projects\soccerlgSCC/soccerlg_s5_b3.c:497: if (stats->GkSkill >= 15) {
    00000D5A DD 73 FB         [19] 2681 	ld	-5 (ix), e
    00000D5D DD 72 FC         [19] 2682 	ld	-4 (ix), d
    00000D60 EB               [ 4] 2683 	ex	de,hl
    00000D61 11 04 00         [10] 2684 	ld	de, #0x0004
    00000D64 19               [11] 2685 	add	hl, de
    00000D65 7E               [ 7] 2686 	ld	a, (hl)
    00000D66 D6 0F            [ 7] 2687 	sub	a, #0x0f
    00000D68 38 30            [12] 2688 	jr	C, 00104$
                                   2689 ;E:\Dropbox\FAUSTO\SVILUPPI\MSX\CODE\C\MSXgl\projects\soccerlgSCC/soccerlg_s5_b3.c:498: desiredX = (g_Ball.X + FIELD_POS_X_CENTER) / 2;
    00000D6A 21r02r00         [10] 2690 	ld	hl, #(_g_Ball + 2)
    00000D6D 7E               [ 7] 2691 	ld	a, (hl)
    00000D6E DD 77 FD         [19] 2692 	ld	-3 (ix), a
    00000D71 23               [ 6] 2693 	inc	hl
    00000D72 7E               [ 7] 2694 	ld	a, (hl)
    00000D73 DD 77 FE         [19] 2695 	ld	-2 (ix), a
    00000D76 DD 7E FD         [19] 2696 	ld	a, -3 (ix)
    00000D79 DD 77 FB         [19] 2697 	ld	-5 (ix), a
    00000D7C DD 7E FE         [19] 2698 	ld	a, -2 (ix)
    00000D7F DD 77 FC         [19] 2699 	ld	-4 (ix), a
    00000D82 DD 7E FB         [19] 2700 	ld	a, -5 (ix)
    00000D85 C6 78            [ 7] 2701 	add	a, #0x78
    00000D87 DD 77 FD         [19] 2702 	ld	-3 (ix), a
    00000D8A DD 7E FC         [19] 2703 	ld	a, -4 (ix)
    00000D8D CE 00            [ 7] 2704 	adc	a, #0x00
    00000D8F DD 77 FE         [19] 2705 	ld	-2 (ix), a
    00000D92 DD CB FE 3E      [23] 2706 	srl	-2 (ix)
    00000D96 DD CB FD 1E      [23] 2707 	rr	-3 (ix)
    00000D9A                       2708 00104$:
                                   2709 ;E:\Dropbox\FAUSTO\SVILUPPI\MSX\CODE\C\MSXgl\projects\soccerlgSCC/soccerlg_s5_b3.c:501: if (desiredX < minX) desiredX = minX;
    00000D9A DD 7E FD         [19] 2710 	ld	a, -3 (ix)
    00000D9D D6 60            [ 7] 2711 	sub	a, #0x60
    00000D9F DD 7E FE         [19] 2712 	ld	a, -2 (ix)
    00000DA2 DE 00            [ 7] 2713 	sbc	a, #0x00
    00000DA4 30 08            [12] 2714 	jr	NC, 00106$
    00000DA6 DD 36 FD 60      [19] 2715 	ld	-3 (ix), #0x60
    00000DAA DD 36 FE 00      [19] 2716 	ld	-2 (ix), #0
    00000DAE                       2717 00106$:
                                   2718 ;E:\Dropbox\FAUSTO\SVILUPPI\MSX\CODE\C\MSXgl\projects\soccerlgSCC/soccerlg_s5_b3.c:502: if (desiredX > maxX) desiredX = maxX;
    00000DAE 3E 90            [ 7] 2719 	ld	a, #0x90
    00000DB0 DD BE FD         [19] 2720 	cp	a, -3 (ix)
    00000DB3 3E 00            [ 7] 2721 	ld	a, #0x00
    00000DB5 DD 9E FE         [19] 2722 	sbc	a, -2 (ix)
    00000DB8 30 08            [12] 2723 	jr	NC, 00108$
    00000DBA DD 36 FD 90      [19] 2724 	ld	-3 (ix), #0x90
    00000DBE DD 36 FE 00      [19] 2725 	ld	-2 (ix), #0
    00000DC2                       2726 00108$:
                                   2727 ;E:\Dropbox\FAUSTO\SVILUPPI\MSX\CODE\C\MSXgl\projects\soccerlgSCC/soccerlg_s5_b3.c:504: i16 diff = (i16)desiredX - (i16)g_Players[i].X;
    00000DC2 DD 7E FD         [19] 2728 	ld	a, -3 (ix)
    00000DC5 DD 77 F7         [19] 2729 	ld	-9 (ix), a
    00000DC8 DD 7E FE         [19] 2730 	ld	a, -2 (ix)
    00000DCB DD 77 F8         [19] 2731 	ld	-8 (ix), a
    00000DCE DD 6E F5         [19] 2732 	ld	l, -11 (ix)
    00000DD1 DD 66 F6         [19] 2733 	ld	h, -10 (ix)
    00000DD4 7E               [ 7] 2734 	ld	a, (hl)
    00000DD5 DD 77 F9         [19] 2735 	ld	-7 (ix), a
    00000DD8 23               [ 6] 2736 	inc	hl
    00000DD9 7E               [ 7] 2737 	ld	a, (hl)
    00000DDA DD 77 FA         [19] 2738 	ld	-6 (ix), a
    00000DDD DD 7E F9         [19] 2739 	ld	a, -7 (ix)
    00000DE0 DD 77 FB         [19] 2740 	ld	-5 (ix), a
    00000DE3 DD 7E FA         [19] 2741 	ld	a, -6 (ix)
    00000DE6 DD 77 FC         [19] 2742 	ld	-4 (ix), a
    00000DE9 DD 7E F7         [19] 2743 	ld	a, -9 (ix)
    00000DEC DD 96 FB         [19] 2744 	sub	a, -5 (ix)
    00000DEF DD 77 FD         [19] 2745 	ld	-3 (ix), a
    00000DF2 DD 7E F8         [19] 2746 	ld	a, -8 (ix)
    00000DF5 DD 9E FC         [19] 2747 	sbc	a, -4 (ix)
    00000DF8 DD 77 FE         [19] 2748 	ld	-2 (ix), a
                                   2749 ;E:\Dropbox\FAUSTO\SVILUPPI\MSX\CODE\C\MSXgl\projects\soccerlgSCC/soccerlg_s5_b3.c:507: if (diff > 2) g_Players[i].X++;
    00000DFB DD 7E FD         [19] 2750 	ld	a, -3 (ix)
    00000DFE DD 77 FB         [19] 2751 	ld	-5 (ix), a
    00000E01 DD 7E FE         [19] 2752 	ld	a, -2 (ix)
    00000E04 DD 77 FC         [19] 2753 	ld	-4 (ix), a
    00000E07 3E 02            [ 7] 2754 	ld	a, #0x02
    00000E09 DD BE FB         [19] 2755 	cp	a, -5 (ix)
    00000E0C 3E 00            [ 7] 2756 	ld	a, #0x00
    00000E0E DD 9E FC         [19] 2757 	sbc	a, -4 (ix)
    00000E11 E2r16r0E         [10] 2758 	jp	PO, 00854$
    00000E14 EE 80            [ 7] 2759 	xor	a, #0x80
    00000E16                       2760 00854$:
    00000E16 F2r2Cr0E         [10] 2761 	jp	P, 00112$
    00000E19 DD 4E F9         [19] 2762 	ld	c, -7 (ix)
    00000E1C DD 46 FA         [19] 2763 	ld	b, -6 (ix)
    00000E1F 03               [ 6] 2764 	inc	bc
    00000E20 DD 6E F5         [19] 2765 	ld	l, -11 (ix)
    00000E23 DD 66 F6         [19] 2766 	ld	h, -10 (ix)
    00000E26 71               [ 7] 2767 	ld	(hl), c
    00000E27 23               [ 6] 2768 	inc	hl
    00000E28 70               [ 7] 2769 	ld	(hl), b
    00000E29 C3r4Br0E         [10] 2770 	jp	00115$
    00000E2C                       2771 00112$:
                                   2772 ;E:\Dropbox\FAUSTO\SVILUPPI\MSX\CODE\C\MSXgl\projects\soccerlgSCC/soccerlg_s5_b3.c:508: else if (diff < -2) g_Players[i].X--;
    00000E2C DD 7E FD         [19] 2773 	ld	a, -3 (ix)
    00000E2F D6 FE            [ 7] 2774 	sub	a, #0xfe
    00000E31 DD 7E FE         [19] 2775 	ld	a, -2 (ix)
    00000E34 17               [ 4] 2776 	rla
    00000E35 3F               [ 4] 2777 	ccf
    00000E36 1F               [ 4] 2778 	rra
    00000E37 DE 7F            [ 7] 2779 	sbc	a, #0x7f
    00000E39 30 10            [12] 2780 	jr	NC, 00115$
    00000E3B DD 4E F9         [19] 2781 	ld	c, -7 (ix)
    00000E3E DD 46 FA         [19] 2782 	ld	b, -6 (ix)
    00000E41 0B               [ 6] 2783 	dec	bc
    00000E42 DD 6E F5         [19] 2784 	ld	l, -11 (ix)
    00000E45 DD 66 F6         [19] 2785 	ld	h, -10 (ix)
    00000E48 71               [ 7] 2786 	ld	(hl), c
    00000E49 23               [ 6] 2787 	inc	hl
    00000E4A 70               [ 7] 2788 	ld	(hl), b
    00000E4B                       2789 00115$:
                                   2790 ;E:\Dropbox\FAUSTO\SVILUPPI\MSX\CODE\C\MSXgl\projects\soccerlgSCC/soccerlg_s5_b3.c:511: g_Players[i].TargetX = g_Players[i].X;
    00000E4B DD 7E F3         [19] 2791 	ld	a, -13 (ix)
    00000E4E C6 10            [ 7] 2792 	add	a, #0x10
    00000E50 4F               [ 4] 2793 	ld	c, a
    00000E51 DD 7E F4         [19] 2794 	ld	a, -12 (ix)
    00000E54 CE 00            [ 7] 2795 	adc	a, #0x00
    00000E56 47               [ 4] 2796 	ld	b, a
    00000E57 DD 6E F5         [19] 2797 	ld	l, -11 (ix)
    00000E5A DD 66 F6         [19] 2798 	ld	h, -10 (ix)
    00000E5D 5E               [ 7] 2799 	ld	e, (hl)
    00000E5E 23               [ 6] 2800 	inc	hl
    00000E5F 56               [ 7] 2801 	ld	d, (hl)
    00000E60 7B               [ 4] 2802 	ld	a, e
    00000E61 02               [ 7] 2803 	ld	(bc), a
    00000E62 03               [ 6] 2804 	inc	bc
    00000E63 7A               [ 4] 2805 	ld	a, d
    00000E64 02               [ 7] 2806 	ld	(bc), a
    00000E65                       2807 00117$:
                                   2808 ;E:\Dropbox\FAUSTO\SVILUPPI\MSX\CODE\C\MSXgl\projects\soccerlgSCC/soccerlg_s5_b3.c:515: if(i != REFEREE) continue;
    00000E65 DD 7E FF         [19] 2809 	ld	a, -1 (ix)
    00000E68 D6 0E            [ 7] 2810 	sub	a, #0x0e
    00000E6A 3E 01            [ 7] 2811 	ld	a, #0x01
    00000E6C 28 01            [12] 2812 	jr	Z, 00856$
    00000E6E AF               [ 4] 2813 	xor	a, a
    00000E6F                       2814 00856$:
    00000E6F DD 77 FA         [19] 2815 	ld	-6 (ix), a
                                   2816 ;E:\Dropbox\FAUSTO\SVILUPPI\MSX\CODE\C\MSXgl\projects\soccerlgSCC/soccerlg_s5_b3.c:514: if(g_MatchStatus == MATCH_AFTER_IN_GOAL) {
    00000E72 3Ar00r00         [13] 2817 	ld	a, (_g_MatchStatus+0)
    00000E75 D6 06            [ 7] 2818 	sub	a, #0x06
    00000E77 20 60            [12] 2819 	jr	NZ, 00122$
                                   2820 ;E:\Dropbox\FAUSTO\SVILUPPI\MSX\CODE\C\MSXgl\projects\soccerlgSCC/soccerlg_s5_b3.c:515: if(i != REFEREE) continue;
    00000E79 DD CB FA 46      [20] 2821 	bit	0, -6 (ix)
    00000E7D CArF9r16         [10] 2822 	jp	Z, 00297$
                                   2823 ;E:\Dropbox\FAUSTO\SVILUPPI\MSX\CODE\C\MSXgl\projects\soccerlgSCC/soccerlg_s5_b3.c:517: g_Players[i].TargetX=FIELD_POS_X_CENTER - 30; 
    00000E80 DD 4E FF         [19] 2824 	ld	c, -1 (ix)
    00000E83 06 00            [ 7] 2825 	ld	b, #0x00
    00000E85 69               [ 4] 2826 	ld	l, c
    00000E86 60               [ 4] 2827 	ld	h, b
    00000E87 29               [11] 2828 	add	hl, hl
    00000E88 29               [11] 2829 	add	hl, hl
    00000E89 09               [11] 2830 	add	hl, bc
    00000E8A 29               [11] 2831 	add	hl, hl
    00000E8B 29               [11] 2832 	add	hl, hl
    00000E8C 09               [11] 2833 	add	hl, bc
    00000E8D DD 75 FD         [19] 2834 	ld	-3 (ix), l
    00000E90 DD 74 FE         [19] 2835 	ld	-2 (ix), h
    00000E93 3Er00            [ 7] 2836 	ld	a, #<(_g_Players)
    00000E95 DD 86 FD         [19] 2837 	add	a, -3 (ix)
    00000E98 DD 77 FB         [19] 2838 	ld	-5 (ix), a
    00000E9B 3Es00            [ 7] 2839 	ld	a, #>(_g_Players)
    00000E9D DD 8E FE         [19] 2840 	adc	a, -2 (ix)
    00000EA0 DD 77 FC         [19] 2841 	ld	-4 (ix), a
    00000EA3 DD 7E FB         [19] 2842 	ld	a, -5 (ix)
    00000EA6 C6 10            [ 7] 2843 	add	a, #0x10
    00000EA8 DD 77 FD         [19] 2844 	ld	-3 (ix), a
    00000EAB DD 7E FC         [19] 2845 	ld	a, -4 (ix)
    00000EAE CE 00            [ 7] 2846 	adc	a, #0x00
    00000EB0 DD 77 FE         [19] 2847 	ld	-2 (ix), a
    00000EB3 DD 6E FD         [19] 2848 	ld	l, -3 (ix)
    00000EB6 DD 66 FE         [19] 2849 	ld	h, -2 (ix)
    00000EB9 36 5A            [10] 2850 	ld	(hl), #0x5a
    00000EBB 23               [ 6] 2851 	inc	hl
    00000EBC 36 00            [10] 2852 	ld	(hl), #0x00
                                   2853 ;E:\Dropbox\FAUSTO\SVILUPPI\MSX\CODE\C\MSXgl\projects\soccerlgSCC/soccerlg_s5_b3.c:518: g_Players[i].TargetY=FIELD_POS_Y_CENTER - 40; 
    00000EBE DD 7E FB         [19] 2854 	ld	a, -5 (ix)
    00000EC1 C6 0E            [ 7] 2855 	add	a, #0x0e
    00000EC3 DD 77 FD         [19] 2856 	ld	-3 (ix), a
    00000EC6 DD 7E FC         [19] 2857 	ld	a, -4 (ix)
    00000EC9 CE 00            [ 7] 2858 	adc	a, #0x00
    00000ECB DD 77 FE         [19] 2859 	ld	-2 (ix), a
    00000ECE DD 6E FD         [19] 2860 	ld	l, -3 (ix)
    00000ED1 DD 66 FE         [19] 2861 	ld	h, -2 (ix)
    00000ED4 36 CB            [10] 2862 	ld	(hl), #0xcb
    00000ED6 23               [ 6] 2863 	inc	hl
    00000ED7 36 00            [10] 2864 	ld	(hl), #0x00
    00000ED9                       2865 00122$:
                                   2866 ;E:\Dropbox\FAUSTO\SVILUPPI\MSX\CODE\C\MSXgl\projects\soccerlgSCC/soccerlg_s5_b3.c:521: if (i == REFEREE && (g_MatchStatus == MATCH_IN_ACTION || g_MatchStatus == MATCH_BALL_ON_GOALKEEPER)) continue;
    00000ED9 DD 7E FA         [19] 2867 	ld	a, -6 (ix)
    00000EDC B7               [ 4] 2868 	or	a, a
    00000EDD 28 0D            [12] 2869 	jr	Z, 00124$
    00000EDF 3Ar00r00         [13] 2870 	ld	a,(_g_MatchStatus+0)
    00000EE2 FE 0C            [ 7] 2871 	cp	a,#0x0c
    00000EE4 CArF9r16         [10] 2872 	jp	Z,00297$
    00000EE7 D6 0D            [ 7] 2873 	sub	a, #0x0d
    00000EE9 CArF9r16         [10] 2874 	jp	Z,00297$
    00000EEC                       2875 00124$:
                                   2876 ;E:\Dropbox\FAUSTO\SVILUPPI\MSX\CODE\C\MSXgl\projects\soccerlgSCC/soccerlg_s5_b3.c:524: bool isSetPieceSetup = (g_MatchStatus == MATCH_BEFORE_CORNER_KICK || g_MatchStatus == MATCH_BEFORE_GOAL_KICK || g_MatchStatus == MATCH_BEFORE_OFFSIDE || g_MatchStatus == MATCH_BEFORE_THROW_IN);
    00000EEC 3Ar00r00         [13] 2877 	ld	a,(_g_MatchStatus+0)
    00000EEF FE 02            [ 7] 2878 	cp	a,#0x02
    00000EF1 28 10            [12] 2879 	jr	Z, 00310$
    00000EF3 FE 05            [ 7] 2880 	cp	a,#0x05
    00000EF5 28 0C            [12] 2881 	jr	Z, 00310$
    00000EF7 FE 0E            [ 7] 2882 	cp	a,#0x0e
    00000EF9 28 08            [12] 2883 	jr	Z, 00310$
    00000EFB D6 03            [ 7] 2884 	sub	a, #0x03
    00000EFD 28 04            [12] 2885 	jr	Z, 00310$
    00000EFF AF               [ 4] 2886 	xor	a, a
    00000F00 C3r05r0F         [10] 2887 	jp	00311$
    00000F03                       2888 00310$:
    00000F03 3E 01            [ 7] 2889 	ld	a, #0x01
    00000F05                       2890 00311$:
    00000F05 DD 77 EC         [19] 2891 	ld	-20 (ix), a
                                   2892 ;E:\Dropbox\FAUSTO\SVILUPPI\MSX\CODE\C\MSXgl\projects\soccerlgSCC/soccerlg_s5_b3.c:525: bool isGkRestart = (g_MatchStatus == MATCH_BALL_ON_GOALKEEPER);
    00000F08 3Ar00r00         [13] 2893 	ld	a, (_g_MatchStatus+0)
    00000F0B D6 0D            [ 7] 2894 	sub	a, #0x0d
    00000F0D 3E 01            [ 7] 2895 	ld	a, #0x01
    00000F0F 28 01            [12] 2896 	jr	Z, 00866$
    00000F11 AF               [ 4] 2897 	xor	a, a
    00000F12                       2898 00866$:
    00000F12 4F               [ 4] 2899 	ld	c, a
                                   2900 ;E:\Dropbox\FAUSTO\SVILUPPI\MSX\CODE\C\MSXgl\projects\soccerlgSCC/soccerlg_s5_b3.c:527: if (!isSetPieceSetup && !isGkRestart) {
    00000F13 DD 7E EC         [19] 2901 	ld	a, -20 (ix)
    00000F16 B7               [ 4] 2902 	or	a,a
    00000F17 20 29            [12] 2903 	jr	NZ, 00135$
    00000F19 B1               [ 4] 2904 	or	a,c
    00000F1A 20 26            [12] 2905 	jr	NZ, 00135$
                                   2906 ;E:\Dropbox\FAUSTO\SVILUPPI\MSX\CODE\C\MSXgl\projects\soccerlgSCC/soccerlg_s5_b3.c:528: if (g_Team1ActivePlayer != NO_VALUE && i == g_Team1ActivePlayer) continue;
    00000F1C 3Ar00r00         [13] 2907 	ld	a, (_g_Team1ActivePlayer+0)
    00000F1F 3C               [ 4] 2908 	inc	a
    00000F20 28 0A            [12] 2909 	jr	Z, 00128$
    00000F22 DD 7E FF         [19] 2910 	ld	a, -1 (ix)
    00000F25 21r00r00         [10] 2911 	ld	hl, #_g_Team1ActivePlayer
    00000F28 96               [ 7] 2912 	sub	a, (hl)
    00000F29 CArF9r16         [10] 2913 	jp	Z,00297$
    00000F2C                       2914 00128$:
                                   2915 ;E:\Dropbox\FAUSTO\SVILUPPI\MSX\CODE\C\MSXgl\projects\soccerlgSCC/soccerlg_s5_b3.c:529: if (g_GameWith2Players && g_Team2ActivePlayer != NO_VALUE && i == g_Team2ActivePlayer) continue;
    00000F2C 3Ar00r00         [13] 2916 	ld	a, (_g_GameWith2Players+0)
    00000F2F B7               [ 4] 2917 	or	a, a
    00000F30 28 10            [12] 2918 	jr	Z, 00135$
    00000F32 3Ar00r00         [13] 2919 	ld	a, (_g_Team2ActivePlayer+0)
    00000F35 3C               [ 4] 2920 	inc	a
    00000F36 28 0A            [12] 2921 	jr	Z, 00135$
    00000F38 DD 7E FF         [19] 2922 	ld	a, -1 (ix)
    00000F3B 21r00r00         [10] 2923 	ld	hl, #_g_Team2ActivePlayer
    00000F3E 96               [ 7] 2924 	sub	a, (hl)
    00000F3F CArF9r16         [10] 2925 	jp	Z,00297$
    00000F42                       2926 00135$:
                                   2927 ;E:\Dropbox\FAUSTO\SVILUPPI\MSX\CODE\C\MSXgl\projects\soccerlgSCC/soccerlg_s5_b3.c:533: bool playerInPosition = (g_Players[i].X == g_Players[i].TargetX && g_Players[i].Y == g_Players[i].TargetY);
    00000F42 DD 4E FF         [19] 2928 	ld	c, -1 (ix)
    00000F45 06 00            [ 7] 2929 	ld	b, #0x00
    00000F47 69               [ 4] 2930 	ld	l, c
    00000F48 60               [ 4] 2931 	ld	h, b
    00000F49 29               [11] 2932 	add	hl, hl
    00000F4A 29               [11] 2933 	add	hl, hl
    00000F4B 09               [11] 2934 	add	hl, bc
    00000F4C 29               [11] 2935 	add	hl, hl
    00000F4D 29               [11] 2936 	add	hl, hl
    00000F4E 09               [11] 2937 	add	hl, bc
    00000F4F 11r00r00         [10] 2938 	ld	de, #_g_Players
    00000F52 19               [11] 2939 	add	hl, de
    00000F53 DD 75 ED         [19] 2940 	ld	-19 (ix), l
    00000F56 DD 74 EE         [19] 2941 	ld	-18 (ix), h
    00000F59 DD 7E ED         [19] 2942 	ld	a, -19 (ix)
    00000F5C C6 02            [ 7] 2943 	add	a, #0x02
    00000F5E DD 77 EF         [19] 2944 	ld	-17 (ix), a
    00000F61 DD 7E EE         [19] 2945 	ld	a, -18 (ix)
    00000F64 CE 00            [ 7] 2946 	adc	a, #0x00
    00000F66 DD 77 F0         [19] 2947 	ld	-16 (ix), a
    00000F69 DD 6E EF         [19] 2948 	ld	l, -17 (ix)
    00000F6C DD 66 F0         [19] 2949 	ld	h, -16 (ix)
    00000F6F 4E               [ 7] 2950 	ld	c, (hl)
    00000F70 23               [ 6] 2951 	inc	hl
    00000F71 46               [ 7] 2952 	ld	b, (hl)
    00000F72 DD 7E ED         [19] 2953 	ld	a, -19 (ix)
    00000F75 C6 10            [ 7] 2954 	add	a, #0x10
    00000F77 DD 77 FD         [19] 2955 	ld	-3 (ix), a
    00000F7A DD 7E EE         [19] 2956 	ld	a, -18 (ix)
    00000F7D CE 00            [ 7] 2957 	adc	a, #0x00
    00000F7F DD 77 FE         [19] 2958 	ld	-2 (ix), a
    00000F82 DD 6E FD         [19] 2959 	ld	l, -3 (ix)
    00000F85 DD 66 FE         [19] 2960 	ld	h, -2 (ix)
    00000F88 5E               [ 7] 2961 	ld	e, (hl)
    00000F89 23               [ 6] 2962 	inc	hl
    00000F8A 66               [ 7] 2963 	ld	h, (hl)
                                   2964 ;	spillPairReg hl
    00000F8B 6B               [ 4] 2965 	ld	l, e
    00000F8C BF               [ 4] 2966 	cp	a, a
    00000F8D ED 42            [15] 2967 	sbc	hl, bc
    00000F8F 20 3E            [12] 2968 	jr	NZ, 00318$
    00000F91 DD 6E ED         [19] 2969 	ld	l, -19 (ix)
    00000F94 DD 66 EE         [19] 2970 	ld	h, -18 (ix)
    00000F97 7E               [ 7] 2971 	ld	a, (hl)
    00000F98 DD 77 F9         [19] 2972 	ld	-7 (ix), a
    00000F9B 23               [ 6] 2973 	inc	hl
    00000F9C 7E               [ 7] 2974 	ld	a, (hl)
    00000F9D DD 77 FA         [19] 2975 	ld	-6 (ix), a
    00000FA0 DD 7E ED         [19] 2976 	ld	a, -19 (ix)
    00000FA3 DD 77 FB         [19] 2977 	ld	-5 (ix), a
    00000FA6 DD 7E EE         [19] 2978 	ld	a, -18 (ix)
    00000FA9 DD 77 FC         [19] 2979 	ld	-4 (ix), a
    00000FAC DD 6E FB         [19] 2980 	ld	l, -5 (ix)
    00000FAF DD 66 FC         [19] 2981 	ld	h, -4 (ix)
    00000FB2 11 0E 00         [10] 2982 	ld	de, #0x000e
    00000FB5 19               [11] 2983 	add	hl, de
    00000FB6 7E               [ 7] 2984 	ld	a, (hl)
    00000FB7 DD 77 FB         [19] 2985 	ld	-5 (ix), a
    00000FBA 23               [ 6] 2986 	inc	hl
    00000FBB 7E               [ 7] 2987 	ld	a, (hl)
    00000FBC DD 77 FC         [19] 2988 	ld	-4 (ix), a
    00000FBF DD 7E F9         [19] 2989 	ld	a, -7 (ix)
    00000FC2 DD 96 FB         [19] 2990 	sub	a, -5 (ix)
    00000FC5 20 08            [12] 2991 	jr	NZ, 00873$
    00000FC7 DD 7E FA         [19] 2992 	ld	a, -6 (ix)
    00000FCA DD 96 FC         [19] 2993 	sub	a, -4 (ix)
    00000FCD 28 04            [12] 2994 	jr	Z, 00319$
    00000FCF                       2995 00873$:
    00000FCF                       2996 00318$:
    00000FCF AF               [ 4] 2997 	xor	a, a
    00000FD0 C3rD5r0F         [10] 2998 	jp	00320$
    00000FD3                       2999 00319$:
    00000FD3 3E 01            [ 7] 3000 	ld	a, #0x01
    00000FD5                       3001 00320$:
    00000FD5 DD 77 F1         [19] 3002 	ld	-15 (ix), a
                                   3003 ;E:\Dropbox\FAUSTO\SVILUPPI\MSX\CODE\C\MSXgl\projects\soccerlgSCC/soccerlg_s5_b3.c:536: if (g_MatchStatus == MATCH_BEFORE_KICK_OFF && !playerInPosition) {
    00000FD8 3Ar00r00         [13] 3004 	ld	a, (_g_MatchStatus+0)
    00000FDB 3D               [ 4] 3005 	dec	a
    00000FDC 20 0A            [12] 3006 	jr	NZ, 00138$
    00000FDE DD 7E F1         [19] 3007 	ld	a, -15 (ix)
    00000FE1 B7               [ 4] 3008 	or	a, a
    00000FE2 20 04            [12] 3009 	jr	NZ, 00138$
                                   3010 ;E:\Dropbox\FAUSTO\SVILUPPI\MSX\CODE\C\MSXgl\projects\soccerlgSCC/soccerlg_s5_b3.c:537: allPlayersInPosition = false;
    00000FE4 DD 36 EB 00      [19] 3011 	ld	-21 (ix), #0x00
    00000FE8                       3012 00138$:
                                   3013 ;E:\Dropbox\FAUSTO\SVILUPPI\MSX\CODE\C\MSXgl\projects\soccerlgSCC/soccerlg_s5_b3.c:540: u8 step = 1;
    00000FE8 DD 36 F2 01      [19] 3014 	ld	-14 (ix), #0x01
                                   3015 ;E:\Dropbox\FAUSTO\SVILUPPI\MSX\CODE\C\MSXgl\projects\soccerlgSCC/soccerlg_s5_b3.c:542: if(g_MatchStatus==MATCH_IN_ACTION){
    00000FEC 3Ar00r00         [13] 3016 	ld	a, (_g_MatchStatus+0)
    00000FEF D6 0C            [ 7] 3017 	sub	a, #0x0c
    00000FF1 C2r0Er11         [10] 3018 	jp	NZ,00181$
                                   3019 ;E:\Dropbox\FAUSTO\SVILUPPI\MSX\CODE\C\MSXgl\projects\soccerlgSCC/soccerlg_s5_b3.c:543: u8 countryId = (g_Players[i].TeamId == TEAM_1) ? g_Team1PaletteId : g_Team2PaletteId;
    00000FF4 DD 4E ED         [19] 3020 	ld	c, -19 (ix)
    00000FF7 DD 46 EE         [19] 3021 	ld	b, -18 (ix)
    00000FFA 21 09 00         [10] 3022 	ld	hl, #9
    00000FFD 09               [11] 3023 	add	hl, bc
    00000FFE 7E               [ 7] 3024 	ld	a, (hl)
    00000FFF 3D               [ 4] 3025 	dec	a
    00001000 20 06            [12] 3026 	jr	NZ, 00321$
    00001002 3Ar00r00         [13] 3027 	ld	a, (_g_Team1PaletteId+0)
    00001005 C3r0Br10         [10] 3028 	jp	00322$
    00001008                       3029 00321$:
    00001008 3Ar00r00         [13] 3030 	ld	a, (_g_Team2PaletteId+0)
    0000100B                       3031 00322$:
                                   3032 ;E:\Dropbox\FAUSTO\SVILUPPI\MSX\CODE\C\MSXgl\projects\soccerlgSCC/soccerlg_s5_b3.c:544: const TeamStats* stats = GetTeamStats(countryId);
    0000100B CDr00r00         [17] 3033 	call	_GetTeamStats
                                   3034 ;E:\Dropbox\FAUSTO\SVILUPPI\MSX\CODE\C\MSXgl\projects\soccerlgSCC/soccerlg_s5_b3.c:545: u8 speed = stats->Speed;
    0000100E 1A               [ 7] 3035 	ld	a, (de)
    0000100F 4F               [ 4] 3036 	ld	c, a
                                   3037 ;E:\Dropbox\FAUSTO\SVILUPPI\MSX\CODE\C\MSXgl\projects\soccerlgSCC/soccerlg_s5_b3.c:556: u8 tick = g_FrameCounter % 12; // Common multiple
    00001010 3Ar00r00         [13] 3038 	ld	a, (_g_FrameCounter+0)
    00001013 6F               [ 4] 3039 	ld	l, a
                                   3040 ;	spillPairReg hl
                                   3041 ;	spillPairReg hl
    00001014 26 00            [ 7] 3042 	ld	h, #0x00
                                   3043 ;	spillPairReg hl
                                   3044 ;	spillPairReg hl
    00001016 C5               [11] 3045 	push	bc
    00001017 11 0C 00         [10] 3046 	ld	de, #0x000c
    0000101A CDr00r00         [17] 3047 	call	__modsint
    0000101D C1               [10] 3048 	pop	bc
    0000101E DD 73 FC         [19] 3049 	ld	-4 (ix), e
                                   3050 ;E:\Dropbox\FAUSTO\SVILUPPI\MSX\CODE\C\MSXgl\projects\soccerlgSCC/soccerlg_s5_b3.c:557: bool move = false;
    00001021 DD 36 FA 00      [19] 3051 	ld	-6 (ix), #0x00
                                   3052 ;E:\Dropbox\FAUSTO\SVILUPPI\MSX\CODE\C\MSXgl\projects\soccerlgSCC/soccerlg_s5_b3.c:558: if (speed == 0) { if ((tick % 4) == 0) move = true; }
    00001025 79               [ 4] 3053 	ld	a, c
    00001026 B7               [ 4] 3054 	or	a, a
    00001027 20 0F            [12] 3055 	jr	NZ, 00170$
    00001029 DD 7E FC         [19] 3056 	ld	a, -4 (ix)
    0000102C E6 03            [ 7] 3057 	and	a, #0x03
    0000102E C2r05r11         [10] 3058 	jp	NZ,00171$
    00001031 DD 36 FA 01      [19] 3059 	ld	-6 (ix), #0x01
    00001035 C3r05r11         [10] 3060 	jp	00171$
    00001038                       3061 00170$:
                                   3062 ;E:\Dropbox\FAUSTO\SVILUPPI\MSX\CODE\C\MSXgl\projects\soccerlgSCC/soccerlg_s5_b3.c:559: else if (speed == 1) { if ((tick % 3) == 0) move = true; }
    00001038 79               [ 4] 3063 	ld	a, c
    00001039 3D               [ 4] 3064 	dec	a
    0000103A 20 17            [12] 3065 	jr	NZ, 00167$
    0000103C DD 6E FC         [19] 3066 	ld	l, -4 (ix)
                                   3067 ;	spillPairReg hl
                                   3068 ;	spillPairReg hl
    0000103F 26 00            [ 7] 3069 	ld	h, #0x00
                                   3070 ;	spillPairReg hl
                                   3071 ;	spillPairReg hl
    00001041 11 03 00         [10] 3072 	ld	de, #0x0003
    00001044 CDr00r00         [17] 3073 	call	__modsint
    00001047 7A               [ 4] 3074 	ld	a, d
    00001048 B3               [ 4] 3075 	or	a, e
    00001049 C2r05r11         [10] 3076 	jp	NZ, 00171$
    0000104C DD 36 FA 01      [19] 3077 	ld	-6 (ix), #0x01
    00001050 C3r05r11         [10] 3078 	jp	00171$
    00001053                       3079 00167$:
                                   3080 ;E:\Dropbox\FAUSTO\SVILUPPI\MSX\CODE\C\MSXgl\projects\soccerlgSCC/soccerlg_s5_b3.c:560: else if (speed == 2) { if ((tick % 2) == 0) move = true; }
    00001053 79               [ 4] 3081 	ld	a, c
    00001054 D6 02            [ 7] 3082 	sub	a, #0x02
    00001056 20 0E            [12] 3083 	jr	NZ, 00164$
    00001058 DD CB FC 46      [20] 3084 	bit	0, -4 (ix)
    0000105C C2r05r11         [10] 3085 	jp	NZ,00171$
    0000105F DD 36 FA 01      [19] 3086 	ld	-6 (ix), #0x01
    00001063 C3r05r11         [10] 3087 	jp	00171$
    00001066                       3088 00164$:
                                   3089 ;E:\Dropbox\FAUSTO\SVILUPPI\MSX\CODE\C\MSXgl\projects\soccerlgSCC/soccerlg_s5_b3.c:561: else if (speed == 3) { 
    00001066 79               [ 4] 3090 	ld	a, c
    00001067 D6 03            [ 7] 3091 	sub	a, #0x03
    00001069 20 0B            [12] 3092 	jr	NZ, 00161$
                                   3093 ;E:\Dropbox\FAUSTO\SVILUPPI\MSX\CODE\C\MSXgl\projects\soccerlgSCC/soccerlg_s5_b3.c:563: move = true; 
    0000106B DD 36 FA 01      [19] 3094 	ld	-6 (ix), #0x01
                                   3095 ;E:\Dropbox\FAUSTO\SVILUPPI\MSX\CODE\C\MSXgl\projects\soccerlgSCC/soccerlg_s5_b3.c:564: step = 1; 
    0000106F DD 36 F2 01      [19] 3096 	ld	-14 (ix), #0x01
    00001073 C3r05r11         [10] 3097 	jp	00171$
    00001076                       3098 00161$:
                                   3099 ;E:\Dropbox\FAUSTO\SVILUPPI\MSX\CODE\C\MSXgl\projects\soccerlgSCC/soccerlg_s5_b3.c:566: else if (speed == 4) { if ((tick % 4) != 3) move = true; }
    00001076 79               [ 4] 3100 	ld	a, c
    00001077 D6 04            [ 7] 3101 	sub	a, #0x04
    00001079 20 15            [12] 3102 	jr	NZ, 00158$
    0000107B DD 7E FC         [19] 3103 	ld	a, -4 (ix)
    0000107E E6 03            [ 7] 3104 	and	a, #0x03
    00001080 4F               [ 4] 3105 	ld	c, a
    00001081 06 00            [ 7] 3106 	ld	b, #0x00
    00001083 79               [ 4] 3107 	ld	a, c
    00001084 D6 03            [ 7] 3108 	sub	a, #0x03
    00001086 B0               [ 4] 3109 	or	a, b
    00001087 28 7C            [12] 3110 	jr	Z, 00171$
    00001089 DD 36 FA 01      [19] 3111 	ld	-6 (ix), #0x01
    0000108D C3r05r11         [10] 3112 	jp	00171$
    00001090                       3113 00158$:
                                   3114 ;E:\Dropbox\FAUSTO\SVILUPPI\MSX\CODE\C\MSXgl\projects\soccerlgSCC/soccerlg_s5_b3.c:567: else if (speed == 6) {
    00001090 79               [ 4] 3115 	ld	a, c
    00001091 D6 06            [ 7] 3116 	sub	a, #0x06
    00001093 20 27            [12] 3117 	jr	NZ, 00155$
                                   3118 ;E:\Dropbox\FAUSTO\SVILUPPI\MSX\CODE\C\MSXgl\projects\soccerlgSCC/soccerlg_s5_b3.c:569: move = true;
    00001095 DD 36 FA 01      [19] 3119 	ld	-6 (ix), #0x01
                                   3120 ;E:\Dropbox\FAUSTO\SVILUPPI\MSX\CODE\C\MSXgl\projects\soccerlgSCC/soccerlg_s5_b3.c:570: step = ((tick % 4) == 0) ? 2 : 1;
    00001099 DD 7E FC         [19] 3121 	ld	a, -4 (ix)
    0000109C E6 03            [ 7] 3122 	and	a, #0x03
    0000109E 20 0B            [12] 3123 	jr	NZ, 00323$
    000010A0 DD 36 FB 02      [19] 3124 	ld	-5 (ix), #0x02
    000010A4 DD 36 FC 00      [19] 3125 	ld	-4 (ix), #0
    000010A8 C3rB3r10         [10] 3126 	jp	00324$
    000010AB                       3127 00323$:
    000010AB DD 36 FB 01      [19] 3128 	ld	-5 (ix), #0x01
    000010AF DD 36 FC 00      [19] 3129 	ld	-4 (ix), #0
    000010B3                       3130 00324$:
    000010B3 DD 7E FB         [19] 3131 	ld	a, -5 (ix)
    000010B6 DD 77 F2         [19] 3132 	ld	-14 (ix), a
    000010B9 C3r05r11         [10] 3133 	jp	00171$
    000010BC                       3134 00155$:
                                   3135 ;E:\Dropbox\FAUSTO\SVILUPPI\MSX\CODE\C\MSXgl\projects\soccerlgSCC/soccerlg_s5_b3.c:572: else if (speed == 7) {
    000010BC 79               [ 4] 3136 	ld	a, c
    000010BD D6 07            [ 7] 3137 	sub	a, #0x07
    000010BF 20 22            [12] 3138 	jr	NZ, 00152$
                                   3139 ;E:\Dropbox\FAUSTO\SVILUPPI\MSX\CODE\C\MSXgl\projects\soccerlgSCC/soccerlg_s5_b3.c:574: move = true;
    000010C1 DD 36 FA 01      [19] 3140 	ld	-6 (ix), #0x01
                                   3141 ;E:\Dropbox\FAUSTO\SVILUPPI\MSX\CODE\C\MSXgl\projects\soccerlgSCC/soccerlg_s5_b3.c:575: step = ((tick % 3) == 0) ? 2 : 1;
    000010C5 DD 6E FC         [19] 3142 	ld	l, -4 (ix)
                                   3143 ;	spillPairReg hl
                                   3144 ;	spillPairReg hl
    000010C8 26 00            [ 7] 3145 	ld	h, #0x00
                                   3146 ;	spillPairReg hl
                                   3147 ;	spillPairReg hl
    000010CA 11 03 00         [10] 3148 	ld	de, #0x0003
    000010CD CDr00r00         [17] 3149 	call	__modsint
    000010D0 7A               [ 4] 3150 	ld	a, d
    000010D1 B3               [ 4] 3151 	or	a, e
    000010D2 20 06            [12] 3152 	jr	NZ, 00325$
    000010D4 01 02 00         [10] 3153 	ld	bc, #0x0002
    000010D7 C3rDDr10         [10] 3154 	jp	00326$
    000010DA                       3155 00325$:
    000010DA 01 01 00         [10] 3156 	ld	bc, #0x0001
    000010DD                       3157 00326$:
    000010DD DD 71 F2         [19] 3158 	ld	-14 (ix), c
    000010E0 C3r05r11         [10] 3159 	jp	00171$
    000010E3                       3160 00152$:
                                   3161 ;E:\Dropbox\FAUSTO\SVILUPPI\MSX\CODE\C\MSXgl\projects\soccerlgSCC/soccerlg_s5_b3.c:577: else if (speed >= 8) { 
    000010E3 79               [ 4] 3162 	ld	a, c
    000010E4 D6 08            [ 7] 3163 	sub	a, #0x08
    000010E6 38 19            [12] 3164 	jr	C, 00149$
                                   3165 ;E:\Dropbox\FAUSTO\SVILUPPI\MSX\CODE\C\MSXgl\projects\soccerlgSCC/soccerlg_s5_b3.c:579: move = true;
    000010E8 DD 36 FA 01      [19] 3166 	ld	-6 (ix), #0x01
                                   3167 ;E:\Dropbox\FAUSTO\SVILUPPI\MSX\CODE\C\MSXgl\projects\soccerlgSCC/soccerlg_s5_b3.c:580: step = ((tick % 2) == 0) ? 2 : 1;
    000010EC DD CB FC 46      [20] 3168 	bit	0, -4 (ix)
    000010F0 20 06            [12] 3169 	jr	NZ, 00327$
    000010F2 01 02 00         [10] 3170 	ld	bc, #0x0002
    000010F5 C3rFBr10         [10] 3171 	jp	00328$
    000010F8                       3172 00327$:
    000010F8 01 01 00         [10] 3173 	ld	bc, #0x0001
    000010FB                       3174 00328$:
    000010FB DD 71 F2         [19] 3175 	ld	-14 (ix), c
    000010FE C3r05r11         [10] 3176 	jp	00171$
    00001101                       3177 00149$:
                                   3178 ;E:\Dropbox\FAUSTO\SVILUPPI\MSX\CODE\C\MSXgl\projects\soccerlgSCC/soccerlg_s5_b3.c:582: else move = true;
    00001101 DD 36 FA 01      [19] 3179 	ld	-6 (ix), #0x01
    00001105                       3180 00171$:
                                   3181 ;E:\Dropbox\FAUSTO\SVILUPPI\MSX\CODE\C\MSXgl\projects\soccerlgSCC/soccerlg_s5_b3.c:584: if (!move) continue;
    00001105 DD 7E FA         [19] 3182 	ld	a, -6 (ix)
    00001108 B7               [ 4] 3183 	or	a, a
    00001109 20 2A            [12] 3184 	jr	NZ, 00182$
    0000110B C3rF9r16         [10] 3185 	jp	00297$
    0000110E                       3186 00181$:
                                   3187 ;E:\Dropbox\FAUSTO\SVILUPPI\MSX\CODE\C\MSXgl\projects\soccerlgSCC/soccerlg_s5_b3.c:586: g_Players[i].AiTickCounter=0;
    0000110E DD 6E ED         [19] 3188 	ld	l, -19 (ix)
    00001111 DD 66 EE         [19] 3189 	ld	h, -18 (ix)
    00001114 11 14 00         [10] 3190 	ld	de, #0x0014
    00001117 19               [11] 3191 	add	hl, de
    00001118 36 00            [10] 3192 	ld	(hl), #0x00
                                   3193 ;E:\Dropbox\FAUSTO\SVILUPPI\MSX\CODE\C\MSXgl\projects\soccerlgSCC/soccerlg_s5_b3.c:588: if (g_MatchStatus == MATCH_BEFORE_GOAL_KICK || g_MatchStatus == MATCH_BEFORE_CORNER_KICK || 
    0000111A 3Ar00r00         [13] 3194 	ld	a,(_g_MatchStatus+0)
    0000111D FE 05            [ 7] 3195 	cp	a,#0x05
    0000111F 28 10            [12] 3196 	jr	Z, 00174$
                                   3197 ;E:\Dropbox\FAUSTO\SVILUPPI\MSX\CODE\C\MSXgl\projects\soccerlgSCC/soccerlg_s5_b3.c:589: g_MatchStatus == MATCH_BEFORE_THROW_IN || g_MatchStatus == MATCH_BEFORE_OFFSIDE ||
    00001121 FE 02            [ 7] 3198 	cp	a,#0x02
    00001123 28 0C            [12] 3199 	jr	Z, 00174$
    00001125 FE 03            [ 7] 3200 	cp	a,#0x03
    00001127 28 08            [12] 3201 	jr	Z, 00174$
                                   3202 ;E:\Dropbox\FAUSTO\SVILUPPI\MSX\CODE\C\MSXgl\projects\soccerlgSCC/soccerlg_s5_b3.c:590: g_MatchStatus == MATCH_BALL_ON_GOALKEEPER) {
    00001129 FE 0E            [ 7] 3203 	cp	a,#0x0e
    0000112B 28 04            [12] 3204 	jr	Z, 00174$
    0000112D D6 0D            [ 7] 3205 	sub	a, #0x0d
    0000112F 20 04            [12] 3206 	jr	NZ, 00182$
    00001131                       3207 00174$:
                                   3208 ;E:\Dropbox\FAUSTO\SVILUPPI\MSX\CODE\C\MSXgl\projects\soccerlgSCC/soccerlg_s5_b3.c:591: step = 2;
    00001131 DD 36 F2 02      [19] 3209 	ld	-14 (ix), #0x02
    00001135                       3210 00182$:
                                   3211 ;E:\Dropbox\FAUSTO\SVILUPPI\MSX\CODE\C\MSXgl\projects\soccerlgSCC/soccerlg_s5_b3.c:595: if(!playerInPosition){
    00001135 DD 7E F1         [19] 3212 	ld	a, -15 (ix)
    00001138 B7               [ 4] 3213 	or	a, a
    00001139 C2r16r15         [10] 3214 	jp	NZ, 00241$
                                   3215 ;E:\Dropbox\FAUSTO\SVILUPPI\MSX\CODE\C\MSXgl\projects\soccerlgSCC/soccerlg_s5_b3.c:596: g_Players[i].Status=PLAYER_STATUS_NONE;
    0000113C DD 6E ED         [19] 3216 	ld	l, -19 (ix)
    0000113F DD 66 EE         [19] 3217 	ld	h, -18 (ix)
    00001142 11 12 00         [10] 3218 	ld	de, #0x0012
    00001145 19               [11] 3219 	add	hl, de
    00001146 AF               [ 4] 3220 	xor	a, a
    00001147 77               [ 7] 3221 	ld	(hl), a
    00001148 23               [ 6] 3222 	inc	hl
    00001149 77               [ 7] 3223 	ld	(hl), a
                                   3224 ;E:\Dropbox\FAUSTO\SVILUPPI\MSX\CODE\C\MSXgl\projects\soccerlgSCC/soccerlg_s5_b3.c:598: i16 dx = (i16)g_Players[i].TargetX - (i16)g_Players[i].X;
    0000114A DD 6E FD         [19] 3225 	ld	l, -3 (ix)
    0000114D DD 66 FE         [19] 3226 	ld	h, -2 (ix)
    00001150 7E               [ 7] 3227 	ld	a, (hl)
    00001151 DD 77 E9         [19] 3228 	ld	-23 (ix), a
    00001154 23               [ 6] 3229 	inc	hl
    00001155 7E               [ 7] 3230 	ld	a, (hl)
    00001156 DD 77 EA         [19] 3231 	ld	-22 (ix), a
    00001159 C1               [10] 3232 	pop	bc
    0000115A C5               [11] 3233 	push	bc
    0000115B DD 6E EF         [19] 3234 	ld	l, -17 (ix)
    0000115E DD 66 F0         [19] 3235 	ld	h, -16 (ix)
    00001161 7E               [ 7] 3236 	ld	a, (hl)
    00001162 DD 77 FB         [19] 3237 	ld	-5 (ix), a
    00001165 23               [ 6] 3238 	inc	hl
    00001166 7E               [ 7] 3239 	ld	a, (hl)
    00001167 DD 77 FC         [19] 3240 	ld	-4 (ix), a
    0000116A DD 5E FB         [19] 3241 	ld	e, -5 (ix)
    0000116D DD 56 FC         [19] 3242 	ld	d, -4 (ix)
    00001170 79               [ 4] 3243 	ld	a, c
    00001171 93               [ 4] 3244 	sub	a, e
    00001172 4F               [ 4] 3245 	ld	c, a
    00001173 78               [ 4] 3246 	ld	a, b
    00001174 9A               [ 4] 3247 	sbc	a, d
    00001175 DD 71 FD         [19] 3248 	ld	-3 (ix), c
    00001178 DD 77 FE         [19] 3249 	ld	-2 (ix), a
                                   3250 ;E:\Dropbox\FAUSTO\SVILUPPI\MSX\CODE\C\MSXgl\projects\soccerlgSCC/soccerlg_s5_b3.c:599: i16 dy = (i16)g_Players[i].TargetY - (i16)g_Players[i].Y;
    0000117B DD 7E ED         [19] 3251 	ld	a, -19 (ix)
    0000117E C6 0E            [ 7] 3252 	add	a, #0x0e
    00001180 DD 77 F3         [19] 3253 	ld	-13 (ix), a
    00001183 DD 7E EE         [19] 3254 	ld	a, -18 (ix)
    00001186 CE 00            [ 7] 3255 	adc	a, #0x00
    00001188 DD 77 F4         [19] 3256 	ld	-12 (ix), a
    0000118B DD 6E F3         [19] 3257 	ld	l, -13 (ix)
    0000118E DD 66 F4         [19] 3258 	ld	h, -12 (ix)
    00001191 4E               [ 7] 3259 	ld	c, (hl)
    00001192 23               [ 6] 3260 	inc	hl
    00001193 46               [ 7] 3261 	ld	b, (hl)
    00001194 DD 6E ED         [19] 3262 	ld	l, -19 (ix)
    00001197 DD 66 EE         [19] 3263 	ld	h, -18 (ix)
    0000119A 5E               [ 7] 3264 	ld	e, (hl)
    0000119B 23               [ 6] 3265 	inc	hl
    0000119C 56               [ 7] 3266 	ld	d, (hl)
    0000119D 79               [ 4] 3267 	ld	a, c
    0000119E 93               [ 4] 3268 	sub	a, e
    0000119F 4F               [ 4] 3269 	ld	c, a
    000011A0 78               [ 4] 3270 	ld	a, b
    000011A1 9A               [ 4] 3271 	sbc	a, d
    000011A2 DD 71 F5         [19] 3272 	ld	-11 (ix), c
    000011A5 DD 77 F6         [19] 3273 	ld	-10 (ix), a
                                   3274 ;E:\Dropbox\FAUSTO\SVILUPPI\MSX\CODE\C\MSXgl\projects\soccerlgSCC/soccerlg_s5_b3.c:601: if (dx > 0) {
    000011A8 DD 7E FD         [19] 3275 	ld	a, -3 (ix)
    000011AB DD 77 F7         [19] 3276 	ld	-9 (ix), a
    000011AE DD 7E FE         [19] 3277 	ld	a, -2 (ix)
    000011B1 DD 77 F8         [19] 3278 	ld	-8 (ix), a
    000011B4 AF               [ 4] 3279 	xor	a, a
    000011B5 DD BE F7         [19] 3280 	cp	a, -9 (ix)
    000011B8 DD 9E F8         [19] 3281 	sbc	a, -8 (ix)
    000011BB E2rC0r11         [10] 3282 	jp	PO, 00907$
    000011BE EE 80            [ 7] 3283 	xor	a, #0x80
    000011C0                       3284 00907$:
    000011C0 07               [ 4] 3285 	rlca
    000011C1 E6 01            [ 7] 3286 	and	a,#0x01
    000011C3 DD 77 F9         [19] 3287 	ld	-7 (ix), a
    000011C6 B7               [ 4] 3288 	or	a, a
    000011C7 28 40            [12] 3289 	jr	Z, 00192$
                                   3290 ;E:\Dropbox\FAUSTO\SVILUPPI\MSX\CODE\C\MSXgl\projects\soccerlgSCC/soccerlg_s5_b3.c:602: if (dx < step) g_Players[i].X = g_Players[i].TargetX;
    000011C9 DD 4E F2         [19] 3291 	ld	c, -14 (ix)
    000011CC 06 00            [ 7] 3292 	ld	b, #0x00
    000011CE DD 7E FD         [19] 3293 	ld	a, -3 (ix)
    000011D1 91               [ 4] 3294 	sub	a, c
    000011D2 DD 7E FE         [19] 3295 	ld	a, -2 (ix)
    000011D5 98               [ 4] 3296 	sbc	a, b
    000011D6 E2rDBr11         [10] 3297 	jp	PO, 00908$
    000011D9 EE 80            [ 7] 3298 	xor	a, #0x80
    000011DB                       3299 00908$:
    000011DB F2rF0r11         [10] 3300 	jp	P, 00184$
    000011DE DD 6E EF         [19] 3301 	ld	l, -17 (ix)
    000011E1 DD 66 F0         [19] 3302 	ld	h, -16 (ix)
    000011E4 DD 7E E9         [19] 3303 	ld	a, -23 (ix)
    000011E7 77               [ 7] 3304 	ld	(hl), a
    000011E8 23               [ 6] 3305 	inc	hl
    000011E9 DD 7E EA         [19] 3306 	ld	a, -22 (ix)
    000011EC 77               [ 7] 3307 	ld	(hl), a
    000011ED C3r54r12         [10] 3308 	jp	00193$
    000011F0                       3309 00184$:
                                   3310 ;E:\Dropbox\FAUSTO\SVILUPPI\MSX\CODE\C\MSXgl\projects\soccerlgSCC/soccerlg_s5_b3.c:603: else g_Players[i].X += step;
    000011F0 DD 4E F2         [19] 3311 	ld	c, -14 (ix)
    000011F3 06 00            [ 7] 3312 	ld	b, #0x00
    000011F5 DD 6E FB         [19] 3313 	ld	l, -5 (ix)
                                   3314 ;	spillPairReg hl
                                   3315 ;	spillPairReg hl
    000011F8 DD 66 FC         [19] 3316 	ld	h, -4 (ix)
                                   3317 ;	spillPairReg hl
                                   3318 ;	spillPairReg hl
    000011FB 09               [11] 3319 	add	hl, bc
    000011FC EB               [ 4] 3320 	ex	de, hl
    000011FD DD 6E EF         [19] 3321 	ld	l, -17 (ix)
    00001200 DD 66 F0         [19] 3322 	ld	h, -16 (ix)
    00001203 73               [ 7] 3323 	ld	(hl), e
    00001204 23               [ 6] 3324 	inc	hl
    00001205 72               [ 7] 3325 	ld	(hl), d
    00001206 C3r54r12         [10] 3326 	jp	00193$
    00001209                       3327 00192$:
                                   3328 ;E:\Dropbox\FAUSTO\SVILUPPI\MSX\CODE\C\MSXgl\projects\soccerlgSCC/soccerlg_s5_b3.c:604: } else if (dx < 0) {
    00001209 DD CB F8 7E      [20] 3329 	bit	7, -8 (ix)
    0000120D 28 45            [12] 3330 	jr	Z, 00193$
                                   3331 ;E:\Dropbox\FAUSTO\SVILUPPI\MSX\CODE\C\MSXgl\projects\soccerlgSCC/soccerlg_s5_b3.c:605: if (-dx < step) g_Players[i].X = g_Players[i].TargetX;
    0000120F AF               [ 4] 3332 	xor	a, a
    00001210 DD 96 FD         [19] 3333 	sub	a, -3 (ix)
    00001213 4F               [ 4] 3334 	ld	c, a
    00001214 9F               [ 4] 3335 	sbc	a, a
    00001215 DD 96 FE         [19] 3336 	sub	a, -2 (ix)
    00001218 47               [ 4] 3337 	ld	b, a
    00001219 DD 5E F2         [19] 3338 	ld	e, -14 (ix)
    0000121C 16 00            [ 7] 3339 	ld	d, #0x00
    0000121E 79               [ 4] 3340 	ld	a, c
    0000121F 93               [ 4] 3341 	sub	a, e
    00001220 78               [ 4] 3342 	ld	a, b
    00001221 9A               [ 4] 3343 	sbc	a, d
    00001222 E2r27r12         [10] 3344 	jp	PO, 00909$
    00001225 EE 80            [ 7] 3345 	xor	a, #0x80
    00001227                       3346 00909$:
    00001227 F2r3Cr12         [10] 3347 	jp	P, 00187$
    0000122A DD 6E EF         [19] 3348 	ld	l, -17 (ix)
    0000122D DD 66 F0         [19] 3349 	ld	h, -16 (ix)
    00001230 DD 7E E9         [19] 3350 	ld	a, -23 (ix)
    00001233 77               [ 7] 3351 	ld	(hl), a
    00001234 23               [ 6] 3352 	inc	hl
    00001235 DD 7E EA         [19] 3353 	ld	a, -22 (ix)
    00001238 77               [ 7] 3354 	ld	(hl), a
    00001239 C3r54r12         [10] 3355 	jp	00193$
    0000123C                       3356 00187$:
                                   3357 ;E:\Dropbox\FAUSTO\SVILUPPI\MSX\CODE\C\MSXgl\projects\soccerlgSCC/soccerlg_s5_b3.c:606: else g_Players[i].X -= step;
    0000123C DD 4E F2         [19] 3358 	ld	c, -14 (ix)
    0000123F 06 00            [ 7] 3359 	ld	b, #0x00
    00001241 DD 6E FB         [19] 3360 	ld	l, -5 (ix)
                                   3361 ;	spillPairReg hl
                                   3362 ;	spillPairReg hl
    00001244 DD 66 FC         [19] 3363 	ld	h, -4 (ix)
                                   3364 ;	spillPairReg hl
                                   3365 ;	spillPairReg hl
    00001247 BF               [ 4] 3366 	cp	a, a
    00001248 ED 42            [15] 3367 	sbc	hl, bc
    0000124A EB               [ 4] 3368 	ex	de, hl
    0000124B DD 6E EF         [19] 3369 	ld	l, -17 (ix)
    0000124E DD 66 F0         [19] 3370 	ld	h, -16 (ix)
    00001251 73               [ 7] 3371 	ld	(hl), e
    00001252 23               [ 6] 3372 	inc	hl
    00001253 72               [ 7] 3373 	ld	(hl), d
    00001254                       3374 00193$:
                                   3375 ;E:\Dropbox\FAUSTO\SVILUPPI\MSX\CODE\C\MSXgl\projects\soccerlgSCC/soccerlg_s5_b3.c:609: if (dy > 0) {
    00001254 DD 7E F5         [19] 3376 	ld	a, -11 (ix)
    00001257 DD 77 FA         [19] 3377 	ld	-6 (ix), a
    0000125A DD 7E F6         [19] 3378 	ld	a, -10 (ix)
    0000125D DD 77 FB         [19] 3379 	ld	-5 (ix), a
    00001260 AF               [ 4] 3380 	xor	a, a
    00001261 DD BE FA         [19] 3381 	cp	a, -6 (ix)
    00001264 DD 9E FB         [19] 3382 	sbc	a, -5 (ix)
    00001267 E2r6Cr12         [10] 3383 	jp	PO, 00910$
    0000126A EE 80            [ 7] 3384 	xor	a, #0x80
    0000126C                       3385 00910$:
    0000126C 07               [ 4] 3386 	rlca
    0000126D E6 01            [ 7] 3387 	and	a,#0x01
    0000126F DD 77 FC         [19] 3388 	ld	-4 (ix), a
    00001272 B7               [ 4] 3389 	or	a, a
    00001273 CArFEr12         [10] 3390 	jp	Z, 00203$
                                   3391 ;E:\Dropbox\FAUSTO\SVILUPPI\MSX\CODE\C\MSXgl\projects\soccerlgSCC/soccerlg_s5_b3.c:610: if (dy < step) g_Players[i].Y = g_Players[i].TargetY;
    00001276 DD 7E F2         [19] 3392 	ld	a, -14 (ix)
    00001279 DD 77 FD         [19] 3393 	ld	-3 (ix), a
    0000127C DD 36 FE 00      [19] 3394 	ld	-2 (ix), #0x00
    00001280 DD 7E F5         [19] 3395 	ld	a, -11 (ix)
    00001283 DD 96 FD         [19] 3396 	sub	a, -3 (ix)
    00001286 DD 7E F6         [19] 3397 	ld	a, -10 (ix)
    00001289 DD 9E FE         [19] 3398 	sbc	a, -2 (ix)
    0000128C E2r91r12         [10] 3399 	jp	PO, 00911$
    0000128F EE 80            [ 7] 3400 	xor	a, #0x80
    00001291                       3401 00911$:
    00001291 F2rB5r12         [10] 3402 	jp	P, 00195$
    00001294 DD 6E F3         [19] 3403 	ld	l, -13 (ix)
    00001297 DD 66 F4         [19] 3404 	ld	h, -12 (ix)
    0000129A 7E               [ 7] 3405 	ld	a, (hl)
    0000129B DD 77 FD         [19] 3406 	ld	-3 (ix), a
    0000129E 23               [ 6] 3407 	inc	hl
    0000129F 7E               [ 7] 3408 	ld	a, (hl)
    000012A0 DD 77 FE         [19] 3409 	ld	-2 (ix), a
    000012A3 DD 6E ED         [19] 3410 	ld	l, -19 (ix)
    000012A6 DD 66 EE         [19] 3411 	ld	h, -18 (ix)
    000012A9 DD 7E FD         [19] 3412 	ld	a, -3 (ix)
    000012AC 77               [ 7] 3413 	ld	(hl), a
    000012AD 23               [ 6] 3414 	inc	hl
    000012AE DD 7E FE         [19] 3415 	ld	a, -2 (ix)
    000012B1 77               [ 7] 3416 	ld	(hl), a
    000012B2 C3r83r13         [10] 3417 	jp	00204$
    000012B5                       3418 00195$:
                                   3419 ;E:\Dropbox\FAUSTO\SVILUPPI\MSX\CODE\C\MSXgl\projects\soccerlgSCC/soccerlg_s5_b3.c:611: else g_Players[i].Y += step;
    000012B5 DD 6E ED         [19] 3420 	ld	l, -19 (ix)
    000012B8 DD 66 EE         [19] 3421 	ld	h, -18 (ix)
    000012BB 7E               [ 7] 3422 	ld	a, (hl)
    000012BC DD 77 F5         [19] 3423 	ld	-11 (ix), a
    000012BF 23               [ 6] 3424 	inc	hl
    000012C0 7E               [ 7] 3425 	ld	a, (hl)
    000012C1 DD 77 F6         [19] 3426 	ld	-10 (ix), a
    000012C4 DD 7E F2         [19] 3427 	ld	a, -14 (ix)
    000012C7 DD 77 FD         [19] 3428 	ld	-3 (ix), a
    000012CA DD 36 FE 00      [19] 3429 	ld	-2 (ix), #0x00
    000012CE DD 7E F5         [19] 3430 	ld	a, -11 (ix)
    000012D1 DD 86 FD         [19] 3431 	add	a, -3 (ix)
    000012D4 DD 77 F3         [19] 3432 	ld	-13 (ix), a
    000012D7 DD 7E F6         [19] 3433 	ld	a, -10 (ix)
    000012DA DD 8E FE         [19] 3434 	adc	a, -2 (ix)
    000012DD DD 77 F4         [19] 3435 	ld	-12 (ix), a
    000012E0 DD 7E F3         [19] 3436 	ld	a, -13 (ix)
    000012E3 DD 77 FD         [19] 3437 	ld	-3 (ix), a
    000012E6 DD 7E F4         [19] 3438 	ld	a, -12 (ix)
    000012E9 DD 77 FE         [19] 3439 	ld	-2 (ix), a
    000012EC DD 6E ED         [19] 3440 	ld	l, -19 (ix)
    000012EF DD 66 EE         [19] 3441 	ld	h, -18 (ix)
    000012F2 DD 7E FD         [19] 3442 	ld	a, -3 (ix)
    000012F5 77               [ 7] 3443 	ld	(hl), a
    000012F6 23               [ 6] 3444 	inc	hl
    000012F7 DD 7E FE         [19] 3445 	ld	a, -2 (ix)
    000012FA 77               [ 7] 3446 	ld	(hl), a
    000012FB C3r83r13         [10] 3447 	jp	00204$
    000012FE                       3448 00203$:
                                   3449 ;E:\Dropbox\FAUSTO\SVILUPPI\MSX\CODE\C\MSXgl\projects\soccerlgSCC/soccerlg_s5_b3.c:612: } else if (dy < 0) {
    000012FE DD CB FB 7E      [20] 3450 	bit	7, -5 (ix)
    00001302 CAr83r13         [10] 3451 	jp	Z, 00204$
                                   3452 ;E:\Dropbox\FAUSTO\SVILUPPI\MSX\CODE\C\MSXgl\projects\soccerlgSCC/soccerlg_s5_b3.c:613: if (-dy < step) g_Players[i].Y = g_Players[i].TargetY;
    00001305 AF               [ 4] 3453 	xor	a, a
    00001306 DD 96 F5         [19] 3454 	sub	a, -11 (ix)
    00001309 DD 77 FD         [19] 3455 	ld	-3 (ix), a
    0000130C 9F               [ 4] 3456 	sbc	a, a
    0000130D DD 96 F6         [19] 3457 	sub	a, -10 (ix)
    00001310 DD 77 FE         [19] 3458 	ld	-2 (ix), a
    00001313 DD 4E F2         [19] 3459 	ld	c, -14 (ix)
    00001316 06 00            [ 7] 3460 	ld	b, #0x00
    00001318 DD 7E FD         [19] 3461 	ld	a, -3 (ix)
    0000131B 91               [ 4] 3462 	sub	a, c
    0000131C DD 7E FE         [19] 3463 	ld	a, -2 (ix)
    0000131F 98               [ 4] 3464 	sbc	a, b
    00001320 E2r25r13         [10] 3465 	jp	PO, 00912$
    00001323 EE 80            [ 7] 3466 	xor	a, #0x80
    00001325                       3467 00912$:
    00001325 F2r3Dr13         [10] 3468 	jp	P, 00198$
    00001328 DD 6E F3         [19] 3469 	ld	l, -13 (ix)
    0000132B DD 66 F4         [19] 3470 	ld	h, -12 (ix)
    0000132E 4E               [ 7] 3471 	ld	c, (hl)
    0000132F 23               [ 6] 3472 	inc	hl
    00001330 46               [ 7] 3473 	ld	b, (hl)
    00001331 DD 6E ED         [19] 3474 	ld	l, -19 (ix)
    00001334 DD 66 EE         [19] 3475 	ld	h, -18 (ix)
    00001337 71               [ 7] 3476 	ld	(hl), c
    00001338 23               [ 6] 3477 	inc	hl
    00001339 70               [ 7] 3478 	ld	(hl), b
    0000133A C3r83r13         [10] 3479 	jp	00204$
    0000133D                       3480 00198$:
                                   3481 ;E:\Dropbox\FAUSTO\SVILUPPI\MSX\CODE\C\MSXgl\projects\soccerlgSCC/soccerlg_s5_b3.c:614: else g_Players[i].Y -= step;
    0000133D DD 6E ED         [19] 3482 	ld	l, -19 (ix)
    00001340 DD 66 EE         [19] 3483 	ld	h, -18 (ix)
    00001343 7E               [ 7] 3484 	ld	a, (hl)
    00001344 DD 77 F5         [19] 3485 	ld	-11 (ix), a
    00001347 23               [ 6] 3486 	inc	hl
    00001348 7E               [ 7] 3487 	ld	a, (hl)
    00001349 DD 77 F6         [19] 3488 	ld	-10 (ix), a
    0000134C DD 7E F2         [19] 3489 	ld	a, -14 (ix)
    0000134F DD 77 FD         [19] 3490 	ld	-3 (ix), a
    00001352 DD 36 FE 00      [19] 3491 	ld	-2 (ix), #0x00
    00001356 DD 7E F5         [19] 3492 	ld	a, -11 (ix)
    00001359 DD 96 FD         [19] 3493 	sub	a, -3 (ix)
    0000135C DD 77 F3         [19] 3494 	ld	-13 (ix), a
    0000135F DD 7E F6         [19] 3495 	ld	a, -10 (ix)
    00001362 DD 9E FE         [19] 3496 	sbc	a, -2 (ix)
    00001365 DD 77 F4         [19] 3497 	ld	-12 (ix), a
    00001368 DD 7E F3         [19] 3498 	ld	a, -13 (ix)
    0000136B DD 77 FD         [19] 3499 	ld	-3 (ix), a
    0000136E DD 7E F4         [19] 3500 	ld	a, -12 (ix)
    00001371 DD 77 FE         [19] 3501 	ld	-2 (ix), a
    00001374 DD 6E ED         [19] 3502 	ld	l, -19 (ix)
    00001377 DD 66 EE         [19] 3503 	ld	h, -18 (ix)
    0000137A DD 7E FD         [19] 3504 	ld	a, -3 (ix)
    0000137D 77               [ 7] 3505 	ld	(hl), a
    0000137E 23               [ 6] 3506 	inc	hl
    0000137F DD 7E FE         [19] 3507 	ld	a, -2 (ix)
    00001382 77               [ 7] 3508 	ld	(hl), a
    00001383                       3509 00204$:
                                   3510 ;E:\Dropbox\FAUSTO\SVILUPPI\MSX\CODE\C\MSXgl\projects\soccerlgSCC/soccerlg_s5_b3.c:617: if(dx > 0 && dy < 0) g_Players[i].Direction=DIRECTION_UP_RIGHT;
    00001383 DD 7E F9         [19] 3511 	ld	a, -7 (ix)
    00001386 B7               [ 4] 3512 	or	a, a
    00001387 28 21            [12] 3513 	jr	Z, 00229$
    00001389 DD CB FB 7E      [20] 3514 	bit	7, -5 (ix)
    0000138D 28 1B            [12] 3515 	jr	Z, 00229$
    0000138F DD 7E ED         [19] 3516 	ld	a, -19 (ix)
    00001392 C6 0A            [ 7] 3517 	add	a, #0x0a
    00001394 DD 77 FD         [19] 3518 	ld	-3 (ix), a
    00001397 DD 7E EE         [19] 3519 	ld	a, -18 (ix)
    0000139A CE 00            [ 7] 3520 	adc	a, #0x00
    0000139C DD 77 FE         [19] 3521 	ld	-2 (ix), a
    0000139F DD 6E FD         [19] 3522 	ld	l, -3 (ix)
    000013A2 DD 66 FE         [19] 3523 	ld	h, -2 (ix)
    000013A5 36 02            [10] 3524 	ld	(hl), #0x02
    000013A7 C3rA6r14         [10] 3525 	jp	00230$
    000013AA                       3526 00229$:
                                   3527 ;E:\Dropbox\FAUSTO\SVILUPPI\MSX\CODE\C\MSXgl\projects\soccerlgSCC/soccerlg_s5_b3.c:618: else if(dx < 0 && dy < 0) g_Players[i].Direction=DIRECTION_UP_LEFT;
    000013AA DD 7E F8         [19] 3528 	ld	a, -8 (ix)
    000013AD 07               [ 4] 3529 	rlca
    000013AE E6 01            [ 7] 3530 	and	a,#0x01
    000013B0 DD 77 FE         [19] 3531 	ld	-2 (ix), a
    000013B3 B7               [ 4] 3532 	or	a, a
    000013B4 28 21            [12] 3533 	jr	Z, 00225$
    000013B6 DD CB FB 7E      [20] 3534 	bit	7, -5 (ix)
    000013BA 28 1B            [12] 3535 	jr	Z, 00225$
    000013BC DD 7E ED         [19] 3536 	ld	a, -19 (ix)
    000013BF C6 0A            [ 7] 3537 	add	a, #0x0a
    000013C1 DD 77 FD         [19] 3538 	ld	-3 (ix), a
    000013C4 DD 7E EE         [19] 3539 	ld	a, -18 (ix)
    000013C7 CE 00            [ 7] 3540 	adc	a, #0x00
    000013C9 DD 77 FE         [19] 3541 	ld	-2 (ix), a
    000013CC DD 6E FD         [19] 3542 	ld	l, -3 (ix)
    000013CF DD 66 FE         [19] 3543 	ld	h, -2 (ix)
    000013D2 36 08            [10] 3544 	ld	(hl), #0x08
    000013D4 C3rA6r14         [10] 3545 	jp	00230$
    000013D7                       3546 00225$:
                                   3547 ;E:\Dropbox\FAUSTO\SVILUPPI\MSX\CODE\C\MSXgl\projects\soccerlgSCC/soccerlg_s5_b3.c:619: else if(dx < 0 && dy > 0) g_Players[i].Direction=DIRECTION_DOWN_LEFT;
    000013D7 DD 7E FE         [19] 3548 	ld	a, -2 (ix)
    000013DA B7               [ 4] 3549 	or	a, a
    000013DB 28 21            [12] 3550 	jr	Z, 00221$
    000013DD DD 7E FC         [19] 3551 	ld	a, -4 (ix)
    000013E0 B7               [ 4] 3552 	or	a, a
    000013E1 28 1B            [12] 3553 	jr	Z, 00221$
    000013E3 DD 7E ED         [19] 3554 	ld	a, -19 (ix)
    000013E6 C6 0A            [ 7] 3555 	add	a, #0x0a
    000013E8 DD 77 FD         [19] 3556 	ld	-3 (ix), a
    000013EB DD 7E EE         [19] 3557 	ld	a, -18 (ix)
    000013EE CE 00            [ 7] 3558 	adc	a, #0x00
    000013F0 DD 77 FE         [19] 3559 	ld	-2 (ix), a
    000013F3 DD 6E FD         [19] 3560 	ld	l, -3 (ix)
    000013F6 DD 66 FE         [19] 3561 	ld	h, -2 (ix)
    000013F9 36 06            [10] 3562 	ld	(hl), #0x06
    000013FB C3rA6r14         [10] 3563 	jp	00230$
    000013FE                       3564 00221$:
                                   3565 ;E:\Dropbox\FAUSTO\SVILUPPI\MSX\CODE\C\MSXgl\projects\soccerlgSCC/soccerlg_s5_b3.c:620: else if(dx > 0 && dy > 0) g_Players[i].Direction=DIRECTION_DOWN_RIGHT;
    000013FE DD 7E F9         [19] 3566 	ld	a, -7 (ix)
    00001401 B7               [ 4] 3567 	or	a, a
    00001402 28 21            [12] 3568 	jr	Z, 00217$
    00001404 DD 7E FC         [19] 3569 	ld	a, -4 (ix)
    00001407 B7               [ 4] 3570 	or	a, a
    00001408 28 1B            [12] 3571 	jr	Z, 00217$
    0000140A DD 7E ED         [19] 3572 	ld	a, -19 (ix)
    0000140D C6 0A            [ 7] 3573 	add	a, #0x0a
    0000140F DD 77 FD         [19] 3574 	ld	-3 (ix), a
    00001412 DD 7E EE         [19] 3575 	ld	a, -18 (ix)
    00001415 CE 00            [ 7] 3576 	adc	a, #0x00
    00001417 DD 77 FE         [19] 3577 	ld	-2 (ix), a
    0000141A DD 6E FD         [19] 3578 	ld	l, -3 (ix)
    0000141D DD 66 FE         [19] 3579 	ld	h, -2 (ix)
    00001420 36 04            [10] 3580 	ld	(hl), #0x04
    00001422 C3rA6r14         [10] 3581 	jp	00230$
    00001425                       3582 00217$:
                                   3583 ;E:\Dropbox\FAUSTO\SVILUPPI\MSX\CODE\C\MSXgl\projects\soccerlgSCC/soccerlg_s5_b3.c:621: else if(dy < 0) g_Players[i].Direction=DIRECTION_UP;
    00001425 DD CB FB 7E      [20] 3584 	bit	7, -5 (ix)
    00001429 28 1B            [12] 3585 	jr	Z, 00214$
    0000142B DD 7E ED         [19] 3586 	ld	a, -19 (ix)
    0000142E C6 0A            [ 7] 3587 	add	a, #0x0a
    00001430 DD 77 FD         [19] 3588 	ld	-3 (ix), a
    00001433 DD 7E EE         [19] 3589 	ld	a, -18 (ix)
    00001436 CE 00            [ 7] 3590 	adc	a, #0x00
    00001438 DD 77 FE         [19] 3591 	ld	-2 (ix), a
    0000143B DD 6E FD         [19] 3592 	ld	l, -3 (ix)
    0000143E DD 66 FE         [19] 3593 	ld	h, -2 (ix)
    00001441 36 01            [10] 3594 	ld	(hl), #0x01
    00001443 C3rA6r14         [10] 3595 	jp	00230$
    00001446                       3596 00214$:
                                   3597 ;E:\Dropbox\FAUSTO\SVILUPPI\MSX\CODE\C\MSXgl\projects\soccerlgSCC/soccerlg_s5_b3.c:622: else if(dy > 0) g_Players[i].Direction=DIRECTION_DOWN;
    00001446 DD 7E FC         [19] 3598 	ld	a, -4 (ix)
    00001449 B7               [ 4] 3599 	or	a, a
    0000144A 28 1B            [12] 3600 	jr	Z, 00211$
    0000144C DD 7E ED         [19] 3601 	ld	a, -19 (ix)
    0000144F C6 0A            [ 7] 3602 	add	a, #0x0a
    00001451 DD 77 FD         [19] 3603 	ld	-3 (ix), a
    00001454 DD 7E EE         [19] 3604 	ld	a, -18 (ix)
    00001457 CE 00            [ 7] 3605 	adc	a, #0x00
    00001459 DD 77 FE         [19] 3606 	ld	-2 (ix), a
    0000145C DD 6E FD         [19] 3607 	ld	l, -3 (ix)
    0000145F DD 66 FE         [19] 3608 	ld	h, -2 (ix)
    00001462 36 05            [10] 3609 	ld	(hl), #0x05
    00001464 C3rA6r14         [10] 3610 	jp	00230$
    00001467                       3611 00211$:
                                   3612 ;E:\Dropbox\FAUSTO\SVILUPPI\MSX\CODE\C\MSXgl\projects\soccerlgSCC/soccerlg_s5_b3.c:623: else if(dx > 0) g_Players[i].Direction=DIRECTION_RIGHT;
    00001467 DD 7E F9         [19] 3613 	ld	a, -7 (ix)
    0000146A B7               [ 4] 3614 	or	a, a
    0000146B 28 1B            [12] 3615 	jr	Z, 00208$
    0000146D DD 7E ED         [19] 3616 	ld	a, -19 (ix)
    00001470 C6 0A            [ 7] 3617 	add	a, #0x0a
    00001472 DD 77 FD         [19] 3618 	ld	-3 (ix), a
    00001475 DD 7E EE         [19] 3619 	ld	a, -18 (ix)
    00001478 CE 00            [ 7] 3620 	adc	a, #0x00
    0000147A DD 77 FE         [19] 3621 	ld	-2 (ix), a
    0000147D DD 6E FD         [19] 3622 	ld	l, -3 (ix)
    00001480 DD 66 FE         [19] 3623 	ld	h, -2 (ix)
    00001483 36 03            [10] 3624 	ld	(hl), #0x03
    00001485 C3rA6r14         [10] 3625 	jp	00230$
    00001488                       3626 00208$:
                                   3627 ;E:\Dropbox\FAUSTO\SVILUPPI\MSX\CODE\C\MSXgl\projects\soccerlgSCC/soccerlg_s5_b3.c:624: else if(dx < 0) g_Players[i].Direction=DIRECTION_LEFT;
    00001488 DD 7E FE         [19] 3628 	ld	a, -2 (ix)
    0000148B B7               [ 4] 3629 	or	a, a
    0000148C 28 18            [12] 3630 	jr	Z, 00230$
    0000148E DD 7E ED         [19] 3631 	ld	a, -19 (ix)
    00001491 C6 0A            [ 7] 3632 	add	a, #0x0a
    00001493 DD 77 FD         [19] 3633 	ld	-3 (ix), a
    00001496 DD 7E EE         [19] 3634 	ld	a, -18 (ix)
    00001499 CE 00            [ 7] 3635 	adc	a, #0x00
    0000149B DD 77 FE         [19] 3636 	ld	-2 (ix), a
    0000149E DD 6E FD         [19] 3637 	ld	l, -3 (ix)
    000014A1 DD 66 FE         [19] 3638 	ld	h, -2 (ix)
    000014A4 36 07            [10] 3639 	ld	(hl), #0x07
    000014A6                       3640 00230$:
                                   3641 ;E:\Dropbox\FAUSTO\SVILUPPI\MSX\CODE\C\MSXgl\projects\soccerlgSCC/soccerlg_s5_b3.c:627: if(g_Players[i].Y < FIELD_BOUND_Y_TOP) g_Players[i].Y = FIELD_BOUND_Y_TOP;
    000014A6 DD 6E ED         [19] 3642 	ld	l, -19 (ix)
    000014A9 DD 66 EE         [19] 3643 	ld	h, -18 (ix)
    000014AC 4E               [ 7] 3644 	ld	c, (hl)
    000014AD 23               [ 6] 3645 	inc	hl
    000014AE 46               [ 7] 3646 	ld	b, (hl)
    000014AF 79               [ 4] 3647 	ld	a, c
    000014B0 D6 32            [ 7] 3648 	sub	a, #0x32
    000014B2 78               [ 4] 3649 	ld	a, b
    000014B3 DE 00            [ 7] 3650 	sbc	a, #0x00
    000014B5 30 0B            [12] 3651 	jr	NC, 00233$
    000014B7 DD 6E ED         [19] 3652 	ld	l, -19 (ix)
    000014BA DD 66 EE         [19] 3653 	ld	h, -18 (ix)
    000014BD 36 32            [10] 3654 	ld	(hl), #0x32
    000014BF 23               [ 6] 3655 	inc	hl
    000014C0 36 00            [10] 3656 	ld	(hl), #0x00
    000014C2                       3657 00233$:
                                   3658 ;E:\Dropbox\FAUSTO\SVILUPPI\MSX\CODE\C\MSXgl\projects\soccerlgSCC/soccerlg_s5_b3.c:628: if(g_Players[i].Y > FIELD_BOUND_Y_BOTTOM) g_Players[i].Y = FIELD_BOUND_Y_BOTTOM;
    000014C2 DD 6E ED         [19] 3659 	ld	l, -19 (ix)
    000014C5 DD 66 EE         [19] 3660 	ld	h, -18 (ix)
    000014C8 4E               [ 7] 3661 	ld	c, (hl)
    000014C9 23               [ 6] 3662 	inc	hl
    000014CA 46               [ 7] 3663 	ld	b, (hl)
    000014CB 3E B3            [ 7] 3664 	ld	a, #0xb3
    000014CD B9               [ 4] 3665 	cp	a, c
    000014CE 3E 01            [ 7] 3666 	ld	a, #0x01
    000014D0 98               [ 4] 3667 	sbc	a, b
    000014D1 30 0B            [12] 3668 	jr	NC, 00235$
    000014D3 DD 6E ED         [19] 3669 	ld	l, -19 (ix)
    000014D6 DD 66 EE         [19] 3670 	ld	h, -18 (ix)
    000014D9 36 B3            [10] 3671 	ld	(hl), #0xb3
    000014DB 23               [ 6] 3672 	inc	hl
    000014DC 36 01            [10] 3673 	ld	(hl), #0x01
    000014DE                       3674 00235$:
                                   3675 ;E:\Dropbox\FAUSTO\SVILUPPI\MSX\CODE\C\MSXgl\projects\soccerlgSCC/soccerlg_s5_b3.c:629: if(g_Players[i].X < FIELD_BOUND_X_LEFT) g_Players[i].X = FIELD_BOUND_X_LEFT;
    000014DE DD 6E EF         [19] 3676 	ld	l, -17 (ix)
    000014E1 DD 66 F0         [19] 3677 	ld	h, -16 (ix)
    000014E4 4E               [ 7] 3678 	ld	c, (hl)
    000014E5 23               [ 6] 3679 	inc	hl
    000014E6 46               [ 7] 3680 	ld	b, (hl)
    000014E7 79               [ 4] 3681 	ld	a, c
    000014E8 D6 0A            [ 7] 3682 	sub	a, #0x0a
    000014EA 78               [ 4] 3683 	ld	a, b
    000014EB DE 00            [ 7] 3684 	sbc	a, #0x00
    000014ED 30 0B            [12] 3685 	jr	NC, 00237$
    000014EF DD 6E EF         [19] 3686 	ld	l, -17 (ix)
    000014F2 DD 66 F0         [19] 3687 	ld	h, -16 (ix)
    000014F5 36 0A            [10] 3688 	ld	(hl), #0x0a
    000014F7 23               [ 6] 3689 	inc	hl
    000014F8 36 00            [10] 3690 	ld	(hl), #0x00
    000014FA                       3691 00237$:
                                   3692 ;E:\Dropbox\FAUSTO\SVILUPPI\MSX\CODE\C\MSXgl\projects\soccerlgSCC/soccerlg_s5_b3.c:630: if(g_Players[i].X > FIELD_BOUND_X_RIGHT) g_Players[i].X = FIELD_BOUND_X_RIGHT;
    000014FA DD 6E EF         [19] 3693 	ld	l, -17 (ix)
    000014FD DD 66 F0         [19] 3694 	ld	h, -16 (ix)
    00001500 4E               [ 7] 3695 	ld	c, (hl)
    00001501 23               [ 6] 3696 	inc	hl
    00001502 46               [ 7] 3697 	ld	b, (hl)
    00001503 3E EC            [ 7] 3698 	ld	a, #0xec
    00001505 B9               [ 4] 3699 	cp	a, c
    00001506 3E 00            [ 7] 3700 	ld	a, #0x00
    00001508 98               [ 4] 3701 	sbc	a, b
    00001509 30 0B            [12] 3702 	jr	NC, 00241$
    0000150B DD 6E EF         [19] 3703 	ld	l, -17 (ix)
    0000150E DD 66 F0         [19] 3704 	ld	h, -16 (ix)
    00001511 36 EC            [10] 3705 	ld	(hl), #0xec
    00001513 23               [ 6] 3706 	inc	hl
    00001514 36 00            [10] 3707 	ld	(hl), #0x00
    00001516                       3708 00241$:
                                   3709 ;E:\Dropbox\FAUSTO\SVILUPPI\MSX\CODE\C\MSXgl\projects\soccerlgSCC/soccerlg_s5_b3.c:488: if (g_MatchStatus == MATCH_IN_ACTION && g_Players[i].Role == PLAYER_ROLE_GOALKEEPER) {
    00001516 3Ar00r00         [13] 3710 	ld	a, (_g_MatchStatus+0)
    00001519 D6 0C            [ 7] 3711 	sub	a, #0x0c
    0000151B 3E 01            [ 7] 3712 	ld	a, #0x01
    0000151D 28 01            [12] 3713 	jr	Z, 00914$
    0000151F AF               [ 4] 3714 	xor	a, a
    00001520                       3715 00914$:
                                   3716 ;E:\Dropbox\FAUSTO\SVILUPPI\MSX\CODE\C\MSXgl\projects\soccerlgSCC/soccerlg_s5_b3.c:634: if (g_MatchStatus == MATCH_IN_ACTION || (isSetPieceSetup && g_Ball.PossessionPlayerId == i)) {
    00001520 47               [ 4] 3717 	ld	b, a
    00001521 B7               [ 4] 3718 	or	a, a
    00001522 20 0F            [12] 3719 	jr	NZ, 00254$
    00001524 DD 7E EC         [19] 3720 	ld	a, -20 (ix)
    00001527 B7               [ 4] 3721 	or	a, a
    00001528 28 49            [12] 3722 	jr	Z, 00255$
    0000152A 21r06r00         [10] 3723 	ld	hl, #(_g_Ball + 6)
    0000152D DD 7E FF         [19] 3724 	ld	a,-1 (ix)
    00001530 96               [ 7] 3725 	sub	a,(hl)
    00001531 20 40            [12] 3726 	jr	NZ, 00255$
    00001533                       3727 00254$:
                                   3728 ;E:\Dropbox\FAUSTO\SVILUPPI\MSX\CODE\C\MSXgl\projects\soccerlgSCC/soccerlg_s5_b3.c:635: if (g_Ball.PossessionPlayerId == i) {
    00001533 21r06r00         [10] 3729 	ld	hl, #(_g_Ball + 6)
    00001536 DD 7E FF         [19] 3730 	ld	a,-1 (ix)
    00001539 96               [ 7] 3731 	sub	a,(hl)
    0000153A 20 37            [12] 3732 	jr	NZ, 00255$
                                   3733 ;E:\Dropbox\FAUSTO\SVILUPPI\MSX\CODE\C\MSXgl\projects\soccerlgSCC/soccerlg_s5_b3.c:638: if (g_Ball.KickMoveState == NO_VALUE) g_Ball.KickMoveState = 0;
    0000153C 11r0Dr00         [10] 3734 	ld	de, #_g_Ball + 13
                                   3735 ;E:\Dropbox\FAUSTO\SVILUPPI\MSX\CODE\C\MSXgl\projects\soccerlgSCC/soccerlg_s5_b3.c:637: if (!playerInPosition && g_MatchStatus == MATCH_IN_ACTION) {
    0000153F DD 7E F1         [19] 3736 	ld	a, -15 (ix)
    00001542 B7               [ 4] 3737 	or	a,a
    00001543 20 1F            [12] 3738 	jr	NZ, 00249$
    00001545 B0               [ 4] 3739 	or	a,b
    00001546 28 1C            [12] 3740 	jr	Z, 00249$
                                   3741 ;E:\Dropbox\FAUSTO\SVILUPPI\MSX\CODE\C\MSXgl\projects\soccerlgSCC/soccerlg_s5_b3.c:638: if (g_Ball.KickMoveState == NO_VALUE) g_Ball.KickMoveState = 0;
    00001548 1A               [ 7] 3742 	ld	a, (de)
    00001549 3C               [ 4] 3743 	inc	a
    0000154A 20 01            [12] 3744 	jr	NZ, 00243$
    0000154C 12               [ 7] 3745 	ld	(de), a
    0000154D                       3746 00243$:
                                   3747 ;E:\Dropbox\FAUSTO\SVILUPPI\MSX\CODE\C\MSXgl\projects\soccerlgSCC/soccerlg_s5_b3.c:639: g_Ball.KickMoveState++;
    0000154D 1A               [ 7] 3748 	ld	a, (de)
    0000154E 3C               [ 4] 3749 	inc	a
    0000154F 4F               [ 4] 3750 	ld	c, a
    00001550 12               [ 7] 3751 	ld	(de), a
                                   3752 ;E:\Dropbox\FAUSTO\SVILUPPI\MSX\CODE\C\MSXgl\projects\soccerlgSCC/soccerlg_s5_b3.c:640: if (g_Ball.KickMoveState > 3) g_Ball.KickMoveState = 0;
    00001551 3E 03            [ 7] 3753 	ld	a, #0x03
    00001553 91               [ 4] 3754 	sub	a, c
    00001554 30 02            [12] 3755 	jr	NC, 00245$
    00001556 AF               [ 4] 3756 	xor	a, a
    00001557 12               [ 7] 3757 	ld	(de), a
    00001558                       3758 00245$:
                                   3759 ;E:\Dropbox\FAUSTO\SVILUPPI\MSX\CODE\C\MSXgl\projects\soccerlgSCC/soccerlg_s5_b3.c:641: if (g_Ball.KickMoveState == 1) PlayAyFx(AYFX_BALL);
    00001558 1A               [ 7] 3760 	ld	a, (de)
    00001559 3D               [ 4] 3761 	dec	a
    0000155A 20 0A            [12] 3762 	jr	NZ, 00250$
    0000155C 3E 05            [ 7] 3763 	ld	a, #0x05
    0000155E CDr00r00         [17] 3764 	call	_PlayAyFx
    00001561 C3r66r15         [10] 3765 	jp	00250$
    00001564                       3766 00249$:
                                   3767 ;E:\Dropbox\FAUSTO\SVILUPPI\MSX\CODE\C\MSXgl\projects\soccerlgSCC/soccerlg_s5_b3.c:643: g_Ball.KickMoveState = 0;
    00001564 AF               [ 4] 3768 	xor	a, a
    00001565 12               [ 7] 3769 	ld	(de), a
    00001566                       3770 00250$:
                                   3771 ;E:\Dropbox\FAUSTO\SVILUPPI\MSX\CODE\C\MSXgl\projects\soccerlgSCC/soccerlg_s5_b3.c:645: CallFnc_VOID_P1(4,PutBallOnPlayerFeet,i);
    00001566 DD 7E FF         [19] 3772 	ld	a, -1 (ix)
    00001569 F5               [11] 3773 	push	af
    0000156A 33               [ 6] 3774 	inc	sp
    0000156B 11r00r00         [10] 3775 	ld	de, #_PutBallOnPlayerFeet
    0000156E 3E 04            [ 7] 3776 	ld	a, #0x04
    00001570 CDr00r00         [17] 3777 	call	_CallFnc_VOID_P1
    00001573                       3778 00255$:
                                   3779 ;E:\Dropbox\FAUSTO\SVILUPPI\MSX\CODE\C\MSXgl\projects\soccerlgSCC/soccerlg_s5_b3.c:649: if (playerInPosition) {
    00001573 DD 7E F1         [19] 3780 	ld	a, -15 (ix)
    00001576 B7               [ 4] 3781 	or	a, a
    00001577 CArF9r16         [10] 3782 	jp	Z, 00297$
                                   3783 ;E:\Dropbox\FAUSTO\SVILUPPI\MSX\CODE\C\MSXgl\projects\soccerlgSCC/soccerlg_s5_b3.c:650: if (g_MatchStatus == MATCH_BEFORE_CORNER_KICK || g_MatchStatus == MATCH_BEFORE_GOAL_KICK || 
    0000157A 3Ar00r00         [13] 3784 	ld	a,(_g_MatchStatus+0)
    0000157D FE 02            [ 7] 3785 	cp	a,#0x02
    0000157F 28 0C            [12] 3786 	jr	Z, 00268$
                                   3787 ;E:\Dropbox\FAUSTO\SVILUPPI\MSX\CODE\C\MSXgl\projects\soccerlgSCC/soccerlg_s5_b3.c:651: g_MatchStatus == MATCH_BEFORE_OFFSIDE || g_MatchStatus == MATCH_BEFORE_THROW_IN) {
    00001581 FE 05            [ 7] 3788 	cp	a,#0x05
    00001583 28 08            [12] 3789 	jr	Z, 00268$
    00001585 FE 0E            [ 7] 3790 	cp	a,#0x0e
    00001587 28 04            [12] 3791 	jr	Z, 00268$
    00001589 D6 03            [ 7] 3792 	sub	a, #0x03
    0000158B 20 6A            [12] 3793 	jr	NZ, 00269$
    0000158D                       3794 00268$:
                                   3795 ;E:\Dropbox\FAUSTO\SVILUPPI\MSX\CODE\C\MSXgl\projects\soccerlgSCC/soccerlg_s5_b3.c:652: if (g_Players[i].Status != PLAYER_STATUS_POSITIONED) {
    0000158D DD 6E ED         [19] 3796 	ld	l, -19 (ix)
    00001590 DD 66 EE         [19] 3797 	ld	h, -18 (ix)
    00001593 11 12 00         [10] 3798 	ld	de, #0x0012
    00001596 19               [11] 3799 	add	hl, de
    00001597 4E               [ 7] 3800 	ld	c, (hl)
    00001598 23               [ 6] 3801 	inc	hl
    00001599 46               [ 7] 3802 	ld	b, (hl)
    0000159A 2B               [ 6] 3803 	dec	hl
    0000159B 79               [ 4] 3804 	ld	a, c
    0000159C D6 04            [ 7] 3805 	sub	a, #0x04
    0000159E B0               [ 4] 3806 	or	a, b
    0000159F 28 56            [12] 3807 	jr	Z, 00269$
                                   3808 ;E:\Dropbox\FAUSTO\SVILUPPI\MSX\CODE\C\MSXgl\projects\soccerlgSCC/soccerlg_s5_b3.c:653: g_Players[i].Status = PLAYER_STATUS_POSITIONED;
    000015A1 36 04            [10] 3809 	ld	(hl), #0x04
    000015A3 23               [ 6] 3810 	inc	hl
    000015A4 36 00            [10] 3811 	ld	(hl), #0x00
                                   3812 ;E:\Dropbox\FAUSTO\SVILUPPI\MSX\CODE\C\MSXgl\projects\soccerlgSCC/soccerlg_s5_b3.c:654: g_Players[i].Direction = DIRECTION_NONE;
    000015A6 DD 6E ED         [19] 3813 	ld	l, -19 (ix)
    000015A9 DD 66 EE         [19] 3814 	ld	h, -18 (ix)
    000015AC 11 0A 00         [10] 3815 	ld	de, #0x000a
    000015AF 19               [11] 3816 	add	hl, de
    000015B0 36 00            [10] 3817 	ld	(hl), #0x00
                                   3818 ;E:\Dropbox\FAUSTO\SVILUPPI\MSX\CODE\C\MSXgl\projects\soccerlgSCC/soccerlg_s5_b3.c:655: u8 useDir = g_Players[i].PreviousDirection;
    000015B2 DD 4E ED         [19] 3819 	ld	c, -19 (ix)
    000015B5 DD 46 EE         [19] 3820 	ld	b, -18 (ix)
    000015B8 21 0B 00         [10] 3821 	ld	hl, #11
    000015BB 09               [11] 3822 	add	hl, bc
    000015BC 7E               [ 7] 3823 	ld	a, (hl)
    000015BD 4F               [ 4] 3824 	ld	c, a
                                   3825 ;E:\Dropbox\FAUSTO\SVILUPPI\MSX\CODE\C\MSXgl\projects\soccerlgSCC/soccerlg_s5_b3.c:656: if (useDir == DIRECTION_NONE) {
    000015BE B7               [ 4] 3826 	or	a, a
    000015BF 20 1E            [12] 3827 	jr	NZ, 00265$
                                   3828 ;E:\Dropbox\FAUSTO\SVILUPPI\MSX\CODE\C\MSXgl\projects\soccerlgSCC/soccerlg_s5_b3.c:658: if(g_MatchStatus == MATCH_BEFORE_THROW_IN) {
    000015C1 3Ar00r00         [13] 3829 	ld	a, (_g_MatchStatus+0)
    000015C4 D6 03            [ 7] 3830 	sub	a, #0x03
    000015C6 20 15            [12] 3831 	jr	NZ, 00262$
                                   3832 ;E:\Dropbox\FAUSTO\SVILUPPI\MSX\CODE\C\MSXgl\projects\soccerlgSCC/soccerlg_s5_b3.c:660: if(g_Ball.X < 128) useDir = DIRECTION_RIGHT; else useDir = DIRECTION_LEFT;
    000015C8 2Ar02r00         [16] 3833 	ld	hl, (#_g_Ball + 2)
    000015CB 11 80 00         [10] 3834 	ld	de, #0x0080
    000015CE BF               [ 4] 3835 	cp	a, a
    000015CF ED 52            [15] 3836 	sbc	hl, de
    000015D1 30 05            [12] 3837 	jr	NC, 00259$
    000015D3 0E 03            [ 7] 3838 	ld	c, #0x03
    000015D5 C3rDFr15         [10] 3839 	jp	00265$
    000015D8                       3840 00259$:
    000015D8 0E 07            [ 7] 3841 	ld	c, #0x07
    000015DA C3rDFr15         [10] 3842 	jp	00265$
    000015DD                       3843 00262$:
                                   3844 ;E:\Dropbox\FAUSTO\SVILUPPI\MSX\CODE\C\MSXgl\projects\soccerlgSCC/soccerlg_s5_b3.c:662: useDir = DIRECTION_DOWN; 
    000015DD 0E 05            [ 7] 3845 	ld	c, #0x05
    000015DF                       3846 00265$:
                                   3847 ;E:\Dropbox\FAUSTO\SVILUPPI\MSX\CODE\C\MSXgl\projects\soccerlgSCC/soccerlg_s5_b3.c:665: g_Players[i].PatternId =CallFnc_U8_P1(8,GetNoMovingPlayerPatternId,useDir);
    000015DF DD 6E ED         [19] 3848 	ld	l, -19 (ix)
    000015E2 DD 66 EE         [19] 3849 	ld	h, -18 (ix)
    000015E5 11 08 00         [10] 3850 	ld	de, #0x0008
    000015E8 19               [11] 3851 	add	hl, de
    000015E9 E5               [11] 3852 	push	hl
    000015EA 79               [ 4] 3853 	ld	a, c
    000015EB F5               [11] 3854 	push	af
    000015EC 33               [ 6] 3855 	inc	sp
    000015ED 11r00r00         [10] 3856 	ld	de, #_GetNoMovingPlayerPatternId
    000015F0 3E 08            [ 7] 3857 	ld	a, #0x08
    000015F2 CDr00r00         [17] 3858 	call	_CallFnc_U8_P1
    000015F5 E1               [10] 3859 	pop	hl
    000015F6 77               [ 7] 3860 	ld	(hl), a
    000015F7                       3861 00269$:
                                   3862 ;E:\Dropbox\FAUSTO\SVILUPPI\MSX\CODE\C\MSXgl\projects\soccerlgSCC/soccerlg_s5_b3.c:669: if(g_MatchStatus==MATCH_IN_ACTION){
    000015F7 3Ar00r00         [13] 3863 	ld	a, (_g_MatchStatus+0)
    000015FA D6 0C            [ 7] 3864 	sub	a, #0x0c
    000015FC 20 0F            [12] 3865 	jr	NZ, 00274$
                                   3866 ;E:\Dropbox\FAUSTO\SVILUPPI\MSX\CODE\C\MSXgl\projects\soccerlgSCC/soccerlg_s5_b3.c:670: g_Players[i].Status=PLAYER_STATUS_POSITIONED;
    000015FE DD 6E ED         [19] 3867 	ld	l, -19 (ix)
    00001601 DD 66 EE         [19] 3868 	ld	h, -18 (ix)
    00001604 11 12 00         [10] 3869 	ld	de, #0x0012
    00001607 19               [11] 3870 	add	hl, de
    00001608 36 04            [10] 3871 	ld	(hl), #0x04
    0000160A 23               [ 6] 3872 	inc	hl
    0000160B 36 00            [10] 3873 	ld	(hl), #0x00
    0000160D                       3874 00274$:
                                   3875 ;E:\Dropbox\FAUSTO\SVILUPPI\MSX\CODE\C\MSXgl\projects\soccerlgSCC/soccerlg_s5_b3.c:673: if (g_Players[i].TeamId == REFEREE) {
    0000160D DD 7E ED         [19] 3876 	ld	a, -19 (ix)
    00001610 C6 09            [ 7] 3877 	add	a, #0x09
    00001612 DD 77 FD         [19] 3878 	ld	-3 (ix), a
    00001615 DD 7E EE         [19] 3879 	ld	a, -18 (ix)
    00001618 CE 00            [ 7] 3880 	adc	a, #0x00
    0000161A DD 77 FE         [19] 3881 	ld	-2 (ix), a
    0000161D DD 6E FD         [19] 3882 	ld	l, -3 (ix)
    00001620 DD 66 FE         [19] 3883 	ld	h, -2 (ix)
    00001623 7E               [ 7] 3884 	ld	a, (hl)
    00001624 D6 0E            [ 7] 3885 	sub	a, #0x0e
    00001626 20 41            [12] 3886 	jr	NZ, 00279$
                                   3887 ;E:\Dropbox\FAUSTO\SVILUPPI\MSX\CODE\C\MSXgl\projects\soccerlgSCC/soccerlg_s5_b3.c:674: if(g_MatchStatus == MATCH_BEFORE_KICK_OFF || g_MatchStatus == MATCH_AFTER_IN_GOAL) {
    00001628 3Ar00r00         [13] 3888 	ld	a, (_g_MatchStatus+0)
    0000162B 3D               [ 4] 3889 	dec	a
    0000162C 28 07            [12] 3890 	jr	Z, 00275$
    0000162E 3Ar00r00         [13] 3891 	ld	a, (_g_MatchStatus+0)
    00001631 D6 06            [ 7] 3892 	sub	a, #0x06
    00001633 20 34            [12] 3893 	jr	NZ, 00279$
    00001635                       3894 00275$:
                                   3895 ;E:\Dropbox\FAUSTO\SVILUPPI\MSX\CODE\C\MSXgl\projects\soccerlgSCC/soccerlg_s5_b3.c:675: g_Players[i].Direction = DIRECTION_DOWN;
    00001635 DD 6E ED         [19] 3896 	ld	l, -19 (ix)
    00001638 DD 66 EE         [19] 3897 	ld	h, -18 (ix)
    0000163B 11 0A 00         [10] 3898 	ld	de, #0x000a
    0000163E 19               [11] 3899 	add	hl, de
    0000163F 36 05            [10] 3900 	ld	(hl), #0x05
                                   3901 ;E:\Dropbox\FAUSTO\SVILUPPI\MSX\CODE\C\MSXgl\projects\soccerlgSCC/soccerlg_s5_b3.c:676: g_Players[i].PatternId = PLAYER_POSE_FRONT;
    00001641 DD 6E ED         [19] 3902 	ld	l, -19 (ix)
    00001644 DD 66 EE         [19] 3903 	ld	h, -18 (ix)
    00001647 11 08 00         [10] 3904 	ld	de, #0x0008
    0000164A 19               [11] 3905 	add	hl, de
    0000164B 36 10            [10] 3906 	ld	(hl), #0x10
                                   3907 ;E:\Dropbox\FAUSTO\SVILUPPI\MSX\CODE\C\MSXgl\projects\soccerlgSCC/soccerlg_s5_b3.c:677: g_Players[i].Status = PLAYER_STATUS_POSITIONED;
    0000164D DD 6E ED         [19] 3908 	ld	l, -19 (ix)
    00001650 DD 66 EE         [19] 3909 	ld	h, -18 (ix)
    00001653 11 12 00         [10] 3910 	ld	de, #0x0012
    00001656 19               [11] 3911 	add	hl, de
    00001657 36 04            [10] 3912 	ld	(hl), #0x04
    00001659 23               [ 6] 3913 	inc	hl
    0000165A 36 00            [10] 3914 	ld	(hl), #0x00
                                   3915 ;E:\Dropbox\FAUSTO\SVILUPPI\MSX\CODE\C\MSXgl\projects\soccerlgSCC/soccerlg_s5_b3.c:678: CallFnc_VOID_P1(5,PutPlayerSprite,i);
    0000165C DD 7E FF         [19] 3916 	ld	a, -1 (ix)
    0000165F F5               [11] 3917 	push	af
    00001660 33               [ 6] 3918 	inc	sp
    00001661 11r37r17         [10] 3919 	ld	de, #_PutPlayerSprite
    00001664 3E 05            [ 7] 3920 	ld	a, #0x05
    00001666 CDr00r00         [17] 3921 	call	_CallFnc_VOID_P1
    00001669                       3922 00279$:
                                   3923 ;E:\Dropbox\FAUSTO\SVILUPPI\MSX\CODE\C\MSXgl\projects\soccerlgSCC/soccerlg_s5_b3.c:684: if(g_MatchStatus==MATCH_BEFORE_KICK_OFF){
    00001669 3Ar00r00         [13] 3924 	ld	a, (_g_MatchStatus+0)
    0000166C 3D               [ 4] 3925 	dec	a
    0000166D C2rF9r16         [10] 3926 	jp	NZ,00297$
                                   3927 ;E:\Dropbox\FAUSTO\SVILUPPI\MSX\CODE\C\MSXgl\projects\soccerlgSCC/soccerlg_s5_b3.c:686: if(g_Players[i].TeamId!=REFEREE && g_Players[i].PatternId!=PLAYER_POSE_BACK && g_Players[i].PatternId!=PLAYER_POSE_FRONT){
    00001670 DD 6E FD         [19] 3928 	ld	l, -3 (ix)
    00001673 DD 66 FE         [19] 3929 	ld	h, -2 (ix)
    00001676 7E               [ 7] 3930 	ld	a, (hl)
    00001677 D6 0E            [ 7] 3931 	sub	a, #0x0e
    00001679 CArF9r16         [10] 3932 	jp	Z,00297$
    0000167C DD 7E ED         [19] 3933 	ld	a, -19 (ix)
    0000167F C6 08            [ 7] 3934 	add	a, #0x08
    00001681 4F               [ 4] 3935 	ld	c, a
    00001682 DD 7E EE         [19] 3936 	ld	a, -18 (ix)
    00001685 CE 00            [ 7] 3937 	adc	a, #0x00
    00001687 47               [ 4] 3938 	ld	b, a
    00001688 0A               [ 7] 3939 	ld	a, (bc)
    00001689 FE 11            [ 7] 3940 	cp	a, #0x11
    0000168B 28 6C            [12] 3941 	jr	Z, 00297$
    0000168D D6 10            [ 7] 3942 	sub	a, #0x10
    0000168F 28 68            [12] 3943 	jr	Z, 00297$
                                   3944 ;E:\Dropbox\FAUSTO\SVILUPPI\MSX\CODE\C\MSXgl\projects\soccerlgSCC/soccerlg_s5_b3.c:687: g_Players[i].Status=PLAYER_STATUS_POSITIONED;
    00001691 DD 6E ED         [19] 3945 	ld	l, -19 (ix)
    00001694 DD 66 EE         [19] 3946 	ld	h, -18 (ix)
    00001697 11 12 00         [10] 3947 	ld	de, #0x0012
    0000169A 19               [11] 3948 	add	hl, de
    0000169B 36 04            [10] 3949 	ld	(hl), #0x04
    0000169D 23               [ 6] 3950 	inc	hl
    0000169E 36 00            [10] 3951 	ld	(hl), #0x00
                                   3952 ;E:\Dropbox\FAUSTO\SVILUPPI\MSX\CODE\C\MSXgl\projects\soccerlgSCC/soccerlg_s5_b3.c:617: if(dx > 0 && dy < 0) g_Players[i].Direction=DIRECTION_UP_RIGHT;
    000016A0 DD 7E ED         [19] 3953 	ld	a, -19 (ix)
    000016A3 C6 0A            [ 7] 3954 	add	a, #0x0a
    000016A5 5F               [ 4] 3955 	ld	e, a
    000016A6 DD 7E EE         [19] 3956 	ld	a, -18 (ix)
    000016A9 CE 00            [ 7] 3957 	adc	a, #0x00
    000016AB 57               [ 4] 3958 	ld	d, a
                                   3959 ;E:\Dropbox\FAUSTO\SVILUPPI\MSX\CODE\C\MSXgl\projects\soccerlgSCC/soccerlg_s5_b3.c:673: if (g_Players[i].TeamId == REFEREE) {
    000016AC DD 6E FD         [19] 3960 	ld	l, -3 (ix)
    000016AF DD 66 FE         [19] 3961 	ld	h, -2 (ix)
    000016B2 7E               [ 7] 3962 	ld	a, (hl)
                                   3963 ;E:\Dropbox\FAUSTO\SVILUPPI\MSX\CODE\C\MSXgl\projects\soccerlgSCC/soccerlg_s5_b3.c:689: if(g_Players[i].TeamId==TEAM_1){
    000016B3 3D               [ 4] 3964 	dec	a
    000016B4 3E 01            [ 7] 3965 	ld	a, #0x01
    000016B6 28 01            [12] 3966 	jr	Z, 00944$
    000016B8 AF               [ 4] 3967 	xor	a, a
    000016B9                       3968 00944$:
    000016B9 DD 77 FE         [19] 3969 	ld	-2 (ix), a
                                   3970 ;E:\Dropbox\FAUSTO\SVILUPPI\MSX\CODE\C\MSXgl\projects\soccerlgSCC/soccerlg_s5_b3.c:688: if (i != g_GoalScorerId) {
    000016BC DD 7E FF         [19] 3971 	ld	a, -1 (ix)
    000016BF 21r00r00         [10] 3972 	ld	hl, #_g_GoalScorerId
    000016C2 96               [ 7] 3973 	sub	a, (hl)
    000016C3 28 18            [12] 3974 	jr	Z, 00287$
                                   3975 ;E:\Dropbox\FAUSTO\SVILUPPI\MSX\CODE\C\MSXgl\projects\soccerlgSCC/soccerlg_s5_b3.c:689: if(g_Players[i].TeamId==TEAM_1){
    000016C5 DD 7E FE         [19] 3976 	ld	a, -2 (ix)
    000016C8 B7               [ 4] 3977 	or	a, a
    000016C9 28 09            [12] 3978 	jr	Z, 00281$
                                   3979 ;E:\Dropbox\FAUSTO\SVILUPPI\MSX\CODE\C\MSXgl\projects\soccerlgSCC/soccerlg_s5_b3.c:690: g_Players[i].PatternId=PLAYER_POSE_BACK;
    000016CB 3E 11            [ 7] 3980 	ld	a, #0x11
    000016CD 02               [ 7] 3981 	ld	(bc), a
                                   3982 ;E:\Dropbox\FAUSTO\SVILUPPI\MSX\CODE\C\MSXgl\projects\soccerlgSCC/soccerlg_s5_b3.c:691: g_Players[i].Direction=DIRECTION_UP;
    000016CE 3E 01            [ 7] 3983 	ld	a, #0x01
    000016D0 12               [ 7] 3984 	ld	(de), a
    000016D1 C3rECr16         [10] 3985 	jp	00288$
    000016D4                       3986 00281$:
                                   3987 ;E:\Dropbox\FAUSTO\SVILUPPI\MSX\CODE\C\MSXgl\projects\soccerlgSCC/soccerlg_s5_b3.c:694: g_Players[i].PatternId=PLAYER_POSE_FRONT;
    000016D4 3E 10            [ 7] 3988 	ld	a, #0x10
    000016D6 02               [ 7] 3989 	ld	(bc), a
                                   3990 ;E:\Dropbox\FAUSTO\SVILUPPI\MSX\CODE\C\MSXgl\projects\soccerlgSCC/soccerlg_s5_b3.c:695: g_Players[i].Direction=DIRECTION_DOWN;
    000016D7 3E 05            [ 7] 3991 	ld	a, #0x05
    000016D9 12               [ 7] 3992 	ld	(de), a
    000016DA C3rECr16         [10] 3993 	jp	00288$
    000016DD                       3994 00287$:
                                   3995 ;E:\Dropbox\FAUSTO\SVILUPPI\MSX\CODE\C\MSXgl\projects\soccerlgSCC/soccerlg_s5_b3.c:698: if(g_Players[i].TeamId==TEAM_1) g_Players[i].Direction=DIRECTION_UP;
    000016DD DD 7E FE         [19] 3996 	ld	a, -2 (ix)
    000016E0 B7               [ 4] 3997 	or	a, a
    000016E1 28 06            [12] 3998 	jr	Z, 00284$
    000016E3 3E 01            [ 7] 3999 	ld	a, #0x01
    000016E5 12               [ 7] 4000 	ld	(de), a
    000016E6 C3rECr16         [10] 4001 	jp	00288$
    000016E9                       4002 00284$:
                                   4003 ;E:\Dropbox\FAUSTO\SVILUPPI\MSX\CODE\C\MSXgl\projects\soccerlgSCC/soccerlg_s5_b3.c:699: else g_Players[i].Direction=DIRECTION_DOWN;
    000016E9 3E 05            [ 7] 4004 	ld	a, #0x05
    000016EB 12               [ 7] 4005 	ld	(de), a
    000016EC                       4006 00288$:
                                   4007 ;E:\Dropbox\FAUSTO\SVILUPPI\MSX\CODE\C\MSXgl\projects\soccerlgSCC/soccerlg_s5_b3.c:701: CallFnc_VOID_P1(5,PutPlayerSprite,i);
    000016EC DD 7E FF         [19] 4008 	ld	a, -1 (ix)
    000016EF F5               [11] 4009 	push	af
    000016F0 33               [ 6] 4010 	inc	sp
    000016F1 11r37r17         [10] 4011 	ld	de, #_PutPlayerSprite
    000016F4 3E 05            [ 7] 4012 	ld	a, #0x05
    000016F6 CDr00r00         [17] 4013 	call	_CallFnc_VOID_P1
    000016F9                       4014 00297$:
                                   4015 ;E:\Dropbox\FAUSTO\SVILUPPI\MSX\CODE\C\MSXgl\projects\soccerlgSCC/soccerlg_s5_b3.c:487: for(u8 i=0;i<15;i++){
    000016F9 DD 34 FF         [23] 4016 	inc	-1 (ix)
    000016FC C3rE3r0C         [10] 4017 	jp	00306$
    000016FF                       4018 00298$:
                                   4019 ;E:\Dropbox\FAUSTO\SVILUPPI\MSX\CODE\C\MSXgl\projects\soccerlgSCC/soccerlg_s5_b3.c:708: if(g_MatchStatus==MATCH_BEFORE_KICK_OFF && allPlayersInPosition && g_FieldScrollingActionInProgress==NO_VALUE){
    000016FF 3Ar00r00         [13] 4020 	ld	a, (_g_MatchStatus+0)
    00001702 3D               [ 4] 4021 	dec	a
    00001703 20 2D            [12] 4022 	jr	NZ, 00307$
    00001705 DD 7E EB         [19] 4023 	ld	a, -21 (ix)
    00001708 B7               [ 4] 4024 	or	a, a
    00001709 28 27            [12] 4025 	jr	Z, 00307$
    0000170B 3Ar00r00         [13] 4026 	ld	a, (_g_FieldScrollingActionInProgress+0)
    0000170E 3C               [ 4] 4027 	inc	a
    0000170F 20 21            [12] 4028 	jr	NZ, 00307$
                                   4029 ;E:\Dropbox\FAUSTO\SVILUPPI\MSX\CODE\C\MSXgl\projects\soccerlgSCC/soccerlg_s5_b3.c:710: g_Ball.Size=1;
    00001711 21r04r00         [10] 4030 	ld	hl, #(_g_Ball + 4)
    00001714 36 01            [10] 4031 	ld	(hl), #0x01
                                   4032 ;E:\Dropbox\FAUSTO\SVILUPPI\MSX\CODE\C\MSXgl\projects\soccerlgSCC/soccerlg_s5_b3.c:711: VGM_Stop();
    00001716 CDr00r00         [17] 4033 	call	_VGM_Stop
                                   4034 ;E:\Dropbox\FAUSTO\SVILUPPI\MSX\CODE\C\MSXgl\projects\soccerlgSCC/soccerlg_s5_b3.c:712: g_FieldScrollSpeed=FIELD_SCROLL_GAME_SPEED;
    00001719 21r00r00         [10] 4035 	ld	hl, #_g_FieldScrollSpeed
    0000171C 36 05            [10] 4036 	ld	(hl), #0x05
                                   4037 ;E:\Dropbox\FAUSTO\SVILUPPI\MSX\CODE\C\MSXgl\projects\soccerlgSCC/soccerlg_s5_b3.c:713: g_MatchStatus=MATCH_KICK_OFF;
    0000171E 21r00r00         [10] 4038 	ld	hl, #_g_MatchStatus
    00001721 36 07            [10] 4039 	ld	(hl), #0x07
                                   4040 ;E:\Dropbox\FAUSTO\SVILUPPI\MSX\CODE\C\MSXgl\projects\soccerlgSCC/soccerlg_s5_b3.c:715: g_Timer=0;
    00001723 21r00r00         [10] 4041 	ld	hl, #_g_Timer
    00001726 36 00            [10] 4042 	ld	(hl), #0x00
                                   4043 ;E:\Dropbox\FAUSTO\SVILUPPI\MSX\CODE\C\MSXgl\projects\soccerlgSCC/soccerlg_s5_b3.c:716: g_TimerActive=TRUE;
    00001728 21r00r00         [10] 4044 	ld	hl, #_g_TimerActive
    0000172B 36 01            [10] 4045 	ld	(hl), #0x01
                                   4046 ;E:\Dropbox\FAUSTO\SVILUPPI\MSX\CODE\C\MSXgl\projects\soccerlgSCC/soccerlg_s5_b3.c:717: g_GoalScorerId = NO_VALUE; 
    0000172D 21r00r00         [10] 4047 	ld	hl, #_g_GoalScorerId
    00001730 36 FF            [10] 4048 	ld	(hl), #0xff
    00001732                       4049 00307$:
                                   4050 ;E:\Dropbox\FAUSTO\SVILUPPI\MSX\CODE\C\MSXgl\projects\soccerlgSCC/soccerlg_s5_b3.c:721: }
    00001732 DD F9            [10] 4051 	ld	sp, ix
    00001734 DD E1            [14] 4052 	pop	ix
    00001736 C9               [10] 4053 	ret
                                   4054 ;E:\Dropbox\FAUSTO\SVILUPPI\MSX\CODE\C\MSXgl\projects\soccerlgSCC/soccerlg_s5_b3.c:723: void PutPlayerSprite(u8 playerId){
                                   4055 ;	---------------------------------
                                   4056 ; Function PutPlayerSprite
                                   4057 ; ---------------------------------
    00001737                       4058 _PutPlayerSprite::
    00001737 DD E5            [15] 4059 	push	ix
    00001739 DD 21 00 00      [14] 4060 	ld	ix,#0
    0000173D DD 39            [15] 4061 	add	ix,sp
    0000173F 21 EE FF         [10] 4062 	ld	hl, #-18
    00001742 39               [11] 4063 	add	hl, sp
    00001743 F9               [ 6] 4064 	ld	sp, hl
    00001744 4F               [ 4] 4065 	ld	c, a
                                   4066 ;E:\Dropbox\FAUSTO\SVILUPPI\MSX\CODE\C\MSXgl\projects\soccerlgSCC/soccerlg_s5_b3.c:725: attr.D=0;
    00001745 21 03 00         [10] 4067 	ld	hl, #3
    00001748 39               [11] 4068 	add	hl, sp
    00001749 CB A6            [15] 4069 	res	4, (hl)
                                   4070 ;E:\Dropbox\FAUSTO\SVILUPPI\MSX\CODE\C\MSXgl\projects\soccerlgSCC/soccerlg_s5_b3.c:726: attr.SC=2;
    0000174B 21 03 00         [10] 4071 	ld	hl, #3
    0000174E 39               [11] 4072 	add	hl, sp
    0000174F 7E               [ 7] 4073 	ld	a, (hl)
    00001750 E6 3F            [ 7] 4074 	and	a, #0x3f
    00001752 F6 80            [ 7] 4075 	or	a, #0x80
    00001754 77               [ 7] 4076 	ld	(hl), a
                                   4077 ;E:\Dropbox\FAUSTO\SVILUPPI\MSX\CODE\C\MSXgl\projects\soccerlgSCC/soccerlg_s5_b3.c:727: u16 minY = (g_FieldCurrentYPosition > 32) ? (u16)(g_FieldCurrentYPosition - 32) : 0;
    00001755 3E 20            [ 7] 4078 	ld	a, #0x20
    00001757 FD 21r00r00      [14] 4079 	ld	iy, #_g_FieldCurrentYPosition
    0000175B FD BE 00         [19] 4080 	cp	a, 0 (iy)
    0000175E 3E 00            [ 7] 4081 	ld	a, #0x00
    00001760 FD 9E 01         [19] 4082 	sbc	a, 1 (iy)
    00001763 E2r68r17         [10] 4083 	jp	PO, 00282$
    00001766 EE 80            [ 7] 4084 	xor	a, #0x80
    00001768                       4085 00282$:
    00001768 F2r7Ar17         [10] 4086 	jp	P, 00145$
    0000176B 3Ar00r00         [13] 4087 	ld	a, (_g_FieldCurrentYPosition+0)
    0000176E C6 E0            [ 7] 4088 	add	a, #0xe0
    00001770 5F               [ 4] 4089 	ld	e, a
    00001771 3Ar01r00         [13] 4090 	ld	a, (_g_FieldCurrentYPosition+1)
    00001774 CE FF            [ 7] 4091 	adc	a, #0xff
    00001776 57               [ 4] 4092 	ld	d, a
    00001777 C3r7Dr17         [10] 4093 	jp	00146$
    0000177A                       4094 00145$:
    0000177A 11 00 00         [10] 4095 	ld	de, #0x0000
    0000177D                       4096 00146$:
    0000177D DD 73 FC         [19] 4097 	ld	-4 (ix), e
    00001780 DD 72 FD         [19] 4098 	ld	-3 (ix), d
                                   4099 ;E:\Dropbox\FAUSTO\SVILUPPI\MSX\CODE\C\MSXgl\projects\soccerlgSCC/soccerlg_s5_b3.c:728: u16 maxY = g_FieldCurrentYPosition + 244;
    00001783 2Ar00r00         [16] 4100 	ld	hl, (_g_FieldCurrentYPosition)
    00001786 11 F4 00         [10] 4101 	ld	de, #0x00f4
    00001789 19               [11] 4102 	add	hl, de
    0000178A DD 75 FE         [19] 4103 	ld	-2 (ix), l
    0000178D DD 74 FF         [19] 4104 	ld	-1 (ix), h
                                   4105 ;E:\Dropbox\FAUSTO\SVILUPPI\MSX\CODE\C\MSXgl\projects\soccerlgSCC/soccerlg_s5_b3.c:730: attr.Y = g_Players[playerId].Y-g_FieldCurrentYPosition;
    00001790 11r00r00         [10] 4106 	ld	de, #_g_Players+0
    00001793 06 00            [ 7] 4107 	ld	b, #0x00
    00001795 69               [ 4] 4108 	ld	l, c
    00001796 60               [ 4] 4109 	ld	h, b
    00001797 29               [11] 4110 	add	hl, hl
    00001798 29               [11] 4111 	add	hl, hl
    00001799 09               [11] 4112 	add	hl, bc
    0000179A 29               [11] 4113 	add	hl, hl
    0000179B 29               [11] 4114 	add	hl, hl
    0000179C 09               [11] 4115 	add	hl, bc
    0000179D 19               [11] 4116 	add	hl, de
    0000179E EB               [ 4] 4117 	ex	de, hl
    0000179F 1A               [ 7] 4118 	ld	a, (de)
    000017A0 6F               [ 4] 4119 	ld	l, a
                                   4120 ;	spillPairReg hl
                                   4121 ;	spillPairReg hl
    000017A1 3Ar00r00         [13] 4122 	ld	a, (_g_FieldCurrentYPosition+0)
    000017A4 47               [ 4] 4123 	ld	b, a
    000017A5 7D               [ 4] 4124 	ld	a, l
    000017A6 90               [ 4] 4125 	sub	a, b
    000017A7 DD 77 EE         [19] 4126 	ld	-18 (ix), a
                                   4127 ;E:\Dropbox\FAUSTO\SVILUPPI\MSX\CODE\C\MSXgl\projects\soccerlgSCC/soccerlg_s5_b3.c:731: if(g_Players[playerId].TeamId==TEAM_2){
    000017AA 21 09 00         [10] 4128 	ld	hl, #0x0009
    000017AD 19               [11] 4129 	add	hl, de
    000017AE DD 75 F2         [19] 4130 	ld	-14 (ix), l
    000017B1 DD 74 F3         [19] 4131 	ld	-13 (ix), h
    000017B4 7E               [ 7] 4132 	ld	a, (hl)
    000017B5 D6 02            [ 7] 4133 	sub	a, #0x02
    000017B7 20 08            [12] 4134 	jr	NZ, 00102$
                                   4135 ;E:\Dropbox\FAUSTO\SVILUPPI\MSX\CODE\C\MSXgl\projects\soccerlgSCC/soccerlg_s5_b3.c:732: attr.SC=3;
    000017B9 21 03 00         [10] 4136 	ld	hl, #3
    000017BC 39               [11] 4137 	add	hl, sp
    000017BD 7E               [ 7] 4138 	ld	a, (hl)
    000017BE F6 C0            [ 7] 4139 	or	a, #0xc0
    000017C0 77               [ 7] 4140 	ld	(hl), a
    000017C1                       4141 00102$:
                                   4142 ;E:\Dropbox\FAUSTO\SVILUPPI\MSX\CODE\C\MSXgl\projects\soccerlgSCC/soccerlg_s5_b3.c:735: if(g_Players[playerId].TeamId==REFEREE){
    000017C1 DD 6E F2         [19] 4143 	ld	l, -14 (ix)
    000017C4 DD 66 F3         [19] 4144 	ld	h, -13 (ix)
    000017C7 7E               [ 7] 4145 	ld	a, (hl)
    000017C8 D6 0E            [ 7] 4146 	sub	a, #0x0e
    000017CA 20 0A            [12] 4147 	jr	NZ, 00104$
                                   4148 ;E:\Dropbox\FAUSTO\SVILUPPI\MSX\CODE\C\MSXgl\projects\soccerlgSCC/soccerlg_s5_b3.c:736: attr.SC=1;
    000017CC 21 03 00         [10] 4149 	ld	hl, #3
    000017CF 39               [11] 4150 	add	hl, sp
    000017D0 7E               [ 7] 4151 	ld	a, (hl)
    000017D1 E6 3F            [ 7] 4152 	and	a, #0x3f
    000017D3 F6 40            [ 7] 4153 	or	a, #0x40
    000017D5 77               [ 7] 4154 	ld	(hl), a
    000017D6                       4155 00104$:
                                   4156 ;E:\Dropbox\FAUSTO\SVILUPPI\MSX\CODE\C\MSXgl\projects\soccerlgSCC/soccerlg_s5_b3.c:739: if(g_Players[playerId].Y>maxY){
    000017D6 6B               [ 4] 4157 	ld	l, e
    000017D7 62               [ 4] 4158 	ld	h, d
    000017D8 46               [ 7] 4159 	ld	b, (hl)
    000017D9 23               [ 6] 4160 	inc	hl
    000017DA 6E               [ 7] 4161 	ld	l, (hl)
                                   4162 ;	spillPairReg hl
    000017DB DD 7E FE         [19] 4163 	ld	a, -2 (ix)
    000017DE 90               [ 4] 4164 	sub	a, b
    000017DF DD 7E FF         [19] 4165 	ld	a, -1 (ix)
    000017E2 9D               [ 4] 4166 	sbc	a, l
    000017E3 30 06            [12] 4167 	jr	NC, 00106$
                                   4168 ;E:\Dropbox\FAUSTO\SVILUPPI\MSX\CODE\C\MSXgl\projects\soccerlgSCC/soccerlg_s5_b3.c:740: attr.D=1;
    000017E5 21 03 00         [10] 4169 	ld	hl, #3
    000017E8 39               [11] 4170 	add	hl, sp
    000017E9 CB E6            [15] 4171 	set	4, (hl)
    000017EB                       4172 00106$:
                                   4173 ;E:\Dropbox\FAUSTO\SVILUPPI\MSX\CODE\C\MSXgl\projects\soccerlgSCC/soccerlg_s5_b3.c:742: if(g_Players[playerId].Y<minY){
    000017EB 6B               [ 4] 4174 	ld	l, e
    000017EC 62               [ 4] 4175 	ld	h, d
    000017ED 46               [ 7] 4176 	ld	b, (hl)
    000017EE 23               [ 6] 4177 	inc	hl
    000017EF 6E               [ 7] 4178 	ld	l, (hl)
                                   4179 ;	spillPairReg hl
    000017F0 78               [ 4] 4180 	ld	a, b
    000017F1 DD 96 FC         [19] 4181 	sub	a, -4 (ix)
    000017F4 7D               [ 4] 4182 	ld	a, l
    000017F5 DD 9E FD         [19] 4183 	sbc	a, -3 (ix)
    000017F8 30 06            [12] 4184 	jr	NC, 00108$
                                   4185 ;E:\Dropbox\FAUSTO\SVILUPPI\MSX\CODE\C\MSXgl\projects\soccerlgSCC/soccerlg_s5_b3.c:743: attr.D=1;
    000017FA 21 03 00         [10] 4186 	ld	hl, #3
    000017FD 39               [11] 4187 	add	hl, sp
    000017FE CB E6            [15] 4188 	set	4, (hl)
    00001800                       4189 00108$:
                                   4190 ;E:\Dropbox\FAUSTO\SVILUPPI\MSX\CODE\C\MSXgl\projects\soccerlgSCC/soccerlg_s5_b3.c:746: if(g_Players[playerId].Role!=PLAYER_ROLE_GOALKEEPER){
    00001800 21 0D 00         [10] 4191 	ld	hl, #0x000d
    00001803 19               [11] 4192 	add	hl, de
    00001804 DD 75 F4         [19] 4193 	ld	-12 (ix), l
    00001807 DD 74 F5         [19] 4194 	ld	-11 (ix), h
                                   4195 ;E:\Dropbox\FAUSTO\SVILUPPI\MSX\CODE\C\MSXgl\projects\soccerlgSCC/soccerlg_s5_b3.c:745: if(g_MatchStatus!=MATCH_NOT_STARTED && g_MatchStatus!=MATCH_KICK_OFF){
    0000180A 3Ar00r00         [13] 4196 	ld	a, (_g_MatchStatus+0)
    0000180D B7               [ 4] 4197 	or	a, a
    0000180E 28 20            [12] 4198 	jr	Z, 00112$
    00001810 3Ar00r00         [13] 4199 	ld	a, (_g_MatchStatus+0)
    00001813 D6 07            [ 7] 4200 	sub	a, #0x07
    00001815 28 19            [12] 4201 	jr	Z, 00112$
                                   4202 ;E:\Dropbox\FAUSTO\SVILUPPI\MSX\CODE\C\MSXgl\projects\soccerlgSCC/soccerlg_s5_b3.c:746: if(g_Players[playerId].Role!=PLAYER_ROLE_GOALKEEPER){
    00001817 DD 6E F4         [19] 4203 	ld	l, -12 (ix)
    0000181A DD 66 F5         [19] 4204 	ld	h, -11 (ix)
    0000181D 7E               [ 7] 4205 	ld	a, (hl)
    0000181E B7               [ 4] 4206 	or	a, a
    0000181F 28 0F            [12] 4207 	jr	Z, 00112$
                                   4208 ;E:\Dropbox\FAUSTO\SVILUPPI\MSX\CODE\C\MSXgl\projects\soccerlgSCC/soccerlg_s5_b3.c:747: CallFnc_VOID_P1(5,UpdatePlayerPatternByDirection,playerId);
    00001821 C5               [11] 4209 	push	bc
    00001822 D5               [11] 4210 	push	de
    00001823 79               [ 4] 4211 	ld	a, c
    00001824 F5               [11] 4212 	push	af
    00001825 33               [ 6] 4213 	inc	sp
    00001826 11r03r1A         [10] 4214 	ld	de, #_UpdatePlayerPatternByDirection
    00001829 3E 05            [ 7] 4215 	ld	a, #0x05
    0000182B CDr00r00         [17] 4216 	call	_CallFnc_VOID_P1
    0000182E D1               [10] 4217 	pop	de
    0000182F C1               [10] 4218 	pop	bc
    00001830                       4219 00112$:
                                   4220 ;E:\Dropbox\FAUSTO\SVILUPPI\MSX\CODE\C\MSXgl\projects\soccerlgSCC/soccerlg_s5_b3.c:750: if(g_Players[playerId].Role==PLAYER_ROLE_GOALKEEPER){
    00001830 DD 6E F4         [19] 4221 	ld	l, -12 (ix)
    00001833 DD 66 F5         [19] 4222 	ld	h, -11 (ix)
    00001836 46               [ 7] 4223 	ld	b, (hl)
                                   4224 ;E:\Dropbox\FAUSTO\SVILUPPI\MSX\CODE\C\MSXgl\projects\soccerlgSCC/soccerlg_s5_b3.c:758: if(g_Players[playerId].OldX!=g_Players[playerId].X || g_Players[playerId].OldY!=g_Players[playerId].Y){
    00001837 21 02 00         [10] 4225 	ld	hl, #0x0002
    0000183A 19               [11] 4226 	add	hl, de
    0000183B DD 75 F6         [19] 4227 	ld	-10 (ix), l
    0000183E DD 74 F7         [19] 4228 	ld	-9 (ix), h
                                   4229 ;E:\Dropbox\FAUSTO\SVILUPPI\MSX\CODE\C\MSXgl\projects\soccerlgSCC/soccerlg_s5_b3.c:760: g_Players[playerId].PatternId = (team == TEAM_1) ? PLAYER_POSE_GK_H_MOVE_BACK_1 : PLAYER_POSE_GK_H_MOVE_FRONT_1;
    00001841 21 08 00         [10] 4230 	ld	hl, #0x0008
    00001844 19               [11] 4231 	add	hl, de
    00001845 DD 75 F8         [19] 4232 	ld	-8 (ix), l
    00001848 DD 74 F9         [19] 4233 	ld	-7 (ix), h
                                   4234 ;E:\Dropbox\FAUSTO\SVILUPPI\MSX\CODE\C\MSXgl\projects\soccerlgSCC/soccerlg_s5_b3.c:750: if(g_Players[playerId].Role==PLAYER_ROLE_GOALKEEPER){
    0000184B 78               [ 4] 4235 	ld	a, b
    0000184C B7               [ 4] 4236 	or	a, a
    0000184D C2r51r19         [10] 4237 	jp	NZ, 00125$
                                   4238 ;E:\Dropbox\FAUSTO\SVILUPPI\MSX\CODE\C\MSXgl\projects\soccerlgSCC/soccerlg_s5_b3.c:751: attr.SC=0;
    00001850 21 03 00         [10] 4239 	ld	hl, #3
    00001853 39               [11] 4240 	add	hl, sp
    00001854 7E               [ 7] 4241 	ld	a, (hl)
    00001855 E6 3F            [ 7] 4242 	and	a, #0x3f
    00001857 77               [ 7] 4243 	ld	(hl), a
                                   4244 ;E:\Dropbox\FAUSTO\SVILUPPI\MSX\CODE\C\MSXgl\projects\soccerlgSCC/soccerlg_s5_b3.c:754: if (g_MatchStatus == MATCH_IN_ACTION || g_MatchStatus == MATCH_BALL_ON_GOALKEEPER) {
    00001858 3Ar00r00         [13] 4245 	ld	a,(_g_MatchStatus+0)
    0000185B FE 0C            [ 7] 4246 	cp	a,#0x0c
    0000185D 28 05            [12] 4247 	jr	Z, 00120$
    0000185F D6 0D            [ 7] 4248 	sub	a, #0x0d
    00001861 C2r44r19         [10] 4249 	jp	NZ,00121$
    00001864                       4250 00120$:
                                   4251 ;E:\Dropbox\FAUSTO\SVILUPPI\MSX\CODE\C\MSXgl\projects\soccerlgSCC/soccerlg_s5_b3.c:755: g_Players[playerId].Status=PLAYER_STATUS_POSITIONED;
    00001864 21 12 00         [10] 4252 	ld	hl, #0x0012
    00001867 19               [11] 4253 	add	hl, de
    00001868 36 04            [10] 4254 	ld	(hl), #0x04
    0000186A 23               [ 6] 4255 	inc	hl
    0000186B 36 00            [10] 4256 	ld	(hl), #0x00
                                   4257 ;E:\Dropbox\FAUSTO\SVILUPPI\MSX\CODE\C\MSXgl\projects\soccerlgSCC/soccerlg_s5_b3.c:756: u8 team = g_Players[playerId].TeamId;
    0000186D DD 6E F2         [19] 4258 	ld	l, -14 (ix)
    00001870 DD 66 F3         [19] 4259 	ld	h, -13 (ix)
    00001873 46               [ 7] 4260 	ld	b, (hl)
                                   4261 ;E:\Dropbox\FAUSTO\SVILUPPI\MSX\CODE\C\MSXgl\projects\soccerlgSCC/soccerlg_s5_b3.c:758: if(g_Players[playerId].OldX!=g_Players[playerId].X || g_Players[playerId].OldY!=g_Players[playerId].Y){
    00001874 21 04 00         [10] 4262 	ld	hl, #0x0004
    00001877 19               [11] 4263 	add	hl, de
    00001878 DD 75 FA         [19] 4264 	ld	-6 (ix), l
    0000187B DD 74 FB         [19] 4265 	ld	-5 (ix), h
    0000187E 7E               [ 7] 4266 	ld	a, (hl)
    0000187F DD 77 FE         [19] 4267 	ld	-2 (ix), a
    00001882 23               [ 6] 4268 	inc	hl
    00001883 7E               [ 7] 4269 	ld	a, (hl)
    00001884 DD 77 FF         [19] 4270 	ld	-1 (ix), a
    00001887 DD 6E F6         [19] 4271 	ld	l, -10 (ix)
    0000188A DD 66 F7         [19] 4272 	ld	h, -9 (ix)
    0000188D 7E               [ 7] 4273 	ld	a, (hl)
    0000188E 23               [ 6] 4274 	inc	hl
    0000188F 66               [ 7] 4275 	ld	h, (hl)
                                   4276 ;	spillPairReg hl
    00001890 6F               [ 4] 4277 	ld	l, a
                                   4278 ;	spillPairReg hl
                                   4279 ;	spillPairReg hl
    00001891 7B               [ 4] 4280 	ld	a, e
    00001892 C6 06            [ 7] 4281 	add	a, #0x06
    00001894 DD 77 FC         [19] 4282 	ld	-4 (ix), a
    00001897 7A               [ 4] 4283 	ld	a, d
    00001898 CE 00            [ 7] 4284 	adc	a, #0x00
    0000189A DD 77 FD         [19] 4285 	ld	-3 (ix), a
    0000189D 7D               [ 4] 4286 	ld	a, l
    0000189E DD 96 FE         [19] 4287 	sub	a, -2 (ix)
    000018A1 20 26            [12] 4288 	jr	NZ, 00117$
    000018A3 7C               [ 4] 4289 	ld	a, h
    000018A4 DD 96 FF         [19] 4290 	sub	a, -1 (ix)
    000018A7 20 20            [12] 4291 	jr	NZ, 00117$
    000018A9 DD 6E FC         [19] 4292 	ld	l, -4 (ix)
    000018AC DD 66 FD         [19] 4293 	ld	h, -3 (ix)
    000018AF 7E               [ 7] 4294 	ld	a, (hl)
    000018B0 DD 77 FE         [19] 4295 	ld	-2 (ix), a
    000018B3 23               [ 6] 4296 	inc	hl
    000018B4 7E               [ 7] 4297 	ld	a, (hl)
    000018B5 DD 77 FF         [19] 4298 	ld	-1 (ix), a
    000018B8 6B               [ 4] 4299 	ld	l, e
    000018B9 62               [ 4] 4300 	ld	h, d
    000018BA 7E               [ 7] 4301 	ld	a, (hl)
    000018BB 23               [ 6] 4302 	inc	hl
    000018BC 66               [ 7] 4303 	ld	h, (hl)
                                   4304 ;	spillPairReg hl
                                   4305 ;	spillPairReg hl
                                   4306 ;	spillPairReg hl
    000018BD DD 96 FE         [19] 4307 	sub	a, -2 (ix)
    000018C0 20 07            [12] 4308 	jr	NZ, 00293$
    000018C2 7C               [ 4] 4309 	ld	a, h
    000018C3 DD 96 FF         [19] 4310 	sub	a, -1 (ix)
    000018C6 CAr51r19         [10] 4311 	jp	Z,00125$
    000018C9                       4312 00293$:
    000018C9                       4313 00117$:
                                   4314 ;E:\Dropbox\FAUSTO\SVILUPPI\MSX\CODE\C\MSXgl\projects\soccerlgSCC/soccerlg_s5_b3.c:759: if(g_Players[playerId].LastPose==0){
    000018C9 21 0C 00         [10] 4315 	ld	hl, #0x000c
    000018CC 19               [11] 4316 	add	hl, de
    000018CD DD 75 FE         [19] 4317 	ld	-2 (ix), l
    000018D0 DD 74 FF         [19] 4318 	ld	-1 (ix), h
    000018D3 6E               [ 7] 4319 	ld	l, (hl)
                                   4320 ;	spillPairReg hl
                                   4321 ;E:\Dropbox\FAUSTO\SVILUPPI\MSX\CODE\C\MSXgl\projects\soccerlgSCC/soccerlg_s5_b3.c:760: g_Players[playerId].PatternId = (team == TEAM_1) ? PLAYER_POSE_GK_H_MOVE_BACK_1 : PLAYER_POSE_GK_H_MOVE_FRONT_1;
    000018D4 05               [ 4] 4322 	dec	b
    000018D5 3E 01            [ 7] 4323 	ld	a, #0x01
    000018D7 28 01            [12] 4324 	jr	Z, 00295$
    000018D9 AF               [ 4] 4325 	xor	a, a
    000018DA                       4326 00295$:
    000018DA 47               [ 4] 4327 	ld	b, a
                                   4328 ;E:\Dropbox\FAUSTO\SVILUPPI\MSX\CODE\C\MSXgl\projects\soccerlgSCC/soccerlg_s5_b3.c:759: if(g_Players[playerId].LastPose==0){
    000018DB 7D               [ 4] 4329 	ld	a, l
                                   4330 ;E:\Dropbox\FAUSTO\SVILUPPI\MSX\CODE\C\MSXgl\projects\soccerlgSCC/soccerlg_s5_b3.c:760: g_Players[playerId].PatternId = (team == TEAM_1) ? PLAYER_POSE_GK_H_MOVE_BACK_1 : PLAYER_POSE_GK_H_MOVE_FRONT_1;
    000018DC B7               [ 4] 4331 	or	a,a
    000018DD 20 19            [12] 4332 	jr	NZ, 00115$
    000018DF B0               [ 4] 4333 	or	a,b
    000018E0 3E A4            [ 7] 4334 	ld	a, #0xa4
    000018E2 20 02            [12] 4335 	jr	NZ, 00148$
    000018E4 3E 2B            [ 7] 4336 	ld	a, #0x2b
    000018E6                       4337 00148$:
    000018E6 DD 6E F8         [19] 4338 	ld	l, -8 (ix)
    000018E9 DD 66 F9         [19] 4339 	ld	h, -7 (ix)
    000018EC 77               [ 7] 4340 	ld	(hl), a
                                   4341 ;E:\Dropbox\FAUSTO\SVILUPPI\MSX\CODE\C\MSXgl\projects\soccerlgSCC/soccerlg_s5_b3.c:761: g_Players[playerId].LastPose=1;
    000018ED DD 6E FE         [19] 4342 	ld	l, -2 (ix)
    000018F0 DD 66 FF         [19] 4343 	ld	h, -1 (ix)
    000018F3 36 01            [10] 4344 	ld	(hl), #0x01
    000018F5 C3r15r19         [10] 4345 	jp	00116$
    000018F8                       4346 00115$:
                                   4347 ;E:\Dropbox\FAUSTO\SVILUPPI\MSX\CODE\C\MSXgl\projects\soccerlgSCC/soccerlg_s5_b3.c:764: g_Players[playerId].PatternId = (team == TEAM_1) ? PLAYER_POSE_GK_H_MOVE_BACK_2 : PLAYER_POSE_GK_H_MOVE_FRONT_2;
    000018F8 78               [ 4] 4348 	ld	a, b
    000018F9 B7               [ 4] 4349 	or	a, a
    000018FA 28 06            [12] 4350 	jr	Z, 00149$
    000018FC 21 A3 00         [10] 4351 	ld	hl, #0x00a3
    000018FF C3r05r19         [10] 4352 	jp	00150$
    00001902                       4353 00149$:
    00001902 21 2C 00         [10] 4354 	ld	hl, #0x002c
    00001905                       4355 00150$:
    00001905 7D               [ 4] 4356 	ld	a, l
    00001906 DD 6E F8         [19] 4357 	ld	l, -8 (ix)
    00001909 DD 66 F9         [19] 4358 	ld	h, -7 (ix)
    0000190C 77               [ 7] 4359 	ld	(hl), a
                                   4360 ;E:\Dropbox\FAUSTO\SVILUPPI\MSX\CODE\C\MSXgl\projects\soccerlgSCC/soccerlg_s5_b3.c:765: g_Players[playerId].LastPose=0;
    0000190D DD 6E FE         [19] 4361 	ld	l, -2 (ix)
    00001910 DD 66 FF         [19] 4362 	ld	h, -1 (ix)
    00001913 36 00            [10] 4363 	ld	(hl), #0x00
    00001915                       4364 00116$:
                                   4365 ;E:\Dropbox\FAUSTO\SVILUPPI\MSX\CODE\C\MSXgl\projects\soccerlgSCC/soccerlg_s5_b3.c:767: g_Players[playerId].OldX=g_Players[playerId].X;
    00001915 DD 6E F6         [19] 4366 	ld	l, -10 (ix)
    00001918 DD 66 F7         [19] 4367 	ld	h, -9 (ix)
    0000191B 7E               [ 7] 4368 	ld	a, (hl)
    0000191C DD 77 FE         [19] 4369 	ld	-2 (ix), a
    0000191F 23               [ 6] 4370 	inc	hl
    00001920 7E               [ 7] 4371 	ld	a, (hl)
    00001921 DD 77 FF         [19] 4372 	ld	-1 (ix), a
    00001924 DD 6E FA         [19] 4373 	ld	l, -6 (ix)
    00001927 DD 66 FB         [19] 4374 	ld	h, -5 (ix)
    0000192A DD 7E FE         [19] 4375 	ld	a, -2 (ix)
    0000192D 77               [ 7] 4376 	ld	(hl), a
    0000192E 23               [ 6] 4377 	inc	hl
    0000192F DD 7E FF         [19] 4378 	ld	a, -1 (ix)
    00001932 77               [ 7] 4379 	ld	(hl), a
                                   4380 ;E:\Dropbox\FAUSTO\SVILUPPI\MSX\CODE\C\MSXgl\projects\soccerlgSCC/soccerlg_s5_b3.c:768: g_Players[playerId].OldY=g_Players[playerId].Y;	
    00001933 6B               [ 4] 4381 	ld	l, e
    00001934 62               [ 4] 4382 	ld	h, d
    00001935 46               [ 7] 4383 	ld	b, (hl)
    00001936 23               [ 6] 4384 	inc	hl
    00001937 5E               [ 7] 4385 	ld	e, (hl)
    00001938 DD 6E FC         [19] 4386 	ld	l, -4 (ix)
    0000193B DD 66 FD         [19] 4387 	ld	h, -3 (ix)
    0000193E 70               [ 7] 4388 	ld	(hl), b
    0000193F 23               [ 6] 4389 	inc	hl
    00001940 73               [ 7] 4390 	ld	(hl), e
    00001941 C3r51r19         [10] 4391 	jp	00125$
    00001944                       4392 00121$:
                                   4393 ;E:\Dropbox\FAUSTO\SVILUPPI\MSX\CODE\C\MSXgl\projects\soccerlgSCC/soccerlg_s5_b3.c:773: CallFnc_VOID_P1(5,UpdatePlayerPatternByDirection,playerId);
    00001944 C5               [11] 4394 	push	bc
    00001945 79               [ 4] 4395 	ld	a, c
    00001946 F5               [11] 4396 	push	af
    00001947 33               [ 6] 4397 	inc	sp
    00001948 11r03r1A         [10] 4398 	ld	de, #_UpdatePlayerPatternByDirection
    0000194B 3E 05            [ 7] 4399 	ld	a, #0x05
    0000194D CDr00r00         [17] 4400 	call	_CallFnc_VOID_P1
    00001950 C1               [10] 4401 	pop	bc
    00001951                       4402 00125$:
                                   4403 ;E:\Dropbox\FAUSTO\SVILUPPI\MSX\CODE\C\MSXgl\projects\soccerlgSCC/soccerlg_s5_b3.c:776: attr.Pattern = g_Players[playerId].PatternId;
    00001951 21 01 00         [10] 4404 	ld	hl, #0+1
    00001954 39               [11] 4405 	add	hl, sp
    00001955 EB               [ 4] 4406 	ex	de, hl
    00001956 DD 6E F8         [19] 4407 	ld	l, -8 (ix)
    00001959 DD 66 F9         [19] 4408 	ld	h, -7 (ix)
    0000195C 7E               [ 7] 4409 	ld	a, (hl)
    0000195D 12               [ 7] 4410 	ld	(de), a
                                   4411 ;E:\Dropbox\FAUSTO\SVILUPPI\MSX\CODE\C\MSXgl\projects\soccerlgSCC/soccerlg_s5_b3.c:779: if(g_Players[playerId].TeamId != REFEREE && g_MatchStatus != MATCH_PENALTY_SHOOTOUT && g_MatchStatus != MATCH_PENALTY_SETUP && g_MatchStatus != MATCH_VICTORY_LAP)
    0000195E DD 6E F2         [19] 4412 	ld	l, -14 (ix)
    00001961 DD 66 F3         [19] 4413 	ld	h, -13 (ix)
    00001964 46               [ 7] 4414 	ld	b, (hl)
    00001965 78               [ 4] 4415 	ld	a, b
    00001966 D6 0E            [ 7] 4416 	sub	a, #0x0e
    00001968 28 51            [12] 4417 	jr	Z, 00137$
    0000196A 3Ar00r00         [13] 4418 	ld	a,(_g_MatchStatus+0)
    0000196D FE 11            [ 7] 4419 	cp	a,#0x11
    0000196F 28 4A            [12] 4420 	jr	Z, 00137$
    00001971 FE 12            [ 7] 4421 	cp	a,#0x12
    00001973 28 46            [12] 4422 	jr	Z, 00137$
    00001975 D6 10            [ 7] 4423 	sub	a, #0x10
    00001977 28 42            [12] 4424 	jr	Z, 00137$
                                   4425 ;E:\Dropbox\FAUSTO\SVILUPPI\MSX\CODE\C\MSXgl\projects\soccerlgSCC/soccerlg_s5_b3.c:781: bool isHumanTeam = (g_Players[playerId].TeamId == TEAM_1) || (g_GameWith2Players && g_Players[playerId].TeamId == TEAM_2);
    00001979 78               [ 4] 4426 	ld	a, b
    0000197A 3D               [ 4] 4427 	dec	a
    0000197B 28 0F            [12] 4428 	jr	Z, 00152$
    0000197D 3Ar00r00         [13] 4429 	ld	a, (_g_GameWith2Players+0)
    00001980 B7               [ 4] 4430 	or	a, a
    00001981 28 05            [12] 4431 	jr	Z, 00151$
    00001983 78               [ 4] 4432 	ld	a, b
    00001984 D6 02            [ 7] 4433 	sub	a, #0x02
    00001986 28 04            [12] 4434 	jr	Z, 00152$
    00001988                       4435 00151$:
    00001988 AF               [ 4] 4436 	xor	a, a
    00001989 C3r8Er19         [10] 4437 	jp	00153$
    0000198C                       4438 00152$:
    0000198C 3E 01            [ 7] 4439 	ld	a, #0x01
    0000198E                       4440 00153$:
                                   4441 ;E:\Dropbox\FAUSTO\SVILUPPI\MSX\CODE\C\MSXgl\projects\soccerlgSCC/soccerlg_s5_b3.c:783: if (isHumanTeam) {
    0000198E B7               [ 4] 4442 	or	a, a
    0000198F 28 2A            [12] 4443 	jr	Z, 00137$
                                   4444 ;E:\Dropbox\FAUSTO\SVILUPPI\MSX\CODE\C\MSXgl\projects\soccerlgSCC/soccerlg_s5_b3.c:785: if (g_Players[playerId].Role != PLAYER_ROLE_GOALKEEPER) {
    00001991 DD 6E F4         [19] 4445 	ld	l, -12 (ix)
    00001994 DD 66 F5         [19] 4446 	ld	h, -11 (ix)
    00001997 7E               [ 7] 4447 	ld	a, (hl)
    00001998 B7               [ 4] 4448 	or	a, a
    00001999 28 16            [12] 4449 	jr	Z, 00131$
                                   4450 ;E:\Dropbox\FAUSTO\SVILUPPI\MSX\CODE\C\MSXgl\projects\soccerlgSCC/soccerlg_s5_b3.c:786: if (playerId==g_Team1ActivePlayer || (g_GameWith2Players && playerId==g_Team2ActivePlayer)) {
    0000199B 3Ar00r00         [13] 4451 	ld	a, (_g_Team1ActivePlayer+0)
    0000199E 91               [ 4] 4452 	sub	a, c
    0000199F 28 0C            [12] 4453 	jr	Z, 00126$
    000019A1 3Ar00r00         [13] 4454 	ld	a, (_g_GameWith2Players+0)
    000019A4 B7               [ 4] 4455 	or	a, a
    000019A5 28 0A            [12] 4456 	jr	Z, 00131$
    000019A7 3Ar00r00         [13] 4457 	ld	a, (_g_Team2ActivePlayer+0)
    000019AA 91               [ 4] 4458 	sub	a, c
    000019AB 20 04            [12] 4459 	jr	NZ, 00131$
    000019AD                       4460 00126$:
                                   4461 ;E:\Dropbox\FAUSTO\SVILUPPI\MSX\CODE\C\MSXgl\projects\soccerlgSCC/soccerlg_s5_b3.c:788: attr.Pattern=(u8)(attr.Pattern+64);
    000019AD 1A               [ 7] 4462 	ld	a, (de)
    000019AE C6 40            [ 7] 4463 	add	a, #0x40
    000019B0 12               [ 7] 4464 	ld	(de), a
    000019B1                       4465 00131$:
                                   4466 ;E:\Dropbox\FAUSTO\SVILUPPI\MSX\CODE\C\MSXgl\projects\soccerlgSCC/soccerlg_s5_b3.c:793: if (playerId == g_PassTargetPlayer) {
    000019B1 3Ar00r00         [13] 4467 	ld	a, (_g_PassTargetPlayer+0)
    000019B4 91               [ 4] 4468 	sub	a, c
    000019B5 20 04            [12] 4469 	jr	NZ, 00137$
                                   4470 ;E:\Dropbox\FAUSTO\SVILUPPI\MSX\CODE\C\MSXgl\projects\soccerlgSCC/soccerlg_s5_b3.c:794: attr.Pattern=(u8)(attr.Pattern+64);
    000019B7 1A               [ 7] 4471 	ld	a, (de)
    000019B8 C6 40            [ 7] 4472 	add	a, #0x40
    000019BA 12               [ 7] 4473 	ld	(de), a
    000019BB                       4474 00137$:
                                   4475 ;E:\Dropbox\FAUSTO\SVILUPPI\MSX\CODE\C\MSXgl\projects\soccerlgSCC/soccerlg_s5_b3.c:800: attr.X = g_Players[playerId].X;
    000019BB DD 6E F6         [19] 4476 	ld	l, -10 (ix)
    000019BE DD 66 F7         [19] 4477 	ld	h, -9 (ix)
    000019C1 46               [ 7] 4478 	ld	b, (hl)
    000019C2 23               [ 6] 4479 	inc	hl
    000019C3 5E               [ 7] 4480 	ld	e, (hl)
    000019C4 21 02 00         [10] 4481 	ld	hl, #2
    000019C7 39               [11] 4482 	add	hl, sp
    000019C8 70               [ 7] 4483 	ld	(hl), b
    000019C9 23               [ 6] 4484 	inc	hl
    000019CA 7B               [ 4] 4485 	ld	a, e
    000019CB E6 03            [ 7] 4486 	and	a, #0x03
    000019CD C5               [11] 4487 	push	bc
    000019CE 4F               [ 4] 4488 	ld	c,a
    000019CF 7E               [ 7] 4489 	ld	a, (hl)
    000019D0 E6 FC            [ 7] 4490 	and	a, #0xfc
    000019D2 B1               [ 4] 4491 	or	a, c
    000019D3 C1               [10] 4492 	pop	bc
    000019D4 77               [ 7] 4493 	ld	(hl), a
                                   4494 ;E:\Dropbox\FAUSTO\SVILUPPI\MSX\CODE\C\MSXgl\projects\soccerlgSCC/soccerlg_s5_b3.c:801: attr.P = 1;
    000019D5 21 03 00         [10] 4495 	ld	hl, #3
    000019D8 39               [11] 4496 	add	hl, sp
    000019D9 CB EE            [15] 4497 	set	5, (hl)
                                   4498 ;E:\Dropbox\FAUSTO\SVILUPPI\MSX\CODE\C\MSXgl\projects\soccerlgSCC/soccerlg_s5_b3.c:802: V9_SetSpriteP1(playerId, &attr);
                                   4499 ;E:/Dropbox/FAUSTO/SVILUPPI/MSX/CODE/C/MSXgl/engine/src/v9990.h:781: inline void V9_SetSpriteP1(u8 id, const V9_Sprite* attr) { V9_WriteVRAM(V9_P1_SPAT + (id * 4), (const u8*)attr, 4); }
    000019DB 26 00            [ 7] 4500 	ld	h, #0x00
                                   4501 ;	spillPairReg hl
                                   4502 ;	spillPairReg hl
    000019DD 69               [ 4] 4503 	ld	l, c
    000019DE 29               [11] 4504 	add	hl, hl
    000019DF 29               [11] 4505 	add	hl, hl
    000019E0 7C               [ 4] 4506 	ld	a, h
    000019E1 07               [ 4] 4507 	rlca
    000019E2 9F               [ 4] 4508 	sbc	a, a
    000019E3 5F               [ 4] 4509 	ld	e, a
    000019E4 57               [ 4] 4510 	ld	d, a
    000019E5 7C               [ 4] 4511 	ld	a, h
    000019E6 C6 FE            [ 7] 4512 	add	a, #0xfe
    000019E8 67               [ 4] 4513 	ld	h, a
                                   4514 ;	spillPairReg hl
                                   4515 ;	spillPairReg hl
    000019E9 7B               [ 4] 4516 	ld	a, e
    000019EA CE 03            [ 7] 4517 	adc	a, #0x03
    000019EC 5F               [ 4] 4518 	ld	e, a
    000019ED 30 01            [12] 4519 	jr	NC, 00307$
    000019EF 14               [ 4] 4520 	inc	d
    000019F0                       4521 00307$:
                                   4522 ;E:/Dropbox/FAUSTO/SVILUPPI/MSX/CODE/C/MSXgl/engine/src/v9990.h:371: inline void V9_WriteVRAM(u32 addr, const u8* src, u16 count) { V9_SetWriteAddress(addr); V9_WriteVRAM_CurrentAddr(src, count); }
    000019F0 EB               [ 4] 4523 	ex	de, hl
    000019F1 CDr00r00         [17] 4524 	call	_V9_SetWriteAddress
    000019F4 11 04 00         [10] 4525 	ld	de, #0x0004
    000019F7 21 00 00         [10] 4526 	ld	hl, #0
    000019FA 39               [11] 4527 	add	hl, sp
    000019FB CDr00r00         [17] 4528 	call	_V9_WriteVRAM_CurrentAddr
                                   4529 ;E:\Dropbox\FAUSTO\SVILUPPI\MSX\CODE\C\MSXgl\projects\soccerlgSCC/soccerlg_s5_b3.c:802: V9_SetSpriteP1(playerId, &attr);
                                   4530 ;E:\Dropbox\FAUSTO\SVILUPPI\MSX\CODE\C\MSXgl\projects\soccerlgSCC/soccerlg_s5_b3.c:804: }
    000019FE DD F9            [10] 4531 	ld	sp, ix
    00001A00 DD E1            [14] 4532 	pop	ix
    00001A02 C9               [10] 4533 	ret
                                   4534 ;E:\Dropbox\FAUSTO\SVILUPPI\MSX\CODE\C\MSXgl\projects\soccerlgSCC/soccerlg_s5_b3.c:806: void UpdatePlayerPatternByDirection(u8 playerId){
                                   4535 ;	---------------------------------
                                   4536 ; Function UpdatePlayerPatternByDirection
                                   4537 ; ---------------------------------
    00001A03                       4538 _UpdatePlayerPatternByDirection::
    00001A03 DD E5            [15] 4539 	push	ix
    00001A05 DD 21 00 00      [14] 4540 	ld	ix,#0
    00001A09 DD 39            [15] 4541 	add	ix,sp
    00001A0B 21 FB FF         [10] 4542 	ld	hl, #-5
    00001A0E 39               [11] 4543 	add	hl, sp
    00001A0F F9               [ 6] 4544 	ld	sp, hl
    00001A10 DD 77 FF         [19] 4545 	ld	-1 (ix), a
                                   4546 ;E:\Dropbox\FAUSTO\SVILUPPI\MSX\CODE\C\MSXgl\projects\soccerlgSCC/soccerlg_s5_b3.c:807: if(g_Players[playerId].Status==PLAYER_STATUS_POSITIONED){
    00001A13 01r00r00         [10] 4547 	ld	bc, #_g_Players+0
    00001A16 DD 5E FF         [19] 4548 	ld	e, -1 (ix)
    00001A19 16 00            [ 7] 4549 	ld	d, #0x00
    00001A1B 6B               [ 4] 4550 	ld	l, e
    00001A1C 62               [ 4] 4551 	ld	h, d
    00001A1D 29               [11] 4552 	add	hl, hl
    00001A1E 29               [11] 4553 	add	hl, hl
    00001A1F 19               [11] 4554 	add	hl, de
    00001A20 29               [11] 4555 	add	hl, hl
    00001A21 29               [11] 4556 	add	hl, hl
    00001A22 19               [11] 4557 	add	hl, de
    00001A23 09               [11] 4558 	add	hl, bc
    00001A24 EB               [ 4] 4559 	ex	de, hl
    00001A25 4B               [ 4] 4560 	ld	c, e
    00001A26 42               [ 4] 4561 	ld	b, d
    00001A27 21 12 00         [10] 4562 	ld	hl, #18
    00001A2A 09               [11] 4563 	add	hl, bc
    00001A2B 4E               [ 7] 4564 	ld	c, (hl)
    00001A2C 23               [ 6] 4565 	inc	hl
    00001A2D 46               [ 7] 4566 	ld	b, (hl)
    00001A2E 79               [ 4] 4567 	ld	a, c
    00001A2F D6 04            [ 7] 4568 	sub	a, #0x04
    00001A31 B0               [ 4] 4569 	or	a, b
    00001A32 CArCBr1A         [10] 4570 	jp	Z,00122$
                                   4571 ;E:\Dropbox\FAUSTO\SVILUPPI\MSX\CODE\C\MSXgl\projects\soccerlgSCC/soccerlg_s5_b3.c:808: return;
    00001A35 C3r38r1A         [10] 4572 	jp	00102$
    00001A38                       4573 00102$:
                                   4574 ;E:\Dropbox\FAUSTO\SVILUPPI\MSX\CODE\C\MSXgl\projects\soccerlgSCC/soccerlg_s5_b3.c:812: if(g_Players[playerId].Direction!=g_Players[playerId].PreviousDirection){
    00001A38 21 0A 00         [10] 4575 	ld	hl, #0x000a
    00001A3B 19               [11] 4576 	add	hl, de
    00001A3C E3               [19] 4577 	ex	(sp), hl
    00001A3D E1               [10] 4578 	pop	hl
    00001A3E E5               [11] 4579 	push	hl
    00001A3F 4E               [ 7] 4580 	ld	c, (hl)
    00001A40 21 0B 00         [10] 4581 	ld	hl, #0x000b
    00001A43 19               [11] 4582 	add	hl, de
    00001A44 DD 75 FD         [19] 4583 	ld	-3 (ix), l
    00001A47 DD 74 FE         [19] 4584 	ld	-2 (ix), h
    00001A4A 46               [ 7] 4585 	ld	b, (hl)
                                   4586 ;E:\Dropbox\FAUSTO\SVILUPPI\MSX\CODE\C\MSXgl\projects\soccerlgSCC/soccerlg_s5_b3.c:813: if(g_Players[playerId].Direction==DIRECTION_NONE){
    00001A4B 79               [ 4] 4587 	ld	a,c
    00001A4C B8               [ 4] 4588 	cp	a,b
    00001A4D 28 31            [12] 4589 	jr	Z, 00112$
    00001A4F B7               [ 4] 4590 	or	a, a
    00001A50 20 1E            [12] 4591 	jr	NZ, 00104$
                                   4592 ;E:\Dropbox\FAUSTO\SVILUPPI\MSX\CODE\C\MSXgl\projects\soccerlgSCC/soccerlg_s5_b3.c:814: g_Players[playerId].PatternId=CallFnc_U8_P1(8,GetNoMovingPlayerPatternId,g_Players[playerId].PreviousDirection); 
    00001A52 21 08 00         [10] 4593 	ld	hl, #0x0008
    00001A55 19               [11] 4594 	add	hl, de
    00001A56 E5               [11] 4595 	push	hl
    00001A57 D5               [11] 4596 	push	de
    00001A58 C5               [11] 4597 	push	bc
    00001A59 33               [ 6] 4598 	inc	sp
    00001A5A 11r00r00         [10] 4599 	ld	de, #_GetNoMovingPlayerPatternId
    00001A5D 3E 08            [ 7] 4600 	ld	a, #0x08
    00001A5F CDr00r00         [17] 4601 	call	_CallFnc_U8_P1
    00001A62 D1               [10] 4602 	pop	de
    00001A63 E1               [10] 4603 	pop	hl
    00001A64 77               [ 7] 4604 	ld	(hl), a
                                   4605 ;E:\Dropbox\FAUSTO\SVILUPPI\MSX\CODE\C\MSXgl\projects\soccerlgSCC/soccerlg_s5_b3.c:815: g_Players[playerId].PreviousDirection=g_Players[playerId].Direction;
    00001A65 E1               [10] 4606 	pop	hl
    00001A66 E5               [11] 4607 	push	hl
    00001A67 7E               [ 7] 4608 	ld	a, (hl)
    00001A68 C1               [10] 4609 	pop	bc
    00001A69 E1               [10] 4610 	pop	hl
    00001A6A E5               [11] 4611 	push	hl
    00001A6B C5               [11] 4612 	push	bc
    00001A6C 77               [ 7] 4613 	ld	(hl), a
    00001A6D C3r92r1A         [10] 4614 	jp	00113$
    00001A70                       4615 00104$:
                                   4616 ;E:\Dropbox\FAUSTO\SVILUPPI\MSX\CODE\C\MSXgl\projects\soccerlgSCC/soccerlg_s5_b3.c:818: g_Players[playerId].PreviousDirection=g_Players[playerId].Direction;
    00001A70 DD 6E FD         [19] 4617 	ld	l, -3 (ix)
    00001A73 DD 66 FE         [19] 4618 	ld	h, -2 (ix)
    00001A76 71               [ 7] 4619 	ld	(hl), c
                                   4620 ;E:\Dropbox\FAUSTO\SVILUPPI\MSX\CODE\C\MSXgl\projects\soccerlgSCC/soccerlg_s5_b3.c:819: g_Players[playerId].LastPose=0;
    00001A77 21 0C 00         [10] 4621 	ld	hl, #0x000c
    00001A7A 19               [11] 4622 	add	hl, de
    00001A7B 36 00            [10] 4623 	ld	(hl), #0x00
    00001A7D C3r92r1A         [10] 4624 	jp	00113$
    00001A80                       4625 00112$:
                                   4626 ;E:\Dropbox\FAUSTO\SVILUPPI\MSX\CODE\C\MSXgl\projects\soccerlgSCC/soccerlg_s5_b3.c:825: if(g_Players[playerId].Direction!=DIRECTION_NONE){
    00001A80 79               [ 4] 4627 	ld	a, c
    00001A81 B7               [ 4] 4628 	or	a, a
    00001A82 28 0E            [12] 4629 	jr	Z, 00113$
                                   4630 ;E:\Dropbox\FAUSTO\SVILUPPI\MSX\CODE\C\MSXgl\projects\soccerlgSCC/soccerlg_s5_b3.c:826: if(g_Players[playerId].LastPose==1){
    00001A84 21 0C 00         [10] 4631 	ld	hl, #0x000c
    00001A87 19               [11] 4632 	add	hl, de
    00001A88 7E               [ 7] 4633 	ld	a, (hl)
                                   4634 ;E:\Dropbox\FAUSTO\SVILUPPI\MSX\CODE\C\MSXgl\projects\soccerlgSCC/soccerlg_s5_b3.c:827: g_Players[playerId].LastPose=0;
    00001A89 3D               [ 4] 4635 	dec	a
    00001A8A 20 04            [12] 4636 	jr	NZ, 00107$
    00001A8C 77               [ 7] 4637 	ld	(hl),a
    00001A8D C3r92r1A         [10] 4638 	jp	00113$
    00001A90                       4639 00107$:
                                   4640 ;E:\Dropbox\FAUSTO\SVILUPPI\MSX\CODE\C\MSXgl\projects\soccerlgSCC/soccerlg_s5_b3.c:830: g_Players[playerId].LastPose=1;
    00001A90 36 01            [10] 4641 	ld	(hl), #0x01
    00001A92                       4642 00113$:
                                   4643 ;E:\Dropbox\FAUSTO\SVILUPPI\MSX\CODE\C\MSXgl\projects\soccerlgSCC/soccerlg_s5_b3.c:836: if(g_Players[playerId].TeamId==REFEREE && g_MatchStatus==MATCH_BEFORE_KICK_OFF ){
    00001A92 4B               [ 4] 4644 	ld	c, e
    00001A93 42               [ 4] 4645 	ld	b, d
    00001A94 21 09 00         [10] 4646 	ld	hl, #9
    00001A97 09               [11] 4647 	add	hl, bc
    00001A98 7E               [ 7] 4648 	ld	a, (hl)
                                   4649 ;E:\Dropbox\FAUSTO\SVILUPPI\MSX\CODE\C\MSXgl\projects\soccerlgSCC/soccerlg_s5_b3.c:812: if(g_Players[playerId].Direction!=g_Players[playerId].PreviousDirection){
    00001A99 E1               [10] 4650 	pop	hl
    00001A9A E5               [11] 4651 	push	hl
    00001A9B 4E               [ 7] 4652 	ld	c, (hl)
                                   4653 ;E:\Dropbox\FAUSTO\SVILUPPI\MSX\CODE\C\MSXgl\projects\soccerlgSCC/soccerlg_s5_b3.c:836: if(g_Players[playerId].TeamId==REFEREE && g_MatchStatus==MATCH_BEFORE_KICK_OFF ){
    00001A9C D6 0E            [ 7] 4654 	sub	a, #0x0e
    00001A9E 20 1A            [12] 4655 	jr	NZ, 00119$
    00001AA0 3Ar00r00         [13] 4656 	ld	a, (_g_MatchStatus+0)
    00001AA3 3D               [ 4] 4657 	dec	a
    00001AA4 20 14            [12] 4658 	jr	NZ, 00119$
                                   4659 ;E:\Dropbox\FAUSTO\SVILUPPI\MSX\CODE\C\MSXgl\projects\soccerlgSCC/soccerlg_s5_b3.c:839: if(g_Players[playerId].Direction!=DIRECTION_NONE){
    00001AA6 79               [ 4] 4660 	ld	a, c
    00001AA7 B7               [ 4] 4661 	or	a, a
    00001AA8 28 21            [12] 4662 	jr	Z, 00122$
                                   4663 ;E:\Dropbox\FAUSTO\SVILUPPI\MSX\CODE\C\MSXgl\projects\soccerlgSCC/soccerlg_s5_b3.c:840: g_Players[playerId].PatternId=GetPatternIdByPoseAndDirection(playerId);
    00001AAA 21 08 00         [10] 4664 	ld	hl, #0x0008
    00001AAD 19               [11] 4665 	add	hl, de
    00001AAE E5               [11] 4666 	push	hl
    00001AAF DD 7E FF         [19] 4667 	ld	a, -1 (ix)
    00001AB2 CDrD0r1A         [17] 4668 	call	_GetPatternIdByPoseAndDirection
    00001AB5 D1               [10] 4669 	pop	de
    00001AB6 12               [ 7] 4670 	ld	(de), a
    00001AB7 C3rCBr1A         [10] 4671 	jp	00122$
    00001ABA                       4672 00119$:
                                   4673 ;E:\Dropbox\FAUSTO\SVILUPPI\MSX\CODE\C\MSXgl\projects\soccerlgSCC/soccerlg_s5_b3.c:844: if(g_Players[playerId].Direction!=DIRECTION_NONE){
    00001ABA 79               [ 4] 4674 	ld	a, c
    00001ABB B7               [ 4] 4675 	or	a, a
    00001ABC 28 0D            [12] 4676 	jr	Z, 00122$
                                   4677 ;E:\Dropbox\FAUSTO\SVILUPPI\MSX\CODE\C\MSXgl\projects\soccerlgSCC/soccerlg_s5_b3.c:845: g_Players[playerId].PatternId=GetPatternIdByPoseAndDirection(playerId);
    00001ABE 21 08 00         [10] 4678 	ld	hl, #0x0008
    00001AC1 19               [11] 4679 	add	hl, de
    00001AC2 E5               [11] 4680 	push	hl
    00001AC3 DD 7E FF         [19] 4681 	ld	a, -1 (ix)
    00001AC6 CDrD0r1A         [17] 4682 	call	_GetPatternIdByPoseAndDirection
    00001AC9 E1               [10] 4683 	pop	hl
    00001ACA 77               [ 7] 4684 	ld	(hl), a
    00001ACB                       4685 00122$:
                                   4686 ;E:\Dropbox\FAUSTO\SVILUPPI\MSX\CODE\C\MSXgl\projects\soccerlgSCC/soccerlg_s5_b3.c:848: }
    00001ACB DD F9            [10] 4687 	ld	sp, ix
    00001ACD DD E1            [14] 4688 	pop	ix
    00001ACF C9               [10] 4689 	ret
                                   4690 ;E:\Dropbox\FAUSTO\SVILUPPI\MSX\CODE\C\MSXgl\projects\soccerlgSCC/soccerlg_s5_b3.c:850: u8 GetPatternIdByPoseAndDirection(u8 playerId){
                                   4691 ;	---------------------------------
                                   4692 ; Function GetPatternIdByPoseAndDirection
                                   4693 ; ---------------------------------
    00001AD0                       4694 _GetPatternIdByPoseAndDirection::
    00001AD0 5F               [ 4] 4695 	ld	e, a
                                   4696 ;E:\Dropbox\FAUSTO\SVILUPPI\MSX\CODE\C\MSXgl\projects\soccerlgSCC/soccerlg_s5_b3.c:851: u8 pose = g_Players[playerId].LastPose;
    00001AD1 01r00r00         [10] 4697 	ld	bc, #_g_Players+0
    00001AD4 16 00            [ 7] 4698 	ld	d, #0x00
    00001AD6 6B               [ 4] 4699 	ld	l, e
    00001AD7 62               [ 4] 4700 	ld	h, d
    00001AD8 29               [11] 4701 	add	hl, hl
    00001AD9 29               [11] 4702 	add	hl, hl
    00001ADA 19               [11] 4703 	add	hl, de
    00001ADB 29               [11] 4704 	add	hl, hl
    00001ADC 29               [11] 4705 	add	hl, hl
    00001ADD 19               [11] 4706 	add	hl, de
    00001ADE 09               [11] 4707 	add	hl, bc
    00001ADF EB               [ 4] 4708 	ex	de, hl
    00001AE0 D5               [11] 4709 	push	de
    00001AE1 FD E1            [14] 4710 	pop	iy
    00001AE3 FD 4E 0C         [19] 4711 	ld	c, 12 (iy)
                                   4712 ;E:\Dropbox\FAUSTO\SVILUPPI\MSX\CODE\C\MSXgl\projects\soccerlgSCC/soccerlg_s5_b3.c:852: u8 dir = g_Players[playerId].Direction;
    00001AE6 21 0A 00         [10] 4713 	ld	hl, #10
    00001AE9 19               [11] 4714 	add	hl, de
    00001AEA 5E               [ 7] 4715 	ld	e, (hl)
                                   4716 ;E:\Dropbox\FAUSTO\SVILUPPI\MSX\CODE\C\MSXgl\projects\soccerlgSCC/soccerlg_s5_b3.c:855: if (dir > 8) dir = DIRECTION_NONE;
    00001AEB 3E 08            [ 7] 4717 	ld	a, #0x08
    00001AED 93               [ 4] 4718 	sub	a, e
    00001AEE 30 02            [12] 4719 	jr	NC, 00102$
    00001AF0 1E 00            [ 7] 4720 	ld	e, #0x00
    00001AF2                       4721 00102$:
                                   4722 ;E:\Dropbox\FAUSTO\SVILUPPI\MSX\CODE\C\MSXgl\projects\soccerlgSCC/soccerlg_s5_b3.c:857: if (dir == DIRECTION_NONE) {
    00001AF2 7B               [ 4] 4723 	ld	a, e
    00001AF3 B7               [ 4] 4724 	or	a, a
    00001AF4 20 0C            [12] 4725 	jr	NZ, 00104$
                                   4726 ;E:\Dropbox\FAUSTO\SVILUPPI\MSX\CODE\C\MSXgl\projects\soccerlgSCC/soccerlg_s5_b3.c:858: return CallFnc_U8_P1(8,GetNoMovingPlayerPatternId,dir); // Assuming logic for NONE inside
    00001AF6 7B               [ 4] 4727 	ld	a, e
    00001AF7 F5               [11] 4728 	push	af
    00001AF8 33               [ 6] 4729 	inc	sp
    00001AF9 11r00r00         [10] 4730 	ld	de, #_GetNoMovingPlayerPatternId
    00001AFC 3E 08            [ 7] 4731 	ld	a, #0x08
    00001AFE CDr00r00         [17] 4732 	call	_CallFnc_U8_P1
    00001B01 C9               [10] 4733 	ret
    00001B02                       4734 00104$:
                                   4735 ;E:\Dropbox\FAUSTO\SVILUPPI\MSX\CODE\C\MSXgl\projects\soccerlgSCC/soccerlg_s5_b3.c:876: return k_MovePats[dir * 2 + (pose ? 1 : 0)];
    00001B02 CB 23            [ 8] 4736 	sla	e
    00001B04 79               [ 4] 4737 	ld	a, c
    00001B05 B7               [ 4] 4738 	or	a, a
    00001B06 28 06            [12] 4739 	jr	Z, 00107$
    00001B08 21 01 00         [10] 4740 	ld	hl, #0x0001
    00001B0B C3r11r1B         [10] 4741 	jp	00108$
    00001B0E                       4742 00107$:
    00001B0E 21 00 00         [10] 4743 	ld	hl, #0x0000
    00001B11                       4744 00108$:
    00001B11 19               [11] 4745 	add	hl, de
    00001B12 7D               [ 4] 4746 	ld	a, l
    00001B13 07               [ 4] 4747 	rlca
    00001B14 9F               [ 4] 4748 	sbc	a, a
    00001B15 67               [ 4] 4749 	ld	h, a
                                   4750 ;	spillPairReg hl
                                   4751 ;	spillPairReg hl
    00001B16 11r1Cr1B         [10] 4752 	ld	de, #_GetPatternIdByPoseAndDirection_k_MovePats_65537_1400
    00001B19 19               [11] 4753 	add	hl, de
    00001B1A 7E               [ 7] 4754 	ld	a, (hl)
                                   4755 ;E:\Dropbox\FAUSTO\SVILUPPI\MSX\CODE\C\MSXgl\projects\soccerlgSCC/soccerlg_s5_b3.c:877: }
    00001B1B C9               [10] 4756 	ret
    00001B1C                       4757 _GetPatternIdByPoseAndDirection_k_MovePats_65537_1400:
    00001B1C 00                    4758 	.db #0x00	; 0
    00001B1D 00                    4759 	.db #0x00	; 0
    00001B1E 02                    4760 	.db #0x02	; 2
    00001B1F 03                    4761 	.db #0x03	; 3
    00001B20 0D                    4762 	.db #0x0d	; 13
    00001B21 0E                    4763 	.db #0x0e	; 14
    00001B22 89                    4764 	.db #0x89	; 137
    00001B23 8A                    4765 	.db #0x8a	; 138
    00001B24 85                    4766 	.db #0x85	; 133
    00001B25 86                    4767 	.db #0x86	; 134
    00001B26 00                    4768 	.db #0x00	; 0
    00001B27 01                    4769 	.db #0x01	; 1
    00001B28 09                    4770 	.db #0x09	; 9
    00001B29 0A                    4771 	.db #0x0a	; 10
    00001B2A 05                    4772 	.db #0x05	; 5
    00001B2B 06                    4773 	.db #0x06	; 6
    00001B2C 83                    4774 	.db #0x83	; 131
    00001B2D 82                    4775 	.db #0x82	; 130
                                   4776 	.area _SEG5
                                   4777 	.area _INITIALIZER
                                   4778 	.area _CABS (ABS)
