                                      1 ;--------------------------------------------------------
                                      2 ; File Created by SDCC : free open source ANSI-C Compiler
                                      3 ; Version 4.2.0 #13081 (MINGW64)
                                      4 ;--------------------------------------------------------
                                      5 	.module soccerlg
                                      6 	.optsdcc -mz80
                                      7 	
                                      8 ;--------------------------------------------------------
                                      9 ; Public variables in this module
                                     10 ;--------------------------------------------------------
                                     11 	.globl _YSCC_LoadState
                                     12 	.globl _YSCC_SaveState
                                     13 	.globl _YSCC_GetFirstSegmentOfCurrentPlaying
                                     14 	.globl _YSCC_Decode
                                     15 	.globl _YSCC_Resume
                                     16 	.globl _YSCC_Pause
                                     17 	.globl _YSCC_Play
                                     18 	.globl _YSCC_Init
                                     19 	.globl _ayFX_Update
                                     20 	.globl _ayFX_Mute
                                     21 	.globl _ayFX_PlayBank
                                     22 	.globl _ayFX_InitBank
                                     23 	.globl _PCM_Play_11K
                                     24 	.globl _PSG_Apply
                                     25 	.globl _MainSub
                                     26 	.globl _TickGameFieldScrolling
                                     27 	.globl _V9_SetPaletteEntry
                                     28 	.globl _V9_SetScrollingBY
                                     29 	.globl _V9_Poke16_CurrentAddr
                                     30 	.globl _V9_WriteVRAM_CurrentAddr
                                     31 	.globl _V9_FillVRAM16_CurrentAddr
                                     32 	.globl _V9_FillVRAM_CurrentAddr
                                     33 	.globl _V9_SetWriteAddress
                                     34 	.globl _V9_SetRegister
                                     35 	.globl _Print_SetTextFont
                                     36 	.globl _g_VblankSuspended
                                     37 	.globl _g_TimerActive
                                     38 	.globl _g_currentVGMPlayingSegment
                                     39 	.globl _g_ShotCursorDir
                                     40 	.globl _g_ShotCursorX
                                     41 	.globl _g_SoundRequest
                                     42 	.globl _g_ponPonGirlsInitailized
                                     43 	.globl _g_peopleState
                                     44 	.globl _g_PonPonGrilsPoseCounter
                                     45 	.globl _g_ponPonPatternIndex
                                     46 	.globl _g_GoalScorerId
                                     47 	.globl _g_ThrowInPlayerId
                                     48 	.globl _g_GkAnimTimer
                                     49 	.globl _g_GoalKickSide
                                     50 	.globl _g_GkRecoilY
                                     51 	.globl _g_GkAnimPlayerId
                                     52 	.globl _g_GkIsGroundKick
                                     53 	.globl _g_GameWith2Players
                                     54 	.globl _g_ShootCooldown
                                     55 	.globl _g_ActionCooldown
                                     56 	.globl _g_CornerKickSide
                                     57 	.globl _g_CornerKickTargetId
                                     58 	.globl _g_PmcSoundPlaying
                                     59 	.globl _g_PcmStartPlaying
                                     60 	.globl _g_History2
                                     61 	.globl _g_History1
                                     62 	.globl _g_FieldScrollingActionInProgress
                                     63 	.globl _g_LastTimeCounter
                                     64 	.globl _g_TimeCounter
                                     65 	.globl _g_BallIsVisible
                                     66 	.globl _g_PonPonGirlsAreVisible
                                     67 	.globl _g_modernAudio
                                     68 	.globl _g_currentVGMPlayerSong
                                     69 	.globl _g_PonPonGirls
                                     70 	.globl _g_PassTargetPlayer
                                     71 	.globl _g_RestartKickTeamId
                                     72 	.globl _g_Team2Score
                                     73 	.globl _g_Team1Score
                                     74 	.globl _g_SecondsToEndOfMatch
                                     75 	.globl _g_Team2ActivePlayer
                                     76 	.globl _g_Team1ActivePlayer
                                     77 	.globl _g_ShowButtonsInfo
                                     78 	.globl _g_Team2PaletteId
                                     79 	.globl _g_Team1PaletteId
                                     80 	.globl _g_Players
                                     81 	.globl _g_Ball
                                     82 	.globl _g_MatchStatus
                                     83 	.globl _g_ActiveFieldZone
                                     84 	.globl _g_FieldScrollSpeed
                                     85 	.globl _g_FieldCurrentYPosition
                                     86 	.globl _g_Timer
                                     87 	.globl _g_FrameCounter
                                     88 	.globl _g_VgmPublicPresentationEnded
                                     89 	.globl _g_FirstKickOff
                                     90 	.globl _g_VSynch
                                     91 	.globl _g_SLTSL
                                     92 	.globl _g_GRPACY
                                     93 	.globl _g_GRPACX
                                     94 	.globl _g_LOGOPR
                                     95 	.globl _g_CMASK
                                     96 	.globl _g_CLOC
                                     97 	.globl _g_FNKSTR
                                     98 	.globl _g_ATRBYT
                                     99 	.globl _g_BDRCLR
                                    100 	.globl _g_BAKCLR
                                    101 	.globl _g_FORCLR
                                    102 	.globl _g_CSRX
                                    103 	.globl _g_CSRY
                                    104 	.globl _g_CLIKSW
                                    105 	.globl _g_MLTPAT
                                    106 	.globl _g_MLTATR
                                    107 	.globl _g_MLTCGP
                                    108 	.globl _g_MLTCOL
                                    109 	.globl _g_MLTNAM
                                    110 	.globl _g_GRPPAT
                                    111 	.globl _g_GRPATR
                                    112 	.globl _g_GRPCGP
                                    113 	.globl _g_GRPCOL
                                    114 	.globl _g_GRPNAM
                                    115 	.globl _g_T32PAT
                                    116 	.globl _g_T32ATR
                                    117 	.globl _g_T32CGP
                                    118 	.globl _g_T32COL
                                    119 	.globl _g_T32NAM
                                    120 	.globl _g_TXTPAT
                                    121 	.globl _g_TXTATR
                                    122 	.globl _g_TXTCGP
                                    123 	.globl _g_TXTCOL
                                    124 	.globl _g_TXTNAM
                                    125 	.globl _g_CLMLST
                                    126 	.globl _g_CRTCNT
                                    127 	.globl _g_LINLEN
                                    128 	.globl _g_LINL32
                                    129 	.globl _g_LINL40
                                    130 	.globl _g_TeamStats
                                    131 	.globl _g_BDOS
                                    132 	.globl _g_MASTER
                                    133 	.globl _g_RAMAD3
                                    134 	.globl _g_RAMAD2
                                    135 	.globl _g_RAMAD1
                                    136 	.globl _g_RAMAD0
                                    137 	.globl _g_BREAKV
                                    138 	.globl _g_DISKVE
                                    139 	.globl _g_KANJTABLE
                                    140 	.globl _g_STRSRC
                                    141 	.globl _g_SUBRID
                                    142 	.globl _g_CHAR_16
                                    143 	.globl _g_MSXMID
                                    144 	.globl _g_MSXVER
                                    145 	.globl _g_ROMVersion
                                    146 	.globl _g_BASRVN
                                    147 	.globl _g_VDP_DW
                                    148 	.globl _g_VDP_DR
                                    149 	.globl _g_CGTABL
                                    150 	.globl _g_SVFFFD
                                    151 	.globl _g_RG27SAV
                                    152 	.globl _g_RG26SAV
                                    153 	.globl _g_RG25SAV
                                    154 	.globl _g_SVFFF8
                                    155 	.globl _g_MINROM
                                    156 	.globl _g_RG23SAV
                                    157 	.globl _g_RG22SAV
                                    158 	.globl _g_RG21SAV
                                    159 	.globl _g_RG20SAV
                                    160 	.globl _g_RG19SAV
                                    161 	.globl _g_RG18SAV
                                    162 	.globl _g_RG17SAV
                                    163 	.globl _g_RG16SAV
                                    164 	.globl _g_RG15SAV
                                    165 	.globl _g_RG14SAV
                                    166 	.globl _g_RG13SAV
                                    167 	.globl _g_RG12SAV
                                    168 	.globl _g_RG11SAV
                                    169 	.globl _g_RG10SAV
                                    170 	.globl _g_RG09SAV
                                    171 	.globl _g_RG08SAV
                                    172 	.globl _g_PROCNM
                                    173 	.globl _g_SLTWRK
                                    174 	.globl _g_SLTATR
                                    175 	.globl _g_SLTTBL
                                    176 	.globl _g_EXPTBL
                                    177 	.globl _g_MNROM
                                    178 	.globl _g_DRWANG
                                    179 	.globl _g_DRWSCL
                                    180 	.globl _g_DRWFLG
                                    181 	.globl _g_GYPOS
                                    182 	.globl _g_GXPOS
                                    183 	.globl _g_BRDATR
                                    184 	.globl _g_CASPRV
                                    185 	.globl _g_OLDSCR
                                    186 	.globl _g_SCRMOD
                                    187 	.globl _g_FLBMEM
                                    188 	.globl _g_KANAMD
                                    189 	.globl _g_KANAST
                                    190 	.globl _g_CAPST
                                    191 	.globl _g_CSTYLE
                                    192 	.globl _g_CSRSW
                                    193 	.globl _g_INSFLG
                                    194 	.globl _g_ESCCNT
                                    195 	.globl _g_GRPHED
                                    196 	.globl _g_WINWID
                                    197 	.globl _g_LOWLIM
                                    198 	.globl _g_INTCNT
                                    199 	.globl _g_INTVAL
                                    200 	.globl _g_JIFFY
                                    201 	.globl _g_PADX
                                    202 	.globl _g_PADY
                                    203 	.globl _g_INTFLG
                                    204 	.globl _g_RTYCNT
                                    205 	.globl _g_TRPTBL
                                    206 	.globl _g_HIMEM
                                    207 	.globl _g_BOTTOM
                                    208 	.globl _g_PATWRK
                                    209 	.globl _g_LINWRK
                                    210 	.globl _g_KEYBUF
                                    211 	.globl _g_NEWKEY
                                    212 	.globl _g_OLDKEY
                                    213 	.globl _g_CLIKFL
                                    214 	.globl _g_ONGSBF
                                    215 	.globl _g_FNKFLG
                                    216 	.globl _g_FNKSWI
                                    217 	.globl _g_CODSAV
                                    218 	.globl _g_FSTPOS
                                    219 	.globl _g_LINTTB
                                    220 	.globl _g_BASROM
                                    221 	.globl _g_ENSTOP
                                    222 	.globl _g_VCBC
                                    223 	.globl _g_VCBB
                                    224 	.globl _g_VCBA
                                    225 	.globl _g_PLYCNT
                                    226 	.globl _g_MUSICF
                                    227 	.globl _g_QUEUEN
                                    228 	.globl _g_MCLPTR
                                    229 	.globl _g_MCLLEN
                                    230 	.globl _g_SAVVOL
                                    231 	.globl _g_VOICEN
                                    232 	.globl _g_SAVSP
                                    233 	.globl _g_PRSCNT
                                    234 	.globl _g_LSTMOD
                                    235 	.globl _g_LSTCOM
                                    236 	.globl _g_COMMSK
                                    237 	.globl _g_ESTBLS
                                    238 	.globl _g_FLAGS
                                    239 	.globl _g_ERRORS
                                    240 	.globl _g_DATCNT
                                    241 	.globl _g_DEVNUM
                                    242 	.globl _g_OLDINT
                                    243 	.globl _g_OLDSTT
                                    244 	.globl _g_MEXBIh
                                    245 	.globl _g_RSIQLN
                                    246 	.globl _g_RSFCB
                                    247 	.globl _g_TOCNT
                                    248 	.globl _g_RSTMP
                                    249 	.globl _g_YSAVE
                                    250 	.globl _g_XSAVE
                                    251 	.globl _g_NORUSE
                                    252 	.globl _g_MODE
                                    253 	.globl _g_ROMA
                                    254 	.globl _g_CHRCNT
                                    255 	.globl _g_EXBRSA
                                    256 	.globl _g_AVCSAV
                                    257 	.globl _g_ACPAGE
                                    258 	.globl _g_DPPAGE
                                    259 	.globl _g_RS2IQ
                                    260 	.globl _g_VOICCQ
                                    261 	.globl _g_VOICBQ
                                    262 	.globl _g_VOICAQ
                                    263 	.globl _g_QUEBAK
                                    264 	.globl _g_QUETAB
                                    265 	.globl _g_ASPCT2
                                    266 	.globl _g_ASPCT1
                                    267 	.globl _g_HEADER
                                    268 	.globl _g_HIGH
                                    269 	.globl _g_LOW
                                    270 	.globl _g_CS240
                                    271 	.globl _g_CS120
                                    272 	.globl _g_GETPNT
                                    273 	.globl _g_PUTPNT
                                    274 	.globl _g_REPCNT
                                    275 	.globl _g_SCNCNT
                                    276 	.globl _g_FRCNEW
                                    277 	.globl _g_QUEUES
                                    278 	.globl _g_MINUPD
                                    279 	.globl _g_MAXUPD
                                    280 	.globl _g_TRGFLG
                                    281 	.globl _g_STATFL
                                    282 	.globl _g_RG7SAV
                                    283 	.globl _g_RG6SAV
                                    284 	.globl _g_RG5SAV
                                    285 	.globl _g_RG4SAV
                                    286 	.globl _g_RG3SAV
                                    287 	.globl _g_RG2SAV
                                    288 	.globl _g_RG1SAV
                                    289 	.globl _g_RG0SAV
                                    290 	.globl _g_CNSDFG
                                    291 	.globl _g_USRTAB
                                    292 	.globl _g_CLPRIM
                                    293 	.globl _g_WRPRIM
                                    294 	.globl _g_RDPRIM
                                    295 	.globl _CallFnc_VOID
                                    296 	.globl _CallFnc_VOID_P1
                                    297 	.globl _CallFnc_VOID_P2
                                    298 	.globl _CallFnc_VOID_16_P2
                                    299 	.globl _CallFnc_U8
                                    300 	.globl _CallFnc_U8_P1
                                    301 	.globl _CallFnc_U16_P1
                                    302 	.globl _CallFnc_U8_P2
                                    303 	.globl _CallFnc_BOOL
                                    304 	.globl _CallFnc_BOOL_P1
                                    305 	.globl _PlayPCM
                                    306 	.globl _PlayAyFx
                                    307 	.globl _PlayModernGoalkick
                                    308 	.globl _ResumeAfterGoalkick
                                    309 	.globl _LoadMsxVdpFonts
                                    310 	.globl _V9990_WaitSynch
                                    311 	.globl _V9990_LoadButtonsImageData
                                    312 	.globl _V9990_LoadP1LayerA
                                    313 	.globl _V9990_LoadP1LayerB
                                    314 	.globl _V9990_LoadImagePresentationData
                                    315 	.globl _V9990_LoadMenuTeamsData
                                    316 	.globl _V9990_LoadSprites
                                    317 	.globl _V9990_PrintLayerAStringAtPos
                                    318 	.globl _V9990_ClearTextFromLayerA
                                    319 	.globl _V9990_InitScrollText
                                    320 	.globl _V9990_StopScrollText
                                    321 	.globl _V9_InterruptVBlank
                                    322 	.globl _InterruptHook
                                    323 	.globl _Math_Abs32
                                    324 	.globl _GetTeamStats
                                    325 	.globl _PlaySounds
                                    326 	.globl _main
                                    327 ;--------------------------------------------------------
                                    328 ; special function registers
                                    329 ;--------------------------------------------------------
                         000000A8   330 _g_PortPrimarySlot	=	0x00a8
                         000000A9   331 _g_PortReadKeyboard	=	0x00a9
                         000000AA   332 _g_PortAccessKeyboard	=	0x00aa
                         000000AB   333 _g_PortControl	=	0x00ab
                         00000098   334 _g_VDP_DataPort	=	0x0098
                         00000099   335 _g_VDP_RegPort	=	0x0099
                         00000099   336 _g_VDP_AddrPort	=	0x0099
                         00000099   337 _g_VDP_StatPort	=	0x0099
                         000000A0   338 _g_PSG_RegPort	=	0x00a0
                         000000A1   339 _g_PSG_DataPort	=	0x00a1
                         000000A2   340 _g_PSG_StatPort	=	0x00a2
                         00000010   341 _g_PSG_Ext_RegPort	=	0x0010
                         00000011   342 _g_PSG_Ext_DataPort	=	0x0011
                         00000012   343 _g_PSG_Ext_StatPort	=	0x0012
                         0000007C   344 _g_MSXMusic_IndexPort	=	0x007c
                         0000007D   345 _g_MSXMusic_DataPort	=	0x007d
                         000000C0   346 _g_MSXAudio_IndexPort	=	0x00c0
                         000000C1   347 _g_MSXAudio_DataPort	=	0x00c1
                         000000C2   348 _g_MSXAudio_IndexPort2	=	0x00c2
                         000000C3   349 _g_MSXAudio_DataPort2	=	0x00c3
                         000000B4   350 _g_RTC_AddrPort	=	0x00b4
                         000000B5   351 _g_RTC_DataPort	=	0x00b5
                         00000060   352 _g_V9_VRAMPort	=	0x0060
                         00000061   353 _g_V9_PalettePort	=	0x0061
                         00000062   354 _g_V9_CmdDataPort	=	0x0062
                         00000063   355 _g_V9_RegDataPort	=	0x0063
                         00000064   356 _g_V9_RegSelectPort	=	0x0064
                         00000065   357 _g_V9_SatusPort	=	0x0065
                         00000066   358 _g_V9_IntFlagPort	=	0x0066
                         00000067   359 _g_V9_SysCtrlPort	=	0x0067
                         00000068   360 _g_V9_KanjiAddrLPort	=	0x0068
                         00000069   361 _g_V9_KanjiAddrHPort	=	0x0069
                         00000069   362 _g_V9_KanjiDataPort	=	0x0069
                         0000006A   363 _g_V9_Kanji2AddrLPort	=	0x006a
                         0000006B   364 _g_V9_Kanji2AddrHPort	=	0x006b
                         0000006B   365 _g_V9_Kanji2DataPort	=	0x006b
                         0000006F   366 _g_V9_OutputCtrPort	=	0x006f
                                    367 ;--------------------------------------------------------
                                    368 ; ram data
                                    369 ;--------------------------------------------------------
                                    370 	.area _DATA
                         0000F3AE   371 _g_LINL40	=	0xf3ae
                         0000F3AF   372 _g_LINL32	=	0xf3af
                         0000F3B0   373 _g_LINLEN	=	0xf3b0
                         0000F3B1   374 _g_CRTCNT	=	0xf3b1
                         0000F3B2   375 _g_CLMLST	=	0xf3b2
                         0000F3B3   376 _g_TXTNAM	=	0xf3b3
                         0000F3B5   377 _g_TXTCOL	=	0xf3b5
                         0000F3B7   378 _g_TXTCGP	=	0xf3b7
                         0000F3B9   379 _g_TXTATR	=	0xf3b9
                         0000F3BB   380 _g_TXTPAT	=	0xf3bb
                         0000F3BD   381 _g_T32NAM	=	0xf3bd
                         0000F3BF   382 _g_T32COL	=	0xf3bf
                         0000F3C1   383 _g_T32CGP	=	0xf3c1
                         0000F3C3   384 _g_T32ATR	=	0xf3c3
                         0000F3C5   385 _g_T32PAT	=	0xf3c5
                         0000F3C7   386 _g_GRPNAM	=	0xf3c7
                         0000F3C9   387 _g_GRPCOL	=	0xf3c9
                         0000F3CB   388 _g_GRPCGP	=	0xf3cb
                         0000F3CD   389 _g_GRPATR	=	0xf3cd
                         0000F3CF   390 _g_GRPPAT	=	0xf3cf
                         0000F3D1   391 _g_MLTNAM	=	0xf3d1
                         0000F3D3   392 _g_MLTCOL	=	0xf3d3
                         0000F3D5   393 _g_MLTCGP	=	0xf3d5
                         0000F3D7   394 _g_MLTATR	=	0xf3d7
                         0000F3D9   395 _g_MLTPAT	=	0xf3d9
                         0000F3DB   396 _g_CLIKSW	=	0xf3db
                         0000F3DC   397 _g_CSRY	=	0xf3dc
                         0000F3DD   398 _g_CSRX	=	0xf3dd
                         0000F3E9   399 _g_FORCLR	=	0xf3e9
                         0000F3EA   400 _g_BAKCLR	=	0xf3ea
                         0000F3EB   401 _g_BDRCLR	=	0xf3eb
                         0000F3F2   402 _g_ATRBYT	=	0xf3f2
                         0000F87F   403 _g_FNKSTR	=	0xf87f
                         0000F92A   404 _g_CLOC	=	0xf92a
                         0000F92C   405 _g_CMASK	=	0xf92c
                         0000FB02   406 _g_LOGOPR	=	0xfb02
                         0000FCB7   407 _g_GRPACX	=	0xfcb7
                         0000FCB9   408 _g_GRPACY	=	0xfcb9
                         0000FFFF   409 _g_SLTSL	=	0xffff
    00000000                        410 _g_VSynch::
    00000000                        411 	.ds 1
    00000001                        412 _g_FirstKickOff::
    00000001                        413 	.ds 1
    00000002                        414 _g_VgmPublicPresentationEnded::
    00000002                        415 	.ds 1
    00000003                        416 _g_FrameCounter::
    00000003                        417 	.ds 1
    00000004                        418 _g_Timer::
    00000004                        419 	.ds 1
    00000005                        420 _g_FieldCurrentYPosition::
    00000005                        421 	.ds 2
    00000007                        422 _g_FieldScrollSpeed::
    00000007                        423 	.ds 1
    00000008                        424 _g_ActiveFieldZone::
    00000008                        425 	.ds 1
    00000009                        426 _g_MatchStatus::
    00000009                        427 	.ds 1
    0000000A                        428 _g_Ball::
    0000000A                        429 	.ds 30
    00000028                        430 _g_Players::
    00000028                        431 	.ds 315
    00000163                        432 _g_Team1PaletteId::
    00000163                        433 	.ds 1
    00000164                        434 _g_Team2PaletteId::
    00000164                        435 	.ds 1
    00000165                        436 _g_ShowButtonsInfo::
    00000165                        437 	.ds 1
    00000166                        438 _g_Team1ActivePlayer::
    00000166                        439 	.ds 1
    00000167                        440 _g_Team2ActivePlayer::
    00000167                        441 	.ds 1
    00000168                        442 _g_SecondsToEndOfMatch::
    00000168                        443 	.ds 1
    00000169                        444 _g_Team1Score::
    00000169                        445 	.ds 1
    0000016A                        446 _g_Team2Score::
    0000016A                        447 	.ds 1
    0000016B                        448 _g_RestartKickTeamId::
    0000016B                        449 	.ds 1
    0000016C                        450 _g_PassTargetPlayer::
    0000016C                        451 	.ds 1
    0000016D                        452 _g_PonPonGirls::
    0000016D                        453 	.ds 30
    0000018B                        454 _g_currentVGMPlayerSong::
    0000018B                        455 	.ds 1
    0000018C                        456 _s_GoalkickSavedState:
    0000018C                        457 	.ds 13
    00000199                        458 _s_ScrollTextLen:
    00000199                        459 	.ds 2
    0000019B                        460 _s_ScrollTextPos:
    0000019B                        461 	.ds 2
    0000019D                        462 _s_ScrollTickCount:
    0000019D                        463 	.ds 1
                                    464 ;--------------------------------------------------------
                                    465 ; ram data
                                    466 ;--------------------------------------------------------
                                    467 	.area _INITIALIZED
    00000000                        468 _g_modernAudio::
    00000000                        469 	.ds 1
    00000001                        470 _g_PonPonGirlsAreVisible::
    00000001                        471 	.ds 1
    00000002                        472 _g_BallIsVisible::
    00000002                        473 	.ds 1
    00000003                        474 _g_TimeCounter::
    00000003                        475 	.ds 2
    00000005                        476 _g_LastTimeCounter::
    00000005                        477 	.ds 2
    00000007                        478 _g_FieldScrollingActionInProgress::
    00000007                        479 	.ds 1
    00000008                        480 _g_History1::
    00000008                        481 	.ds 20
    0000001C                        482 _g_History2::
    0000001C                        483 	.ds 20
    00000030                        484 _g_PcmStartPlaying::
    00000030                        485 	.ds 1
    00000031                        486 _g_PmcSoundPlaying::
    00000031                        487 	.ds 1
    00000032                        488 _g_CornerKickTargetId::
    00000032                        489 	.ds 1
    00000033                        490 _g_CornerKickSide::
    00000033                        491 	.ds 1
    00000034                        492 _g_ActionCooldown::
    00000034                        493 	.ds 1
    00000035                        494 _g_ShootCooldown::
    00000035                        495 	.ds 1
    00000036                        496 _g_GameWith2Players::
    00000036                        497 	.ds 1
    00000037                        498 _g_GkIsGroundKick::
    00000037                        499 	.ds 1
    00000038                        500 _g_GkAnimPlayerId::
    00000038                        501 	.ds 1
    00000039                        502 _g_GkRecoilY::
    00000039                        503 	.ds 1
    0000003A                        504 _g_GoalKickSide::
    0000003A                        505 	.ds 1
    0000003B                        506 _g_GkAnimTimer::
    0000003B                        507 	.ds 1
    0000003C                        508 _g_ThrowInPlayerId::
    0000003C                        509 	.ds 1
    0000003D                        510 _g_GoalScorerId::
    0000003D                        511 	.ds 1
    0000003E                        512 _g_ponPonPatternIndex::
    0000003E                        513 	.ds 1
    0000003F                        514 _g_PonPonGrilsPoseCounter::
    0000003F                        515 	.ds 1
    00000040                        516 _g_peopleState::
    00000040                        517 	.ds 1
    00000041                        518 _g_ponPonGirlsInitailized::
    00000041                        519 	.ds 1
    00000042                        520 _g_SoundRequest::
    00000042                        521 	.ds 1
    00000043                        522 _g_ShotCursorX::
    00000043                        523 	.ds 2
    00000045                        524 _g_ShotCursorDir::
    00000045                        525 	.ds 1
    00000046                        526 _g_currentVGMPlayingSegment::
    00000046                        527 	.ds 1
    00000047                        528 _g_TimerActive::
    00000047                        529 	.ds 1
    00000048                        530 _g_VblankSuspended::
    00000048                        531 	.ds 1
                                    532 ;--------------------------------------------------------
                                    533 ; absolute external ram data
                                    534 ;--------------------------------------------------------
                                    535 	.area _DABS (ABS)
                                    536 ;--------------------------------------------------------
                                    537 ; global & static initialisations
                                    538 ;--------------------------------------------------------
                                    539 	.area _HOME
                                    540 	.area _GSINIT
                                    541 	.area _GSFINAL
                                    542 	.area _GSINIT
                                    543 ;--------------------------------------------------------
                                    544 ; Home
                                    545 ;--------------------------------------------------------
                                    546 	.area _HOME
                                    547 	.area _HOME
                                    548 ;--------------------------------------------------------
                                    549 ; code
                                    550 ;--------------------------------------------------------
                                    551 	.area _CODE
                                    552 ;./soccerlg.c:171: void CallFnc_VOID(u8 segment, void (*func)()) {
                                    553 ;	---------------------------------
                                    554 ; Function CallFnc_VOID
                                    555 ; ---------------------------------
    00000000                        556 _CallFnc_VOID::
    00000000 DD E5            [15]  557 	push	ix
    00000002 DD 21 00 00      [14]  558 	ld	ix,#0
    00000006 DD 39            [15]  559 	add	ix,sp
    00000008 3B               [ 6]  560 	dec	sp
    00000009 4F               [ 4]  561 	ld	c, a
                                    562 ;./soccerlg.c:172: u8 _old = GET_BANK_SEGMENT(3);
    0000000A 2Ar06r00         [16]  563 	ld	hl, (#(_g_Bank0Segment + 6) + 0)
    0000000D DD 75 FF         [19]  564 	ld	-1 (ix), l
                                    565 ;./soccerlg.c:173: SET_BANK_SEGMENT(3, segment);
    00000010 06 00            [ 7]  566 	ld	b, #0x00
                                    567 ;E:/Dropbox/FAUSTO/SVILUPPI/MSX/CODE/C/MSXgl/engine/src/rom_mapper.h:190: g_Bank0Segment[b] = s;
    00000012 ED 43r06r00      [20]  568 	ld	((_g_Bank0Segment + 6)), bc
                                    569 ;E:/Dropbox/FAUSTO/SVILUPPI/MSX/CODE/C/MSXgl/engine/src/rom_mapper.h:191: Poke(YAMANOOTO_OFFR, (s >> 2) & 0xC0);
    00000016 69               [ 4]  570 	ld	l, c
    00000017 60               [ 4]  571 	ld	h, b
    00000018 CB 3C            [ 8]  572 	srl	h
    0000001A CB 1D            [ 8]  573 	rr	l
    0000001C CB 3C            [ 8]  574 	srl	h
    0000001E CB 1D            [ 8]  575 	rr	l
    00000020 7D               [ 4]  576 	ld	a, l
    00000021 E6 C0            [ 7]  577 	and	a, #0xc0
                                    578 ;E:/Dropbox/FAUSTO/SVILUPPI/MSX/CODE/C/MSXgl/engine/src/system.h:101: inline void Poke(u16 addr, u8 val) { *(u8*)addr = val; }
    00000023 32 FE 7F         [13]  579 	ld	(#0x7ffe),a
                                    580 ;E:/Dropbox/FAUSTO/SVILUPPI/MSX/CODE/C/MSXgl/engine/src/rom_mapper.h:195: else if (b == 3)	Poke(ADDR_BANK_3, s & 0xFF);
                                    581 ;E:/Dropbox/FAUSTO/SVILUPPI/MSX/CODE/C/MSXgl/engine/src/system.h:101: inline void Poke(u16 addr, u8 val) { *(u8*)addr = val; }
    00000026 21 00 B0         [10]  582 	ld	hl, #0xb000
    00000029 71               [ 7]  583 	ld	(hl), c
                                    584 ;./soccerlg.c:174: func();
    0000002A EB               [ 4]  585 	ex	de, hl
    0000002B CDr00r00         [17]  586 	call	___sdcc_call_hl
                                    587 ;./soccerlg.c:175: SET_BANK_SEGMENT(3, _old);
    0000002E DD 4E FF         [19]  588 	ld	c, -1 (ix)
    00000031 06 00            [ 7]  589 	ld	b, #0x00
                                    590 ;E:/Dropbox/FAUSTO/SVILUPPI/MSX/CODE/C/MSXgl/engine/src/rom_mapper.h:190: g_Bank0Segment[b] = s;
    00000033 ED 43r06r00      [20]  591 	ld	((_g_Bank0Segment + 6)), bc
                                    592 ;E:/Dropbox/FAUSTO/SVILUPPI/MSX/CODE/C/MSXgl/engine/src/rom_mapper.h:191: Poke(YAMANOOTO_OFFR, (s >> 2) & 0xC0);
    00000037 59               [ 4]  593 	ld	e, c
    00000038 50               [ 4]  594 	ld	d, b
    00000039 CB 3A            [ 8]  595 	srl	d
    0000003B CB 1B            [ 8]  596 	rr	e
    0000003D CB 3A            [ 8]  597 	srl	d
    0000003F CB 1B            [ 8]  598 	rr	e
    00000041 7B               [ 4]  599 	ld	a, e
    00000042 E6 C0            [ 7]  600 	and	a, #0xc0
                                    601 ;E:/Dropbox/FAUSTO/SVILUPPI/MSX/CODE/C/MSXgl/engine/src/system.h:101: inline void Poke(u16 addr, u8 val) { *(u8*)addr = val; }
    00000044 32 FE 7F         [13]  602 	ld	(#0x7ffe),a
                                    603 ;E:/Dropbox/FAUSTO/SVILUPPI/MSX/CODE/C/MSXgl/engine/src/rom_mapper.h:195: else if (b == 3)	Poke(ADDR_BANK_3, s & 0xFF);
                                    604 ;E:/Dropbox/FAUSTO/SVILUPPI/MSX/CODE/C/MSXgl/engine/src/system.h:101: inline void Poke(u16 addr, u8 val) { *(u8*)addr = val; }
    00000047 21 00 B0         [10]  605 	ld	hl, #0xb000
    0000004A 71               [ 7]  606 	ld	(hl), c
                                    607 ;./soccerlg.c:175: SET_BANK_SEGMENT(3, _old);
                                    608 ;./soccerlg.c:176: }
    0000004B 33               [ 6]  609 	inc	sp
    0000004C DD E1            [14]  610 	pop	ix
    0000004E C9               [10]  611 	ret
                         0000F380   612 _g_RDPRIM	=	0xf380
                         0000F385   613 _g_WRPRIM	=	0xf385
                         0000F38C   614 _g_CLPRIM	=	0xf38c
                         0000F39A   615 _g_USRTAB	=	0xf39a
                         0000F3DE   616 _g_CNSDFG	=	0xf3de
                         0000F3DF   617 _g_RG0SAV	=	0xf3df
                         0000F3E0   618 _g_RG1SAV	=	0xf3e0
                         0000F3E1   619 _g_RG2SAV	=	0xf3e1
                         0000F3E2   620 _g_RG3SAV	=	0xf3e2
                         0000F3E3   621 _g_RG4SAV	=	0xf3e3
                         0000F3E4   622 _g_RG5SAV	=	0xf3e4
                         0000F3E5   623 _g_RG6SAV	=	0xf3e5
                         0000F3E6   624 _g_RG7SAV	=	0xf3e6
                         0000F3E7   625 _g_STATFL	=	0xf3e7
                         0000F3E8   626 _g_TRGFLG	=	0xf3e8
                         0000F3EC   627 _g_MAXUPD	=	0xf3ec
                         0000F3EF   628 _g_MINUPD	=	0xf3ef
                         0000F3F3   629 _g_QUEUES	=	0xf3f3
                         0000F3F5   630 _g_FRCNEW	=	0xf3f5
                         0000F3F6   631 _g_SCNCNT	=	0xf3f6
                         0000F3F7   632 _g_REPCNT	=	0xf3f7
                         0000F3F8   633 _g_PUTPNT	=	0xf3f8
                         0000F3FA   634 _g_GETPNT	=	0xf3fa
                         0000F3FC   635 _g_CS120	=	0xf3fc
                         0000F401   636 _g_CS240	=	0xf401
                         0000F406   637 _g_LOW	=	0xf406
                         0000F408   638 _g_HIGH	=	0xf408
                         0000F40A   639 _g_HEADER	=	0xf40a
                         0000F40B   640 _g_ASPCT1	=	0xf40b
                         0000F40D   641 _g_ASPCT2	=	0xf40d
                         0000F959   642 _g_QUETAB	=	0xf959
                         0000F971   643 _g_QUEBAK	=	0xf971
                         0000F975   644 _g_VOICAQ	=	0xf975
                         0000F9F5   645 _g_VOICBQ	=	0xf9f5
                         0000FA75   646 _g_VOICCQ	=	0xfa75
                         0000FAF5   647 _g_RS2IQ	=	0xfaf5
                         0000FAF5   648 _g_DPPAGE	=	0xfaf5
                         0000FAF6   649 _g_ACPAGE	=	0xfaf6
                         0000FAF7   650 _g_AVCSAV	=	0xfaf7
                         0000FAF8   651 _g_EXBRSA	=	0xfaf8
                         0000FAF9   652 _g_CHRCNT	=	0xfaf9
                         0000FAFA   653 _g_ROMA	=	0xfafa
                         0000FAFC   654 _g_MODE	=	0xfafc
                         0000FAFD   655 _g_NORUSE	=	0xfafd
                         0000FAFE   656 _g_XSAVE	=	0xfafe
                         0000FB00   657 _g_YSAVE	=	0xfb00
                         0000FB03   658 _g_RSTMP	=	0xfb03
                         0000FB03   659 _g_TOCNT	=	0xfb03
                         0000FB04   660 _g_RSFCB	=	0xfb04
                         0000FB06   661 _g_RSIQLN	=	0xfb06
                         0000FB07   662 _g_MEXBIh	=	0xfb07
                         0000FB0C   663 _g_OLDSTT	=	0xfb0c
                         0000FB0C   664 _g_OLDINT	=	0xfb0c
                         0000FB16   665 _g_DEVNUM	=	0xfb16
                         0000FB17   666 _g_DATCNT	=	0xfb17
                         0000FB1A   667 _g_ERRORS	=	0xfb1a
                         0000FB1B   668 _g_FLAGS	=	0xfb1b
                         0000FB1C   669 _g_ESTBLS	=	0xfb1c
                         0000FB1D   670 _g_COMMSK	=	0xfb1d
                         0000FB1E   671 _g_LSTCOM	=	0xfb1e
                         0000FB1F   672 _g_LSTMOD	=	0xfb1f
                         0000FB35   673 _g_PRSCNT	=	0xfb35
                         0000FB36   674 _g_SAVSP	=	0xfb36
                         0000FB38   675 _g_VOICEN	=	0xfb38
                         0000FB39   676 _g_SAVVOL	=	0xfb39
                         0000FB3B   677 _g_MCLLEN	=	0xfb3b
                         0000FB3C   678 _g_MCLPTR	=	0xfb3c
                         0000FB3E   679 _g_QUEUEN	=	0xfb3e
                         0000FB3F   680 _g_MUSICF	=	0xfb3f
                         0000FB40   681 _g_PLYCNT	=	0xfb40
                         0000FB41   682 _g_VCBA	=	0xfb41
                         0000FB66   683 _g_VCBB	=	0xfb66
                         0000FB8B   684 _g_VCBC	=	0xfb8b
                         0000FBB0   685 _g_ENSTOP	=	0xfbb0
                         0000FBB1   686 _g_BASROM	=	0xfbb1
                         0000FBB2   687 _g_LINTTB	=	0xfbb2
                         0000FBCA   688 _g_FSTPOS	=	0xfbca
                         0000FBCC   689 _g_CODSAV	=	0xfbcc
                         0000FBCD   690 _g_FNKSWI	=	0xfbcd
                         0000FBCE   691 _g_FNKFLG	=	0xfbce
                         0000FBD8   692 _g_ONGSBF	=	0xfbd8
                         0000FBD9   693 _g_CLIKFL	=	0xfbd9
                         0000FBDA   694 _g_OLDKEY	=	0xfbda
                         0000FBE5   695 _g_NEWKEY	=	0xfbe5
                         0000FBF0   696 _g_KEYBUF	=	0xfbf0
                         0000FC18   697 _g_LINWRK	=	0xfc18
                         0000FC40   698 _g_PATWRK	=	0xfc40
                         0000FC48   699 _g_BOTTOM	=	0xfc48
                         0000FC4A   700 _g_HIMEM	=	0xfc4a
                         0000FC4C   701 _g_TRPTBL	=	0xfc4c
                         0000FC9A   702 _g_RTYCNT	=	0xfc9a
                         0000FC9B   703 _g_INTFLG	=	0xfc9b
                         0000FC9C   704 _g_PADY	=	0xfc9c
                         0000FC9D   705 _g_PADX	=	0xfc9d
                         0000FC9E   706 _g_JIFFY	=	0xfc9e
                         0000FCA0   707 _g_INTVAL	=	0xfca0
                         0000FCA2   708 _g_INTCNT	=	0xfca2
                         0000FCA4   709 _g_LOWLIM	=	0xfca4
                         0000FCA5   710 _g_WINWID	=	0xfca5
                         0000FCA6   711 _g_GRPHED	=	0xfca6
                         0000FCA7   712 _g_ESCCNT	=	0xfca7
                         0000FCA8   713 _g_INSFLG	=	0xfca8
                         0000FCA9   714 _g_CSRSW	=	0xfca9
                         0000FCAA   715 _g_CSTYLE	=	0xfcaa
                         0000FCAB   716 _g_CAPST	=	0xfcab
                         0000FCAC   717 _g_KANAST	=	0xfcac
                         0000FCAD   718 _g_KANAMD	=	0xfcad
                         0000FCAE   719 _g_FLBMEM	=	0xfcae
                         0000FCAF   720 _g_SCRMOD	=	0xfcaf
                         0000FCB0   721 _g_OLDSCR	=	0xfcb0
                         0000FCB1   722 _g_CASPRV	=	0xfcb1
                         0000FCB2   723 _g_BRDATR	=	0xfcb2
                         0000FCB3   724 _g_GXPOS	=	0xfcb3
                         0000FCB5   725 _g_GYPOS	=	0xfcb5
                         0000FCBB   726 _g_DRWFLG	=	0xfcbb
                         0000FCBC   727 _g_DRWSCL	=	0xfcbc
                         0000FCBD   728 _g_DRWANG	=	0xfcbd
                         0000FCC1   729 _g_MNROM	=	0xfcc1
                         0000FCC1   730 _g_EXPTBL	=	0xfcc1
                         0000FCC5   731 _g_SLTTBL	=	0xfcc5
                         0000FCC9   732 _g_SLTATR	=	0xfcc9
                         0000FD09   733 _g_SLTWRK	=	0xfd09
                         0000FD89   734 _g_PROCNM	=	0xfd89
                         0000FFE7   735 _g_RG08SAV	=	0xffe7
                         0000FFE8   736 _g_RG09SAV	=	0xffe8
                         0000FFE9   737 _g_RG10SAV	=	0xffe9
                         0000FFEA   738 _g_RG11SAV	=	0xffea
                         0000FFEB   739 _g_RG12SAV	=	0xffeb
                         0000FFEC   740 _g_RG13SAV	=	0xffec
                         0000FFED   741 _g_RG14SAV	=	0xffed
                         0000FFEE   742 _g_RG15SAV	=	0xffee
                         0000FFEF   743 _g_RG16SAV	=	0xffef
                         0000FFF0   744 _g_RG17SAV	=	0xfff0
                         0000FFF1   745 _g_RG18SAV	=	0xfff1
                         0000FFF2   746 _g_RG19SAV	=	0xfff2
                         0000FFF3   747 _g_RG20SAV	=	0xfff3
                         0000FFF4   748 _g_RG21SAV	=	0xfff4
                         0000FFF5   749 _g_RG22SAV	=	0xfff5
                         0000FFF6   750 _g_RG23SAV	=	0xfff6
                         0000FFF7   751 _g_MINROM	=	0xfff7
                         0000FFF8   752 _g_SVFFF8	=	0xfff8
                         0000FFFA   753 _g_RG25SAV	=	0xfffa
                         0000FFFB   754 _g_RG26SAV	=	0xfffb
                         0000FFFC   755 _g_RG27SAV	=	0xfffc
                         0000FFFD   756 _g_SVFFFD	=	0xfffd
                         00000004   757 _g_CGTABL	=	0x0004
                         00000006   758 _g_VDP_DR	=	0x0006
                         00000007   759 _g_VDP_DW	=	0x0007
                         0000002B   760 _g_BASRVN	=	0x002b
                         0000002B   761 _g_ROMVersion	=	0x002b
                         0000002D   762 _g_MSXVER	=	0x002d
                         0000002E   763 _g_MSXMID	=	0x002e
                         00000034   764 _g_CHAR_16	=	0x0034
                         00000000   765 _g_SUBRID	=	0x0000
                         00000002   766 _g_STRSRC	=	0x0002
                         0000F30F   767 _g_KANJTABLE	=	0xf30f
                         0000F323   768 _g_DISKVE	=	0xf323
                         0000F325   769 _g_BREAKV	=	0xf325
                         0000F341   770 _g_RAMAD0	=	0xf341
                         0000F342   771 _g_RAMAD1	=	0xf342
                         0000F343   772 _g_RAMAD2	=	0xf343
                         0000F344   773 _g_RAMAD3	=	0xf344
                         0000F348   774 _g_MASTER	=	0xf348
                         0000F37D   775 _g_BDOS	=	0xf37d
    0000004F                        776 _g_TeamStats:
    0000004F 03                     777 	.db #0x03	; 3
    00000050 0C                     778 	.db #0x0c	; 12
    00000051 05                     779 	.db #0x05	; 5
    00000052 05                     780 	.db #0x05	; 5
    00000053 0E                     781 	.db #0x0e	; 14
    00000054 07                     782 	.db #0x07	; 7
    00000055 0F                     783 	.db #0x0f	; 15
    00000056 08                     784 	.db #0x08	; 8
    00000057 09                     785 	.db #0x09	; 9
    00000058 0E                     786 	.db #0x0e	; 14
    00000059 03                     787 	.db #0x03	; 3
    0000005A 11                     788 	.db #0x11	; 17
    0000005B 04                     789 	.db #0x04	; 4
    0000005C 05                     790 	.db #0x05	; 5
    0000005D 10                     791 	.db #0x10	; 16
    0000005E 07                     792 	.db #0x07	; 7
    0000005F 0F                     793 	.db #0x0f	; 15
    00000060 08                     794 	.db #0x08	; 8
    00000061 09                     795 	.db #0x09	; 9
    00000062 0E                     796 	.db #0x0e	; 14
    00000063 03                     797 	.db #0x03	; 3
    00000064 0F                     798 	.db #0x0f	; 15
    00000065 06                     799 	.db #0x06	; 6
    00000066 05                     800 	.db #0x05	; 5
    00000067 0E                     801 	.db #0x0e	; 14
    00000068 06                     802 	.db #0x06	; 6
    00000069 10                     803 	.db #0x10	; 16
    0000006A 07                     804 	.db #0x07	; 7
    0000006B 08                     805 	.db #0x08	; 8
    0000006C 0F                     806 	.db #0x0f	; 15
                                    807 ;./soccerlg.c:178: void CallFnc_VOID_P1(u8 segment, void (*func)(u8), u8 p1) {
                                    808 ;	---------------------------------
                                    809 ; Function CallFnc_VOID_P1
                                    810 ; ---------------------------------
    0000006D                        811 _CallFnc_VOID_P1::
    0000006D DD E5            [15]  812 	push	ix
    0000006F DD 21 00 00      [14]  813 	ld	ix,#0
    00000073 DD 39            [15]  814 	add	ix,sp
    00000075 3B               [ 6]  815 	dec	sp
    00000076 4F               [ 4]  816 	ld	c, a
                                    817 ;./soccerlg.c:179: u8 _old = GET_BANK_SEGMENT(3);
    00000077 2Ar06r00         [16]  818 	ld	hl, (#(_g_Bank0Segment + 6) + 0)
    0000007A DD 75 FF         [19]  819 	ld	-1 (ix), l
                                    820 ;./soccerlg.c:180: SET_BANK_SEGMENT(3, segment);
    0000007D 06 00            [ 7]  821 	ld	b, #0x00
                                    822 ;E:/Dropbox/FAUSTO/SVILUPPI/MSX/CODE/C/MSXgl/engine/src/rom_mapper.h:190: g_Bank0Segment[b] = s;
    0000007F ED 43r06r00      [20]  823 	ld	((_g_Bank0Segment + 6)), bc
                                    824 ;E:/Dropbox/FAUSTO/SVILUPPI/MSX/CODE/C/MSXgl/engine/src/rom_mapper.h:191: Poke(YAMANOOTO_OFFR, (s >> 2) & 0xC0);
    00000083 69               [ 4]  825 	ld	l, c
    00000084 60               [ 4]  826 	ld	h, b
    00000085 CB 3C            [ 8]  827 	srl	h
    00000087 CB 1D            [ 8]  828 	rr	l
    00000089 CB 3C            [ 8]  829 	srl	h
    0000008B CB 1D            [ 8]  830 	rr	l
    0000008D 7D               [ 4]  831 	ld	a, l
    0000008E E6 C0            [ 7]  832 	and	a, #0xc0
                                    833 ;E:/Dropbox/FAUSTO/SVILUPPI/MSX/CODE/C/MSXgl/engine/src/system.h:101: inline void Poke(u16 addr, u8 val) { *(u8*)addr = val; }
    00000090 32 FE 7F         [13]  834 	ld	(#0x7ffe),a
                                    835 ;E:/Dropbox/FAUSTO/SVILUPPI/MSX/CODE/C/MSXgl/engine/src/rom_mapper.h:195: else if (b == 3)	Poke(ADDR_BANK_3, s & 0xFF);
                                    836 ;E:/Dropbox/FAUSTO/SVILUPPI/MSX/CODE/C/MSXgl/engine/src/system.h:101: inline void Poke(u16 addr, u8 val) { *(u8*)addr = val; }
    00000093 21 00 B0         [10]  837 	ld	hl, #0xb000
    00000096 71               [ 7]  838 	ld	(hl), c
                                    839 ;./soccerlg.c:181: func(p1);
    00000097 DD 7E 04         [19]  840 	ld	a, 4 (ix)
    0000009A EB               [ 4]  841 	ex	de, hl
    0000009B CDr00r00         [17]  842 	call	___sdcc_call_hl
                                    843 ;./soccerlg.c:182: SET_BANK_SEGMENT(3, _old);
    0000009E DD 4E FF         [19]  844 	ld	c, -1 (ix)
    000000A1 06 00            [ 7]  845 	ld	b, #0x00
                                    846 ;E:/Dropbox/FAUSTO/SVILUPPI/MSX/CODE/C/MSXgl/engine/src/rom_mapper.h:190: g_Bank0Segment[b] = s;
    000000A3 ED 43r06r00      [20]  847 	ld	((_g_Bank0Segment + 6)), bc
                                    848 ;E:/Dropbox/FAUSTO/SVILUPPI/MSX/CODE/C/MSXgl/engine/src/rom_mapper.h:191: Poke(YAMANOOTO_OFFR, (s >> 2) & 0xC0);
    000000A7 59               [ 4]  849 	ld	e, c
    000000A8 50               [ 4]  850 	ld	d, b
    000000A9 CB 3A            [ 8]  851 	srl	d
    000000AB CB 1B            [ 8]  852 	rr	e
    000000AD CB 3A            [ 8]  853 	srl	d
    000000AF CB 1B            [ 8]  854 	rr	e
    000000B1 7B               [ 4]  855 	ld	a, e
    000000B2 E6 C0            [ 7]  856 	and	a, #0xc0
                                    857 ;E:/Dropbox/FAUSTO/SVILUPPI/MSX/CODE/C/MSXgl/engine/src/system.h:101: inline void Poke(u16 addr, u8 val) { *(u8*)addr = val; }
    000000B4 32 FE 7F         [13]  858 	ld	(#0x7ffe),a
                                    859 ;E:/Dropbox/FAUSTO/SVILUPPI/MSX/CODE/C/MSXgl/engine/src/rom_mapper.h:195: else if (b == 3)	Poke(ADDR_BANK_3, s & 0xFF);
                                    860 ;E:/Dropbox/FAUSTO/SVILUPPI/MSX/CODE/C/MSXgl/engine/src/system.h:101: inline void Poke(u16 addr, u8 val) { *(u8*)addr = val; }
    000000B7 21 00 B0         [10]  861 	ld	hl, #0xb000
    000000BA 71               [ 7]  862 	ld	(hl), c
                                    863 ;./soccerlg.c:182: SET_BANK_SEGMENT(3, _old);
                                    864 ;./soccerlg.c:183: }
    000000BB 33               [ 6]  865 	inc	sp
    000000BC DD E1            [14]  866 	pop	ix
    000000BE E1               [10]  867 	pop	hl
    000000BF 33               [ 6]  868 	inc	sp
    000000C0 E9               [ 4]  869 	jp	(hl)
                                    870 ;./soccerlg.c:185: void CallFnc_VOID_P2(u8 segment, void (*func)(u8, bool), u8 p1, bool p2) {
                                    871 ;	---------------------------------
                                    872 ; Function CallFnc_VOID_P2
                                    873 ; ---------------------------------
    000000C1                        874 _CallFnc_VOID_P2::
    000000C1 DD E5            [15]  875 	push	ix
    000000C3 DD 21 00 00      [14]  876 	ld	ix,#0
    000000C7 DD 39            [15]  877 	add	ix,sp
    000000C9 3B               [ 6]  878 	dec	sp
    000000CA 4F               [ 4]  879 	ld	c, a
                                    880 ;./soccerlg.c:186: u8 _old = GET_BANK_SEGMENT(3);
    000000CB 2Ar06r00         [16]  881 	ld	hl, (#(_g_Bank0Segment + 6) + 0)
    000000CE DD 75 FF         [19]  882 	ld	-1 (ix), l
                                    883 ;./soccerlg.c:187: SET_BANK_SEGMENT(3, segment);
    000000D1 06 00            [ 7]  884 	ld	b, #0x00
                                    885 ;E:/Dropbox/FAUSTO/SVILUPPI/MSX/CODE/C/MSXgl/engine/src/rom_mapper.h:190: g_Bank0Segment[b] = s;
    000000D3 ED 43r06r00      [20]  886 	ld	((_g_Bank0Segment + 6)), bc
                                    887 ;E:/Dropbox/FAUSTO/SVILUPPI/MSX/CODE/C/MSXgl/engine/src/rom_mapper.h:191: Poke(YAMANOOTO_OFFR, (s >> 2) & 0xC0);
    000000D7 69               [ 4]  888 	ld	l, c
    000000D8 60               [ 4]  889 	ld	h, b
    000000D9 CB 3C            [ 8]  890 	srl	h
    000000DB CB 1D            [ 8]  891 	rr	l
    000000DD CB 3C            [ 8]  892 	srl	h
    000000DF CB 1D            [ 8]  893 	rr	l
    000000E1 7D               [ 4]  894 	ld	a, l
    000000E2 E6 C0            [ 7]  895 	and	a, #0xc0
                                    896 ;E:/Dropbox/FAUSTO/SVILUPPI/MSX/CODE/C/MSXgl/engine/src/system.h:101: inline void Poke(u16 addr, u8 val) { *(u8*)addr = val; }
    000000E4 32 FE 7F         [13]  897 	ld	(#0x7ffe),a
                                    898 ;E:/Dropbox/FAUSTO/SVILUPPI/MSX/CODE/C/MSXgl/engine/src/rom_mapper.h:195: else if (b == 3)	Poke(ADDR_BANK_3, s & 0xFF);
                                    899 ;E:/Dropbox/FAUSTO/SVILUPPI/MSX/CODE/C/MSXgl/engine/src/system.h:101: inline void Poke(u16 addr, u8 val) { *(u8*)addr = val; }
    000000E7 21 00 B0         [10]  900 	ld	hl, #0xb000
    000000EA 71               [ 7]  901 	ld	(hl), c
                                    902 ;./soccerlg.c:188: func(p1,p2);
    000000EB DD 6E 05         [19]  903 	ld	l, 5 (ix)
                                    904 ;	spillPairReg hl
                                    905 ;	spillPairReg hl
    000000EE DD 7E 04         [19]  906 	ld	a, 4 (ix)
    000000F1 D5               [11]  907 	push	de
    000000F2 FD E1            [14]  908 	pop	iy
    000000F4 CDr00r00         [17]  909 	call	___sdcc_call_iy
                                    910 ;./soccerlg.c:189: SET_BANK_SEGMENT(3, _old);
    000000F7 DD 4E FF         [19]  911 	ld	c, -1 (ix)
    000000FA 06 00            [ 7]  912 	ld	b, #0x00
                                    913 ;E:/Dropbox/FAUSTO/SVILUPPI/MSX/CODE/C/MSXgl/engine/src/rom_mapper.h:190: g_Bank0Segment[b] = s;
    000000FC ED 43r06r00      [20]  914 	ld	((_g_Bank0Segment + 6)), bc
                                    915 ;E:/Dropbox/FAUSTO/SVILUPPI/MSX/CODE/C/MSXgl/engine/src/rom_mapper.h:191: Poke(YAMANOOTO_OFFR, (s >> 2) & 0xC0);
    00000100 59               [ 4]  916 	ld	e, c
    00000101 50               [ 4]  917 	ld	d, b
    00000102 CB 3A            [ 8]  918 	srl	d
    00000104 CB 1B            [ 8]  919 	rr	e
    00000106 CB 3A            [ 8]  920 	srl	d
    00000108 CB 1B            [ 8]  921 	rr	e
    0000010A 7B               [ 4]  922 	ld	a, e
    0000010B E6 C0            [ 7]  923 	and	a, #0xc0
                                    924 ;E:/Dropbox/FAUSTO/SVILUPPI/MSX/CODE/C/MSXgl/engine/src/system.h:101: inline void Poke(u16 addr, u8 val) { *(u8*)addr = val; }
    0000010D 32 FE 7F         [13]  925 	ld	(#0x7ffe),a
                                    926 ;E:/Dropbox/FAUSTO/SVILUPPI/MSX/CODE/C/MSXgl/engine/src/rom_mapper.h:195: else if (b == 3)	Poke(ADDR_BANK_3, s & 0xFF);
                                    927 ;E:/Dropbox/FAUSTO/SVILUPPI/MSX/CODE/C/MSXgl/engine/src/system.h:101: inline void Poke(u16 addr, u8 val) { *(u8*)addr = val; }
    00000110 21 00 B0         [10]  928 	ld	hl, #0xb000
    00000113 71               [ 7]  929 	ld	(hl), c
                                    930 ;./soccerlg.c:189: SET_BANK_SEGMENT(3, _old);
                                    931 ;./soccerlg.c:190: }
    00000114 33               [ 6]  932 	inc	sp
    00000115 DD E1            [14]  933 	pop	ix
    00000117 E1               [10]  934 	pop	hl
    00000118 F1               [10]  935 	pop	af
    00000119 E9               [ 4]  936 	jp	(hl)
                                    937 ;./soccerlg.c:192: void CallFnc_VOID_16_P2(u8 segment, void (*func)(u16,u16), u16 p1, u16 p2) {
                                    938 ;	---------------------------------
                                    939 ; Function CallFnc_VOID_16_P2
                                    940 ; ---------------------------------
    0000011A                        941 _CallFnc_VOID_16_P2::
    0000011A DD E5            [15]  942 	push	ix
    0000011C DD 21 00 00      [14]  943 	ld	ix,#0
    00000120 DD 39            [15]  944 	add	ix,sp
    00000122 F5               [11]  945 	push	af
    00000123 DD 77 FF         [19]  946 	ld	-1 (ix), a
    00000126 4B               [ 4]  947 	ld	c, e
    00000127 42               [ 4]  948 	ld	b, d
                                    949 ;./soccerlg.c:193: u8 _old = GET_BANK_SEGMENT(3);
    00000128 2Ar06r00         [16]  950 	ld	hl, (#(_g_Bank0Segment + 6) + 0)
    0000012B DD 75 FE         [19]  951 	ld	-2 (ix), l
                                    952 ;./soccerlg.c:194: SET_BANK_SEGMENT(3, segment);
    0000012E DD 5E FF         [19]  953 	ld	e, -1 (ix)
    00000131 16 00            [ 7]  954 	ld	d, #0x00
                                    955 ;E:/Dropbox/FAUSTO/SVILUPPI/MSX/CODE/C/MSXgl/engine/src/rom_mapper.h:190: g_Bank0Segment[b] = s;
    00000133 ED 53r06r00      [20]  956 	ld	((_g_Bank0Segment + 6)), de
                                    957 ;E:/Dropbox/FAUSTO/SVILUPPI/MSX/CODE/C/MSXgl/engine/src/rom_mapper.h:191: Poke(YAMANOOTO_OFFR, (s >> 2) & 0xC0);
    00000137 6B               [ 4]  958 	ld	l, e
    00000138 62               [ 4]  959 	ld	h, d
    00000139 CB 3C            [ 8]  960 	srl	h
    0000013B CB 1D            [ 8]  961 	rr	l
    0000013D CB 3C            [ 8]  962 	srl	h
    0000013F CB 1D            [ 8]  963 	rr	l
    00000141 7D               [ 4]  964 	ld	a, l
    00000142 E6 C0            [ 7]  965 	and	a, #0xc0
                                    966 ;E:/Dropbox/FAUSTO/SVILUPPI/MSX/CODE/C/MSXgl/engine/src/system.h:101: inline void Poke(u16 addr, u8 val) { *(u8*)addr = val; }
    00000144 32 FE 7F         [13]  967 	ld	(#0x7ffe),a
                                    968 ;E:/Dropbox/FAUSTO/SVILUPPI/MSX/CODE/C/MSXgl/engine/src/rom_mapper.h:195: else if (b == 3)	Poke(ADDR_BANK_3, s & 0xFF);
                                    969 ;E:/Dropbox/FAUSTO/SVILUPPI/MSX/CODE/C/MSXgl/engine/src/system.h:101: inline void Poke(u16 addr, u8 val) { *(u8*)addr = val; }
    00000147 21 00 B0         [10]  970 	ld	hl, #0xb000
    0000014A 73               [ 7]  971 	ld	(hl), e
                                    972 ;./soccerlg.c:195: func(p1,p2);
    0000014B DD 5E 06         [19]  973 	ld	e, 6 (ix)
    0000014E DD 56 07         [19]  974 	ld	d, 7 (ix)
    00000151 DD 6E 04         [19]  975 	ld	l, 4 (ix)
                                    976 ;	spillPairReg hl
                                    977 ;	spillPairReg hl
    00000154 DD 66 05         [19]  978 	ld	h, 5 (ix)
                                    979 ;	spillPairReg hl
                                    980 ;	spillPairReg hl
    00000157 C5               [11]  981 	push	bc
    00000158 FD E1            [14]  982 	pop	iy
    0000015A CDr00r00         [17]  983 	call	___sdcc_call_iy
                                    984 ;./soccerlg.c:196: SET_BANK_SEGMENT(3, _old);
    0000015D DD 4E FE         [19]  985 	ld	c, -2 (ix)
    00000160 06 00            [ 7]  986 	ld	b, #0x00
                                    987 ;E:/Dropbox/FAUSTO/SVILUPPI/MSX/CODE/C/MSXgl/engine/src/rom_mapper.h:190: g_Bank0Segment[b] = s;
    00000162 ED 43r06r00      [20]  988 	ld	((_g_Bank0Segment + 6)), bc
                                    989 ;E:/Dropbox/FAUSTO/SVILUPPI/MSX/CODE/C/MSXgl/engine/src/rom_mapper.h:191: Poke(YAMANOOTO_OFFR, (s >> 2) & 0xC0);
    00000166 59               [ 4]  990 	ld	e, c
    00000167 50               [ 4]  991 	ld	d, b
    00000168 CB 3A            [ 8]  992 	srl	d
    0000016A CB 1B            [ 8]  993 	rr	e
    0000016C CB 3A            [ 8]  994 	srl	d
    0000016E CB 1B            [ 8]  995 	rr	e
    00000170 7B               [ 4]  996 	ld	a, e
    00000171 E6 C0            [ 7]  997 	and	a, #0xc0
                                    998 ;E:/Dropbox/FAUSTO/SVILUPPI/MSX/CODE/C/MSXgl/engine/src/system.h:101: inline void Poke(u16 addr, u8 val) { *(u8*)addr = val; }
    00000173 32 FE 7F         [13]  999 	ld	(#0x7ffe),a
                                   1000 ;E:/Dropbox/FAUSTO/SVILUPPI/MSX/CODE/C/MSXgl/engine/src/rom_mapper.h:195: else if (b == 3)	Poke(ADDR_BANK_3, s & 0xFF);
                                   1001 ;E:/Dropbox/FAUSTO/SVILUPPI/MSX/CODE/C/MSXgl/engine/src/system.h:101: inline void Poke(u16 addr, u8 val) { *(u8*)addr = val; }
    00000176 21 00 B0         [10] 1002 	ld	hl, #0xb000
    00000179 71               [ 7] 1003 	ld	(hl), c
                                   1004 ;./soccerlg.c:196: SET_BANK_SEGMENT(3, _old);
                                   1005 ;./soccerlg.c:197: }
    0000017A DD F9            [10] 1006 	ld	sp, ix
    0000017C DD E1            [14] 1007 	pop	ix
    0000017E E1               [10] 1008 	pop	hl
    0000017F F1               [10] 1009 	pop	af
    00000180 F1               [10] 1010 	pop	af
    00000181 E9               [ 4] 1011 	jp	(hl)
                                   1012 ;./soccerlg.c:199: u8 CallFnc_U8(u8 segment, u8 (*func)()) {
                                   1013 ;	---------------------------------
                                   1014 ; Function CallFnc_U8
                                   1015 ; ---------------------------------
    00000182                       1016 _CallFnc_U8::
    00000182 DD E5            [15] 1017 	push	ix
    00000184 DD 21 00 00      [14] 1018 	ld	ix,#0
    00000188 DD 39            [15] 1019 	add	ix,sp
    0000018A 3B               [ 6] 1020 	dec	sp
    0000018B 4F               [ 4] 1021 	ld	c, a
                                   1022 ;./soccerlg.c:201: u8 _old = GET_BANK_SEGMENT(3);
    0000018C 2Ar06r00         [16] 1023 	ld	hl, (#(_g_Bank0Segment + 6) + 0)
    0000018F DD 75 FF         [19] 1024 	ld	-1 (ix), l
                                   1025 ;./soccerlg.c:202: SET_BANK_SEGMENT(3, segment);
    00000192 06 00            [ 7] 1026 	ld	b, #0x00
                                   1027 ;E:/Dropbox/FAUSTO/SVILUPPI/MSX/CODE/C/MSXgl/engine/src/rom_mapper.h:190: g_Bank0Segment[b] = s;
    00000194 ED 43r06r00      [20] 1028 	ld	((_g_Bank0Segment + 6)), bc
                                   1029 ;E:/Dropbox/FAUSTO/SVILUPPI/MSX/CODE/C/MSXgl/engine/src/rom_mapper.h:191: Poke(YAMANOOTO_OFFR, (s >> 2) & 0xC0);
    00000198 69               [ 4] 1030 	ld	l, c
    00000199 60               [ 4] 1031 	ld	h, b
    0000019A CB 3C            [ 8] 1032 	srl	h
    0000019C CB 1D            [ 8] 1033 	rr	l
    0000019E CB 3C            [ 8] 1034 	srl	h
    000001A0 CB 1D            [ 8] 1035 	rr	l
    000001A2 7D               [ 4] 1036 	ld	a, l
    000001A3 E6 C0            [ 7] 1037 	and	a, #0xc0
                                   1038 ;E:/Dropbox/FAUSTO/SVILUPPI/MSX/CODE/C/MSXgl/engine/src/system.h:101: inline void Poke(u16 addr, u8 val) { *(u8*)addr = val; }
    000001A5 32 FE 7F         [13] 1039 	ld	(#0x7ffe),a
                                   1040 ;E:/Dropbox/FAUSTO/SVILUPPI/MSX/CODE/C/MSXgl/engine/src/rom_mapper.h:195: else if (b == 3)	Poke(ADDR_BANK_3, s & 0xFF);
                                   1041 ;E:/Dropbox/FAUSTO/SVILUPPI/MSX/CODE/C/MSXgl/engine/src/system.h:101: inline void Poke(u16 addr, u8 val) { *(u8*)addr = val; }
    000001A8 21 00 B0         [10] 1042 	ld	hl, #0xb000
    000001AB 71               [ 7] 1043 	ld	(hl), c
                                   1044 ;./soccerlg.c:203: _res = func();
    000001AC EB               [ 4] 1045 	ex	de, hl
    000001AD CDr00r00         [17] 1046 	call	___sdcc_call_hl
    000001B0 4F               [ 4] 1047 	ld	c, a
                                   1048 ;./soccerlg.c:204: SET_BANK_SEGMENT(3, _old);
    000001B1 DD 5E FF         [19] 1049 	ld	e, -1 (ix)
    000001B4 16 00            [ 7] 1050 	ld	d, #0x00
                                   1051 ;E:/Dropbox/FAUSTO/SVILUPPI/MSX/CODE/C/MSXgl/engine/src/rom_mapper.h:190: g_Bank0Segment[b] = s;
    000001B6 ED 53r06r00      [20] 1052 	ld	((_g_Bank0Segment + 6)), de
                                   1053 ;E:/Dropbox/FAUSTO/SVILUPPI/MSX/CODE/C/MSXgl/engine/src/rom_mapper.h:191: Poke(YAMANOOTO_OFFR, (s >> 2) & 0xC0);
    000001BA 43               [ 4] 1054 	ld	b, e
    000001BB 6A               [ 4] 1055 	ld	l, d
                                   1056 ;	spillPairReg hl
                                   1057 ;	spillPairReg hl
    000001BC CB 3D            [ 8] 1058 	srl	l
    000001BE CB 18            [ 8] 1059 	rr	b
    000001C0 CB 3D            [ 8] 1060 	srl	l
    000001C2 CB 18            [ 8] 1061 	rr	b
    000001C4 78               [ 4] 1062 	ld	a, b
    000001C5 E6 C0            [ 7] 1063 	and	a, #0xc0
                                   1064 ;E:/Dropbox/FAUSTO/SVILUPPI/MSX/CODE/C/MSXgl/engine/src/system.h:101: inline void Poke(u16 addr, u8 val) { *(u8*)addr = val; }
    000001C7 32 FE 7F         [13] 1065 	ld	(#0x7ffe),a
                                   1066 ;E:/Dropbox/FAUSTO/SVILUPPI/MSX/CODE/C/MSXgl/engine/src/rom_mapper.h:195: else if (b == 3)	Poke(ADDR_BANK_3, s & 0xFF);
                                   1067 ;E:/Dropbox/FAUSTO/SVILUPPI/MSX/CODE/C/MSXgl/engine/src/system.h:101: inline void Poke(u16 addr, u8 val) { *(u8*)addr = val; }
    000001CA 21 00 B0         [10] 1068 	ld	hl, #0xb000
    000001CD 73               [ 7] 1069 	ld	(hl), e
                                   1070 ;./soccerlg.c:205: return _res;
    000001CE 79               [ 4] 1071 	ld	a, c
                                   1072 ;./soccerlg.c:206: }
    000001CF 33               [ 6] 1073 	inc	sp
    000001D0 DD E1            [14] 1074 	pop	ix
    000001D2 C9               [10] 1075 	ret
                                   1076 ;./soccerlg.c:208: u8 CallFnc_U8_P1(u8 segment, u8 (*func)(u8), u8 p1) {
                                   1077 ;	---------------------------------
                                   1078 ; Function CallFnc_U8_P1
                                   1079 ; ---------------------------------
    000001D3                       1080 _CallFnc_U8_P1::
    000001D3 DD E5            [15] 1081 	push	ix
    000001D5 DD 21 00 00      [14] 1082 	ld	ix,#0
    000001D9 DD 39            [15] 1083 	add	ix,sp
    000001DB 3B               [ 6] 1084 	dec	sp
    000001DC 4F               [ 4] 1085 	ld	c, a
                                   1086 ;./soccerlg.c:210: u8 _old = GET_BANK_SEGMENT(3);
    000001DD 2Ar06r00         [16] 1087 	ld	hl, (#(_g_Bank0Segment + 6) + 0)
    000001E0 DD 75 FF         [19] 1088 	ld	-1 (ix), l
                                   1089 ;./soccerlg.c:211: SET_BANK_SEGMENT(3, segment);
    000001E3 06 00            [ 7] 1090 	ld	b, #0x00
                                   1091 ;E:/Dropbox/FAUSTO/SVILUPPI/MSX/CODE/C/MSXgl/engine/src/rom_mapper.h:190: g_Bank0Segment[b] = s;
    000001E5 ED 43r06r00      [20] 1092 	ld	((_g_Bank0Segment + 6)), bc
                                   1093 ;E:/Dropbox/FAUSTO/SVILUPPI/MSX/CODE/C/MSXgl/engine/src/rom_mapper.h:191: Poke(YAMANOOTO_OFFR, (s >> 2) & 0xC0);
    000001E9 69               [ 4] 1094 	ld	l, c
    000001EA 60               [ 4] 1095 	ld	h, b
    000001EB CB 3C            [ 8] 1096 	srl	h
    000001ED CB 1D            [ 8] 1097 	rr	l
    000001EF CB 3C            [ 8] 1098 	srl	h
    000001F1 CB 1D            [ 8] 1099 	rr	l
    000001F3 7D               [ 4] 1100 	ld	a, l
    000001F4 E6 C0            [ 7] 1101 	and	a, #0xc0
                                   1102 ;E:/Dropbox/FAUSTO/SVILUPPI/MSX/CODE/C/MSXgl/engine/src/system.h:101: inline void Poke(u16 addr, u8 val) { *(u8*)addr = val; }
    000001F6 32 FE 7F         [13] 1103 	ld	(#0x7ffe),a
                                   1104 ;E:/Dropbox/FAUSTO/SVILUPPI/MSX/CODE/C/MSXgl/engine/src/rom_mapper.h:195: else if (b == 3)	Poke(ADDR_BANK_3, s & 0xFF);
                                   1105 ;E:/Dropbox/FAUSTO/SVILUPPI/MSX/CODE/C/MSXgl/engine/src/system.h:101: inline void Poke(u16 addr, u8 val) { *(u8*)addr = val; }
    000001F9 21 00 B0         [10] 1106 	ld	hl, #0xb000
    000001FC 71               [ 7] 1107 	ld	(hl), c
                                   1108 ;./soccerlg.c:212: _res = func(p1);
    000001FD DD 7E 04         [19] 1109 	ld	a, 4 (ix)
    00000200 EB               [ 4] 1110 	ex	de, hl
    00000201 CDr00r00         [17] 1111 	call	___sdcc_call_hl
    00000204 4F               [ 4] 1112 	ld	c, a
                                   1113 ;./soccerlg.c:213: SET_BANK_SEGMENT(3, _old);
    00000205 DD 5E FF         [19] 1114 	ld	e, -1 (ix)
    00000208 16 00            [ 7] 1115 	ld	d, #0x00
                                   1116 ;E:/Dropbox/FAUSTO/SVILUPPI/MSX/CODE/C/MSXgl/engine/src/rom_mapper.h:190: g_Bank0Segment[b] = s;
    0000020A ED 53r06r00      [20] 1117 	ld	((_g_Bank0Segment + 6)), de
                                   1118 ;E:/Dropbox/FAUSTO/SVILUPPI/MSX/CODE/C/MSXgl/engine/src/rom_mapper.h:191: Poke(YAMANOOTO_OFFR, (s >> 2) & 0xC0);
    0000020E 43               [ 4] 1119 	ld	b, e
    0000020F 6A               [ 4] 1120 	ld	l, d
                                   1121 ;	spillPairReg hl
                                   1122 ;	spillPairReg hl
    00000210 CB 3D            [ 8] 1123 	srl	l
    00000212 CB 18            [ 8] 1124 	rr	b
    00000214 CB 3D            [ 8] 1125 	srl	l
    00000216 CB 18            [ 8] 1126 	rr	b
    00000218 78               [ 4] 1127 	ld	a, b
    00000219 E6 C0            [ 7] 1128 	and	a, #0xc0
                                   1129 ;E:/Dropbox/FAUSTO/SVILUPPI/MSX/CODE/C/MSXgl/engine/src/system.h:101: inline void Poke(u16 addr, u8 val) { *(u8*)addr = val; }
    0000021B 32 FE 7F         [13] 1130 	ld	(#0x7ffe),a
                                   1131 ;E:/Dropbox/FAUSTO/SVILUPPI/MSX/CODE/C/MSXgl/engine/src/rom_mapper.h:195: else if (b == 3)	Poke(ADDR_BANK_3, s & 0xFF);
                                   1132 ;E:/Dropbox/FAUSTO/SVILUPPI/MSX/CODE/C/MSXgl/engine/src/system.h:101: inline void Poke(u16 addr, u8 val) { *(u8*)addr = val; }
    0000021E 21 00 B0         [10] 1133 	ld	hl, #0xb000
    00000221 73               [ 7] 1134 	ld	(hl), e
                                   1135 ;./soccerlg.c:214: return _res;
    00000222 79               [ 4] 1136 	ld	a, c
                                   1137 ;./soccerlg.c:215: }
    00000223 33               [ 6] 1138 	inc	sp
    00000224 DD E1            [14] 1139 	pop	ix
    00000226 E1               [10] 1140 	pop	hl
    00000227 33               [ 6] 1141 	inc	sp
    00000228 E9               [ 4] 1142 	jp	(hl)
                                   1143 ;./soccerlg.c:217: u16 CallFnc_U16_P1(u8 segment, u16 (*func)(u8), u8 p1) {
                                   1144 ;	---------------------------------
                                   1145 ; Function CallFnc_U16_P1
                                   1146 ; ---------------------------------
    00000229                       1147 _CallFnc_U16_P1::
    00000229 DD E5            [15] 1148 	push	ix
    0000022B DD 21 00 00      [14] 1149 	ld	ix,#0
    0000022F DD 39            [15] 1150 	add	ix,sp
    00000231 3B               [ 6] 1151 	dec	sp
    00000232 4F               [ 4] 1152 	ld	c, a
                                   1153 ;./soccerlg.c:219: u8 _old = GET_BANK_SEGMENT(3);
    00000233 2Ar06r00         [16] 1154 	ld	hl, (#(_g_Bank0Segment + 6) + 0)
    00000236 DD 75 FF         [19] 1155 	ld	-1 (ix), l
                                   1156 ;./soccerlg.c:220: SET_BANK_SEGMENT(3, segment);
    00000239 06 00            [ 7] 1157 	ld	b, #0x00
                                   1158 ;E:/Dropbox/FAUSTO/SVILUPPI/MSX/CODE/C/MSXgl/engine/src/rom_mapper.h:190: g_Bank0Segment[b] = s;
    0000023B ED 43r06r00      [20] 1159 	ld	((_g_Bank0Segment + 6)), bc
                                   1160 ;E:/Dropbox/FAUSTO/SVILUPPI/MSX/CODE/C/MSXgl/engine/src/rom_mapper.h:191: Poke(YAMANOOTO_OFFR, (s >> 2) & 0xC0);
    0000023F 69               [ 4] 1161 	ld	l, c
    00000240 60               [ 4] 1162 	ld	h, b
    00000241 CB 3C            [ 8] 1163 	srl	h
    00000243 CB 1D            [ 8] 1164 	rr	l
    00000245 CB 3C            [ 8] 1165 	srl	h
    00000247 CB 1D            [ 8] 1166 	rr	l
    00000249 7D               [ 4] 1167 	ld	a, l
    0000024A E6 C0            [ 7] 1168 	and	a, #0xc0
                                   1169 ;E:/Dropbox/FAUSTO/SVILUPPI/MSX/CODE/C/MSXgl/engine/src/system.h:101: inline void Poke(u16 addr, u8 val) { *(u8*)addr = val; }
    0000024C 32 FE 7F         [13] 1170 	ld	(#0x7ffe),a
                                   1171 ;E:/Dropbox/FAUSTO/SVILUPPI/MSX/CODE/C/MSXgl/engine/src/rom_mapper.h:195: else if (b == 3)	Poke(ADDR_BANK_3, s & 0xFF);
                                   1172 ;E:/Dropbox/FAUSTO/SVILUPPI/MSX/CODE/C/MSXgl/engine/src/system.h:101: inline void Poke(u16 addr, u8 val) { *(u8*)addr = val; }
    0000024F 21 00 B0         [10] 1173 	ld	hl, #0xb000
    00000252 71               [ 7] 1174 	ld	(hl), c
                                   1175 ;./soccerlg.c:221: _res = func(p1);
    00000253 DD 7E 04         [19] 1176 	ld	a, 4 (ix)
    00000256 EB               [ 4] 1177 	ex	de, hl
    00000257 CDr00r00         [17] 1178 	call	___sdcc_call_hl
                                   1179 ;./soccerlg.c:222: SET_BANK_SEGMENT(3, _old);
    0000025A DD 4E FF         [19] 1180 	ld	c, -1 (ix)
    0000025D 06 00            [ 7] 1181 	ld	b, #0x00
                                   1182 ;E:/Dropbox/FAUSTO/SVILUPPI/MSX/CODE/C/MSXgl/engine/src/rom_mapper.h:190: g_Bank0Segment[b] = s;
    0000025F ED 43r06r00      [20] 1183 	ld	((_g_Bank0Segment + 6)), bc
                                   1184 ;E:/Dropbox/FAUSTO/SVILUPPI/MSX/CODE/C/MSXgl/engine/src/rom_mapper.h:191: Poke(YAMANOOTO_OFFR, (s >> 2) & 0xC0);
    00000263 69               [ 4] 1185 	ld	l, c
    00000264 60               [ 4] 1186 	ld	h, b
    00000265 CB 3C            [ 8] 1187 	srl	h
    00000267 CB 1D            [ 8] 1188 	rr	l
    00000269 CB 3C            [ 8] 1189 	srl	h
    0000026B CB 1D            [ 8] 1190 	rr	l
    0000026D 7D               [ 4] 1191 	ld	a, l
    0000026E E6 C0            [ 7] 1192 	and	a, #0xc0
                                   1193 ;E:/Dropbox/FAUSTO/SVILUPPI/MSX/CODE/C/MSXgl/engine/src/system.h:101: inline void Poke(u16 addr, u8 val) { *(u8*)addr = val; }
    00000270 32 FE 7F         [13] 1194 	ld	(#0x7ffe),a
                                   1195 ;E:/Dropbox/FAUSTO/SVILUPPI/MSX/CODE/C/MSXgl/engine/src/rom_mapper.h:195: else if (b == 3)	Poke(ADDR_BANK_3, s & 0xFF);
                                   1196 ;E:/Dropbox/FAUSTO/SVILUPPI/MSX/CODE/C/MSXgl/engine/src/system.h:101: inline void Poke(u16 addr, u8 val) { *(u8*)addr = val; }
    00000273 21 00 B0         [10] 1197 	ld	hl, #0xb000
    00000276 71               [ 7] 1198 	ld	(hl), c
                                   1199 ;./soccerlg.c:223: return _res;
                                   1200 ;./soccerlg.c:224: }
    00000277 33               [ 6] 1201 	inc	sp
    00000278 DD E1            [14] 1202 	pop	ix
    0000027A E1               [10] 1203 	pop	hl
    0000027B 33               [ 6] 1204 	inc	sp
    0000027C E9               [ 4] 1205 	jp	(hl)
                                   1206 ;./soccerlg.c:226: u8 CallFnc_U8_P2(u8 segment, u8 (*func)(u8, u8), u8 p1, u8 p2) {
                                   1207 ;	---------------------------------
                                   1208 ; Function CallFnc_U8_P2
                                   1209 ; ---------------------------------
    0000027D                       1210 _CallFnc_U8_P2::
    0000027D DD E5            [15] 1211 	push	ix
    0000027F DD 21 00 00      [14] 1212 	ld	ix,#0
    00000283 DD 39            [15] 1213 	add	ix,sp
    00000285 3B               [ 6] 1214 	dec	sp
    00000286 4F               [ 4] 1215 	ld	c, a
                                   1216 ;./soccerlg.c:228: u8 _old = GET_BANK_SEGMENT(3);
    00000287 2Ar06r00         [16] 1217 	ld	hl, (#(_g_Bank0Segment + 6) + 0)
    0000028A DD 75 FF         [19] 1218 	ld	-1 (ix), l
                                   1219 ;./soccerlg.c:229: SET_BANK_SEGMENT(3, segment);
    0000028D 06 00            [ 7] 1220 	ld	b, #0x00
                                   1221 ;E:/Dropbox/FAUSTO/SVILUPPI/MSX/CODE/C/MSXgl/engine/src/rom_mapper.h:190: g_Bank0Segment[b] = s;
    0000028F ED 43r06r00      [20] 1222 	ld	((_g_Bank0Segment + 6)), bc
                                   1223 ;E:/Dropbox/FAUSTO/SVILUPPI/MSX/CODE/C/MSXgl/engine/src/rom_mapper.h:191: Poke(YAMANOOTO_OFFR, (s >> 2) & 0xC0);
    00000293 69               [ 4] 1224 	ld	l, c
    00000294 60               [ 4] 1225 	ld	h, b
    00000295 CB 3C            [ 8] 1226 	srl	h
    00000297 CB 1D            [ 8] 1227 	rr	l
    00000299 CB 3C            [ 8] 1228 	srl	h
    0000029B CB 1D            [ 8] 1229 	rr	l
    0000029D 7D               [ 4] 1230 	ld	a, l
    0000029E E6 C0            [ 7] 1231 	and	a, #0xc0
                                   1232 ;E:/Dropbox/FAUSTO/SVILUPPI/MSX/CODE/C/MSXgl/engine/src/system.h:101: inline void Poke(u16 addr, u8 val) { *(u8*)addr = val; }
    000002A0 32 FE 7F         [13] 1233 	ld	(#0x7ffe),a
                                   1234 ;E:/Dropbox/FAUSTO/SVILUPPI/MSX/CODE/C/MSXgl/engine/src/rom_mapper.h:195: else if (b == 3)	Poke(ADDR_BANK_3, s & 0xFF);
                                   1235 ;E:/Dropbox/FAUSTO/SVILUPPI/MSX/CODE/C/MSXgl/engine/src/system.h:101: inline void Poke(u16 addr, u8 val) { *(u8*)addr = val; }
    000002A3 21 00 B0         [10] 1236 	ld	hl, #0xb000
    000002A6 71               [ 7] 1237 	ld	(hl), c
                                   1238 ;./soccerlg.c:230: _res = func(p1,p2);
    000002A7 DD 6E 05         [19] 1239 	ld	l, 5 (ix)
                                   1240 ;	spillPairReg hl
                                   1241 ;	spillPairReg hl
    000002AA DD 7E 04         [19] 1242 	ld	a, 4 (ix)
    000002AD D5               [11] 1243 	push	de
    000002AE FD E1            [14] 1244 	pop	iy
    000002B0 CDr00r00         [17] 1245 	call	___sdcc_call_iy
    000002B3 4F               [ 4] 1246 	ld	c, a
                                   1247 ;./soccerlg.c:231: SET_BANK_SEGMENT(3, _old);
    000002B4 DD 5E FF         [19] 1248 	ld	e, -1 (ix)
    000002B7 16 00            [ 7] 1249 	ld	d, #0x00
                                   1250 ;E:/Dropbox/FAUSTO/SVILUPPI/MSX/CODE/C/MSXgl/engine/src/rom_mapper.h:190: g_Bank0Segment[b] = s;
    000002B9 ED 53r06r00      [20] 1251 	ld	((_g_Bank0Segment + 6)), de
                                   1252 ;E:/Dropbox/FAUSTO/SVILUPPI/MSX/CODE/C/MSXgl/engine/src/rom_mapper.h:191: Poke(YAMANOOTO_OFFR, (s >> 2) & 0xC0);
    000002BD 43               [ 4] 1253 	ld	b, e
    000002BE 6A               [ 4] 1254 	ld	l, d
                                   1255 ;	spillPairReg hl
                                   1256 ;	spillPairReg hl
    000002BF CB 3D            [ 8] 1257 	srl	l
    000002C1 CB 18            [ 8] 1258 	rr	b
    000002C3 CB 3D            [ 8] 1259 	srl	l
    000002C5 CB 18            [ 8] 1260 	rr	b
    000002C7 78               [ 4] 1261 	ld	a, b
    000002C8 E6 C0            [ 7] 1262 	and	a, #0xc0
                                   1263 ;E:/Dropbox/FAUSTO/SVILUPPI/MSX/CODE/C/MSXgl/engine/src/system.h:101: inline void Poke(u16 addr, u8 val) { *(u8*)addr = val; }
    000002CA 32 FE 7F         [13] 1264 	ld	(#0x7ffe),a
                                   1265 ;E:/Dropbox/FAUSTO/SVILUPPI/MSX/CODE/C/MSXgl/engine/src/rom_mapper.h:195: else if (b == 3)	Poke(ADDR_BANK_3, s & 0xFF);
                                   1266 ;E:/Dropbox/FAUSTO/SVILUPPI/MSX/CODE/C/MSXgl/engine/src/system.h:101: inline void Poke(u16 addr, u8 val) { *(u8*)addr = val; }
    000002CD 21 00 B0         [10] 1267 	ld	hl, #0xb000
    000002D0 73               [ 7] 1268 	ld	(hl), e
                                   1269 ;./soccerlg.c:232: return _res;
    000002D1 79               [ 4] 1270 	ld	a, c
                                   1271 ;./soccerlg.c:233: }
    000002D2 33               [ 6] 1272 	inc	sp
    000002D3 DD E1            [14] 1273 	pop	ix
    000002D5 E1               [10] 1274 	pop	hl
    000002D6 C1               [10] 1275 	pop	bc
    000002D7 E9               [ 4] 1276 	jp	(hl)
                                   1277 ;./soccerlg.c:235: bool CallFnc_BOOL(u8 segment, bool (*func)()) {
                                   1278 ;	---------------------------------
                                   1279 ; Function CallFnc_BOOL
                                   1280 ; ---------------------------------
    000002D8                       1281 _CallFnc_BOOL::
    000002D8 DD E5            [15] 1282 	push	ix
    000002DA DD 21 00 00      [14] 1283 	ld	ix,#0
    000002DE DD 39            [15] 1284 	add	ix,sp
    000002E0 3B               [ 6] 1285 	dec	sp
    000002E1 4F               [ 4] 1286 	ld	c, a
                                   1287 ;./soccerlg.c:237: u8 _old = GET_BANK_SEGMENT(3);
    000002E2 2Ar06r00         [16] 1288 	ld	hl, (#(_g_Bank0Segment + 6) + 0)
    000002E5 DD 75 FF         [19] 1289 	ld	-1 (ix), l
                                   1290 ;./soccerlg.c:238: SET_BANK_SEGMENT(3, segment);
    000002E8 06 00            [ 7] 1291 	ld	b, #0x00
                                   1292 ;E:/Dropbox/FAUSTO/SVILUPPI/MSX/CODE/C/MSXgl/engine/src/rom_mapper.h:190: g_Bank0Segment[b] = s;
    000002EA ED 43r06r00      [20] 1293 	ld	((_g_Bank0Segment + 6)), bc
                                   1294 ;E:/Dropbox/FAUSTO/SVILUPPI/MSX/CODE/C/MSXgl/engine/src/rom_mapper.h:191: Poke(YAMANOOTO_OFFR, (s >> 2) & 0xC0);
    000002EE 69               [ 4] 1295 	ld	l, c
    000002EF 60               [ 4] 1296 	ld	h, b
    000002F0 CB 3C            [ 8] 1297 	srl	h
    000002F2 CB 1D            [ 8] 1298 	rr	l
    000002F4 CB 3C            [ 8] 1299 	srl	h
    000002F6 CB 1D            [ 8] 1300 	rr	l
    000002F8 7D               [ 4] 1301 	ld	a, l
    000002F9 E6 C0            [ 7] 1302 	and	a, #0xc0
                                   1303 ;E:/Dropbox/FAUSTO/SVILUPPI/MSX/CODE/C/MSXgl/engine/src/system.h:101: inline void Poke(u16 addr, u8 val) { *(u8*)addr = val; }
    000002FB 32 FE 7F         [13] 1304 	ld	(#0x7ffe),a
                                   1305 ;E:/Dropbox/FAUSTO/SVILUPPI/MSX/CODE/C/MSXgl/engine/src/rom_mapper.h:195: else if (b == 3)	Poke(ADDR_BANK_3, s & 0xFF);
                                   1306 ;E:/Dropbox/FAUSTO/SVILUPPI/MSX/CODE/C/MSXgl/engine/src/system.h:101: inline void Poke(u16 addr, u8 val) { *(u8*)addr = val; }
    000002FE 21 00 B0         [10] 1307 	ld	hl, #0xb000
    00000301 71               [ 7] 1308 	ld	(hl), c
                                   1309 ;./soccerlg.c:239: _res = func();
    00000302 EB               [ 4] 1310 	ex	de, hl
    00000303 CDr00r00         [17] 1311 	call	___sdcc_call_hl
    00000306 4F               [ 4] 1312 	ld	c, a
                                   1313 ;./soccerlg.c:240: SET_BANK_SEGMENT(3, _old);
    00000307 DD 5E FF         [19] 1314 	ld	e, -1 (ix)
    0000030A 16 00            [ 7] 1315 	ld	d, #0x00
                                   1316 ;E:/Dropbox/FAUSTO/SVILUPPI/MSX/CODE/C/MSXgl/engine/src/rom_mapper.h:190: g_Bank0Segment[b] = s;
    0000030C ED 53r06r00      [20] 1317 	ld	((_g_Bank0Segment + 6)), de
                                   1318 ;E:/Dropbox/FAUSTO/SVILUPPI/MSX/CODE/C/MSXgl/engine/src/rom_mapper.h:191: Poke(YAMANOOTO_OFFR, (s >> 2) & 0xC0);
    00000310 43               [ 4] 1319 	ld	b, e
    00000311 6A               [ 4] 1320 	ld	l, d
                                   1321 ;	spillPairReg hl
                                   1322 ;	spillPairReg hl
    00000312 CB 3D            [ 8] 1323 	srl	l
    00000314 CB 18            [ 8] 1324 	rr	b
    00000316 CB 3D            [ 8] 1325 	srl	l
    00000318 CB 18            [ 8] 1326 	rr	b
    0000031A 78               [ 4] 1327 	ld	a, b
    0000031B E6 C0            [ 7] 1328 	and	a, #0xc0
                                   1329 ;E:/Dropbox/FAUSTO/SVILUPPI/MSX/CODE/C/MSXgl/engine/src/system.h:101: inline void Poke(u16 addr, u8 val) { *(u8*)addr = val; }
    0000031D 32 FE 7F         [13] 1330 	ld	(#0x7ffe),a
                                   1331 ;E:/Dropbox/FAUSTO/SVILUPPI/MSX/CODE/C/MSXgl/engine/src/rom_mapper.h:195: else if (b == 3)	Poke(ADDR_BANK_3, s & 0xFF);
                                   1332 ;E:/Dropbox/FAUSTO/SVILUPPI/MSX/CODE/C/MSXgl/engine/src/system.h:101: inline void Poke(u16 addr, u8 val) { *(u8*)addr = val; }
    00000320 21 00 B0         [10] 1333 	ld	hl, #0xb000
    00000323 73               [ 7] 1334 	ld	(hl), e
                                   1335 ;./soccerlg.c:241: return _res;
    00000324 79               [ 4] 1336 	ld	a, c
                                   1337 ;./soccerlg.c:242: }
    00000325 33               [ 6] 1338 	inc	sp
    00000326 DD E1            [14] 1339 	pop	ix
    00000328 C9               [10] 1340 	ret
                                   1341 ;./soccerlg.c:244: bool CallFnc_BOOL_P1(u8 segment, bool (*func)(u8), u8 p1) {
                                   1342 ;	---------------------------------
                                   1343 ; Function CallFnc_BOOL_P1
                                   1344 ; ---------------------------------
    00000329                       1345 _CallFnc_BOOL_P1::
    00000329 DD E5            [15] 1346 	push	ix
    0000032B DD 21 00 00      [14] 1347 	ld	ix,#0
    0000032F DD 39            [15] 1348 	add	ix,sp
    00000331 3B               [ 6] 1349 	dec	sp
    00000332 4F               [ 4] 1350 	ld	c, a
                                   1351 ;./soccerlg.c:246: u8 _old = GET_BANK_SEGMENT(3);
    00000333 2Ar06r00         [16] 1352 	ld	hl, (#(_g_Bank0Segment + 6) + 0)
    00000336 DD 75 FF         [19] 1353 	ld	-1 (ix), l
                                   1354 ;./soccerlg.c:247: SET_BANK_SEGMENT(3, segment);
    00000339 06 00            [ 7] 1355 	ld	b, #0x00
                                   1356 ;E:/Dropbox/FAUSTO/SVILUPPI/MSX/CODE/C/MSXgl/engine/src/rom_mapper.h:190: g_Bank0Segment[b] = s;
    0000033B ED 43r06r00      [20] 1357 	ld	((_g_Bank0Segment + 6)), bc
                                   1358 ;E:/Dropbox/FAUSTO/SVILUPPI/MSX/CODE/C/MSXgl/engine/src/rom_mapper.h:191: Poke(YAMANOOTO_OFFR, (s >> 2) & 0xC0);
    0000033F 69               [ 4] 1359 	ld	l, c
    00000340 60               [ 4] 1360 	ld	h, b
    00000341 CB 3C            [ 8] 1361 	srl	h
    00000343 CB 1D            [ 8] 1362 	rr	l
    00000345 CB 3C            [ 8] 1363 	srl	h
    00000347 CB 1D            [ 8] 1364 	rr	l
    00000349 7D               [ 4] 1365 	ld	a, l
    0000034A E6 C0            [ 7] 1366 	and	a, #0xc0
                                   1367 ;E:/Dropbox/FAUSTO/SVILUPPI/MSX/CODE/C/MSXgl/engine/src/system.h:101: inline void Poke(u16 addr, u8 val) { *(u8*)addr = val; }
    0000034C 32 FE 7F         [13] 1368 	ld	(#0x7ffe),a
                                   1369 ;E:/Dropbox/FAUSTO/SVILUPPI/MSX/CODE/C/MSXgl/engine/src/rom_mapper.h:195: else if (b == 3)	Poke(ADDR_BANK_3, s & 0xFF);
                                   1370 ;E:/Dropbox/FAUSTO/SVILUPPI/MSX/CODE/C/MSXgl/engine/src/system.h:101: inline void Poke(u16 addr, u8 val) { *(u8*)addr = val; }
    0000034F 21 00 B0         [10] 1371 	ld	hl, #0xb000
    00000352 71               [ 7] 1372 	ld	(hl), c
                                   1373 ;./soccerlg.c:248: _res = func(p1);
    00000353 DD 7E 04         [19] 1374 	ld	a, 4 (ix)
    00000356 EB               [ 4] 1375 	ex	de, hl
    00000357 CDr00r00         [17] 1376 	call	___sdcc_call_hl
    0000035A 4F               [ 4] 1377 	ld	c, a
                                   1378 ;./soccerlg.c:249: SET_BANK_SEGMENT(3, _old);
    0000035B DD 5E FF         [19] 1379 	ld	e, -1 (ix)
    0000035E 16 00            [ 7] 1380 	ld	d, #0x00
                                   1381 ;E:/Dropbox/FAUSTO/SVILUPPI/MSX/CODE/C/MSXgl/engine/src/rom_mapper.h:190: g_Bank0Segment[b] = s;
    00000360 ED 53r06r00      [20] 1382 	ld	((_g_Bank0Segment + 6)), de
                                   1383 ;E:/Dropbox/FAUSTO/SVILUPPI/MSX/CODE/C/MSXgl/engine/src/rom_mapper.h:191: Poke(YAMANOOTO_OFFR, (s >> 2) & 0xC0);
    00000364 43               [ 4] 1384 	ld	b, e
    00000365 6A               [ 4] 1385 	ld	l, d
                                   1386 ;	spillPairReg hl
                                   1387 ;	spillPairReg hl
    00000366 CB 3D            [ 8] 1388 	srl	l
    00000368 CB 18            [ 8] 1389 	rr	b
    0000036A CB 3D            [ 8] 1390 	srl	l
    0000036C CB 18            [ 8] 1391 	rr	b
    0000036E 78               [ 4] 1392 	ld	a, b
    0000036F E6 C0            [ 7] 1393 	and	a, #0xc0
                                   1394 ;E:/Dropbox/FAUSTO/SVILUPPI/MSX/CODE/C/MSXgl/engine/src/system.h:101: inline void Poke(u16 addr, u8 val) { *(u8*)addr = val; }
    00000371 32 FE 7F         [13] 1395 	ld	(#0x7ffe),a
                                   1396 ;E:/Dropbox/FAUSTO/SVILUPPI/MSX/CODE/C/MSXgl/engine/src/rom_mapper.h:195: else if (b == 3)	Poke(ADDR_BANK_3, s & 0xFF);
                                   1397 ;E:/Dropbox/FAUSTO/SVILUPPI/MSX/CODE/C/MSXgl/engine/src/system.h:101: inline void Poke(u16 addr, u8 val) { *(u8*)addr = val; }
    00000374 21 00 B0         [10] 1398 	ld	hl, #0xb000
    00000377 73               [ 7] 1399 	ld	(hl), e
                                   1400 ;./soccerlg.c:250: return _res;
    00000378 79               [ 4] 1401 	ld	a, c
                                   1402 ;./soccerlg.c:251: }
    00000379 33               [ 6] 1403 	inc	sp
    0000037A DD E1            [14] 1404 	pop	ix
    0000037C E1               [10] 1405 	pop	hl
    0000037D 33               [ 6] 1406 	inc	sp
    0000037E E9               [ 4] 1407 	jp	(hl)
                                   1408 ;./soccerlg.c:257: void PlayPCM(u8 id){
                                   1409 ;	---------------------------------
                                   1410 ; Function PlayPCM
                                   1411 ; ---------------------------------
    0000037F                       1412 _PlayPCM::
    0000037F DD E5            [15] 1413 	push	ix
    00000381 DD 21 00 00      [14] 1414 	ld	ix,#0
    00000385 DD 39            [15] 1415 	add	ix,sp
    00000387 F5               [11] 1416 	push	af
    00000388 3B               [ 6] 1417 	dec	sp
    00000389 4F               [ 4] 1418 	ld	c, a
                                   1419 ;./soccerlg.c:258: bool isSCCPlaying=YSCC_GetFirstSegmentOfCurrentPlaying()!=0xFFFF;
    0000038A C5               [11] 1420 	push	bc
    0000038B CDr00r00         [17] 1421 	call	_YSCC_GetFirstSegmentOfCurrentPlaying
    0000038E C1               [10] 1422 	pop	bc
    0000038F 7B               [ 4] 1423 	ld	a, e
    00000390 A2               [ 4] 1424 	and	a, d
    00000391 3C               [ 4] 1425 	inc	a
    00000392 3E 01            [ 7] 1426 	ld	a, #0x01
    00000394 28 01            [12] 1427 	jr	Z, 00482$
    00000396 AF               [ 4] 1428 	xor	a, a
    00000397                       1429 00482$:
    00000397 EE 01            [ 7] 1430 	xor	a, #0x01
    00000399 DD 77 FD         [19] 1431 	ld	-3 (ix), a
                                   1432 ;./soccerlg.c:259: YSCC_Pause();
    0000039C C5               [11] 1433 	push	bc
    0000039D CDr00r00         [17] 1434 	call	_YSCC_Pause
    000003A0 C1               [10] 1435 	pop	bc
                                   1436 ;./soccerlg.c:260: u8 currentSegment2 = GET_BANK_SEGMENT(2);
    000003A1 2Ar04r00         [16] 1437 	ld	hl, (#(_g_Bank0Segment + 4) + 0)
    000003A4 DD 75 FE         [19] 1438 	ld	-2 (ix), l
                                   1439 ;./soccerlg.c:261: u8 currentSegment3 = GET_BANK_SEGMENT(3);
    000003A7 2Ar06r00         [16] 1440 	ld	hl, (#(_g_Bank0Segment + 6) + 0)
    000003AA DD 75 FF         [19] 1441 	ld	-1 (ix), l
                                   1442 ;./soccerlg.c:262: switch(id){
    000003AD 3E 05            [ 7] 1443 	ld	a, #0x05
    000003AF 91               [ 4] 1444 	sub	a, c
    000003B0 DAr21r05         [10] 1445 	jp	C, 00107$
    000003B3 06 00            [ 7] 1446 	ld	b, #0x00
    000003B5 21rBCr03         [10] 1447 	ld	hl, #00483$
    000003B8 09               [11] 1448 	add	hl, bc
    000003B9 09               [11] 1449 	add	hl, bc
    000003BA 09               [11] 1450 	add	hl, bc
    000003BB E9               [ 4] 1451 	jp	(hl)
    000003BC                       1452 00483$:
    000003BC C3rCEr03         [10] 1453 	jp	00101$
    000003BF C3rFBr03         [10] 1454 	jp	00102$
    000003C2 C3r28r04         [10] 1455 	jp	00103$
    000003C5 C3rAFr04         [10] 1456 	jp	00104$
    000003C8 C3rDCr04         [10] 1457 	jp	00105$
    000003CB C3r09r05         [10] 1458 	jp	00106$
                                   1459 ;./soccerlg.c:263: case PCM_CORNERKICK:
    000003CE                       1460 00101$:
                                   1461 ;E:/Dropbox/FAUSTO/SVILUPPI/MSX/CODE/C/MSXgl/engine/src/rom_mapper.h:190: g_Bank0Segment[b] = s;
    000003CE 21 2C 00         [10] 1462 	ld	hl, #0x002c
    000003D1 22r04r00         [16] 1463 	ld	((_g_Bank0Segment + 4)), hl
                                   1464 ;E:/Dropbox/FAUSTO/SVILUPPI/MSX/CODE/C/MSXgl/engine/src/rom_mapper.h:191: Poke(YAMANOOTO_OFFR, (s >> 2) & 0xC0);
    000003D4 3E 0B            [ 7] 1465 	ld	a, #0x0b
    000003D6 E6 C0            [ 7] 1466 	and	a, #0xc0
                                   1467 ;E:/Dropbox/FAUSTO/SVILUPPI/MSX/CODE/C/MSXgl/engine/src/system.h:101: inline void Poke(u16 addr, u8 val) { *(u8*)addr = val; }
    000003D8 32 FE 7F         [13] 1468 	ld	(#0x7ffe),a
                                   1469 ;E:/Dropbox/FAUSTO/SVILUPPI/MSX/CODE/C/MSXgl/engine/src/rom_mapper.h:194: else if (b == 2)	Poke(ADDR_BANK_2, s & 0xFF);
    000003DB 3E 2C            [ 7] 1470 	ld	a, #0x2c
                                   1471 ;E:/Dropbox/FAUSTO/SVILUPPI/MSX/CODE/C/MSXgl/engine/src/system.h:101: inline void Poke(u16 addr, u8 val) { *(u8*)addr = val; }
    000003DD 32 00 90         [13] 1472 	ld	(#0x9000),a
                                   1473 ;E:/Dropbox/FAUSTO/SVILUPPI/MSX/CODE/C/MSXgl/engine/src/rom_mapper.h:190: g_Bank0Segment[b] = s;
    000003E0 21 2D 00         [10] 1474 	ld	hl, #0x002d
    000003E3 22r06r00         [16] 1475 	ld	((_g_Bank0Segment + 6)), hl
                                   1476 ;E:/Dropbox/FAUSTO/SVILUPPI/MSX/CODE/C/MSXgl/engine/src/rom_mapper.h:191: Poke(YAMANOOTO_OFFR, (s >> 2) & 0xC0);
    000003E6 3E 0B            [ 7] 1477 	ld	a, #0x0b
    000003E8 E6 C0            [ 7] 1478 	and	a, #0xc0
                                   1479 ;E:/Dropbox/FAUSTO/SVILUPPI/MSX/CODE/C/MSXgl/engine/src/system.h:101: inline void Poke(u16 addr, u8 val) { *(u8*)addr = val; }
    000003EA 32 FE 7F         [13] 1480 	ld	(#0x7ffe),a
                                   1481 ;E:/Dropbox/FAUSTO/SVILUPPI/MSX/CODE/C/MSXgl/engine/src/rom_mapper.h:195: else if (b == 3)	Poke(ADDR_BANK_3, s & 0xFF);
    000003ED 3E 2D            [ 7] 1482 	ld	a, #0x2d
                                   1483 ;E:/Dropbox/FAUSTO/SVILUPPI/MSX/CODE/C/MSXgl/engine/src/system.h:101: inline void Poke(u16 addr, u8 val) { *(u8*)addr = val; }
    000003EF 32 00 B0         [13] 1484 	ld	(#0xb000),a
                                   1485 ;./soccerlg.c:266: PCM_Play_11K((u16)g_Data_PCM_CornerKicka);
    000003F2 21r00r00         [10] 1486 	ld	hl, #_g_Data_PCM_CornerKicka
    000003F5 CDr00r00         [17] 1487 	call	_PCM_Play_11K
                                   1488 ;./soccerlg.c:267: break;
    000003F8 C3r21r05         [10] 1489 	jp	00107$
                                   1490 ;./soccerlg.c:268: case PCM_KICKOFF:
    000003FB                       1491 00102$:
                                   1492 ;E:/Dropbox/FAUSTO/SVILUPPI/MSX/CODE/C/MSXgl/engine/src/rom_mapper.h:190: g_Bank0Segment[b] = s;
    000003FB 21 2E 00         [10] 1493 	ld	hl, #0x002e
    000003FE 22r04r00         [16] 1494 	ld	((_g_Bank0Segment + 4)), hl
                                   1495 ;E:/Dropbox/FAUSTO/SVILUPPI/MSX/CODE/C/MSXgl/engine/src/rom_mapper.h:191: Poke(YAMANOOTO_OFFR, (s >> 2) & 0xC0);
    00000401 3E 0B            [ 7] 1496 	ld	a, #0x0b
    00000403 E6 C0            [ 7] 1497 	and	a, #0xc0
                                   1498 ;E:/Dropbox/FAUSTO/SVILUPPI/MSX/CODE/C/MSXgl/engine/src/system.h:101: inline void Poke(u16 addr, u8 val) { *(u8*)addr = val; }
    00000405 32 FE 7F         [13] 1499 	ld	(#0x7ffe),a
                                   1500 ;E:/Dropbox/FAUSTO/SVILUPPI/MSX/CODE/C/MSXgl/engine/src/rom_mapper.h:194: else if (b == 2)	Poke(ADDR_BANK_2, s & 0xFF);
    00000408 3E 2E            [ 7] 1501 	ld	a, #0x2e
                                   1502 ;E:/Dropbox/FAUSTO/SVILUPPI/MSX/CODE/C/MSXgl/engine/src/system.h:101: inline void Poke(u16 addr, u8 val) { *(u8*)addr = val; }
    0000040A 32 00 90         [13] 1503 	ld	(#0x9000),a
                                   1504 ;E:/Dropbox/FAUSTO/SVILUPPI/MSX/CODE/C/MSXgl/engine/src/rom_mapper.h:190: g_Bank0Segment[b] = s;
    0000040D 21 2F 00         [10] 1505 	ld	hl, #0x002f
    00000410 22r06r00         [16] 1506 	ld	((_g_Bank0Segment + 6)), hl
                                   1507 ;E:/Dropbox/FAUSTO/SVILUPPI/MSX/CODE/C/MSXgl/engine/src/rom_mapper.h:191: Poke(YAMANOOTO_OFFR, (s >> 2) & 0xC0);
    00000413 3E 0B            [ 7] 1508 	ld	a, #0x0b
    00000415 E6 C0            [ 7] 1509 	and	a, #0xc0
                                   1510 ;E:/Dropbox/FAUSTO/SVILUPPI/MSX/CODE/C/MSXgl/engine/src/system.h:101: inline void Poke(u16 addr, u8 val) { *(u8*)addr = val; }
    00000417 32 FE 7F         [13] 1511 	ld	(#0x7ffe),a
                                   1512 ;E:/Dropbox/FAUSTO/SVILUPPI/MSX/CODE/C/MSXgl/engine/src/rom_mapper.h:195: else if (b == 3)	Poke(ADDR_BANK_3, s & 0xFF);
    0000041A 3E 2F            [ 7] 1513 	ld	a, #0x2f
                                   1514 ;E:/Dropbox/FAUSTO/SVILUPPI/MSX/CODE/C/MSXgl/engine/src/system.h:101: inline void Poke(u16 addr, u8 val) { *(u8*)addr = val; }
    0000041C 32 00 B0         [13] 1515 	ld	(#0xb000),a
                                   1516 ;./soccerlg.c:271: PCM_Play_11K((u16)g_Data_PCM_KickOffa);
    0000041F 21r00r00         [10] 1517 	ld	hl, #_g_Data_PCM_KickOffa
    00000422 CDr00r00         [17] 1518 	call	_PCM_Play_11K
                                   1519 ;./soccerlg.c:272: break;
    00000425 C3r21r05         [10] 1520 	jp	00107$
                                   1521 ;./soccerlg.c:273: case PCM_INGOAL:
    00000428                       1522 00103$:
                                   1523 ;E:/Dropbox/FAUSTO/SVILUPPI/MSX/CODE/C/MSXgl/engine/src/rom_mapper.h:190: g_Bank0Segment[b] = s;
    00000428 21 30 00         [10] 1524 	ld	hl, #0x0030
    0000042B 22r04r00         [16] 1525 	ld	((_g_Bank0Segment + 4)), hl
                                   1526 ;E:/Dropbox/FAUSTO/SVILUPPI/MSX/CODE/C/MSXgl/engine/src/rom_mapper.h:191: Poke(YAMANOOTO_OFFR, (s >> 2) & 0xC0);
    0000042E 3E 0C            [ 7] 1527 	ld	a, #0x0c
    00000430 E6 C0            [ 7] 1528 	and	a, #0xc0
                                   1529 ;E:/Dropbox/FAUSTO/SVILUPPI/MSX/CODE/C/MSXgl/engine/src/system.h:101: inline void Poke(u16 addr, u8 val) { *(u8*)addr = val; }
    00000432 32 FE 7F         [13] 1530 	ld	(#0x7ffe),a
                                   1531 ;E:/Dropbox/FAUSTO/SVILUPPI/MSX/CODE/C/MSXgl/engine/src/rom_mapper.h:194: else if (b == 2)	Poke(ADDR_BANK_2, s & 0xFF);
    00000435 3E 30            [ 7] 1532 	ld	a, #0x30
                                   1533 ;E:/Dropbox/FAUSTO/SVILUPPI/MSX/CODE/C/MSXgl/engine/src/system.h:101: inline void Poke(u16 addr, u8 val) { *(u8*)addr = val; }
    00000437 32 00 90         [13] 1534 	ld	(#0x9000),a
                                   1535 ;E:/Dropbox/FAUSTO/SVILUPPI/MSX/CODE/C/MSXgl/engine/src/rom_mapper.h:190: g_Bank0Segment[b] = s;
    0000043A 21 31 00         [10] 1536 	ld	hl, #0x0031
    0000043D 22r06r00         [16] 1537 	ld	((_g_Bank0Segment + 6)), hl
                                   1538 ;E:/Dropbox/FAUSTO/SVILUPPI/MSX/CODE/C/MSXgl/engine/src/rom_mapper.h:191: Poke(YAMANOOTO_OFFR, (s >> 2) & 0xC0);
    00000440 3E 0C            [ 7] 1539 	ld	a, #0x0c
    00000442 E6 C0            [ 7] 1540 	and	a, #0xc0
                                   1541 ;E:/Dropbox/FAUSTO/SVILUPPI/MSX/CODE/C/MSXgl/engine/src/system.h:101: inline void Poke(u16 addr, u8 val) { *(u8*)addr = val; }
    00000444 32 FE 7F         [13] 1542 	ld	(#0x7ffe),a
                                   1543 ;E:/Dropbox/FAUSTO/SVILUPPI/MSX/CODE/C/MSXgl/engine/src/rom_mapper.h:195: else if (b == 3)	Poke(ADDR_BANK_3, s & 0xFF);
    00000447 3E 31            [ 7] 1544 	ld	a, #0x31
                                   1545 ;E:/Dropbox/FAUSTO/SVILUPPI/MSX/CODE/C/MSXgl/engine/src/system.h:101: inline void Poke(u16 addr, u8 val) { *(u8*)addr = val; }
    00000449 32 00 B0         [13] 1546 	ld	(#0xb000),a
                                   1547 ;./soccerlg.c:276: PCM_Play_11K((u16)g_Data_PCM_InGoal_1a);
    0000044C 21r00r00         [10] 1548 	ld	hl, #_g_Data_PCM_InGoal_1a
    0000044F CDr00r00         [17] 1549 	call	_PCM_Play_11K
                                   1550 ;E:/Dropbox/FAUSTO/SVILUPPI/MSX/CODE/C/MSXgl/engine/src/rom_mapper.h:190: g_Bank0Segment[b] = s;
    00000452 21 32 00         [10] 1551 	ld	hl, #0x0032
    00000455 22r04r00         [16] 1552 	ld	((_g_Bank0Segment + 4)), hl
                                   1553 ;E:/Dropbox/FAUSTO/SVILUPPI/MSX/CODE/C/MSXgl/engine/src/rom_mapper.h:191: Poke(YAMANOOTO_OFFR, (s >> 2) & 0xC0);
    00000458 3E 0C            [ 7] 1554 	ld	a, #0x0c
    0000045A E6 C0            [ 7] 1555 	and	a, #0xc0
                                   1556 ;E:/Dropbox/FAUSTO/SVILUPPI/MSX/CODE/C/MSXgl/engine/src/system.h:101: inline void Poke(u16 addr, u8 val) { *(u8*)addr = val; }
    0000045C 32 FE 7F         [13] 1557 	ld	(#0x7ffe),a
                                   1558 ;E:/Dropbox/FAUSTO/SVILUPPI/MSX/CODE/C/MSXgl/engine/src/rom_mapper.h:194: else if (b == 2)	Poke(ADDR_BANK_2, s & 0xFF);
    0000045F 3E 32            [ 7] 1559 	ld	a, #0x32
                                   1560 ;E:/Dropbox/FAUSTO/SVILUPPI/MSX/CODE/C/MSXgl/engine/src/system.h:101: inline void Poke(u16 addr, u8 val) { *(u8*)addr = val; }
    00000461 32 00 90         [13] 1561 	ld	(#0x9000),a
                                   1562 ;E:/Dropbox/FAUSTO/SVILUPPI/MSX/CODE/C/MSXgl/engine/src/rom_mapper.h:190: g_Bank0Segment[b] = s;
    00000464 21 33 00         [10] 1563 	ld	hl, #0x0033
    00000467 22r06r00         [16] 1564 	ld	((_g_Bank0Segment + 6)), hl
                                   1565 ;E:/Dropbox/FAUSTO/SVILUPPI/MSX/CODE/C/MSXgl/engine/src/rom_mapper.h:191: Poke(YAMANOOTO_OFFR, (s >> 2) & 0xC0);
    0000046A 3E 0C            [ 7] 1566 	ld	a, #0x0c
    0000046C E6 C0            [ 7] 1567 	and	a, #0xc0
                                   1568 ;E:/Dropbox/FAUSTO/SVILUPPI/MSX/CODE/C/MSXgl/engine/src/system.h:101: inline void Poke(u16 addr, u8 val) { *(u8*)addr = val; }
    0000046E 32 FE 7F         [13] 1569 	ld	(#0x7ffe),a
                                   1570 ;E:/Dropbox/FAUSTO/SVILUPPI/MSX/CODE/C/MSXgl/engine/src/rom_mapper.h:195: else if (b == 3)	Poke(ADDR_BANK_3, s & 0xFF);
    00000471 3E 33            [ 7] 1571 	ld	a, #0x33
                                   1572 ;E:/Dropbox/FAUSTO/SVILUPPI/MSX/CODE/C/MSXgl/engine/src/system.h:101: inline void Poke(u16 addr, u8 val) { *(u8*)addr = val; }
    00000473 32 00 B0         [13] 1573 	ld	(#0xb000),a
                                   1574 ;./soccerlg.c:279: PCM_Play_11K((u16)g_Data_PCM_InGoal_2a);
    00000476 21r00r00         [10] 1575 	ld	hl, #_g_Data_PCM_InGoal_2a
    00000479 CDr00r00         [17] 1576 	call	_PCM_Play_11K
                                   1577 ;E:/Dropbox/FAUSTO/SVILUPPI/MSX/CODE/C/MSXgl/engine/src/rom_mapper.h:190: g_Bank0Segment[b] = s;
    0000047C 21 34 00         [10] 1578 	ld	hl, #0x0034
    0000047F 22r04r00         [16] 1579 	ld	((_g_Bank0Segment + 4)), hl
                                   1580 ;E:/Dropbox/FAUSTO/SVILUPPI/MSX/CODE/C/MSXgl/engine/src/rom_mapper.h:191: Poke(YAMANOOTO_OFFR, (s >> 2) & 0xC0);
    00000482 3E 0D            [ 7] 1581 	ld	a, #0x0d
    00000484 E6 C0            [ 7] 1582 	and	a, #0xc0
                                   1583 ;E:/Dropbox/FAUSTO/SVILUPPI/MSX/CODE/C/MSXgl/engine/src/system.h:101: inline void Poke(u16 addr, u8 val) { *(u8*)addr = val; }
    00000486 32 FE 7F         [13] 1584 	ld	(#0x7ffe),a
                                   1585 ;E:/Dropbox/FAUSTO/SVILUPPI/MSX/CODE/C/MSXgl/engine/src/rom_mapper.h:194: else if (b == 2)	Poke(ADDR_BANK_2, s & 0xFF);
    00000489 3E 34            [ 7] 1586 	ld	a, #0x34
                                   1587 ;E:/Dropbox/FAUSTO/SVILUPPI/MSX/CODE/C/MSXgl/engine/src/system.h:101: inline void Poke(u16 addr, u8 val) { *(u8*)addr = val; }
    0000048B 32 00 90         [13] 1588 	ld	(#0x9000),a
                                   1589 ;E:/Dropbox/FAUSTO/SVILUPPI/MSX/CODE/C/MSXgl/engine/src/rom_mapper.h:190: g_Bank0Segment[b] = s;
    0000048E 21 35 00         [10] 1590 	ld	hl, #0x0035
    00000491 22r06r00         [16] 1591 	ld	((_g_Bank0Segment + 6)), hl
                                   1592 ;E:/Dropbox/FAUSTO/SVILUPPI/MSX/CODE/C/MSXgl/engine/src/rom_mapper.h:191: Poke(YAMANOOTO_OFFR, (s >> 2) & 0xC0);
    00000494 3E 0D            [ 7] 1593 	ld	a, #0x0d
    00000496 E6 C0            [ 7] 1594 	and	a, #0xc0
                                   1595 ;E:/Dropbox/FAUSTO/SVILUPPI/MSX/CODE/C/MSXgl/engine/src/system.h:101: inline void Poke(u16 addr, u8 val) { *(u8*)addr = val; }
    00000498 32 FE 7F         [13] 1596 	ld	(#0x7ffe),a
                                   1597 ;E:/Dropbox/FAUSTO/SVILUPPI/MSX/CODE/C/MSXgl/engine/src/rom_mapper.h:195: else if (b == 3)	Poke(ADDR_BANK_3, s & 0xFF);
    0000049B 3E 35            [ 7] 1598 	ld	a, #0x35
                                   1599 ;E:/Dropbox/FAUSTO/SVILUPPI/MSX/CODE/C/MSXgl/engine/src/system.h:101: inline void Poke(u16 addr, u8 val) { *(u8*)addr = val; }
    0000049D 32 00 B0         [13] 1600 	ld	(#0xb000),a
                                   1601 ;./soccerlg.c:282: PCM_Play_11K((u16)g_Data_PCM_InGoal_3a);
    000004A0 21r00r00         [10] 1602 	ld	hl, #_g_Data_PCM_InGoal_3a
    000004A3 CDr00r00         [17] 1603 	call	_PCM_Play_11K
                                   1604 ;./soccerlg.c:283: PCM_Play_11K((u16)g_Data_PCM_InGoal_3a);
    000004A6 21r00r00         [10] 1605 	ld	hl, #_g_Data_PCM_InGoal_3a
    000004A9 CDr00r00         [17] 1606 	call	_PCM_Play_11K
                                   1607 ;./soccerlg.c:284: break;
    000004AC C3r21r05         [10] 1608 	jp	00107$
                                   1609 ;./soccerlg.c:285: case PCM_THROWIN:
    000004AF                       1610 00104$:
                                   1611 ;E:/Dropbox/FAUSTO/SVILUPPI/MSX/CODE/C/MSXgl/engine/src/rom_mapper.h:190: g_Bank0Segment[b] = s;
    000004AF 21 36 00         [10] 1612 	ld	hl, #0x0036
    000004B2 22r04r00         [16] 1613 	ld	((_g_Bank0Segment + 4)), hl
                                   1614 ;E:/Dropbox/FAUSTO/SVILUPPI/MSX/CODE/C/MSXgl/engine/src/rom_mapper.h:191: Poke(YAMANOOTO_OFFR, (s >> 2) & 0xC0);
    000004B5 3E 0D            [ 7] 1615 	ld	a, #0x0d
    000004B7 E6 C0            [ 7] 1616 	and	a, #0xc0
                                   1617 ;E:/Dropbox/FAUSTO/SVILUPPI/MSX/CODE/C/MSXgl/engine/src/system.h:101: inline void Poke(u16 addr, u8 val) { *(u8*)addr = val; }
    000004B9 32 FE 7F         [13] 1618 	ld	(#0x7ffe),a
                                   1619 ;E:/Dropbox/FAUSTO/SVILUPPI/MSX/CODE/C/MSXgl/engine/src/rom_mapper.h:194: else if (b == 2)	Poke(ADDR_BANK_2, s & 0xFF);
    000004BC 3E 36            [ 7] 1620 	ld	a, #0x36
                                   1621 ;E:/Dropbox/FAUSTO/SVILUPPI/MSX/CODE/C/MSXgl/engine/src/system.h:101: inline void Poke(u16 addr, u8 val) { *(u8*)addr = val; }
    000004BE 32 00 90         [13] 1622 	ld	(#0x9000),a
                                   1623 ;E:/Dropbox/FAUSTO/SVILUPPI/MSX/CODE/C/MSXgl/engine/src/rom_mapper.h:190: g_Bank0Segment[b] = s;
    000004C1 21 37 00         [10] 1624 	ld	hl, #0x0037
    000004C4 22r06r00         [16] 1625 	ld	((_g_Bank0Segment + 6)), hl
                                   1626 ;E:/Dropbox/FAUSTO/SVILUPPI/MSX/CODE/C/MSXgl/engine/src/rom_mapper.h:191: Poke(YAMANOOTO_OFFR, (s >> 2) & 0xC0);
    000004C7 3E 0D            [ 7] 1627 	ld	a, #0x0d
    000004C9 E6 C0            [ 7] 1628 	and	a, #0xc0
                                   1629 ;E:/Dropbox/FAUSTO/SVILUPPI/MSX/CODE/C/MSXgl/engine/src/system.h:101: inline void Poke(u16 addr, u8 val) { *(u8*)addr = val; }
    000004CB 32 FE 7F         [13] 1630 	ld	(#0x7ffe),a
                                   1631 ;E:/Dropbox/FAUSTO/SVILUPPI/MSX/CODE/C/MSXgl/engine/src/rom_mapper.h:195: else if (b == 3)	Poke(ADDR_BANK_3, s & 0xFF);
    000004CE 3E 37            [ 7] 1632 	ld	a, #0x37
                                   1633 ;E:/Dropbox/FAUSTO/SVILUPPI/MSX/CODE/C/MSXgl/engine/src/system.h:101: inline void Poke(u16 addr, u8 val) { *(u8*)addr = val; }
    000004D0 32 00 B0         [13] 1634 	ld	(#0xb000),a
                                   1635 ;./soccerlg.c:288: PCM_Play_11K((u16)g_Data_PCM_ThrowIna);
    000004D3 21r00r00         [10] 1636 	ld	hl, #_g_Data_PCM_ThrowIna
    000004D6 CDr00r00         [17] 1637 	call	_PCM_Play_11K
                                   1638 ;./soccerlg.c:289: break;
    000004D9 C3r21r05         [10] 1639 	jp	00107$
                                   1640 ;./soccerlg.c:290: case PCM_GOALKICK:
    000004DC                       1641 00105$:
                                   1642 ;E:/Dropbox/FAUSTO/SVILUPPI/MSX/CODE/C/MSXgl/engine/src/rom_mapper.h:190: g_Bank0Segment[b] = s;
    000004DC 21 38 00         [10] 1643 	ld	hl, #0x0038
    000004DF 22r04r00         [16] 1644 	ld	((_g_Bank0Segment + 4)), hl
                                   1645 ;E:/Dropbox/FAUSTO/SVILUPPI/MSX/CODE/C/MSXgl/engine/src/rom_mapper.h:191: Poke(YAMANOOTO_OFFR, (s >> 2) & 0xC0);
    000004E2 3E 0E            [ 7] 1646 	ld	a, #0x0e
    000004E4 E6 C0            [ 7] 1647 	and	a, #0xc0
                                   1648 ;E:/Dropbox/FAUSTO/SVILUPPI/MSX/CODE/C/MSXgl/engine/src/system.h:101: inline void Poke(u16 addr, u8 val) { *(u8*)addr = val; }
    000004E6 32 FE 7F         [13] 1649 	ld	(#0x7ffe),a
                                   1650 ;E:/Dropbox/FAUSTO/SVILUPPI/MSX/CODE/C/MSXgl/engine/src/rom_mapper.h:194: else if (b == 2)	Poke(ADDR_BANK_2, s & 0xFF);
    000004E9 3E 38            [ 7] 1651 	ld	a, #0x38
                                   1652 ;E:/Dropbox/FAUSTO/SVILUPPI/MSX/CODE/C/MSXgl/engine/src/system.h:101: inline void Poke(u16 addr, u8 val) { *(u8*)addr = val; }
    000004EB 32 00 90         [13] 1653 	ld	(#0x9000),a
                                   1654 ;E:/Dropbox/FAUSTO/SVILUPPI/MSX/CODE/C/MSXgl/engine/src/rom_mapper.h:190: g_Bank0Segment[b] = s;
    000004EE 21 39 00         [10] 1655 	ld	hl, #0x0039
    000004F1 22r06r00         [16] 1656 	ld	((_g_Bank0Segment + 6)), hl
                                   1657 ;E:/Dropbox/FAUSTO/SVILUPPI/MSX/CODE/C/MSXgl/engine/src/rom_mapper.h:191: Poke(YAMANOOTO_OFFR, (s >> 2) & 0xC0);
    000004F4 3E 0E            [ 7] 1658 	ld	a, #0x0e
    000004F6 E6 C0            [ 7] 1659 	and	a, #0xc0
                                   1660 ;E:/Dropbox/FAUSTO/SVILUPPI/MSX/CODE/C/MSXgl/engine/src/system.h:101: inline void Poke(u16 addr, u8 val) { *(u8*)addr = val; }
    000004F8 32 FE 7F         [13] 1661 	ld	(#0x7ffe),a
                                   1662 ;E:/Dropbox/FAUSTO/SVILUPPI/MSX/CODE/C/MSXgl/engine/src/rom_mapper.h:195: else if (b == 3)	Poke(ADDR_BANK_3, s & 0xFF);
    000004FB 3E 39            [ 7] 1663 	ld	a, #0x39
                                   1664 ;E:/Dropbox/FAUSTO/SVILUPPI/MSX/CODE/C/MSXgl/engine/src/system.h:101: inline void Poke(u16 addr, u8 val) { *(u8*)addr = val; }
    000004FD 32 00 B0         [13] 1665 	ld	(#0xb000),a
                                   1666 ;./soccerlg.c:293: PCM_Play_11K((u16)g_Data_PCM_GoalKicka);
    00000500 21r00r00         [10] 1667 	ld	hl, #_g_Data_PCM_GoalKicka
    00000503 CDr00r00         [17] 1668 	call	_PCM_Play_11K
                                   1669 ;./soccerlg.c:294: break;
    00000506 C3r21r05         [10] 1670 	jp	00107$
                                   1671 ;./soccerlg.c:295: case PCM_REFEREER:
    00000509                       1672 00106$:
                                   1673 ;E:/Dropbox/FAUSTO/SVILUPPI/MSX/CODE/C/MSXgl/engine/src/rom_mapper.h:190: g_Bank0Segment[b] = s;
    00000509 21 3A 00         [10] 1674 	ld	hl, #0x003a
    0000050C 22r06r00         [16] 1675 	ld	((_g_Bank0Segment + 6)), hl
                                   1676 ;E:/Dropbox/FAUSTO/SVILUPPI/MSX/CODE/C/MSXgl/engine/src/rom_mapper.h:191: Poke(YAMANOOTO_OFFR, (s >> 2) & 0xC0);
    0000050F 3E 0E            [ 7] 1677 	ld	a, #0x0e
    00000511 E6 C0            [ 7] 1678 	and	a, #0xc0
                                   1679 ;E:/Dropbox/FAUSTO/SVILUPPI/MSX/CODE/C/MSXgl/engine/src/system.h:101: inline void Poke(u16 addr, u8 val) { *(u8*)addr = val; }
    00000513 32 FE 7F         [13] 1680 	ld	(#0x7ffe),a
                                   1681 ;E:/Dropbox/FAUSTO/SVILUPPI/MSX/CODE/C/MSXgl/engine/src/rom_mapper.h:195: else if (b == 3)	Poke(ADDR_BANK_3, s & 0xFF);
    00000516 3E 3A            [ 7] 1682 	ld	a, #0x3a
                                   1683 ;E:/Dropbox/FAUSTO/SVILUPPI/MSX/CODE/C/MSXgl/engine/src/system.h:101: inline void Poke(u16 addr, u8 val) { *(u8*)addr = val; }
    00000518 32 00 B0         [13] 1684 	ld	(#0xb000),a
                                   1685 ;./soccerlg.c:297: PCM_Play_11K((u16)g_Data_PCM_Refereer);
    0000051B 21r00r00         [10] 1686 	ld	hl, #_g_Data_PCM_Refereer
    0000051E CDr00r00         [17] 1687 	call	_PCM_Play_11K
                                   1688 ;./soccerlg.c:299: }
    00000521                       1689 00107$:
                                   1690 ;./soccerlg.c:300: SET_BANK_SEGMENT(2, currentSegment2);
    00000521 DD 4E FE         [19] 1691 	ld	c, -2 (ix)
    00000524 06 00            [ 7] 1692 	ld	b, #0x00
                                   1693 ;E:/Dropbox/FAUSTO/SVILUPPI/MSX/CODE/C/MSXgl/engine/src/rom_mapper.h:190: g_Bank0Segment[b] = s;
    00000526 ED 43r04r00      [20] 1694 	ld	((_g_Bank0Segment + 4)), bc
                                   1695 ;E:/Dropbox/FAUSTO/SVILUPPI/MSX/CODE/C/MSXgl/engine/src/rom_mapper.h:191: Poke(YAMANOOTO_OFFR, (s >> 2) & 0xC0);
    0000052A 59               [ 4] 1696 	ld	e, c
    0000052B 50               [ 4] 1697 	ld	d, b
    0000052C CB 3A            [ 8] 1698 	srl	d
    0000052E CB 1B            [ 8] 1699 	rr	e
    00000530 CB 3A            [ 8] 1700 	srl	d
    00000532 CB 1B            [ 8] 1701 	rr	e
    00000534 7B               [ 4] 1702 	ld	a, e
    00000535 E6 C0            [ 7] 1703 	and	a, #0xc0
                                   1704 ;E:/Dropbox/FAUSTO/SVILUPPI/MSX/CODE/C/MSXgl/engine/src/system.h:101: inline void Poke(u16 addr, u8 val) { *(u8*)addr = val; }
    00000537 32 FE 7F         [13] 1705 	ld	(#0x7ffe),a
                                   1706 ;E:/Dropbox/FAUSTO/SVILUPPI/MSX/CODE/C/MSXgl/engine/src/rom_mapper.h:194: else if (b == 2)	Poke(ADDR_BANK_2, s & 0xFF);
                                   1707 ;E:/Dropbox/FAUSTO/SVILUPPI/MSX/CODE/C/MSXgl/engine/src/system.h:101: inline void Poke(u16 addr, u8 val) { *(u8*)addr = val; }
    0000053A 21 00 90         [10] 1708 	ld	hl, #0x9000
    0000053D 71               [ 7] 1709 	ld	(hl), c
                                   1710 ;./soccerlg.c:301: SET_BANK_SEGMENT(3, currentSegment3);
    0000053E DD 4E FF         [19] 1711 	ld	c, -1 (ix)
    00000541 06 00            [ 7] 1712 	ld	b, #0x00
                                   1713 ;E:/Dropbox/FAUSTO/SVILUPPI/MSX/CODE/C/MSXgl/engine/src/rom_mapper.h:190: g_Bank0Segment[b] = s;
    00000543 ED 43r06r00      [20] 1714 	ld	((_g_Bank0Segment + 6)), bc
                                   1715 ;E:/Dropbox/FAUSTO/SVILUPPI/MSX/CODE/C/MSXgl/engine/src/rom_mapper.h:191: Poke(YAMANOOTO_OFFR, (s >> 2) & 0xC0);
    00000547 59               [ 4] 1716 	ld	e, c
    00000548 50               [ 4] 1717 	ld	d, b
    00000549 CB 3A            [ 8] 1718 	srl	d
    0000054B CB 1B            [ 8] 1719 	rr	e
    0000054D CB 3A            [ 8] 1720 	srl	d
    0000054F CB 1B            [ 8] 1721 	rr	e
    00000551 7B               [ 4] 1722 	ld	a, e
    00000552 E6 C0            [ 7] 1723 	and	a, #0xc0
                                   1724 ;E:/Dropbox/FAUSTO/SVILUPPI/MSX/CODE/C/MSXgl/engine/src/system.h:101: inline void Poke(u16 addr, u8 val) { *(u8*)addr = val; }
    00000554 32 FE 7F         [13] 1725 	ld	(#0x7ffe),a
                                   1726 ;E:/Dropbox/FAUSTO/SVILUPPI/MSX/CODE/C/MSXgl/engine/src/rom_mapper.h:195: else if (b == 3)	Poke(ADDR_BANK_3, s & 0xFF);
                                   1727 ;E:/Dropbox/FAUSTO/SVILUPPI/MSX/CODE/C/MSXgl/engine/src/system.h:101: inline void Poke(u16 addr, u8 val) { *(u8*)addr = val; }
    00000557 21 00 B0         [10] 1728 	ld	hl, #0xb000
    0000055A 71               [ 7] 1729 	ld	(hl), c
                                   1730 ;./soccerlg.c:302: if(isSCCPlaying){
    0000055B DD 7E FD         [19] 1731 	ld	a, -3 (ix)
    0000055E B7               [ 4] 1732 	or	a, a
    0000055F 28 03            [12] 1733 	jr	Z, 00401$
                                   1734 ;./soccerlg.c:303: YSCC_Resume();
    00000561 CDr00r00         [17] 1735 	call	_YSCC_Resume
    00000564                       1736 00401$:
                                   1737 ;./soccerlg.c:305: }
    00000564 DD F9            [10] 1738 	ld	sp, ix
    00000566 DD E1            [14] 1739 	pop	ix
    00000568 C9               [10] 1740 	ret
                                   1741 ;./soccerlg.c:310: void PlayAyFx(u8 id){
                                   1742 ;	---------------------------------
                                   1743 ; Function PlayAyFx
                                   1744 ; ---------------------------------
    00000569                       1745 _PlayAyFx::
    00000569 47               [ 4] 1746 	ld	b, a
                                   1747 ;./soccerlg.c:311: ayFX_Mute();
    0000056A C5               [11] 1748 	push	bc
    0000056B CDr00r00         [17] 1749 	call	_ayFX_Mute
    0000056E C1               [10] 1750 	pop	bc
                                   1751 ;E:/Dropbox/FAUSTO/SVILUPPI/MSX/CODE/C/MSXgl/engine/src/ayfx/ayfx_player.h:131: inline void ayFX_SetChannel(u8 chan) { ayFX_Channel = 3 - chan; }
    0000056F 21r00r00         [10] 1752 	ld	hl, #_ayFX_Channel
    00000572 36 01            [10] 1753 	ld	(hl), #0x01
                                   1754 ;./soccerlg.c:313: u8 currentSegment = GET_BANK_SEGMENT(3);
    00000574 2Ar06r00         [16] 1755 	ld	hl, (#(_g_Bank0Segment + 6) + 0)
    00000577 4D               [ 4] 1756 	ld	c, l
                                   1757 ;E:/Dropbox/FAUSTO/SVILUPPI/MSX/CODE/C/MSXgl/engine/src/rom_mapper.h:190: g_Bank0Segment[b] = s;
    00000578 21 45 00         [10] 1758 	ld	hl, #0x0045
    0000057B 22r06r00         [16] 1759 	ld	((_g_Bank0Segment + 6)), hl
                                   1760 ;E:/Dropbox/FAUSTO/SVILUPPI/MSX/CODE/C/MSXgl/engine/src/rom_mapper.h:191: Poke(YAMANOOTO_OFFR, (s >> 2) & 0xC0);
    0000057E 3E 11            [ 7] 1761 	ld	a, #0x11
    00000580 E6 C0            [ 7] 1762 	and	a, #0xc0
                                   1763 ;E:/Dropbox/FAUSTO/SVILUPPI/MSX/CODE/C/MSXgl/engine/src/system.h:101: inline void Poke(u16 addr, u8 val) { *(u8*)addr = val; }
    00000582 32 FE 7F         [13] 1764 	ld	(#0x7ffe),a
                                   1765 ;E:/Dropbox/FAUSTO/SVILUPPI/MSX/CODE/C/MSXgl/engine/src/rom_mapper.h:195: else if (b == 3)	Poke(ADDR_BANK_3, s & 0xFF);
    00000585 3E 45            [ 7] 1766 	ld	a, #0x45
                                   1767 ;E:/Dropbox/FAUSTO/SVILUPPI/MSX/CODE/C/MSXgl/engine/src/system.h:101: inline void Poke(u16 addr, u8 val) { *(u8*)addr = val; }
    00000587 32 00 B0         [13] 1768 	ld	(#0xb000),a
                                   1769 ;./soccerlg.c:315: if (g_modernAudio && id == AYFX_BALL) id = AYFX_MODERN_BALL;
    0000058A 3Ar00r00         [13] 1770 	ld	a, (_g_modernAudio+0)
    0000058D B7               [ 4] 1771 	or	a, a
    0000058E 28 07            [12] 1772 	jr	Z, 00102$
    00000590 78               [ 4] 1773 	ld	a, b
    00000591 D6 05            [ 7] 1774 	sub	a, #0x05
    00000593 20 02            [12] 1775 	jr	NZ, 00102$
    00000595 06 07            [ 7] 1776 	ld	b, #0x07
    00000597                       1777 00102$:
                                   1778 ;./soccerlg.c:316: ayFX_PlayBank(id,0);
    00000597 C5               [11] 1779 	push	bc
    00000598 2E 00            [ 7] 1780 	ld	l, #0x00
                                   1781 ;	spillPairReg hl
                                   1782 ;	spillPairReg hl
    0000059A 78               [ 4] 1783 	ld	a, b
    0000059B CDr00r00         [17] 1784 	call	_ayFX_PlayBank
    0000059E C1               [10] 1785 	pop	bc
                                   1786 ;./soccerlg.c:317: SET_BANK_SEGMENT(3, currentSegment);
    0000059F 06 00            [ 7] 1787 	ld	b, #0x00
                                   1788 ;E:/Dropbox/FAUSTO/SVILUPPI/MSX/CODE/C/MSXgl/engine/src/rom_mapper.h:190: g_Bank0Segment[b] = s;
    000005A1 ED 43r06r00      [20] 1789 	ld	((_g_Bank0Segment + 6)), bc
                                   1790 ;E:/Dropbox/FAUSTO/SVILUPPI/MSX/CODE/C/MSXgl/engine/src/rom_mapper.h:191: Poke(YAMANOOTO_OFFR, (s >> 2) & 0xC0);
    000005A5 59               [ 4] 1791 	ld	e, c
    000005A6 50               [ 4] 1792 	ld	d, b
    000005A7 CB 3A            [ 8] 1793 	srl	d
    000005A9 CB 1B            [ 8] 1794 	rr	e
    000005AB CB 3A            [ 8] 1795 	srl	d
    000005AD CB 1B            [ 8] 1796 	rr	e
    000005AF 7B               [ 4] 1797 	ld	a, e
    000005B0 E6 C0            [ 7] 1798 	and	a, #0xc0
                                   1799 ;E:/Dropbox/FAUSTO/SVILUPPI/MSX/CODE/C/MSXgl/engine/src/system.h:101: inline void Poke(u16 addr, u8 val) { *(u8*)addr = val; }
    000005B2 32 FE 7F         [13] 1800 	ld	(#0x7ffe),a
                                   1801 ;E:/Dropbox/FAUSTO/SVILUPPI/MSX/CODE/C/MSXgl/engine/src/rom_mapper.h:195: else if (b == 3)	Poke(ADDR_BANK_3, s & 0xFF);
                                   1802 ;E:/Dropbox/FAUSTO/SVILUPPI/MSX/CODE/C/MSXgl/engine/src/system.h:101: inline void Poke(u16 addr, u8 val) { *(u8*)addr = val; }
    000005B5 21 00 B0         [10] 1803 	ld	hl, #0xb000
    000005B8 71               [ 7] 1804 	ld	(hl), c
                                   1805 ;./soccerlg.c:317: SET_BANK_SEGMENT(3, currentSegment);
                                   1806 ;./soccerlg.c:318: }
    000005B9 C9               [10] 1807 	ret
                                   1808 ;./soccerlg.c:322: void PlayModernGoalkick() {
                                   1809 ;	---------------------------------
                                   1810 ; Function PlayModernGoalkick
                                   1811 ; ---------------------------------
    000005BA                       1812 _PlayModernGoalkick::
                                   1813 ;./soccerlg.c:323: if (!g_modernAudio) return;
    000005BA 3Ar00r00         [13] 1814 	ld	a, (_g_modernAudio+0)
    000005BD B7               [ 4] 1815 	or	a, a
    000005BE C8               [11] 1816 	ret	Z
                                   1817 ;./soccerlg.c:324: YSCC_SaveState(&s_GoalkickSavedState);
    000005BF 21r8Cr01         [10] 1818 	ld	hl, #_s_GoalkickSavedState
    000005C2 CDr00r00         [17] 1819 	call	_YSCC_SaveState
                                   1820 ;./soccerlg.c:325: YSCC_Play(SCC_MODERN_GOALKICK_BIN_SEG, SCC_MODERN_GOALKICK_BIN_SIZE);
    000005C5 21 01 00         [10] 1821 	ld	hl, #0x0001
    000005C8 E5               [11] 1822 	push	hl
    000005C9 21 80 2E         [10] 1823 	ld	hl, #0x2e80
    000005CC E5               [11] 1824 	push	hl
    000005CD 21 F8 02         [10] 1825 	ld	hl, #0x02f8
    000005D0 CDr00r00         [17] 1826 	call	_YSCC_Play
                                   1827 ;./soccerlg.c:326: }
    000005D3 C9               [10] 1828 	ret
                                   1829 ;./soccerlg.c:328: void ResumeAfterGoalkick() {
                                   1830 ;	---------------------------------
                                   1831 ; Function ResumeAfterGoalkick
                                   1832 ; ---------------------------------
    000005D4                       1833 _ResumeAfterGoalkick::
                                   1834 ;./soccerlg.c:329: if (!g_modernAudio) return;
    000005D4 3Ar00r00         [13] 1835 	ld	a, (_g_modernAudio+0)
    000005D7 B7               [ 4] 1836 	or	a, a
    000005D8 C8               [11] 1837 	ret	Z
                                   1838 ;./soccerlg.c:330: YSCC_LoadState(&s_GoalkickSavedState);
    000005D9 21r8Cr01         [10] 1839 	ld	hl, #_s_GoalkickSavedState
                                   1840 ;./soccerlg.c:331: }
    000005DC C3r00r00         [10] 1841 	jp	_YSCC_LoadState
                                   1842 ;./soccerlg.c:337: void LoadMsxVdpFonts() {
                                   1843 ;	---------------------------------
                                   1844 ; Function LoadMsxVdpFonts
                                   1845 ; ---------------------------------
    000005DF                       1846 _LoadMsxVdpFonts::
                                   1847 ;./soccerlg.c:338: u8 currentSegment = GET_BANK_SEGMENT(3);
    000005DF ED 4Br06r00      [20] 1848 	ld	bc, (#(_g_Bank0Segment + 6) + 0)
                                   1849 ;E:/Dropbox/FAUSTO/SVILUPPI/MSX/CODE/C/MSXgl/engine/src/rom_mapper.h:190: g_Bank0Segment[b] = s;
    000005E3 21 14 00         [10] 1850 	ld	hl, #0x0014
    000005E6 22r06r00         [16] 1851 	ld	((_g_Bank0Segment + 6)), hl
                                   1852 ;E:/Dropbox/FAUSTO/SVILUPPI/MSX/CODE/C/MSXgl/engine/src/rom_mapper.h:191: Poke(YAMANOOTO_OFFR, (s >> 2) & 0xC0);
    000005E9 3E 05            [ 7] 1853 	ld	a, #0x05
    000005EB E6 C0            [ 7] 1854 	and	a, #0xc0
                                   1855 ;E:/Dropbox/FAUSTO/SVILUPPI/MSX/CODE/C/MSXgl/engine/src/system.h:101: inline void Poke(u16 addr, u8 val) { *(u8*)addr = val; }
    000005ED 32 FE 7F         [13] 1856 	ld	(#0x7ffe),a
                                   1857 ;E:/Dropbox/FAUSTO/SVILUPPI/MSX/CODE/C/MSXgl/engine/src/rom_mapper.h:195: else if (b == 3)	Poke(ADDR_BANK_3, s & 0xFF);
    000005F0 3E 14            [ 7] 1858 	ld	a, #0x14
                                   1859 ;E:/Dropbox/FAUSTO/SVILUPPI/MSX/CODE/C/MSXgl/engine/src/system.h:101: inline void Poke(u16 addr, u8 val) { *(u8*)addr = val; }
    000005F2 32 00 B0         [13] 1860 	ld	(#0xb000),a
                                   1861 ;./soccerlg.c:340: Print_SetTextFont((const void*)g_Data_Fonts, 1);
    000005F5 C5               [11] 1862 	push	bc
    000005F6 3E 01            [ 7] 1863 	ld	a, #0x01
    000005F8 F5               [11] 1864 	push	af
    000005F9 33               [ 6] 1865 	inc	sp
    000005FA 21r00r00         [10] 1866 	ld	hl, #_g_Data_Fonts
    000005FD CDr00r00         [17] 1867 	call	_Print_SetTextFont
    00000600 C1               [10] 1868 	pop	bc
                                   1869 ;./soccerlg.c:341: SET_BANK_SEGMENT(3, currentSegment);
    00000601 06 00            [ 7] 1870 	ld	b, #0x00
                                   1871 ;E:/Dropbox/FAUSTO/SVILUPPI/MSX/CODE/C/MSXgl/engine/src/rom_mapper.h:190: g_Bank0Segment[b] = s;
    00000603 ED 43r06r00      [20] 1872 	ld	((_g_Bank0Segment + 6)), bc
                                   1873 ;E:/Dropbox/FAUSTO/SVILUPPI/MSX/CODE/C/MSXgl/engine/src/rom_mapper.h:191: Poke(YAMANOOTO_OFFR, (s >> 2) & 0xC0);
    00000607 59               [ 4] 1874 	ld	e, c
    00000608 50               [ 4] 1875 	ld	d, b
    00000609 CB 3A            [ 8] 1876 	srl	d
    0000060B CB 1B            [ 8] 1877 	rr	e
    0000060D CB 3A            [ 8] 1878 	srl	d
    0000060F CB 1B            [ 8] 1879 	rr	e
    00000611 7B               [ 4] 1880 	ld	a, e
    00000612 E6 C0            [ 7] 1881 	and	a, #0xc0
                                   1882 ;E:/Dropbox/FAUSTO/SVILUPPI/MSX/CODE/C/MSXgl/engine/src/system.h:101: inline void Poke(u16 addr, u8 val) { *(u8*)addr = val; }
    00000614 32 FE 7F         [13] 1883 	ld	(#0x7ffe),a
                                   1884 ;E:/Dropbox/FAUSTO/SVILUPPI/MSX/CODE/C/MSXgl/engine/src/rom_mapper.h:195: else if (b == 3)	Poke(ADDR_BANK_3, s & 0xFF);
                                   1885 ;E:/Dropbox/FAUSTO/SVILUPPI/MSX/CODE/C/MSXgl/engine/src/system.h:101: inline void Poke(u16 addr, u8 val) { *(u8*)addr = val; }
    00000617 21 00 B0         [10] 1886 	ld	hl, #0xb000
    0000061A 71               [ 7] 1887 	ld	(hl), c
                                   1888 ;./soccerlg.c:341: SET_BANK_SEGMENT(3, currentSegment);
                                   1889 ;./soccerlg.c:342: }
    0000061B C9               [10] 1890 	ret
                                   1891 ;./soccerlg.c:349: void V9990_WaitSynch()
                                   1892 ;	---------------------------------
                                   1893 ; Function V9990_WaitSynch
                                   1894 ; ---------------------------------
    0000061C                       1895 _V9990_WaitSynch::
                                   1896 ;./soccerlg.c:351: while(!g_VSynch) {}
    0000061C                       1897 00101$:
    0000061C 3Ar00r00         [13] 1898 	ld	a, (_g_VSynch+0)
    0000061F B7               [ 4] 1899 	or	a, a
    00000620 28 FA            [12] 1900 	jr	Z, 00101$
                                   1901 ;./soccerlg.c:352: g_VSynch = FALSE;
    00000622 21r00r00         [10] 1902 	ld	hl, #_g_VSynch
    00000625 36 00            [10] 1903 	ld	(hl), #0x00
                                   1904 ;./soccerlg.c:355: }
    00000627 C9               [10] 1905 	ret
                                   1906 ;./soccerlg.c:357: void V9990_LoadButtonsImageData(){
                                   1907 ;	---------------------------------
                                   1908 ; Function V9990_LoadButtonsImageData
                                   1909 ; ---------------------------------
    00000628                       1910 _V9990_LoadButtonsImageData::
    00000628 DD E5            [15] 1911 	push	ix
    0000062A DD 21 00 00      [14] 1912 	ld	ix,#0
    0000062E DD 39            [15] 1913 	add	ix,sp
    00000630 F5               [11] 1914 	push	af
                                   1915 ;./soccerlg.c:358: u8 currentSegment = GET_BANK_SEGMENT(3);
    00000631 2Ar06r00         [16] 1916 	ld	hl, (#(_g_Bank0Segment + 6) + 0)
    00000634 DD 75 FE         [19] 1917 	ld	-2 (ix), l
                                   1918 ;E:/Dropbox/FAUSTO/SVILUPPI/MSX/CODE/C/MSXgl/engine/src/rom_mapper.h:190: g_Bank0Segment[b] = s;
    00000637 21 28 00         [10] 1919 	ld	hl, #0x0028
    0000063A 22r06r00         [16] 1920 	ld	((_g_Bank0Segment + 6)), hl
                                   1921 ;E:/Dropbox/FAUSTO/SVILUPPI/MSX/CODE/C/MSXgl/engine/src/rom_mapper.h:191: Poke(YAMANOOTO_OFFR, (s >> 2) & 0xC0);
    0000063D 3E 0A            [ 7] 1922 	ld	a, #0x0a
    0000063F E6 C0            [ 7] 1923 	and	a, #0xc0
                                   1924 ;E:/Dropbox/FAUSTO/SVILUPPI/MSX/CODE/C/MSXgl/engine/src/system.h:101: inline void Poke(u16 addr, u8 val) { *(u8*)addr = val; }
    00000641 32 FE 7F         [13] 1925 	ld	(#0x7ffe),a
                                   1926 ;E:/Dropbox/FAUSTO/SVILUPPI/MSX/CODE/C/MSXgl/engine/src/rom_mapper.h:195: else if (b == 3)	Poke(ADDR_BANK_3, s & 0xFF);
    00000644 3E 28            [ 7] 1927 	ld	a, #0x28
                                   1928 ;E:/Dropbox/FAUSTO/SVILUPPI/MSX/CODE/C/MSXgl/engine/src/system.h:101: inline void Poke(u16 addr, u8 val) { *(u8*)addr = val; }
    00000646 21 00 B0         [10] 1929 	ld	hl, #0xb000
    00000649 77               [ 7] 1930 	ld	(hl), a
                                   1931 ;./soccerlg.c:360: V9_WriteVRAM(V9_P1_PGT_A, g_Data_Img_Buttons_Presentation_Part1a, sizeof(g_Data_Img_Buttons_Presentation_Part1a)); 
                                   1932 ;E:/Dropbox/FAUSTO/SVILUPPI/MSX/CODE/C/MSXgl/engine/src/v9990.h:371: inline void V9_WriteVRAM(u32 addr, const u8* src, u16 count) { V9_SetWriteAddress(addr); V9_WriteVRAM_CurrentAddr(src, count); }
    0000064A 11 00 00         [10] 1933 	ld	de, #0x0000
    0000064D 65               [ 4] 1934 	ld	h, l
    0000064E CDr00r00         [17] 1935 	call	_V9_SetWriteAddress
    00000651 11 00 20         [10] 1936 	ld	de, #0x2000
    00000654 21r00r00         [10] 1937 	ld	hl, #_g_Data_Img_Buttons_Presentation_Part1a
    00000657 CDr00r00         [17] 1938 	call	_V9_WriteVRAM_CurrentAddr
                                   1939 ;E:/Dropbox/FAUSTO/SVILUPPI/MSX/CODE/C/MSXgl/engine/src/rom_mapper.h:190: g_Bank0Segment[b] = s;
    0000065A 21 29 00         [10] 1940 	ld	hl, #0x0029
    0000065D 22r06r00         [16] 1941 	ld	((_g_Bank0Segment + 6)), hl
                                   1942 ;E:/Dropbox/FAUSTO/SVILUPPI/MSX/CODE/C/MSXgl/engine/src/rom_mapper.h:191: Poke(YAMANOOTO_OFFR, (s >> 2) & 0xC0);
    00000660 3E 0A            [ 7] 1943 	ld	a, #0x0a
    00000662 E6 C0            [ 7] 1944 	and	a, #0xc0
                                   1945 ;E:/Dropbox/FAUSTO/SVILUPPI/MSX/CODE/C/MSXgl/engine/src/system.h:101: inline void Poke(u16 addr, u8 val) { *(u8*)addr = val; }
    00000664 32 FE 7F         [13] 1946 	ld	(#0x7ffe),a
                                   1947 ;E:/Dropbox/FAUSTO/SVILUPPI/MSX/CODE/C/MSXgl/engine/src/rom_mapper.h:195: else if (b == 3)	Poke(ADDR_BANK_3, s & 0xFF);
    00000667 3E 29            [ 7] 1948 	ld	a, #0x29
                                   1949 ;E:/Dropbox/FAUSTO/SVILUPPI/MSX/CODE/C/MSXgl/engine/src/system.h:101: inline void Poke(u16 addr, u8 val) { *(u8*)addr = val; }
    00000669 21 00 B0         [10] 1950 	ld	hl, #0xb000
    0000066C 77               [ 7] 1951 	ld	(hl), a
                                   1952 ;./soccerlg.c:362: V9_WriteVRAM(V9_P1_PGT_A + 8192L, g_Data_Img_Buttons_Presentation_Part1b, sizeof(g_Data_Img_Buttons_Presentation_Part1b));
                                   1953 ;E:/Dropbox/FAUSTO/SVILUPPI/MSX/CODE/C/MSXgl/engine/src/v9990.h:371: inline void V9_WriteVRAM(u32 addr, const u8* src, u16 count) { V9_SetWriteAddress(addr); V9_WriteVRAM_CurrentAddr(src, count); }
    0000066D 11 00 20         [10] 1954 	ld	de, #0x2000
    00000670 65               [ 4] 1955 	ld	h, l
    00000671 CDr00r00         [17] 1956 	call	_V9_SetWriteAddress
    00000674 11 00 20         [10] 1957 	ld	de, #0x2000
    00000677 21r00r00         [10] 1958 	ld	hl, #_g_Data_Img_Buttons_Presentation_Part1b
    0000067A CDr00r00         [17] 1959 	call	_V9_WriteVRAM_CurrentAddr
                                   1960 ;E:/Dropbox/FAUSTO/SVILUPPI/MSX/CODE/C/MSXgl/engine/src/rom_mapper.h:190: g_Bank0Segment[b] = s;
    0000067D 21 2A 00         [10] 1961 	ld	hl, #0x002a
    00000680 22r06r00         [16] 1962 	ld	((_g_Bank0Segment + 6)), hl
                                   1963 ;E:/Dropbox/FAUSTO/SVILUPPI/MSX/CODE/C/MSXgl/engine/src/rom_mapper.h:191: Poke(YAMANOOTO_OFFR, (s >> 2) & 0xC0);
    00000683 3E 0A            [ 7] 1964 	ld	a, #0x0a
    00000685 E6 C0            [ 7] 1965 	and	a, #0xc0
                                   1966 ;E:/Dropbox/FAUSTO/SVILUPPI/MSX/CODE/C/MSXgl/engine/src/system.h:101: inline void Poke(u16 addr, u8 val) { *(u8*)addr = val; }
    00000687 32 FE 7F         [13] 1967 	ld	(#0x7ffe),a
                                   1968 ;E:/Dropbox/FAUSTO/SVILUPPI/MSX/CODE/C/MSXgl/engine/src/rom_mapper.h:195: else if (b == 3)	Poke(ADDR_BANK_3, s & 0xFF);
    0000068A 3E 2A            [ 7] 1969 	ld	a, #0x2a
                                   1970 ;E:/Dropbox/FAUSTO/SVILUPPI/MSX/CODE/C/MSXgl/engine/src/system.h:101: inline void Poke(u16 addr, u8 val) { *(u8*)addr = val; }
    0000068C 21 00 B0         [10] 1971 	ld	hl, #0xb000
    0000068F 77               [ 7] 1972 	ld	(hl), a
                                   1973 ;./soccerlg.c:364: V9_WriteVRAM(V9_P1_PGT_A + 16384L, g_Data_Img_Buttons_Presentation_Part2a, sizeof(g_Data_Img_Buttons_Presentation_Part2a)); 
                                   1974 ;E:/Dropbox/FAUSTO/SVILUPPI/MSX/CODE/C/MSXgl/engine/src/v9990.h:371: inline void V9_WriteVRAM(u32 addr, const u8* src, u16 count) { V9_SetWriteAddress(addr); V9_WriteVRAM_CurrentAddr(src, count); }
    00000690 11 00 40         [10] 1975 	ld	de, #0x4000
    00000693 65               [ 4] 1976 	ld	h, l
    00000694 CDr00r00         [17] 1977 	call	_V9_SetWriteAddress
    00000697 11 00 20         [10] 1978 	ld	de, #0x2000
    0000069A 21r00r00         [10] 1979 	ld	hl, #_g_Data_Img_Buttons_Presentation_Part2a
    0000069D CDr00r00         [17] 1980 	call	_V9_WriteVRAM_CurrentAddr
                                   1981 ;E:/Dropbox/FAUSTO/SVILUPPI/MSX/CODE/C/MSXgl/engine/src/rom_mapper.h:190: g_Bank0Segment[b] = s;
    000006A0 21 2B 00         [10] 1982 	ld	hl, #0x002b
    000006A3 22r06r00         [16] 1983 	ld	((_g_Bank0Segment + 6)), hl
                                   1984 ;E:/Dropbox/FAUSTO/SVILUPPI/MSX/CODE/C/MSXgl/engine/src/rom_mapper.h:191: Poke(YAMANOOTO_OFFR, (s >> 2) & 0xC0);
    000006A6 3E 0A            [ 7] 1985 	ld	a, #0x0a
    000006A8 E6 C0            [ 7] 1986 	and	a, #0xc0
                                   1987 ;E:/Dropbox/FAUSTO/SVILUPPI/MSX/CODE/C/MSXgl/engine/src/system.h:101: inline void Poke(u16 addr, u8 val) { *(u8*)addr = val; }
    000006AA 32 FE 7F         [13] 1988 	ld	(#0x7ffe),a
                                   1989 ;E:/Dropbox/FAUSTO/SVILUPPI/MSX/CODE/C/MSXgl/engine/src/rom_mapper.h:195: else if (b == 3)	Poke(ADDR_BANK_3, s & 0xFF);
    000006AD 3E 2B            [ 7] 1990 	ld	a, #0x2b
                                   1991 ;E:/Dropbox/FAUSTO/SVILUPPI/MSX/CODE/C/MSXgl/engine/src/system.h:101: inline void Poke(u16 addr, u8 val) { *(u8*)addr = val; }
    000006AF 21 00 B0         [10] 1992 	ld	hl, #0xb000
    000006B2 77               [ 7] 1993 	ld	(hl), a
                                   1994 ;./soccerlg.c:366: V9_WriteVRAM(V9_P1_PGT_A + 16384L+8192L, g_Data_Img_Buttons_Presentation_Part2b, sizeof(g_Data_Img_Buttons_Presentation_Part2b)); 	
                                   1995 ;E:/Dropbox/FAUSTO/SVILUPPI/MSX/CODE/C/MSXgl/engine/src/v9990.h:371: inline void V9_WriteVRAM(u32 addr, const u8* src, u16 count) { V9_SetWriteAddress(addr); V9_WriteVRAM_CurrentAddr(src, count); }
    000006B3 11 00 60         [10] 1996 	ld	de, #0x6000
    000006B6 65               [ 4] 1997 	ld	h, l
    000006B7 CDr00r00         [17] 1998 	call	_V9_SetWriteAddress
    000006BA 11 00 20         [10] 1999 	ld	de, #0x2000
    000006BD 21r00r00         [10] 2000 	ld	hl, #_g_Data_Img_Buttons_Presentation_Part2b
    000006C0 CDr00r00         [17] 2001 	call	_V9_WriteVRAM_CurrentAddr
                                   2002 ;E:/Dropbox/FAUSTO/SVILUPPI/MSX/CODE/C/MSXgl/engine/src/rom_mapper.h:190: g_Bank0Segment[b] = s;
    000006C3 21 23 00         [10] 2003 	ld	hl, #0x0023
    000006C6 22r06r00         [16] 2004 	ld	((_g_Bank0Segment + 6)), hl
                                   2005 ;E:/Dropbox/FAUSTO/SVILUPPI/MSX/CODE/C/MSXgl/engine/src/rom_mapper.h:191: Poke(YAMANOOTO_OFFR, (s >> 2) & 0xC0);
    000006C9 3E 08            [ 7] 2006 	ld	a, #0x08
    000006CB E6 C0            [ 7] 2007 	and	a, #0xc0
                                   2008 ;E:/Dropbox/FAUSTO/SVILUPPI/MSX/CODE/C/MSXgl/engine/src/system.h:101: inline void Poke(u16 addr, u8 val) { *(u8*)addr = val; }
    000006CD 32 FE 7F         [13] 2009 	ld	(#0x7ffe),a
                                   2010 ;E:/Dropbox/FAUSTO/SVILUPPI/MSX/CODE/C/MSXgl/engine/src/rom_mapper.h:195: else if (b == 3)	Poke(ADDR_BANK_3, s & 0xFF);
    000006D0 3E 23            [ 7] 2011 	ld	a, #0x23
                                   2012 ;E:/Dropbox/FAUSTO/SVILUPPI/MSX/CODE/C/MSXgl/engine/src/system.h:101: inline void Poke(u16 addr, u8 val) { *(u8*)addr = val; }
    000006D2 32 00 B0         [13] 2013 	ld	(#0xb000),a
                                   2014 ;./soccerlg.c:368: V9_SetPalette(0, 16, g_Data_Palette_Buttons); 
    000006D5 01r00r00         [10] 2015 	ld	bc, #_g_Data_Palette_Buttons+0
                                   2016 ;./soccerlg.c:1028: ERROR: no line number 1028 in file ./soccerlg.c
                                   2017 ;	spillPairReg hl
                                   2018 ;	spillPairReg hl
    000006D8 21 00 00         [10] 2019 	ld	hl, #0x0
                                   2020 ;	spillPairReg hl
                                   2021 ;	spillPairReg hl
    000006DB                       2022 00211$:
    000006DB 7C               [ 4] 2023 	ld	a, h
    000006DC D6 10            [ 7] 2024 	sub	a, #0x10
    000006DE 30 17            [12] 2025 	jr	NC, 00192$
    000006E0 DD 75 FF         [19] 2026 	ld	-1 (ix), l
    000006E3 2C               [ 4] 2027 	inc	l
    000006E4 E5               [11] 2028 	push	hl
    000006E5 C5               [11] 2029 	push	bc
    000006E6 59               [ 4] 2030 	ld	e, c
    000006E7 50               [ 4] 2031 	ld	d, b
    000006E8 DD 7E FF         [19] 2032 	ld	a, -1 (ix)
    000006EB CDr00r00         [17] 2033 	call	_V9_SetPaletteEntry
    000006EE C1               [10] 2034 	pop	bc
    000006EF E1               [10] 2035 	pop	hl
    000006F0 03               [ 6] 2036 	inc	bc
    000006F1 03               [ 6] 2037 	inc	bc
    000006F2 03               [ 6] 2038 	inc	bc
    000006F3 24               [ 4] 2039 	inc	h
    000006F4 C3rDBr06         [10] 2040 	jp	00211$
                                   2041 ;./soccerlg.c:368: V9_SetPalette(0, 16, g_Data_Palette_Buttons); 
    000006F7                       2042 00192$:
                                   2043 ;./soccerlg.c:369: SET_BANK_SEGMENT(3, currentSegment);
    000006F7 DD 4E FE         [19] 2044 	ld	c, -2 (ix)
    000006FA 06 00            [ 7] 2045 	ld	b, #0x00
                                   2046 ;E:/Dropbox/FAUSTO/SVILUPPI/MSX/CODE/C/MSXgl/engine/src/rom_mapper.h:190: g_Bank0Segment[b] = s;
    000006FC ED 43r06r00      [20] 2047 	ld	((_g_Bank0Segment + 6)), bc
                                   2048 ;E:/Dropbox/FAUSTO/SVILUPPI/MSX/CODE/C/MSXgl/engine/src/rom_mapper.h:191: Poke(YAMANOOTO_OFFR, (s >> 2) & 0xC0);
    00000700 59               [ 4] 2049 	ld	e, c
    00000701 50               [ 4] 2050 	ld	d, b
    00000702 CB 3A            [ 8] 2051 	srl	d
    00000704 CB 1B            [ 8] 2052 	rr	e
    00000706 CB 3A            [ 8] 2053 	srl	d
    00000708 CB 1B            [ 8] 2054 	rr	e
    0000070A 7B               [ 4] 2055 	ld	a, e
    0000070B E6 C0            [ 7] 2056 	and	a, #0xc0
                                   2057 ;E:/Dropbox/FAUSTO/SVILUPPI/MSX/CODE/C/MSXgl/engine/src/system.h:101: inline void Poke(u16 addr, u8 val) { *(u8*)addr = val; }
    0000070D 32 FE 7F         [13] 2058 	ld	(#0x7ffe),a
                                   2059 ;E:/Dropbox/FAUSTO/SVILUPPI/MSX/CODE/C/MSXgl/engine/src/rom_mapper.h:195: else if (b == 3)	Poke(ADDR_BANK_3, s & 0xFF);
                                   2060 ;E:/Dropbox/FAUSTO/SVILUPPI/MSX/CODE/C/MSXgl/engine/src/system.h:101: inline void Poke(u16 addr, u8 val) { *(u8*)addr = val; }
    00000710 21 00 B0         [10] 2061 	ld	hl, #0xb000
    00000713 71               [ 7] 2062 	ld	(hl), c
                                   2063 ;./soccerlg.c:369: SET_BANK_SEGMENT(3, currentSegment);
                                   2064 ;./soccerlg.c:370: }
    00000714 DD F9            [10] 2065 	ld	sp, ix
    00000716 DD E1            [14] 2066 	pop	ix
    00000718 C9               [10] 2067 	ret
                                   2068 ;./soccerlg.c:372: void V9990_LoadP1LayerA(){
                                   2069 ;	---------------------------------
                                   2070 ; Function V9990_LoadP1LayerA
                                   2071 ; ---------------------------------
    00000719                       2072 _V9990_LoadP1LayerA::
    00000719 DD E5            [15] 2073 	push	ix
    0000071B DD 21 00 00      [14] 2074 	ld	ix,#0
    0000071F DD 39            [15] 2075 	add	ix,sp
    00000721 3B               [ 6] 2076 	dec	sp
                                   2077 ;./soccerlg.c:373: u8 currentSegment = GET_BANK_SEGMENT(3);
    00000722 2Ar06r00         [16] 2078 	ld	hl, (#(_g_Bank0Segment + 6) + 0)
    00000725 DD 75 FF         [19] 2079 	ld	-1 (ix), l
                                   2080 ;E:/Dropbox/FAUSTO/SVILUPPI/MSX/CODE/C/MSXgl/engine/src/v9990.h:353: inline void V9_FillVRAM(u32 addr, u8 value, u16 count) { V9_SetWriteAddress(addr); V9_FillVRAM_CurrentAddr(value, count); }
    00000728 11 00 00         [10] 2081 	ld	de, #0x0000
    0000072B 21 00 00         [10] 2082 	ld	hl, #0x0000
    0000072E CDr00r00         [17] 2083 	call	_V9_SetWriteAddress
    00000731 11 00 6A         [10] 2084 	ld	de, #0x6a00
    00000734 AF               [ 4] 2085 	xor	a, a
    00000735 CDr00r00         [17] 2086 	call	_V9_FillVRAM_CurrentAddr
                                   2087 ;E:/Dropbox/FAUSTO/SVILUPPI/MSX/CODE/C/MSXgl/engine/src/rom_mapper.h:190: g_Bank0Segment[b] = s;
    00000738 21 1C 00         [10] 2088 	ld	hl, #0x001c
    0000073B 22r06r00         [16] 2089 	ld	((_g_Bank0Segment + 6)), hl
                                   2090 ;E:/Dropbox/FAUSTO/SVILUPPI/MSX/CODE/C/MSXgl/engine/src/rom_mapper.h:191: Poke(YAMANOOTO_OFFR, (s >> 2) & 0xC0);
    0000073E 3E 07            [ 7] 2091 	ld	a, #0x07
    00000740 E6 C0            [ 7] 2092 	and	a, #0xc0
                                   2093 ;E:/Dropbox/FAUSTO/SVILUPPI/MSX/CODE/C/MSXgl/engine/src/system.h:101: inline void Poke(u16 addr, u8 val) { *(u8*)addr = val; }
    00000742 32 FE 7F         [13] 2094 	ld	(#0x7ffe),a
                                   2095 ;E:/Dropbox/FAUSTO/SVILUPPI/MSX/CODE/C/MSXgl/engine/src/rom_mapper.h:195: else if (b == 3)	Poke(ADDR_BANK_3, s & 0xFF);
    00000745 3E 1C            [ 7] 2096 	ld	a, #0x1c
                                   2097 ;E:/Dropbox/FAUSTO/SVILUPPI/MSX/CODE/C/MSXgl/engine/src/system.h:101: inline void Poke(u16 addr, u8 val) { *(u8*)addr = val; }
    00000747 21 00 B0         [10] 2098 	ld	hl, #0xb000
    0000074A 77               [ 7] 2099 	ld	(hl), a
                                   2100 ;./soccerlg.c:376: V9_WriteVRAM(V9_P1_PGT_A, g_Data_P1_LayerA_Stda, sizeof(g_Data_P1_LayerA_Stda)); 
                                   2101 ;E:/Dropbox/FAUSTO/SVILUPPI/MSX/CODE/C/MSXgl/engine/src/v9990.h:371: inline void V9_WriteVRAM(u32 addr, const u8* src, u16 count) { V9_SetWriteAddress(addr); V9_WriteVRAM_CurrentAddr(src, count); }
    0000074B 11 00 00         [10] 2102 	ld	de, #0x0000
    0000074E 65               [ 4] 2103 	ld	h, l
    0000074F CDr00r00         [17] 2104 	call	_V9_SetWriteAddress
    00000752 11 00 20         [10] 2105 	ld	de, #0x2000
    00000755 21r00r00         [10] 2106 	ld	hl, #_g_Data_P1_LayerA_Stda
    00000758 CDr00r00         [17] 2107 	call	_V9_WriteVRAM_CurrentAddr
                                   2108 ;E:/Dropbox/FAUSTO/SVILUPPI/MSX/CODE/C/MSXgl/engine/src/rom_mapper.h:190: g_Bank0Segment[b] = s;
    0000075B 21 1E 00         [10] 2109 	ld	hl, #0x001e
    0000075E 22r06r00         [16] 2110 	ld	((_g_Bank0Segment + 6)), hl
                                   2111 ;E:/Dropbox/FAUSTO/SVILUPPI/MSX/CODE/C/MSXgl/engine/src/rom_mapper.h:191: Poke(YAMANOOTO_OFFR, (s >> 2) & 0xC0);
    00000761 3E 07            [ 7] 2112 	ld	a, #0x07
    00000763 E6 C0            [ 7] 2113 	and	a, #0xc0
                                   2114 ;E:/Dropbox/FAUSTO/SVILUPPI/MSX/CODE/C/MSXgl/engine/src/system.h:101: inline void Poke(u16 addr, u8 val) { *(u8*)addr = val; }
    00000765 32 FE 7F         [13] 2115 	ld	(#0x7ffe),a
                                   2116 ;E:/Dropbox/FAUSTO/SVILUPPI/MSX/CODE/C/MSXgl/engine/src/rom_mapper.h:195: else if (b == 3)	Poke(ADDR_BANK_3, s & 0xFF);
    00000768 3E 1E            [ 7] 2117 	ld	a, #0x1e
                                   2118 ;E:/Dropbox/FAUSTO/SVILUPPI/MSX/CODE/C/MSXgl/engine/src/system.h:101: inline void Poke(u16 addr, u8 val) { *(u8*)addr = val; }
    0000076A 21 00 B0         [10] 2119 	ld	hl, #0xb000
    0000076D 77               [ 7] 2120 	ld	(hl), a
                                   2121 ;./soccerlg.c:378: V9_WriteVRAM(V9_P1_PGT_A + 8192L, g_Data_LayerA_Menu_Teams_Part1a, sizeof(g_Data_LayerA_Menu_Teams_Part1a));
                                   2122 ;E:/Dropbox/FAUSTO/SVILUPPI/MSX/CODE/C/MSXgl/engine/src/v9990.h:371: inline void V9_WriteVRAM(u32 addr, const u8* src, u16 count) { V9_SetWriteAddress(addr); V9_WriteVRAM_CurrentAddr(src, count); }
    0000076E 11 00 20         [10] 2123 	ld	de, #0x2000
    00000771 65               [ 4] 2124 	ld	h, l
    00000772 CDr00r00         [17] 2125 	call	_V9_SetWriteAddress
    00000775 11 00 20         [10] 2126 	ld	de, #0x2000
    00000778 21r00r00         [10] 2127 	ld	hl, #_g_Data_LayerA_Menu_Teams_Part1a
    0000077B CDr00r00         [17] 2128 	call	_V9_WriteVRAM_CurrentAddr
                                   2129 ;E:/Dropbox/FAUSTO/SVILUPPI/MSX/CODE/C/MSXgl/engine/src/rom_mapper.h:190: g_Bank0Segment[b] = s;
    0000077E 21 1F 00         [10] 2130 	ld	hl, #0x001f
    00000781 22r06r00         [16] 2131 	ld	((_g_Bank0Segment + 6)), hl
                                   2132 ;E:/Dropbox/FAUSTO/SVILUPPI/MSX/CODE/C/MSXgl/engine/src/rom_mapper.h:191: Poke(YAMANOOTO_OFFR, (s >> 2) & 0xC0);
    00000784 3E 07            [ 7] 2133 	ld	a, #0x07
    00000786 E6 C0            [ 7] 2134 	and	a, #0xc0
                                   2135 ;E:/Dropbox/FAUSTO/SVILUPPI/MSX/CODE/C/MSXgl/engine/src/system.h:101: inline void Poke(u16 addr, u8 val) { *(u8*)addr = val; }
    00000788 32 FE 7F         [13] 2136 	ld	(#0x7ffe),a
                                   2137 ;E:/Dropbox/FAUSTO/SVILUPPI/MSX/CODE/C/MSXgl/engine/src/rom_mapper.h:195: else if (b == 3)	Poke(ADDR_BANK_3, s & 0xFF);
    0000078B 3E 1F            [ 7] 2138 	ld	a, #0x1f
                                   2139 ;E:/Dropbox/FAUSTO/SVILUPPI/MSX/CODE/C/MSXgl/engine/src/system.h:101: inline void Poke(u16 addr, u8 val) { *(u8*)addr = val; }
    0000078D 21 00 B0         [10] 2140 	ld	hl, #0xb000
    00000790 77               [ 7] 2141 	ld	(hl), a
                                   2142 ;./soccerlg.c:380: V9_WriteVRAM(V9_P1_PGT_A + 16384L, g_Data_LayerA_Menu_Teams_Part1b, sizeof(g_Data_LayerA_Menu_Teams_Part1b));
                                   2143 ;E:/Dropbox/FAUSTO/SVILUPPI/MSX/CODE/C/MSXgl/engine/src/v9990.h:371: inline void V9_WriteVRAM(u32 addr, const u8* src, u16 count) { V9_SetWriteAddress(addr); V9_WriteVRAM_CurrentAddr(src, count); }
    00000791 11 00 40         [10] 2144 	ld	de, #0x4000
    00000794 65               [ 4] 2145 	ld	h, l
    00000795 CDr00r00         [17] 2146 	call	_V9_SetWriteAddress
    00000798 11 00 20         [10] 2147 	ld	de, #0x2000
    0000079B 21r00r00         [10] 2148 	ld	hl, #_g_Data_LayerA_Menu_Teams_Part1b
    0000079E CDr00r00         [17] 2149 	call	_V9_WriteVRAM_CurrentAddr
                                   2150 ;E:/Dropbox/FAUSTO/SVILUPPI/MSX/CODE/C/MSXgl/engine/src/rom_mapper.h:190: g_Bank0Segment[b] = s;
    000007A1 21 20 00         [10] 2151 	ld	hl, #0x0020
    000007A4 22r06r00         [16] 2152 	ld	((_g_Bank0Segment + 6)), hl
                                   2153 ;E:/Dropbox/FAUSTO/SVILUPPI/MSX/CODE/C/MSXgl/engine/src/rom_mapper.h:191: Poke(YAMANOOTO_OFFR, (s >> 2) & 0xC0);
    000007A7 3E 08            [ 7] 2154 	ld	a, #0x08
    000007A9 E6 C0            [ 7] 2155 	and	a, #0xc0
                                   2156 ;E:/Dropbox/FAUSTO/SVILUPPI/MSX/CODE/C/MSXgl/engine/src/system.h:101: inline void Poke(u16 addr, u8 val) { *(u8*)addr = val; }
    000007AB 32 FE 7F         [13] 2157 	ld	(#0x7ffe),a
                                   2158 ;E:/Dropbox/FAUSTO/SVILUPPI/MSX/CODE/C/MSXgl/engine/src/rom_mapper.h:195: else if (b == 3)	Poke(ADDR_BANK_3, s & 0xFF);
    000007AE 3E 20            [ 7] 2159 	ld	a, #0x20
                                   2160 ;E:/Dropbox/FAUSTO/SVILUPPI/MSX/CODE/C/MSXgl/engine/src/system.h:101: inline void Poke(u16 addr, u8 val) { *(u8*)addr = val; }
    000007B0 21 00 B0         [10] 2161 	ld	hl, #0xb000
    000007B3 77               [ 7] 2162 	ld	(hl), a
                                   2163 ;./soccerlg.c:382: V9_WriteVRAM(V9_P1_PGT_A + 8192L + 16384L, g_Data_LayerA_Menu_Teams_Part2, sizeof(g_Data_LayerA_Menu_Teams_Part2));
                                   2164 ;E:/Dropbox/FAUSTO/SVILUPPI/MSX/CODE/C/MSXgl/engine/src/v9990.h:371: inline void V9_WriteVRAM(u32 addr, const u8* src, u16 count) { V9_SetWriteAddress(addr); V9_WriteVRAM_CurrentAddr(src, count); }
    000007B4 11 00 60         [10] 2165 	ld	de, #0x6000
    000007B7 65               [ 4] 2166 	ld	h, l
    000007B8 CDr00r00         [17] 2167 	call	_V9_SetWriteAddress
    000007BB 11 00 10         [10] 2168 	ld	de, #0x1000
    000007BE 21r00r00         [10] 2169 	ld	hl, #_g_Data_LayerA_Menu_Teams_Part2
    000007C1 CDr00r00         [17] 2170 	call	_V9_WriteVRAM_CurrentAddr
                                   2171 ;E:/Dropbox/FAUSTO/SVILUPPI/MSX/CODE/C/MSXgl/engine/src/v9990.h:362: inline void V9_FillVRAM16(u32 addr, u16 value, u16 count) { V9_SetWriteAddress(addr); V9_FillVRAM16_CurrentAddr(value, count); }
    000007C4 11 00 C0         [10] 2172 	ld	de, #0xc000
    000007C7 21 07 00         [10] 2173 	ld	hl, #0x0007
    000007CA CDr00r00         [17] 2174 	call	_V9_SetWriteAddress
    000007CD 11 00 10         [10] 2175 	ld	de, #0x1000
    000007D0 21 00 00         [10] 2176 	ld	hl, #0x0000
    000007D3 CDr00r00         [17] 2177 	call	_V9_FillVRAM16_CurrentAddr
                                   2178 ;./soccerlg.c:384: SET_BANK_SEGMENT(3, currentSegment);
    000007D6 DD 4E FF         [19] 2179 	ld	c, -1 (ix)
    000007D9 06 00            [ 7] 2180 	ld	b, #0x00
                                   2181 ;E:/Dropbox/FAUSTO/SVILUPPI/MSX/CODE/C/MSXgl/engine/src/rom_mapper.h:190: g_Bank0Segment[b] = s;
    000007DB ED 43r06r00      [20] 2182 	ld	((_g_Bank0Segment + 6)), bc
                                   2183 ;E:/Dropbox/FAUSTO/SVILUPPI/MSX/CODE/C/MSXgl/engine/src/rom_mapper.h:191: Poke(YAMANOOTO_OFFR, (s >> 2) & 0xC0);
    000007DF 59               [ 4] 2184 	ld	e, c
    000007E0 50               [ 4] 2185 	ld	d, b
    000007E1 CB 3A            [ 8] 2186 	srl	d
    000007E3 CB 1B            [ 8] 2187 	rr	e
    000007E5 CB 3A            [ 8] 2188 	srl	d
    000007E7 CB 1B            [ 8] 2189 	rr	e
    000007E9 7B               [ 4] 2190 	ld	a, e
    000007EA E6 C0            [ 7] 2191 	and	a, #0xc0
                                   2192 ;E:/Dropbox/FAUSTO/SVILUPPI/MSX/CODE/C/MSXgl/engine/src/system.h:101: inline void Poke(u16 addr, u8 val) { *(u8*)addr = val; }
    000007EC 32 FE 7F         [13] 2193 	ld	(#0x7ffe),a
                                   2194 ;E:/Dropbox/FAUSTO/SVILUPPI/MSX/CODE/C/MSXgl/engine/src/rom_mapper.h:195: else if (b == 3)	Poke(ADDR_BANK_3, s & 0xFF);
                                   2195 ;E:/Dropbox/FAUSTO/SVILUPPI/MSX/CODE/C/MSXgl/engine/src/system.h:101: inline void Poke(u16 addr, u8 val) { *(u8*)addr = val; }
    000007EF 21 00 B0         [10] 2196 	ld	hl, #0xb000
    000007F2 71               [ 7] 2197 	ld	(hl), c
                                   2198 ;./soccerlg.c:384: SET_BANK_SEGMENT(3, currentSegment);
                                   2199 ;./soccerlg.c:386: }
    000007F3 33               [ 6] 2200 	inc	sp
    000007F4 DD E1            [14] 2201 	pop	ix
    000007F6 C9               [10] 2202 	ret
                                   2203 ;./soccerlg.c:387: void V9990_LoadP1LayerB(){
                                   2204 ;	---------------------------------
                                   2205 ; Function V9990_LoadP1LayerB
                                   2206 ; ---------------------------------
    000007F7                       2207 _V9990_LoadP1LayerB::
    000007F7 DD E5            [15] 2208 	push	ix
    000007F9 DD 21 00 00      [14] 2209 	ld	ix,#0
    000007FD DD 39            [15] 2210 	add	ix,sp
    000007FF 3B               [ 6] 2211 	dec	sp
                                   2212 ;./soccerlg.c:388: u8 currentSegment = GET_BANK_SEGMENT(3);
    00000800 2Ar06r00         [16] 2213 	ld	hl, (#(_g_Bank0Segment + 6) + 0)
    00000803 DD 75 FF         [19] 2214 	ld	-1 (ix), l
                                   2215 ;E:/Dropbox/FAUSTO/SVILUPPI/MSX/CODE/C/MSXgl/engine/src/v9990.h:353: inline void V9_FillVRAM(u32 addr, u8 value, u16 count) { V9_SetWriteAddress(addr); V9_FillVRAM_CurrentAddr(value, count); }
    00000806 11 00 00         [10] 2216 	ld	de, #0x0000
    00000809 21 04 00         [10] 2217 	ld	hl, #0x0004
    0000080C CDr00r00         [17] 2218 	call	_V9_SetWriteAddress
    0000080F 11 00 6A         [10] 2219 	ld	de, #0x6a00
    00000812 AF               [ 4] 2220 	xor	a, a
    00000813 CDr00r00         [17] 2221 	call	_V9_FillVRAM_CurrentAddr
                                   2222 ;E:/Dropbox/FAUSTO/SVILUPPI/MSX/CODE/C/MSXgl/engine/src/rom_mapper.h:190: g_Bank0Segment[b] = s;
    00000816 21 3B 00         [10] 2223 	ld	hl, #0x003b
    00000819 22r06r00         [16] 2224 	ld	((_g_Bank0Segment + 6)), hl
                                   2225 ;E:/Dropbox/FAUSTO/SVILUPPI/MSX/CODE/C/MSXgl/engine/src/rom_mapper.h:191: Poke(YAMANOOTO_OFFR, (s >> 2) & 0xC0);
    0000081C 3E 0E            [ 7] 2226 	ld	a, #0x0e
    0000081E E6 C0            [ 7] 2227 	and	a, #0xc0
                                   2228 ;E:/Dropbox/FAUSTO/SVILUPPI/MSX/CODE/C/MSXgl/engine/src/system.h:101: inline void Poke(u16 addr, u8 val) { *(u8*)addr = val; }
    00000820 32 FE 7F         [13] 2229 	ld	(#0x7ffe),a
                                   2230 ;E:/Dropbox/FAUSTO/SVILUPPI/MSX/CODE/C/MSXgl/engine/src/rom_mapper.h:195: else if (b == 3)	Poke(ADDR_BANK_3, s & 0xFF);
    00000823 3E 3B            [ 7] 2231 	ld	a, #0x3b
                                   2232 ;E:/Dropbox/FAUSTO/SVILUPPI/MSX/CODE/C/MSXgl/engine/src/system.h:101: inline void Poke(u16 addr, u8 val) { *(u8*)addr = val; }
    00000825 32 00 B0         [13] 2233 	ld	(#0xb000),a
                                   2234 ;./soccerlg.c:391: V9_WriteVRAM(V9_P1_PGT_B, g_Data_Field_LayerB_Part1a, sizeof(g_Data_Field_LayerB_Part1a)); 
                                   2235 ;E:/Dropbox/FAUSTO/SVILUPPI/MSX/CODE/C/MSXgl/engine/src/v9990.h:371: inline void V9_WriteVRAM(u32 addr, const u8* src, u16 count) { V9_SetWriteAddress(addr); V9_WriteVRAM_CurrentAddr(src, count); }
    00000828 11 00 00         [10] 2236 	ld	de, #0x0000
    0000082B 21 04 00         [10] 2237 	ld	hl, #0x0004
    0000082E CDr00r00         [17] 2238 	call	_V9_SetWriteAddress
    00000831 11 00 20         [10] 2239 	ld	de, #0x2000
    00000834 21r00r00         [10] 2240 	ld	hl, #_g_Data_Field_LayerB_Part1a
    00000837 CDr00r00         [17] 2241 	call	_V9_WriteVRAM_CurrentAddr
                                   2242 ;E:/Dropbox/FAUSTO/SVILUPPI/MSX/CODE/C/MSXgl/engine/src/rom_mapper.h:190: g_Bank0Segment[b] = s;
    0000083A 21 3C 00         [10] 2243 	ld	hl, #0x003c
    0000083D 22r06r00         [16] 2244 	ld	((_g_Bank0Segment + 6)), hl
                                   2245 ;E:/Dropbox/FAUSTO/SVILUPPI/MSX/CODE/C/MSXgl/engine/src/rom_mapper.h:191: Poke(YAMANOOTO_OFFR, (s >> 2) & 0xC0);
    00000840 3E 0F            [ 7] 2246 	ld	a, #0x0f
    00000842 E6 C0            [ 7] 2247 	and	a, #0xc0
                                   2248 ;E:/Dropbox/FAUSTO/SVILUPPI/MSX/CODE/C/MSXgl/engine/src/system.h:101: inline void Poke(u16 addr, u8 val) { *(u8*)addr = val; }
    00000844 32 FE 7F         [13] 2249 	ld	(#0x7ffe),a
                                   2250 ;E:/Dropbox/FAUSTO/SVILUPPI/MSX/CODE/C/MSXgl/engine/src/rom_mapper.h:195: else if (b == 3)	Poke(ADDR_BANK_3, s & 0xFF);
    00000847 3E 3C            [ 7] 2251 	ld	a, #0x3c
                                   2252 ;E:/Dropbox/FAUSTO/SVILUPPI/MSX/CODE/C/MSXgl/engine/src/system.h:101: inline void Poke(u16 addr, u8 val) { *(u8*)addr = val; }
    00000849 32 00 B0         [13] 2253 	ld	(#0xb000),a
                                   2254 ;./soccerlg.c:393: V9_WriteVRAM(V9_P1_PGT_B+8192L, g_Data_Field_LayerB_Part1b, sizeof(g_Data_Field_LayerB_Part1b)); 
                                   2255 ;E:/Dropbox/FAUSTO/SVILUPPI/MSX/CODE/C/MSXgl/engine/src/v9990.h:371: inline void V9_WriteVRAM(u32 addr, const u8* src, u16 count) { V9_SetWriteAddress(addr); V9_WriteVRAM_CurrentAddr(src, count); }
    0000084C 11 00 20         [10] 2256 	ld	de, #0x2000
    0000084F 21 04 00         [10] 2257 	ld	hl, #0x0004
    00000852 CDr00r00         [17] 2258 	call	_V9_SetWriteAddress
    00000855 11 00 20         [10] 2259 	ld	de, #0x2000
    00000858 21r00r00         [10] 2260 	ld	hl, #_g_Data_Field_LayerB_Part1b
    0000085B CDr00r00         [17] 2261 	call	_V9_WriteVRAM_CurrentAddr
                                   2262 ;E:/Dropbox/FAUSTO/SVILUPPI/MSX/CODE/C/MSXgl/engine/src/rom_mapper.h:190: g_Bank0Segment[b] = s;
    0000085E 21 3D 00         [10] 2263 	ld	hl, #0x003d
    00000861 22r06r00         [16] 2264 	ld	((_g_Bank0Segment + 6)), hl
                                   2265 ;E:/Dropbox/FAUSTO/SVILUPPI/MSX/CODE/C/MSXgl/engine/src/rom_mapper.h:191: Poke(YAMANOOTO_OFFR, (s >> 2) & 0xC0);
    00000864 3E 0F            [ 7] 2266 	ld	a, #0x0f
    00000866 E6 C0            [ 7] 2267 	and	a, #0xc0
                                   2268 ;E:/Dropbox/FAUSTO/SVILUPPI/MSX/CODE/C/MSXgl/engine/src/system.h:101: inline void Poke(u16 addr, u8 val) { *(u8*)addr = val; }
    00000868 32 FE 7F         [13] 2269 	ld	(#0x7ffe),a
                                   2270 ;E:/Dropbox/FAUSTO/SVILUPPI/MSX/CODE/C/MSXgl/engine/src/rom_mapper.h:195: else if (b == 3)	Poke(ADDR_BANK_3, s & 0xFF);
    0000086B 3E 3D            [ 7] 2271 	ld	a, #0x3d
                                   2272 ;E:/Dropbox/FAUSTO/SVILUPPI/MSX/CODE/C/MSXgl/engine/src/system.h:101: inline void Poke(u16 addr, u8 val) { *(u8*)addr = val; }
    0000086D 32 00 B0         [13] 2273 	ld	(#0xb000),a
                                   2274 ;./soccerlg.c:395: V9_WriteVRAM(V9_P1_PGT_B + 16384L, g_Data_Field_LayerB_Part2a, sizeof(g_Data_Field_LayerB_Part2a)); 
                                   2275 ;E:/Dropbox/FAUSTO/SVILUPPI/MSX/CODE/C/MSXgl/engine/src/v9990.h:371: inline void V9_WriteVRAM(u32 addr, const u8* src, u16 count) { V9_SetWriteAddress(addr); V9_WriteVRAM_CurrentAddr(src, count); }
    00000870 11 00 40         [10] 2276 	ld	de, #0x4000
    00000873 21 04 00         [10] 2277 	ld	hl, #0x0004
    00000876 CDr00r00         [17] 2278 	call	_V9_SetWriteAddress
    00000879 11 00 20         [10] 2279 	ld	de, #0x2000
    0000087C 21r00r00         [10] 2280 	ld	hl, #_g_Data_Field_LayerB_Part2a
    0000087F CDr00r00         [17] 2281 	call	_V9_WriteVRAM_CurrentAddr
                                   2282 ;E:/Dropbox/FAUSTO/SVILUPPI/MSX/CODE/C/MSXgl/engine/src/rom_mapper.h:190: g_Bank0Segment[b] = s;
    00000882 21 3E 00         [10] 2283 	ld	hl, #0x003e
    00000885 22r06r00         [16] 2284 	ld	((_g_Bank0Segment + 6)), hl
                                   2285 ;E:/Dropbox/FAUSTO/SVILUPPI/MSX/CODE/C/MSXgl/engine/src/rom_mapper.h:191: Poke(YAMANOOTO_OFFR, (s >> 2) & 0xC0);
    00000888 3E 0F            [ 7] 2286 	ld	a, #0x0f
    0000088A E6 C0            [ 7] 2287 	and	a, #0xc0
                                   2288 ;E:/Dropbox/FAUSTO/SVILUPPI/MSX/CODE/C/MSXgl/engine/src/system.h:101: inline void Poke(u16 addr, u8 val) { *(u8*)addr = val; }
    0000088C 32 FE 7F         [13] 2289 	ld	(#0x7ffe),a
                                   2290 ;E:/Dropbox/FAUSTO/SVILUPPI/MSX/CODE/C/MSXgl/engine/src/rom_mapper.h:195: else if (b == 3)	Poke(ADDR_BANK_3, s & 0xFF);
    0000088F 3E 3E            [ 7] 2291 	ld	a, #0x3e
                                   2292 ;E:/Dropbox/FAUSTO/SVILUPPI/MSX/CODE/C/MSXgl/engine/src/system.h:101: inline void Poke(u16 addr, u8 val) { *(u8*)addr = val; }
    00000891 32 00 B0         [13] 2293 	ld	(#0xb000),a
                                   2294 ;./soccerlg.c:397: V9_WriteVRAM(V9_P1_PGT_B + 16384 + 8192L, g_Data_Field_LayerB_Part2b, sizeof(g_Data_Field_LayerB_Part2b)); 
                                   2295 ;E:/Dropbox/FAUSTO/SVILUPPI/MSX/CODE/C/MSXgl/engine/src/v9990.h:371: inline void V9_WriteVRAM(u32 addr, const u8* src, u16 count) { V9_SetWriteAddress(addr); V9_WriteVRAM_CurrentAddr(src, count); }
    00000894 11 00 60         [10] 2296 	ld	de, #0x6000
    00000897 21 04 00         [10] 2297 	ld	hl, #0x0004
    0000089A CDr00r00         [17] 2298 	call	_V9_SetWriteAddress
    0000089D 11 00 20         [10] 2299 	ld	de, #0x2000
    000008A0 21r00r00         [10] 2300 	ld	hl, #_g_Data_Field_LayerB_Part2b
    000008A3 CDr00r00         [17] 2301 	call	_V9_WriteVRAM_CurrentAddr
                                   2302 ;E:/Dropbox/FAUSTO/SVILUPPI/MSX/CODE/C/MSXgl/engine/src/rom_mapper.h:190: g_Bank0Segment[b] = s;
    000008A6 21 3F 00         [10] 2303 	ld	hl, #0x003f
    000008A9 22r06r00         [16] 2304 	ld	((_g_Bank0Segment + 6)), hl
                                   2305 ;E:/Dropbox/FAUSTO/SVILUPPI/MSX/CODE/C/MSXgl/engine/src/rom_mapper.h:191: Poke(YAMANOOTO_OFFR, (s >> 2) & 0xC0);
    000008AC 3E 0F            [ 7] 2306 	ld	a, #0x0f
    000008AE E6 C0            [ 7] 2307 	and	a, #0xc0
                                   2308 ;E:/Dropbox/FAUSTO/SVILUPPI/MSX/CODE/C/MSXgl/engine/src/system.h:101: inline void Poke(u16 addr, u8 val) { *(u8*)addr = val; }
    000008B0 32 FE 7F         [13] 2309 	ld	(#0x7ffe),a
                                   2310 ;E:/Dropbox/FAUSTO/SVILUPPI/MSX/CODE/C/MSXgl/engine/src/rom_mapper.h:195: else if (b == 3)	Poke(ADDR_BANK_3, s & 0xFF);
    000008B3 3E 3F            [ 7] 2311 	ld	a, #0x3f
                                   2312 ;E:/Dropbox/FAUSTO/SVILUPPI/MSX/CODE/C/MSXgl/engine/src/system.h:101: inline void Poke(u16 addr, u8 val) { *(u8*)addr = val; }
    000008B5 32 00 B0         [13] 2313 	ld	(#0xb000),a
                                   2314 ;./soccerlg.c:399: V9_WriteVRAM(V9_P1_PGT_B + 16384L*2, g_Data_Field_LayerB_Part3a, sizeof(g_Data_Field_LayerB_Part3a)); 
                                   2315 ;E:/Dropbox/FAUSTO/SVILUPPI/MSX/CODE/C/MSXgl/engine/src/v9990.h:371: inline void V9_WriteVRAM(u32 addr, const u8* src, u16 count) { V9_SetWriteAddress(addr); V9_WriteVRAM_CurrentAddr(src, count); }
    000008B8 11 00 80         [10] 2316 	ld	de, #0x8000
    000008BB 21 04 00         [10] 2317 	ld	hl, #0x0004
    000008BE CDr00r00         [17] 2318 	call	_V9_SetWriteAddress
    000008C1 11 00 20         [10] 2319 	ld	de, #0x2000
    000008C4 21r00r00         [10] 2320 	ld	hl, #_g_Data_Field_LayerB_Part3a
    000008C7 CDr00r00         [17] 2321 	call	_V9_WriteVRAM_CurrentAddr
                                   2322 ;E:/Dropbox/FAUSTO/SVILUPPI/MSX/CODE/C/MSXgl/engine/src/rom_mapper.h:190: g_Bank0Segment[b] = s;
    000008CA 21 40 00         [10] 2323 	ld	hl, #0x0040
    000008CD 22r06r00         [16] 2324 	ld	((_g_Bank0Segment + 6)), hl
                                   2325 ;E:/Dropbox/FAUSTO/SVILUPPI/MSX/CODE/C/MSXgl/engine/src/rom_mapper.h:191: Poke(YAMANOOTO_OFFR, (s >> 2) & 0xC0);
    000008D0 3E 10            [ 7] 2326 	ld	a, #0x10
    000008D2 E6 C0            [ 7] 2327 	and	a, #0xc0
                                   2328 ;E:/Dropbox/FAUSTO/SVILUPPI/MSX/CODE/C/MSXgl/engine/src/system.h:101: inline void Poke(u16 addr, u8 val) { *(u8*)addr = val; }
    000008D4 32 FE 7F         [13] 2329 	ld	(#0x7ffe),a
                                   2330 ;E:/Dropbox/FAUSTO/SVILUPPI/MSX/CODE/C/MSXgl/engine/src/rom_mapper.h:195: else if (b == 3)	Poke(ADDR_BANK_3, s & 0xFF);
    000008D7 3E 40            [ 7] 2331 	ld	a, #0x40
                                   2332 ;E:/Dropbox/FAUSTO/SVILUPPI/MSX/CODE/C/MSXgl/engine/src/system.h:101: inline void Poke(u16 addr, u8 val) { *(u8*)addr = val; }
    000008D9 32 00 B0         [13] 2333 	ld	(#0xb000),a
                                   2334 ;./soccerlg.c:401: V9_WriteVRAM(V9_P1_PGT_B + 16384L*2 + 8192L, g_Data_Field_LayerB_Part3b, sizeof(g_Data_Field_LayerB_Part3b)); 
                                   2335 ;E:/Dropbox/FAUSTO/SVILUPPI/MSX/CODE/C/MSXgl/engine/src/v9990.h:371: inline void V9_WriteVRAM(u32 addr, const u8* src, u16 count) { V9_SetWriteAddress(addr); V9_WriteVRAM_CurrentAddr(src, count); }
    000008DC 11 00 A0         [10] 2336 	ld	de, #0xa000
    000008DF 21 04 00         [10] 2337 	ld	hl, #0x0004
    000008E2 CDr00r00         [17] 2338 	call	_V9_SetWriteAddress
    000008E5 11 00 20         [10] 2339 	ld	de, #0x2000
    000008E8 21r00r00         [10] 2340 	ld	hl, #_g_Data_Field_LayerB_Part3b
    000008EB CDr00r00         [17] 2341 	call	_V9_WriteVRAM_CurrentAddr
                                   2342 ;E:/Dropbox/FAUSTO/SVILUPPI/MSX/CODE/C/MSXgl/engine/src/rom_mapper.h:190: g_Bank0Segment[b] = s;
    000008EE 21 41 00         [10] 2343 	ld	hl, #0x0041
    000008F1 22r06r00         [16] 2344 	ld	((_g_Bank0Segment + 6)), hl
                                   2345 ;E:/Dropbox/FAUSTO/SVILUPPI/MSX/CODE/C/MSXgl/engine/src/rom_mapper.h:191: Poke(YAMANOOTO_OFFR, (s >> 2) & 0xC0);
    000008F4 3E 10            [ 7] 2346 	ld	a, #0x10
    000008F6 E6 C0            [ 7] 2347 	and	a, #0xc0
                                   2348 ;E:/Dropbox/FAUSTO/SVILUPPI/MSX/CODE/C/MSXgl/engine/src/system.h:101: inline void Poke(u16 addr, u8 val) { *(u8*)addr = val; }
    000008F8 32 FE 7F         [13] 2349 	ld	(#0x7ffe),a
                                   2350 ;E:/Dropbox/FAUSTO/SVILUPPI/MSX/CODE/C/MSXgl/engine/src/rom_mapper.h:195: else if (b == 3)	Poke(ADDR_BANK_3, s & 0xFF);
    000008FB 3E 41            [ 7] 2351 	ld	a, #0x41
                                   2352 ;E:/Dropbox/FAUSTO/SVILUPPI/MSX/CODE/C/MSXgl/engine/src/system.h:101: inline void Poke(u16 addr, u8 val) { *(u8*)addr = val; }
    000008FD 32 00 B0         [13] 2353 	ld	(#0xb000),a
                                   2354 ;./soccerlg.c:404: V9_WriteVRAM(V9_P1_PGT_B + 16384L*3, g_Data_Field_LayerB_Part4a, sizeof(g_Data_Field_LayerB_Part4a)); 
                                   2355 ;E:/Dropbox/FAUSTO/SVILUPPI/MSX/CODE/C/MSXgl/engine/src/v9990.h:371: inline void V9_WriteVRAM(u32 addr, const u8* src, u16 count) { V9_SetWriteAddress(addr); V9_WriteVRAM_CurrentAddr(src, count); }
    00000900 11 00 C0         [10] 2356 	ld	de, #0xc000
    00000903 21 04 00         [10] 2357 	ld	hl, #0x0004
    00000906 CDr00r00         [17] 2358 	call	_V9_SetWriteAddress
    00000909 11 00 20         [10] 2359 	ld	de, #0x2000
    0000090C 21r00r00         [10] 2360 	ld	hl, #_g_Data_Field_LayerB_Part4a
    0000090F CDr00r00         [17] 2361 	call	_V9_WriteVRAM_CurrentAddr
                                   2362 ;E:/Dropbox/FAUSTO/SVILUPPI/MSX/CODE/C/MSXgl/engine/src/rom_mapper.h:190: g_Bank0Segment[b] = s;
    00000912 21 42 00         [10] 2363 	ld	hl, #0x0042
    00000915 22r06r00         [16] 2364 	ld	((_g_Bank0Segment + 6)), hl
                                   2365 ;E:/Dropbox/FAUSTO/SVILUPPI/MSX/CODE/C/MSXgl/engine/src/rom_mapper.h:191: Poke(YAMANOOTO_OFFR, (s >> 2) & 0xC0);
    00000918 3E 10            [ 7] 2366 	ld	a, #0x10
    0000091A E6 C0            [ 7] 2367 	and	a, #0xc0
                                   2368 ;E:/Dropbox/FAUSTO/SVILUPPI/MSX/CODE/C/MSXgl/engine/src/system.h:101: inline void Poke(u16 addr, u8 val) { *(u8*)addr = val; }
    0000091C 32 FE 7F         [13] 2369 	ld	(#0x7ffe),a
                                   2370 ;E:/Dropbox/FAUSTO/SVILUPPI/MSX/CODE/C/MSXgl/engine/src/rom_mapper.h:195: else if (b == 3)	Poke(ADDR_BANK_3, s & 0xFF);
    0000091F 3E 42            [ 7] 2371 	ld	a, #0x42
                                   2372 ;E:/Dropbox/FAUSTO/SVILUPPI/MSX/CODE/C/MSXgl/engine/src/system.h:101: inline void Poke(u16 addr, u8 val) { *(u8*)addr = val; }
    00000921 32 00 B0         [13] 2373 	ld	(#0xb000),a
                                   2374 ;./soccerlg.c:406: V9_WriteVRAM(V9_P1_PGT_B + 16384L*3 + 8192L, g_Data_Field_LayerB_Part4b, sizeof(g_Data_Field_LayerB_Part4b)); 
                                   2375 ;E:/Dropbox/FAUSTO/SVILUPPI/MSX/CODE/C/MSXgl/engine/src/v9990.h:371: inline void V9_WriteVRAM(u32 addr, const u8* src, u16 count) { V9_SetWriteAddress(addr); V9_WriteVRAM_CurrentAddr(src, count); }
    00000924 11 00 E0         [10] 2376 	ld	de, #0xe000
    00000927 21 04 00         [10] 2377 	ld	hl, #0x0004
    0000092A CDr00r00         [17] 2378 	call	_V9_SetWriteAddress
    0000092D 11 00 1C         [10] 2379 	ld	de, #0x1c00
    00000930 21r00r00         [10] 2380 	ld	hl, #_g_Data_Field_LayerB_Part4b
    00000933 CDr00r00         [17] 2381 	call	_V9_WriteVRAM_CurrentAddr
                                   2382 ;E:/Dropbox/FAUSTO/SVILUPPI/MSX/CODE/C/MSXgl/engine/src/rom_mapper.h:190: g_Bank0Segment[b] = s;
    00000936 21 43 00         [10] 2383 	ld	hl, #0x0043
    00000939 22r06r00         [16] 2384 	ld	((_g_Bank0Segment + 6)), hl
                                   2385 ;E:/Dropbox/FAUSTO/SVILUPPI/MSX/CODE/C/MSXgl/engine/src/rom_mapper.h:191: Poke(YAMANOOTO_OFFR, (s >> 2) & 0xC0);
    0000093C 3E 10            [ 7] 2386 	ld	a, #0x10
    0000093E E6 C0            [ 7] 2387 	and	a, #0xc0
                                   2388 ;E:/Dropbox/FAUSTO/SVILUPPI/MSX/CODE/C/MSXgl/engine/src/system.h:101: inline void Poke(u16 addr, u8 val) { *(u8*)addr = val; }
    00000940 32 FE 7F         [13] 2389 	ld	(#0x7ffe),a
                                   2390 ;E:/Dropbox/FAUSTO/SVILUPPI/MSX/CODE/C/MSXgl/engine/src/rom_mapper.h:195: else if (b == 3)	Poke(ADDR_BANK_3, s & 0xFF);
    00000943 3E 43            [ 7] 2391 	ld	a, #0x43
                                   2392 ;E:/Dropbox/FAUSTO/SVILUPPI/MSX/CODE/C/MSXgl/engine/src/system.h:101: inline void Poke(u16 addr, u8 val) { *(u8*)addr = val; }
    00000945 32 00 B0         [13] 2393 	ld	(#0xb000),a
                                   2394 ;./soccerlg.c:409: V9_WriteVRAM(V9_P1_PGT_B + 16384L*4, g_Data_Field_LayerB_Part5a, sizeof(g_Data_Field_LayerB_Part5a)); 
                                   2395 ;E:/Dropbox/FAUSTO/SVILUPPI/MSX/CODE/C/MSXgl/engine/src/v9990.h:371: inline void V9_WriteVRAM(u32 addr, const u8* src, u16 count) { V9_SetWriteAddress(addr); V9_WriteVRAM_CurrentAddr(src, count); }
    00000948 11 00 00         [10] 2396 	ld	de, #0x0000
    0000094B 21 05 00         [10] 2397 	ld	hl, #0x0005
    0000094E CDr00r00         [17] 2398 	call	_V9_SetWriteAddress
    00000951 11 00 20         [10] 2399 	ld	de, #0x2000
    00000954 21r00r00         [10] 2400 	ld	hl, #_g_Data_Field_LayerB_Part5a
    00000957 CDr00r00         [17] 2401 	call	_V9_WriteVRAM_CurrentAddr
                                   2402 ;E:/Dropbox/FAUSTO/SVILUPPI/MSX/CODE/C/MSXgl/engine/src/rom_mapper.h:190: g_Bank0Segment[b] = s;
    0000095A 21 44 00         [10] 2403 	ld	hl, #0x0044
    0000095D 22r06r00         [16] 2404 	ld	((_g_Bank0Segment + 6)), hl
                                   2405 ;E:/Dropbox/FAUSTO/SVILUPPI/MSX/CODE/C/MSXgl/engine/src/rom_mapper.h:191: Poke(YAMANOOTO_OFFR, (s >> 2) & 0xC0);
    00000960 3E 11            [ 7] 2406 	ld	a, #0x11
    00000962 E6 C0            [ 7] 2407 	and	a, #0xc0
                                   2408 ;E:/Dropbox/FAUSTO/SVILUPPI/MSX/CODE/C/MSXgl/engine/src/system.h:101: inline void Poke(u16 addr, u8 val) { *(u8*)addr = val; }
    00000964 32 FE 7F         [13] 2409 	ld	(#0x7ffe),a
                                   2410 ;E:/Dropbox/FAUSTO/SVILUPPI/MSX/CODE/C/MSXgl/engine/src/rom_mapper.h:195: else if (b == 3)	Poke(ADDR_BANK_3, s & 0xFF);
    00000967 3E 44            [ 7] 2411 	ld	a, #0x44
                                   2412 ;E:/Dropbox/FAUSTO/SVILUPPI/MSX/CODE/C/MSXgl/engine/src/system.h:101: inline void Poke(u16 addr, u8 val) { *(u8*)addr = val; }
    00000969 32 00 B0         [13] 2413 	ld	(#0xb000),a
                                   2414 ;./soccerlg.c:411: V9_WriteVRAM(V9_P1_PGT_B + 16384L*4 + 8192L, g_Data_Field_LayerB_Part5b, sizeof(g_Data_Field_LayerB_Part5b)); 
                                   2415 ;E:/Dropbox/FAUSTO/SVILUPPI/MSX/CODE/C/MSXgl/engine/src/v9990.h:371: inline void V9_WriteVRAM(u32 addr, const u8* src, u16 count) { V9_SetWriteAddress(addr); V9_WriteVRAM_CurrentAddr(src, count); }
    0000096C 11 00 20         [10] 2416 	ld	de, #0x2000
    0000096F 21 05 00         [10] 2417 	ld	hl, #0x0005
    00000972 CDr00r00         [17] 2418 	call	_V9_SetWriteAddress
    00000975 11 00 20         [10] 2419 	ld	de, #0x2000
    00000978 21r00r00         [10] 2420 	ld	hl, #_g_Data_Field_LayerB_Part5b
    0000097B CDr00r00         [17] 2421 	call	_V9_WriteVRAM_CurrentAddr
                                   2422 ;./soccerlg.c:412: SET_BANK_SEGMENT(3, currentSegment);
    0000097E DD 4E FF         [19] 2423 	ld	c, -1 (ix)
    00000981 06 00            [ 7] 2424 	ld	b, #0x00
                                   2425 ;E:/Dropbox/FAUSTO/SVILUPPI/MSX/CODE/C/MSXgl/engine/src/rom_mapper.h:190: g_Bank0Segment[b] = s;
    00000983 ED 43r06r00      [20] 2426 	ld	((_g_Bank0Segment + 6)), bc
                                   2427 ;E:/Dropbox/FAUSTO/SVILUPPI/MSX/CODE/C/MSXgl/engine/src/rom_mapper.h:191: Poke(YAMANOOTO_OFFR, (s >> 2) & 0xC0);
    00000987 59               [ 4] 2428 	ld	e, c
    00000988 50               [ 4] 2429 	ld	d, b
    00000989 CB 3A            [ 8] 2430 	srl	d
    0000098B CB 1B            [ 8] 2431 	rr	e
    0000098D CB 3A            [ 8] 2432 	srl	d
    0000098F CB 1B            [ 8] 2433 	rr	e
    00000991 7B               [ 4] 2434 	ld	a, e
    00000992 E6 C0            [ 7] 2435 	and	a, #0xc0
                                   2436 ;E:/Dropbox/FAUSTO/SVILUPPI/MSX/CODE/C/MSXgl/engine/src/system.h:101: inline void Poke(u16 addr, u8 val) { *(u8*)addr = val; }
    00000994 32 FE 7F         [13] 2437 	ld	(#0x7ffe),a
                                   2438 ;E:/Dropbox/FAUSTO/SVILUPPI/MSX/CODE/C/MSXgl/engine/src/rom_mapper.h:195: else if (b == 3)	Poke(ADDR_BANK_3, s & 0xFF);
                                   2439 ;E:/Dropbox/FAUSTO/SVILUPPI/MSX/CODE/C/MSXgl/engine/src/system.h:101: inline void Poke(u16 addr, u8 val) { *(u8*)addr = val; }
    00000997 21 00 B0         [10] 2440 	ld	hl, #0xb000
    0000099A 71               [ 7] 2441 	ld	(hl), c
                                   2442 ;./soccerlg.c:412: SET_BANK_SEGMENT(3, currentSegment);
                                   2443 ;./soccerlg.c:414: }
    0000099B 33               [ 6] 2444 	inc	sp
    0000099C DD E1            [14] 2445 	pop	ix
    0000099E C9               [10] 2446 	ret
                                   2447 ;./soccerlg.c:416: void V9990_LoadImagePresentationData(){
                                   2448 ;	---------------------------------
                                   2449 ; Function V9990_LoadImagePresentationData
                                   2450 ; ---------------------------------
    0000099F                       2451 _V9990_LoadImagePresentationData::
    0000099F DD E5            [15] 2452 	push	ix
    000009A1 DD 21 00 00      [14] 2453 	ld	ix,#0
    000009A5 DD 39            [15] 2454 	add	ix,sp
    000009A7 3B               [ 6] 2455 	dec	sp
                                   2456 ;./soccerlg.c:417: u8 currentSegment = GET_BANK_SEGMENT(3);
    000009A8 2Ar06r00         [16] 2457 	ld	hl, (#(_g_Bank0Segment + 6) + 0)
    000009AB DD 75 FF         [19] 2458 	ld	-1 (ix), l
                                   2459 ;E:/Dropbox/FAUSTO/SVILUPPI/MSX/CODE/C/MSXgl/engine/src/rom_mapper.h:190: g_Bank0Segment[b] = s;
    000009AE 21 15 00         [10] 2460 	ld	hl, #0x0015
    000009B1 22r06r00         [16] 2461 	ld	((_g_Bank0Segment + 6)), hl
                                   2462 ;E:/Dropbox/FAUSTO/SVILUPPI/MSX/CODE/C/MSXgl/engine/src/rom_mapper.h:191: Poke(YAMANOOTO_OFFR, (s >> 2) & 0xC0);
    000009B4 3E 05            [ 7] 2463 	ld	a, #0x05
    000009B6 E6 C0            [ 7] 2464 	and	a, #0xc0
                                   2465 ;E:/Dropbox/FAUSTO/SVILUPPI/MSX/CODE/C/MSXgl/engine/src/system.h:101: inline void Poke(u16 addr, u8 val) { *(u8*)addr = val; }
    000009B8 32 FE 7F         [13] 2466 	ld	(#0x7ffe),a
                                   2467 ;E:/Dropbox/FAUSTO/SVILUPPI/MSX/CODE/C/MSXgl/engine/src/rom_mapper.h:195: else if (b == 3)	Poke(ADDR_BANK_3, s & 0xFF);
    000009BB 3E 15            [ 7] 2468 	ld	a, #0x15
                                   2469 ;E:/Dropbox/FAUSTO/SVILUPPI/MSX/CODE/C/MSXgl/engine/src/system.h:101: inline void Poke(u16 addr, u8 val) { *(u8*)addr = val; }
    000009BD 21 00 B0         [10] 2470 	ld	hl, #0xb000
    000009C0 77               [ 7] 2471 	ld	(hl), a
                                   2472 ;./soccerlg.c:419: V9_WriteVRAM(V9_BMP_PGT, g_Data_Img_Presentation_Part1a, sizeof(g_Data_Img_Presentation_Part1a)); 
                                   2473 ;E:/Dropbox/FAUSTO/SVILUPPI/MSX/CODE/C/MSXgl/engine/src/v9990.h:371: inline void V9_WriteVRAM(u32 addr, const u8* src, u16 count) { V9_SetWriteAddress(addr); V9_WriteVRAM_CurrentAddr(src, count); }
    000009C1 11 00 00         [10] 2474 	ld	de, #0x0000
    000009C4 65               [ 4] 2475 	ld	h, l
    000009C5 CDr00r00         [17] 2476 	call	_V9_SetWriteAddress
    000009C8 11 00 20         [10] 2477 	ld	de, #0x2000
    000009CB 21r00r00         [10] 2478 	ld	hl, #_g_Data_Img_Presentation_Part1a
    000009CE CDr00r00         [17] 2479 	call	_V9_WriteVRAM_CurrentAddr
                                   2480 ;E:/Dropbox/FAUSTO/SVILUPPI/MSX/CODE/C/MSXgl/engine/src/rom_mapper.h:190: g_Bank0Segment[b] = s;
    000009D1 21 16 00         [10] 2481 	ld	hl, #0x0016
    000009D4 22r06r00         [16] 2482 	ld	((_g_Bank0Segment + 6)), hl
                                   2483 ;E:/Dropbox/FAUSTO/SVILUPPI/MSX/CODE/C/MSXgl/engine/src/rom_mapper.h:191: Poke(YAMANOOTO_OFFR, (s >> 2) & 0xC0);
    000009D7 3E 05            [ 7] 2484 	ld	a, #0x05
    000009D9 E6 C0            [ 7] 2485 	and	a, #0xc0
                                   2486 ;E:/Dropbox/FAUSTO/SVILUPPI/MSX/CODE/C/MSXgl/engine/src/system.h:101: inline void Poke(u16 addr, u8 val) { *(u8*)addr = val; }
    000009DB 32 FE 7F         [13] 2487 	ld	(#0x7ffe),a
                                   2488 ;E:/Dropbox/FAUSTO/SVILUPPI/MSX/CODE/C/MSXgl/engine/src/rom_mapper.h:195: else if (b == 3)	Poke(ADDR_BANK_3, s & 0xFF);
    000009DE 3E 16            [ 7] 2489 	ld	a, #0x16
                                   2490 ;E:/Dropbox/FAUSTO/SVILUPPI/MSX/CODE/C/MSXgl/engine/src/system.h:101: inline void Poke(u16 addr, u8 val) { *(u8*)addr = val; }
    000009E0 21 00 B0         [10] 2491 	ld	hl, #0xb000
    000009E3 77               [ 7] 2492 	ld	(hl), a
                                   2493 ;./soccerlg.c:421: V9_WriteVRAM(V9_BMP_PGT+8192L, g_Data_Img_Presentation_Part1b, sizeof(g_Data_Img_Presentation_Part1b)); 
                                   2494 ;E:/Dropbox/FAUSTO/SVILUPPI/MSX/CODE/C/MSXgl/engine/src/v9990.h:371: inline void V9_WriteVRAM(u32 addr, const u8* src, u16 count) { V9_SetWriteAddress(addr); V9_WriteVRAM_CurrentAddr(src, count); }
    000009E4 11 00 20         [10] 2495 	ld	de, #0x2000
    000009E7 65               [ 4] 2496 	ld	h, l
    000009E8 CDr00r00         [17] 2497 	call	_V9_SetWriteAddress
    000009EB 11 00 20         [10] 2498 	ld	de, #0x2000
    000009EE 21r00r00         [10] 2499 	ld	hl, #_g_Data_Img_Presentation_Part1b
    000009F1 CDr00r00         [17] 2500 	call	_V9_WriteVRAM_CurrentAddr
                                   2501 ;E:/Dropbox/FAUSTO/SVILUPPI/MSX/CODE/C/MSXgl/engine/src/rom_mapper.h:190: g_Bank0Segment[b] = s;
    000009F4 21 17 00         [10] 2502 	ld	hl, #0x0017
    000009F7 22r06r00         [16] 2503 	ld	((_g_Bank0Segment + 6)), hl
                                   2504 ;E:/Dropbox/FAUSTO/SVILUPPI/MSX/CODE/C/MSXgl/engine/src/rom_mapper.h:191: Poke(YAMANOOTO_OFFR, (s >> 2) & 0xC0);
    000009FA 3E 05            [ 7] 2505 	ld	a, #0x05
    000009FC E6 C0            [ 7] 2506 	and	a, #0xc0
                                   2507 ;E:/Dropbox/FAUSTO/SVILUPPI/MSX/CODE/C/MSXgl/engine/src/system.h:101: inline void Poke(u16 addr, u8 val) { *(u8*)addr = val; }
    000009FE 32 FE 7F         [13] 2508 	ld	(#0x7ffe),a
                                   2509 ;E:/Dropbox/FAUSTO/SVILUPPI/MSX/CODE/C/MSXgl/engine/src/rom_mapper.h:195: else if (b == 3)	Poke(ADDR_BANK_3, s & 0xFF);
    00000A01 3E 17            [ 7] 2510 	ld	a, #0x17
                                   2511 ;E:/Dropbox/FAUSTO/SVILUPPI/MSX/CODE/C/MSXgl/engine/src/system.h:101: inline void Poke(u16 addr, u8 val) { *(u8*)addr = val; }
    00000A03 21 00 B0         [10] 2512 	ld	hl, #0xb000
    00000A06 77               [ 7] 2513 	ld	(hl), a
                                   2514 ;./soccerlg.c:424: V9_WriteVRAM(V9_BMP_PGT + 16384L, g_Data_Img_Presentation_Part2a, sizeof(g_Data_Img_Presentation_Part2a)); 
                                   2515 ;E:/Dropbox/FAUSTO/SVILUPPI/MSX/CODE/C/MSXgl/engine/src/v9990.h:371: inline void V9_WriteVRAM(u32 addr, const u8* src, u16 count) { V9_SetWriteAddress(addr); V9_WriteVRAM_CurrentAddr(src, count); }
    00000A07 11 00 40         [10] 2516 	ld	de, #0x4000
    00000A0A 65               [ 4] 2517 	ld	h, l
    00000A0B CDr00r00         [17] 2518 	call	_V9_SetWriteAddress
    00000A0E 11 00 20         [10] 2519 	ld	de, #0x2000
    00000A11 21r00r00         [10] 2520 	ld	hl, #_g_Data_Img_Presentation_Part2a
    00000A14 CDr00r00         [17] 2521 	call	_V9_WriteVRAM_CurrentAddr
                                   2522 ;E:/Dropbox/FAUSTO/SVILUPPI/MSX/CODE/C/MSXgl/engine/src/rom_mapper.h:190: g_Bank0Segment[b] = s;
    00000A17 21 18 00         [10] 2523 	ld	hl, #0x0018
    00000A1A 22r06r00         [16] 2524 	ld	((_g_Bank0Segment + 6)), hl
                                   2525 ;E:/Dropbox/FAUSTO/SVILUPPI/MSX/CODE/C/MSXgl/engine/src/rom_mapper.h:191: Poke(YAMANOOTO_OFFR, (s >> 2) & 0xC0);
    00000A1D 3E 06            [ 7] 2526 	ld	a, #0x06
    00000A1F E6 C0            [ 7] 2527 	and	a, #0xc0
                                   2528 ;E:/Dropbox/FAUSTO/SVILUPPI/MSX/CODE/C/MSXgl/engine/src/system.h:101: inline void Poke(u16 addr, u8 val) { *(u8*)addr = val; }
    00000A21 32 FE 7F         [13] 2529 	ld	(#0x7ffe),a
                                   2530 ;E:/Dropbox/FAUSTO/SVILUPPI/MSX/CODE/C/MSXgl/engine/src/rom_mapper.h:195: else if (b == 3)	Poke(ADDR_BANK_3, s & 0xFF);
    00000A24 3E 18            [ 7] 2531 	ld	a, #0x18
                                   2532 ;E:/Dropbox/FAUSTO/SVILUPPI/MSX/CODE/C/MSXgl/engine/src/system.h:101: inline void Poke(u16 addr, u8 val) { *(u8*)addr = val; }
    00000A26 21 00 B0         [10] 2533 	ld	hl, #0xb000
    00000A29 77               [ 7] 2534 	ld	(hl), a
                                   2535 ;./soccerlg.c:426: V9_WriteVRAM(V9_BMP_PGT + 16384L + 8192L, g_Data_Img_Presentation_Part2b, sizeof(g_Data_Img_Presentation_Part2b)); 
                                   2536 ;E:/Dropbox/FAUSTO/SVILUPPI/MSX/CODE/C/MSXgl/engine/src/v9990.h:371: inline void V9_WriteVRAM(u32 addr, const u8* src, u16 count) { V9_SetWriteAddress(addr); V9_WriteVRAM_CurrentAddr(src, count); }
    00000A2A 11 00 60         [10] 2537 	ld	de, #0x6000
    00000A2D 65               [ 4] 2538 	ld	h, l
    00000A2E CDr00r00         [17] 2539 	call	_V9_SetWriteAddress
    00000A31 11 00 20         [10] 2540 	ld	de, #0x2000
    00000A34 21r00r00         [10] 2541 	ld	hl, #_g_Data_Img_Presentation_Part2b
    00000A37 CDr00r00         [17] 2542 	call	_V9_WriteVRAM_CurrentAddr
                                   2543 ;E:/Dropbox/FAUSTO/SVILUPPI/MSX/CODE/C/MSXgl/engine/src/rom_mapper.h:190: g_Bank0Segment[b] = s;
    00000A3A 21 19 00         [10] 2544 	ld	hl, #0x0019
    00000A3D 22r06r00         [16] 2545 	ld	((_g_Bank0Segment + 6)), hl
                                   2546 ;E:/Dropbox/FAUSTO/SVILUPPI/MSX/CODE/C/MSXgl/engine/src/rom_mapper.h:191: Poke(YAMANOOTO_OFFR, (s >> 2) & 0xC0);
    00000A40 3E 06            [ 7] 2547 	ld	a, #0x06
    00000A42 E6 C0            [ 7] 2548 	and	a, #0xc0
                                   2549 ;E:/Dropbox/FAUSTO/SVILUPPI/MSX/CODE/C/MSXgl/engine/src/system.h:101: inline void Poke(u16 addr, u8 val) { *(u8*)addr = val; }
    00000A44 32 FE 7F         [13] 2550 	ld	(#0x7ffe),a
                                   2551 ;E:/Dropbox/FAUSTO/SVILUPPI/MSX/CODE/C/MSXgl/engine/src/rom_mapper.h:195: else if (b == 3)	Poke(ADDR_BANK_3, s & 0xFF);
    00000A47 3E 19            [ 7] 2552 	ld	a, #0x19
                                   2553 ;E:/Dropbox/FAUSTO/SVILUPPI/MSX/CODE/C/MSXgl/engine/src/system.h:101: inline void Poke(u16 addr, u8 val) { *(u8*)addr = val; }
    00000A49 21 00 B0         [10] 2554 	ld	hl, #0xb000
    00000A4C 77               [ 7] 2555 	ld	(hl), a
                                   2556 ;./soccerlg.c:429: V9_WriteVRAM(V9_BMP_PGT + 16384L+16384L, g_Data_Img_Presentation_Part3a, sizeof(g_Data_Img_Presentation_Part3a)); 
                                   2557 ;E:/Dropbox/FAUSTO/SVILUPPI/MSX/CODE/C/MSXgl/engine/src/v9990.h:371: inline void V9_WriteVRAM(u32 addr, const u8* src, u16 count) { V9_SetWriteAddress(addr); V9_WriteVRAM_CurrentAddr(src, count); }
    00000A4D 11 00 80         [10] 2558 	ld	de, #0x8000
    00000A50 65               [ 4] 2559 	ld	h, l
    00000A51 CDr00r00         [17] 2560 	call	_V9_SetWriteAddress
    00000A54 11 00 20         [10] 2561 	ld	de, #0x2000
    00000A57 21r00r00         [10] 2562 	ld	hl, #_g_Data_Img_Presentation_Part3a
    00000A5A CDr00r00         [17] 2563 	call	_V9_WriteVRAM_CurrentAddr
                                   2564 ;E:/Dropbox/FAUSTO/SVILUPPI/MSX/CODE/C/MSXgl/engine/src/rom_mapper.h:190: g_Bank0Segment[b] = s;
    00000A5D 21 1A 00         [10] 2565 	ld	hl, #0x001a
    00000A60 22r06r00         [16] 2566 	ld	((_g_Bank0Segment + 6)), hl
                                   2567 ;E:/Dropbox/FAUSTO/SVILUPPI/MSX/CODE/C/MSXgl/engine/src/rom_mapper.h:191: Poke(YAMANOOTO_OFFR, (s >> 2) & 0xC0);
    00000A63 3E 06            [ 7] 2568 	ld	a, #0x06
    00000A65 E6 C0            [ 7] 2569 	and	a, #0xc0
                                   2570 ;E:/Dropbox/FAUSTO/SVILUPPI/MSX/CODE/C/MSXgl/engine/src/system.h:101: inline void Poke(u16 addr, u8 val) { *(u8*)addr = val; }
    00000A67 32 FE 7F         [13] 2571 	ld	(#0x7ffe),a
                                   2572 ;E:/Dropbox/FAUSTO/SVILUPPI/MSX/CODE/C/MSXgl/engine/src/rom_mapper.h:195: else if (b == 3)	Poke(ADDR_BANK_3, s & 0xFF);
    00000A6A 3E 1A            [ 7] 2573 	ld	a, #0x1a
                                   2574 ;E:/Dropbox/FAUSTO/SVILUPPI/MSX/CODE/C/MSXgl/engine/src/system.h:101: inline void Poke(u16 addr, u8 val) { *(u8*)addr = val; }
    00000A6C 21 00 B0         [10] 2575 	ld	hl, #0xb000
    00000A6F 77               [ 7] 2576 	ld	(hl), a
                                   2577 ;./soccerlg.c:431: V9_WriteVRAM(V9_BMP_PGT + 16384L+16384L+8192L, g_Data_Img_Presentation_Part3b, sizeof(g_Data_Img_Presentation_Part3b));
                                   2578 ;E:/Dropbox/FAUSTO/SVILUPPI/MSX/CODE/C/MSXgl/engine/src/v9990.h:371: inline void V9_WriteVRAM(u32 addr, const u8* src, u16 count) { V9_SetWriteAddress(addr); V9_WriteVRAM_CurrentAddr(src, count); }
    00000A70 11 00 A0         [10] 2579 	ld	de, #0xa000
    00000A73 65               [ 4] 2580 	ld	h, l
    00000A74 CDr00r00         [17] 2581 	call	_V9_SetWriteAddress
    00000A77 11 00 20         [10] 2582 	ld	de, #0x2000
    00000A7A 21r00r00         [10] 2583 	ld	hl, #_g_Data_Img_Presentation_Part3b
    00000A7D CDr00r00         [17] 2584 	call	_V9_WriteVRAM_CurrentAddr
                                   2585 ;E:/Dropbox/FAUSTO/SVILUPPI/MSX/CODE/C/MSXgl/engine/src/rom_mapper.h:190: g_Bank0Segment[b] = s;
    00000A80 21 1B 00         [10] 2586 	ld	hl, #0x001b
    00000A83 22r06r00         [16] 2587 	ld	((_g_Bank0Segment + 6)), hl
                                   2588 ;E:/Dropbox/FAUSTO/SVILUPPI/MSX/CODE/C/MSXgl/engine/src/rom_mapper.h:191: Poke(YAMANOOTO_OFFR, (s >> 2) & 0xC0);
    00000A86 3E 06            [ 7] 2589 	ld	a, #0x06
    00000A88 E6 C0            [ 7] 2590 	and	a, #0xc0
                                   2591 ;E:/Dropbox/FAUSTO/SVILUPPI/MSX/CODE/C/MSXgl/engine/src/system.h:101: inline void Poke(u16 addr, u8 val) { *(u8*)addr = val; }
    00000A8A 32 FE 7F         [13] 2592 	ld	(#0x7ffe),a
                                   2593 ;E:/Dropbox/FAUSTO/SVILUPPI/MSX/CODE/C/MSXgl/engine/src/rom_mapper.h:195: else if (b == 3)	Poke(ADDR_BANK_3, s & 0xFF);
    00000A8D 3E 1B            [ 7] 2594 	ld	a, #0x1b
                                   2595 ;E:/Dropbox/FAUSTO/SVILUPPI/MSX/CODE/C/MSXgl/engine/src/system.h:101: inline void Poke(u16 addr, u8 val) { *(u8*)addr = val; }
    00000A8F 21 00 B0         [10] 2596 	ld	hl, #0xb000
    00000A92 77               [ 7] 2597 	ld	(hl), a
                                   2598 ;./soccerlg.c:434: V9_WriteVRAM(V9_BMP_PGT + 16384L+16384L+16384L, g_Data_Img_Presentation_Part4, sizeof(g_Data_Img_Presentation_Part4));
                                   2599 ;E:/Dropbox/FAUSTO/SVILUPPI/MSX/CODE/C/MSXgl/engine/src/v9990.h:371: inline void V9_WriteVRAM(u32 addr, const u8* src, u16 count) { V9_SetWriteAddress(addr); V9_WriteVRAM_CurrentAddr(src, count); }
    00000A93 11 00 C0         [10] 2600 	ld	de, #0xc000
    00000A96 65               [ 4] 2601 	ld	h, l
    00000A97 CDr00r00         [17] 2602 	call	_V9_SetWriteAddress
    00000A9A 11 00 14         [10] 2603 	ld	de, #0x1400
    00000A9D 21r00r00         [10] 2604 	ld	hl, #_g_Data_Img_Presentation_Part4
    00000AA0 CDr00r00         [17] 2605 	call	_V9_WriteVRAM_CurrentAddr
                                   2606 ;./soccerlg.c:435: SET_BANK_SEGMENT(3, currentSegment);
    00000AA3 DD 4E FF         [19] 2607 	ld	c, -1 (ix)
    00000AA6 06 00            [ 7] 2608 	ld	b, #0x00
                                   2609 ;E:/Dropbox/FAUSTO/SVILUPPI/MSX/CODE/C/MSXgl/engine/src/rom_mapper.h:190: g_Bank0Segment[b] = s;
    00000AA8 ED 43r06r00      [20] 2610 	ld	((_g_Bank0Segment + 6)), bc
                                   2611 ;E:/Dropbox/FAUSTO/SVILUPPI/MSX/CODE/C/MSXgl/engine/src/rom_mapper.h:191: Poke(YAMANOOTO_OFFR, (s >> 2) & 0xC0);
    00000AAC 59               [ 4] 2612 	ld	e, c
    00000AAD 50               [ 4] 2613 	ld	d, b
    00000AAE CB 3A            [ 8] 2614 	srl	d
    00000AB0 CB 1B            [ 8] 2615 	rr	e
    00000AB2 CB 3A            [ 8] 2616 	srl	d
    00000AB4 CB 1B            [ 8] 2617 	rr	e
    00000AB6 7B               [ 4] 2618 	ld	a, e
    00000AB7 E6 C0            [ 7] 2619 	and	a, #0xc0
                                   2620 ;E:/Dropbox/FAUSTO/SVILUPPI/MSX/CODE/C/MSXgl/engine/src/system.h:101: inline void Poke(u16 addr, u8 val) { *(u8*)addr = val; }
    00000AB9 32 FE 7F         [13] 2621 	ld	(#0x7ffe),a
                                   2622 ;E:/Dropbox/FAUSTO/SVILUPPI/MSX/CODE/C/MSXgl/engine/src/rom_mapper.h:195: else if (b == 3)	Poke(ADDR_BANK_3, s & 0xFF);
                                   2623 ;E:/Dropbox/FAUSTO/SVILUPPI/MSX/CODE/C/MSXgl/engine/src/system.h:101: inline void Poke(u16 addr, u8 val) { *(u8*)addr = val; }
    00000ABC 21 00 B0         [10] 2624 	ld	hl, #0xb000
    00000ABF 71               [ 7] 2625 	ld	(hl), c
                                   2626 ;./soccerlg.c:435: SET_BANK_SEGMENT(3, currentSegment);
                                   2627 ;./soccerlg.c:436: }
    00000AC0 33               [ 6] 2628 	inc	sp
    00000AC1 DD E1            [14] 2629 	pop	ix
    00000AC3 C9               [10] 2630 	ret
                                   2631 ;./soccerlg.c:438: void V9990_LoadMenuTeamsData(){
                                   2632 ;	---------------------------------
                                   2633 ; Function V9990_LoadMenuTeamsData
                                   2634 ; ---------------------------------
    00000AC4                       2635 _V9990_LoadMenuTeamsData::
    00000AC4 DD E5            [15] 2636 	push	ix
    00000AC6 DD 21 00 00      [14] 2637 	ld	ix,#0
    00000ACA DD 39            [15] 2638 	add	ix,sp
    00000ACC 21 FB FF         [10] 2639 	ld	hl, #-5
    00000ACF 39               [11] 2640 	add	hl, sp
    00000AD0 F9               [ 6] 2641 	ld	sp, hl
                                   2642 ;./soccerlg.c:439: u8 currentSegment = GET_BANK_SEGMENT(3);
    00000AD1 2Ar06r00         [16] 2643 	ld	hl, (#(_g_Bank0Segment + 6) + 0)
    00000AD4 DD 75 FB         [19] 2644 	ld	-5 (ix), l
                                   2645 ;E:/Dropbox/FAUSTO/SVILUPPI/MSX/CODE/C/MSXgl/engine/src/rom_mapper.h:190: g_Bank0Segment[b] = s;
    00000AD7 21 21 00         [10] 2646 	ld	hl, #0x0021
    00000ADA 22r06r00         [16] 2647 	ld	((_g_Bank0Segment + 6)), hl
                                   2648 ;E:/Dropbox/FAUSTO/SVILUPPI/MSX/CODE/C/MSXgl/engine/src/rom_mapper.h:191: Poke(YAMANOOTO_OFFR, (s >> 2) & 0xC0);
    00000ADD 3E 08            [ 7] 2649 	ld	a, #0x08
    00000ADF E6 C0            [ 7] 2650 	and	a, #0xc0
                                   2651 ;E:/Dropbox/FAUSTO/SVILUPPI/MSX/CODE/C/MSXgl/engine/src/system.h:101: inline void Poke(u16 addr, u8 val) { *(u8*)addr = val; }
    00000AE1 32 FE 7F         [13] 2652 	ld	(#0x7ffe),a
                                   2653 ;E:/Dropbox/FAUSTO/SVILUPPI/MSX/CODE/C/MSXgl/engine/src/rom_mapper.h:195: else if (b == 3)	Poke(ADDR_BANK_3, s & 0xFF);
    00000AE4 3E 21            [ 7] 2654 	ld	a, #0x21
                                   2655 ;E:/Dropbox/FAUSTO/SVILUPPI/MSX/CODE/C/MSXgl/engine/src/system.h:101: inline void Poke(u16 addr, u8 val) { *(u8*)addr = val; }
    00000AE6 32 00 B0         [13] 2656 	ld	(#0xb000),a
                                   2657 ;./soccerlg.c:441: V9_WriteVRAM(V9_P1_PGT_B + 8192L, g_Data_Teams_Gray_Part1a, sizeof(g_Data_Teams_Gray_Part1a));
                                   2658 ;E:/Dropbox/FAUSTO/SVILUPPI/MSX/CODE/C/MSXgl/engine/src/v9990.h:371: inline void V9_WriteVRAM(u32 addr, const u8* src, u16 count) { V9_SetWriteAddress(addr); V9_WriteVRAM_CurrentAddr(src, count); }
    00000AE9 11 00 20         [10] 2659 	ld	de, #0x2000
    00000AEC 21 04 00         [10] 2660 	ld	hl, #0x0004
    00000AEF CDr00r00         [17] 2661 	call	_V9_SetWriteAddress
    00000AF2 11 00 20         [10] 2662 	ld	de, #0x2000
    00000AF5 21r00r00         [10] 2663 	ld	hl, #_g_Data_Teams_Gray_Part1a
    00000AF8 CDr00r00         [17] 2664 	call	_V9_WriteVRAM_CurrentAddr
                                   2665 ;E:/Dropbox/FAUSTO/SVILUPPI/MSX/CODE/C/MSXgl/engine/src/rom_mapper.h:190: g_Bank0Segment[b] = s;
    00000AFB 21 22 00         [10] 2666 	ld	hl, #0x0022
    00000AFE 22r06r00         [16] 2667 	ld	((_g_Bank0Segment + 6)), hl
                                   2668 ;E:/Dropbox/FAUSTO/SVILUPPI/MSX/CODE/C/MSXgl/engine/src/rom_mapper.h:191: Poke(YAMANOOTO_OFFR, (s >> 2) & 0xC0);
    00000B01 3E 08            [ 7] 2669 	ld	a, #0x08
    00000B03 E6 C0            [ 7] 2670 	and	a, #0xc0
                                   2671 ;E:/Dropbox/FAUSTO/SVILUPPI/MSX/CODE/C/MSXgl/engine/src/system.h:101: inline void Poke(u16 addr, u8 val) { *(u8*)addr = val; }
    00000B05 32 FE 7F         [13] 2672 	ld	(#0x7ffe),a
                                   2673 ;E:/Dropbox/FAUSTO/SVILUPPI/MSX/CODE/C/MSXgl/engine/src/rom_mapper.h:195: else if (b == 3)	Poke(ADDR_BANK_3, s & 0xFF);
    00000B08 3E 22            [ 7] 2674 	ld	a, #0x22
                                   2675 ;E:/Dropbox/FAUSTO/SVILUPPI/MSX/CODE/C/MSXgl/engine/src/system.h:101: inline void Poke(u16 addr, u8 val) { *(u8*)addr = val; }
    00000B0A 32 00 B0         [13] 2676 	ld	(#0xb000),a
                                   2677 ;./soccerlg.c:443: V9_WriteVRAM(V9_P1_PGT_B + 16384L, g_Data_Teams_Gray_Part1b, sizeof(g_Data_Teams_Gray_Part1b));
                                   2678 ;E:/Dropbox/FAUSTO/SVILUPPI/MSX/CODE/C/MSXgl/engine/src/v9990.h:371: inline void V9_WriteVRAM(u32 addr, const u8* src, u16 count) { V9_SetWriteAddress(addr); V9_WriteVRAM_CurrentAddr(src, count); }
    00000B0D 11 00 40         [10] 2679 	ld	de, #0x4000
    00000B10 21 04 00         [10] 2680 	ld	hl, #0x0004
    00000B13 CDr00r00         [17] 2681 	call	_V9_SetWriteAddress
    00000B16 11 00 20         [10] 2682 	ld	de, #0x2000
    00000B19 21r00r00         [10] 2683 	ld	hl, #_g_Data_Teams_Gray_Part1b
    00000B1C CDr00r00         [17] 2684 	call	_V9_WriteVRAM_CurrentAddr
                                   2685 ;E:/Dropbox/FAUSTO/SVILUPPI/MSX/CODE/C/MSXgl/engine/src/rom_mapper.h:190: g_Bank0Segment[b] = s;
    00000B1F 21 23 00         [10] 2686 	ld	hl, #0x0023
    00000B22 22r06r00         [16] 2687 	ld	((_g_Bank0Segment + 6)), hl
                                   2688 ;E:/Dropbox/FAUSTO/SVILUPPI/MSX/CODE/C/MSXgl/engine/src/rom_mapper.h:191: Poke(YAMANOOTO_OFFR, (s >> 2) & 0xC0);
    00000B25 3E 08            [ 7] 2689 	ld	a, #0x08
    00000B27 E6 C0            [ 7] 2690 	and	a, #0xc0
                                   2691 ;E:/Dropbox/FAUSTO/SVILUPPI/MSX/CODE/C/MSXgl/engine/src/system.h:101: inline void Poke(u16 addr, u8 val) { *(u8*)addr = val; }
    00000B29 32 FE 7F         [13] 2692 	ld	(#0x7ffe),a
                                   2693 ;E:/Dropbox/FAUSTO/SVILUPPI/MSX/CODE/C/MSXgl/engine/src/rom_mapper.h:195: else if (b == 3)	Poke(ADDR_BANK_3, s & 0xFF);
    00000B2C 3E 23            [ 7] 2694 	ld	a, #0x23
                                   2695 ;E:/Dropbox/FAUSTO/SVILUPPI/MSX/CODE/C/MSXgl/engine/src/system.h:101: inline void Poke(u16 addr, u8 val) { *(u8*)addr = val; }
    00000B2E 32 00 B0         [13] 2696 	ld	(#0xb000),a
                                   2697 ;./soccerlg.c:446: V9_WriteVRAM(V9_P1_PGT_B + 8192L + 16384L, g_Data_Teams_Gray_Part2, sizeof(g_Data_Teams_Gray_Part2));
                                   2698 ;E:/Dropbox/FAUSTO/SVILUPPI/MSX/CODE/C/MSXgl/engine/src/v9990.h:371: inline void V9_WriteVRAM(u32 addr, const u8* src, u16 count) { V9_SetWriteAddress(addr); V9_WriteVRAM_CurrentAddr(src, count); }
    00000B31 11 00 60         [10] 2699 	ld	de, #0x6000
    00000B34 21 04 00         [10] 2700 	ld	hl, #0x0004
    00000B37 CDr00r00         [17] 2701 	call	_V9_SetWriteAddress
    00000B3A 11 00 10         [10] 2702 	ld	de, #0x1000
    00000B3D 21r00r00         [10] 2703 	ld	hl, #_g_Data_Teams_Gray_Part2
    00000B40 CDr00r00         [17] 2704 	call	_V9_WriteVRAM_CurrentAddr
                                   2705 ;E:/Dropbox/FAUSTO/SVILUPPI/MSX/CODE/C/MSXgl/engine/src/v9990.h:362: inline void V9_FillVRAM16(u32 addr, u16 value, u16 count) { V9_SetWriteAddress(addr); V9_FillVRAM16_CurrentAddr(value, count); }
    00000B43 11 00 E0         [10] 2706 	ld	de, #0xe000
    00000B46 21 07 00         [10] 2707 	ld	hl, #0x0007
    00000B49 CDr00r00         [17] 2708 	call	_V9_SetWriteAddress
    00000B4C 11 00 10         [10] 2709 	ld	de, #0x1000
    00000B4F 21 00 00         [10] 2710 	ld	hl, #0x0000
    00000B52 CDr00r00         [17] 2711 	call	_V9_FillVRAM16_CurrentAddr
                                   2712 ;./soccerlg.c:448: V9_SetPalette(16, 16, g_Data_Palette_Gray_Scale);
    00000B55 DD 36 FCr00      [19] 2713 	ld	-4 (ix), #<(_g_Data_Palette_Gray_Scale)
    00000B59 DD 36 FDs00      [19] 2714 	ld	-3 (ix), #>(_g_Data_Palette_Gray_Scale)
                                   2715 ;./soccerlg.c:1028: ERROR: no line number 1028 in file ./soccerlg.c
    00000B5D DD 36 FE 10      [19] 2716 	ld	-2 (ix), #0x10
    00000B61 DD 36 FF 00      [19] 2717 	ld	-1 (ix), #0x00
    00000B65                       2718 00196$:
    00000B65 DD 7E FF         [19] 2719 	ld	a, -1 (ix)
    00000B68 D6 10            [ 7] 2720 	sub	a, #0x10
    00000B6A 30 23            [12] 2721 	jr	NC, 00158$
    00000B6C DD 4E FE         [19] 2722 	ld	c, -2 (ix)
    00000B6F DD 34 FE         [23] 2723 	inc	-2 (ix)
    00000B72 DD 5E FC         [19] 2724 	ld	e, -4 (ix)
    00000B75 DD 56 FD         [19] 2725 	ld	d, -3 (ix)
    00000B78 79               [ 4] 2726 	ld	a, c
    00000B79 CDr00r00         [17] 2727 	call	_V9_SetPaletteEntry
    00000B7C DD 7E FC         [19] 2728 	ld	a, -4 (ix)
    00000B7F C6 03            [ 7] 2729 	add	a, #0x03
    00000B81 DD 77 FC         [19] 2730 	ld	-4 (ix), a
    00000B84 30 03            [12] 2731 	jr	NC, 00245$
    00000B86 DD 34 FD         [23] 2732 	inc	-3 (ix)
    00000B89                       2733 00245$:
    00000B89 DD 34 FF         [23] 2734 	inc	-1 (ix)
    00000B8C C3r65r0B         [10] 2735 	jp	00196$
                                   2736 ;./soccerlg.c:448: V9_SetPalette(16, 16, g_Data_Palette_Gray_Scale);
    00000B8F                       2737 00158$:
                                   2738 ;E:/Dropbox/FAUSTO/SVILUPPI/MSX/CODE/C/MSXgl/engine/src/rom_mapper.h:190: g_Bank0Segment[b] = s;
    00000B8F 21 20 00         [10] 2739 	ld	hl, #0x0020
    00000B92 22r06r00         [16] 2740 	ld	((_g_Bank0Segment + 6)), hl
                                   2741 ;E:/Dropbox/FAUSTO/SVILUPPI/MSX/CODE/C/MSXgl/engine/src/rom_mapper.h:191: Poke(YAMANOOTO_OFFR, (s >> 2) & 0xC0);
    00000B95 3E 08            [ 7] 2742 	ld	a, #0x08
    00000B97 E6 C0            [ 7] 2743 	and	a, #0xc0
                                   2744 ;E:/Dropbox/FAUSTO/SVILUPPI/MSX/CODE/C/MSXgl/engine/src/system.h:101: inline void Poke(u16 addr, u8 val) { *(u8*)addr = val; }
    00000B99 32 FE 7F         [13] 2745 	ld	(#0x7ffe),a
                                   2746 ;E:/Dropbox/FAUSTO/SVILUPPI/MSX/CODE/C/MSXgl/engine/src/rom_mapper.h:195: else if (b == 3)	Poke(ADDR_BANK_3, s & 0xFF);
    00000B9C 3E 20            [ 7] 2747 	ld	a, #0x20
                                   2748 ;E:/Dropbox/FAUSTO/SVILUPPI/MSX/CODE/C/MSXgl/engine/src/system.h:101: inline void Poke(u16 addr, u8 val) { *(u8*)addr = val; }
    00000B9E 32 00 B0         [13] 2749 	ld	(#0xb000),a
                                   2750 ;./soccerlg.c:450: V9_SetPalette(0, 16, g_Data_Palette_Teams_Colors);
    00000BA1 01r00r00         [10] 2751 	ld	bc, #_g_Data_Palette_Teams_Colors+0
                                   2752 ;./soccerlg.c:1028: ERROR: no line number 1028 in file ./soccerlg.c
                                   2753 ;	spillPairReg hl
                                   2754 ;	spillPairReg hl
    00000BA4 21 00 00         [10] 2755 	ld	hl, #0x0
                                   2756 ;	spillPairReg hl
                                   2757 ;	spillPairReg hl
    00000BA7                       2758 00199$:
    00000BA7 7C               [ 4] 2759 	ld	a, h
    00000BA8 D6 10            [ 7] 2760 	sub	a, #0x10
    00000BAA 30 17            [12] 2761 	jr	NC, 00177$
    00000BAC DD 75 FF         [19] 2762 	ld	-1 (ix), l
    00000BAF 2C               [ 4] 2763 	inc	l
    00000BB0 E5               [11] 2764 	push	hl
    00000BB1 C5               [11] 2765 	push	bc
    00000BB2 59               [ 4] 2766 	ld	e, c
    00000BB3 50               [ 4] 2767 	ld	d, b
    00000BB4 DD 7E FF         [19] 2768 	ld	a, -1 (ix)
    00000BB7 CDr00r00         [17] 2769 	call	_V9_SetPaletteEntry
    00000BBA C1               [10] 2770 	pop	bc
    00000BBB E1               [10] 2771 	pop	hl
    00000BBC 03               [ 6] 2772 	inc	bc
    00000BBD 03               [ 6] 2773 	inc	bc
    00000BBE 03               [ 6] 2774 	inc	bc
    00000BBF 24               [ 4] 2775 	inc	h
    00000BC0 C3rA7r0B         [10] 2776 	jp	00199$
                                   2777 ;./soccerlg.c:450: V9_SetPalette(0, 16, g_Data_Palette_Teams_Colors);
    00000BC3                       2778 00177$:
                                   2779 ;./soccerlg.c:451: SET_BANK_SEGMENT(3, currentSegment);
    00000BC3 DD 4E FB         [19] 2780 	ld	c, -5 (ix)
    00000BC6 06 00            [ 7] 2781 	ld	b, #0x00
                                   2782 ;E:/Dropbox/FAUSTO/SVILUPPI/MSX/CODE/C/MSXgl/engine/src/rom_mapper.h:190: g_Bank0Segment[b] = s;
    00000BC8 ED 43r06r00      [20] 2783 	ld	((_g_Bank0Segment + 6)), bc
                                   2784 ;E:/Dropbox/FAUSTO/SVILUPPI/MSX/CODE/C/MSXgl/engine/src/rom_mapper.h:191: Poke(YAMANOOTO_OFFR, (s >> 2) & 0xC0);
    00000BCC 59               [ 4] 2785 	ld	e, c
    00000BCD 50               [ 4] 2786 	ld	d, b
    00000BCE CB 3A            [ 8] 2787 	srl	d
    00000BD0 CB 1B            [ 8] 2788 	rr	e
    00000BD2 CB 3A            [ 8] 2789 	srl	d
    00000BD4 CB 1B            [ 8] 2790 	rr	e
    00000BD6 7B               [ 4] 2791 	ld	a, e
    00000BD7 E6 C0            [ 7] 2792 	and	a, #0xc0
                                   2793 ;E:/Dropbox/FAUSTO/SVILUPPI/MSX/CODE/C/MSXgl/engine/src/system.h:101: inline void Poke(u16 addr, u8 val) { *(u8*)addr = val; }
    00000BD9 32 FE 7F         [13] 2794 	ld	(#0x7ffe),a
                                   2795 ;E:/Dropbox/FAUSTO/SVILUPPI/MSX/CODE/C/MSXgl/engine/src/rom_mapper.h:195: else if (b == 3)	Poke(ADDR_BANK_3, s & 0xFF);
                                   2796 ;E:/Dropbox/FAUSTO/SVILUPPI/MSX/CODE/C/MSXgl/engine/src/system.h:101: inline void Poke(u16 addr, u8 val) { *(u8*)addr = val; }
    00000BDC 21 00 B0         [10] 2797 	ld	hl, #0xb000
    00000BDF 71               [ 7] 2798 	ld	(hl), c
                                   2799 ;./soccerlg.c:451: SET_BANK_SEGMENT(3, currentSegment);
                                   2800 ;./soccerlg.c:452: }
    00000BE0 DD F9            [10] 2801 	ld	sp, ix
    00000BE2 DD E1            [14] 2802 	pop	ix
    00000BE4 C9               [10] 2803 	ret
                                   2804 ;./soccerlg.c:454: void V9990_LoadSprites(){
                                   2805 ;	---------------------------------
                                   2806 ; Function V9990_LoadSprites
                                   2807 ; ---------------------------------
    00000BE5                       2808 _V9990_LoadSprites::
    00000BE5 DD E5            [15] 2809 	push	ix
    00000BE7 DD 21 00 00      [14] 2810 	ld	ix,#0
    00000BEB DD 39            [15] 2811 	add	ix,sp
    00000BED 3B               [ 6] 2812 	dec	sp
                                   2813 ;./soccerlg.c:455: u8 currentSegment = GET_BANK_SEGMENT(3);
    00000BEE 2Ar06r00         [16] 2814 	ld	hl, (#(_g_Bank0Segment + 6) + 0)
    00000BF1 DD 75 FF         [19] 2815 	ld	-1 (ix), l
                                   2816 ;E:/Dropbox/FAUSTO/SVILUPPI/MSX/CODE/C/MSXgl/engine/src/rom_mapper.h:190: g_Bank0Segment[b] = s;
    00000BF4 21 24 00         [10] 2817 	ld	hl, #0x0024
    00000BF7 22r06r00         [16] 2818 	ld	((_g_Bank0Segment + 6)), hl
                                   2819 ;E:/Dropbox/FAUSTO/SVILUPPI/MSX/CODE/C/MSXgl/engine/src/rom_mapper.h:191: Poke(YAMANOOTO_OFFR, (s >> 2) & 0xC0);
    00000BFA 3E 09            [ 7] 2820 	ld	a, #0x09
    00000BFC E6 C0            [ 7] 2821 	and	a, #0xc0
                                   2822 ;E:/Dropbox/FAUSTO/SVILUPPI/MSX/CODE/C/MSXgl/engine/src/system.h:101: inline void Poke(u16 addr, u8 val) { *(u8*)addr = val; }
    00000BFE 32 FE 7F         [13] 2823 	ld	(#0x7ffe),a
                                   2824 ;E:/Dropbox/FAUSTO/SVILUPPI/MSX/CODE/C/MSXgl/engine/src/rom_mapper.h:195: else if (b == 3)	Poke(ADDR_BANK_3, s & 0xFF);
    00000C01 3E 24            [ 7] 2825 	ld	a, #0x24
                                   2826 ;E:/Dropbox/FAUSTO/SVILUPPI/MSX/CODE/C/MSXgl/engine/src/system.h:101: inline void Poke(u16 addr, u8 val) { *(u8*)addr = val; }
    00000C03 32 00 B0         [13] 2827 	ld	(#0xb000),a
                                   2828 ;E:/Dropbox/FAUSTO/SVILUPPI/MSX/CODE/C/MSXgl/engine/src/v9990.h:739: inline void V9_SetSpritePatternAddr(u8 addr) { V9_SetRegister(25, addr); }
    00000C06 2E 02            [ 7] 2829 	ld	l, #0x02
                                   2830 ;	spillPairReg hl
                                   2831 ;	spillPairReg hl
    00000C08 3E 19            [ 7] 2832 	ld	a, #0x19
    00000C0A CDr00r00         [17] 2833 	call	_V9_SetRegister
                                   2834 ;./soccerlg.c:458: V9_WriteVRAM(0x08000, g_Data_Sprites_Part1a, sizeof(g_Data_Sprites_Part1a));	
                                   2835 ;E:/Dropbox/FAUSTO/SVILUPPI/MSX/CODE/C/MSXgl/engine/src/v9990.h:371: inline void V9_WriteVRAM(u32 addr, const u8* src, u16 count) { V9_SetWriteAddress(addr); V9_WriteVRAM_CurrentAddr(src, count); }
    00000C0D 11 00 80         [10] 2836 	ld	de, #0x8000
    00000C10 21 00 00         [10] 2837 	ld	hl, #0x0000
    00000C13 CDr00r00         [17] 2838 	call	_V9_SetWriteAddress
    00000C16 11 00 20         [10] 2839 	ld	de, #0x2000
    00000C19 21r00r00         [10] 2840 	ld	hl, #_g_Data_Sprites_Part1a
    00000C1C CDr00r00         [17] 2841 	call	_V9_WriteVRAM_CurrentAddr
                                   2842 ;E:/Dropbox/FAUSTO/SVILUPPI/MSX/CODE/C/MSXgl/engine/src/rom_mapper.h:190: g_Bank0Segment[b] = s;
    00000C1F 21 25 00         [10] 2843 	ld	hl, #0x0025
    00000C22 22r06r00         [16] 2844 	ld	((_g_Bank0Segment + 6)), hl
                                   2845 ;E:/Dropbox/FAUSTO/SVILUPPI/MSX/CODE/C/MSXgl/engine/src/rom_mapper.h:191: Poke(YAMANOOTO_OFFR, (s >> 2) & 0xC0);
    00000C25 3E 09            [ 7] 2846 	ld	a, #0x09
    00000C27 E6 C0            [ 7] 2847 	and	a, #0xc0
                                   2848 ;E:/Dropbox/FAUSTO/SVILUPPI/MSX/CODE/C/MSXgl/engine/src/system.h:101: inline void Poke(u16 addr, u8 val) { *(u8*)addr = val; }
    00000C29 32 FE 7F         [13] 2849 	ld	(#0x7ffe),a
                                   2850 ;E:/Dropbox/FAUSTO/SVILUPPI/MSX/CODE/C/MSXgl/engine/src/rom_mapper.h:195: else if (b == 3)	Poke(ADDR_BANK_3, s & 0xFF);
    00000C2C 3E 25            [ 7] 2851 	ld	a, #0x25
                                   2852 ;E:/Dropbox/FAUSTO/SVILUPPI/MSX/CODE/C/MSXgl/engine/src/system.h:101: inline void Poke(u16 addr, u8 val) { *(u8*)addr = val; }
    00000C2E 21 00 B0         [10] 2853 	ld	hl, #0xb000
    00000C31 77               [ 7] 2854 	ld	(hl), a
                                   2855 ;./soccerlg.c:460: V9_WriteVRAM(0x08000 + 8192L, g_Data_Sprites_Part1b, sizeof(g_Data_Sprites_Part1b));
                                   2856 ;E:/Dropbox/FAUSTO/SVILUPPI/MSX/CODE/C/MSXgl/engine/src/v9990.h:371: inline void V9_WriteVRAM(u32 addr, const u8* src, u16 count) { V9_SetWriteAddress(addr); V9_WriteVRAM_CurrentAddr(src, count); }
    00000C32 11 00 A0         [10] 2857 	ld	de, #0xa000
    00000C35 65               [ 4] 2858 	ld	h, l
    00000C36 CDr00r00         [17] 2859 	call	_V9_SetWriteAddress
    00000C39 11 00 20         [10] 2860 	ld	de, #0x2000
    00000C3C 21r00r00         [10] 2861 	ld	hl, #_g_Data_Sprites_Part1b
    00000C3F CDr00r00         [17] 2862 	call	_V9_WriteVRAM_CurrentAddr
                                   2863 ;E:/Dropbox/FAUSTO/SVILUPPI/MSX/CODE/C/MSXgl/engine/src/rom_mapper.h:190: g_Bank0Segment[b] = s;
    00000C42 21 26 00         [10] 2864 	ld	hl, #0x0026
    00000C45 22r06r00         [16] 2865 	ld	((_g_Bank0Segment + 6)), hl
                                   2866 ;E:/Dropbox/FAUSTO/SVILUPPI/MSX/CODE/C/MSXgl/engine/src/rom_mapper.h:191: Poke(YAMANOOTO_OFFR, (s >> 2) & 0xC0);
    00000C48 3E 09            [ 7] 2867 	ld	a, #0x09
    00000C4A E6 C0            [ 7] 2868 	and	a, #0xc0
                                   2869 ;E:/Dropbox/FAUSTO/SVILUPPI/MSX/CODE/C/MSXgl/engine/src/system.h:101: inline void Poke(u16 addr, u8 val) { *(u8*)addr = val; }
    00000C4C 32 FE 7F         [13] 2870 	ld	(#0x7ffe),a
                                   2871 ;E:/Dropbox/FAUSTO/SVILUPPI/MSX/CODE/C/MSXgl/engine/src/rom_mapper.h:195: else if (b == 3)	Poke(ADDR_BANK_3, s & 0xFF);
    00000C4F 3E 26            [ 7] 2872 	ld	a, #0x26
                                   2873 ;E:/Dropbox/FAUSTO/SVILUPPI/MSX/CODE/C/MSXgl/engine/src/system.h:101: inline void Poke(u16 addr, u8 val) { *(u8*)addr = val; }
    00000C51 21 00 B0         [10] 2874 	ld	hl, #0xb000
    00000C54 77               [ 7] 2875 	ld	(hl), a
                                   2876 ;./soccerlg.c:462: V9_WriteVRAM(0x08000+sizeof(g_Data_Sprites_Part1a)+sizeof(g_Data_Sprites_Part1b), g_Data_Sprites_Part2a, sizeof(g_Data_Sprites_Part2a));	
                                   2877 ;E:/Dropbox/FAUSTO/SVILUPPI/MSX/CODE/C/MSXgl/engine/src/v9990.h:371: inline void V9_WriteVRAM(u32 addr, const u8* src, u16 count) { V9_SetWriteAddress(addr); V9_WriteVRAM_CurrentAddr(src, count); }
    00000C55 11 00 C0         [10] 2878 	ld	de, #0xc000
    00000C58 65               [ 4] 2879 	ld	h, l
    00000C59 CDr00r00         [17] 2880 	call	_V9_SetWriteAddress
    00000C5C 11 00 20         [10] 2881 	ld	de, #0x2000
    00000C5F 21r00r00         [10] 2882 	ld	hl, #_g_Data_Sprites_Part2a
    00000C62 CDr00r00         [17] 2883 	call	_V9_WriteVRAM_CurrentAddr
                                   2884 ;E:/Dropbox/FAUSTO/SVILUPPI/MSX/CODE/C/MSXgl/engine/src/rom_mapper.h:190: g_Bank0Segment[b] = s;
    00000C65 21 27 00         [10] 2885 	ld	hl, #0x0027
    00000C68 22r06r00         [16] 2886 	ld	((_g_Bank0Segment + 6)), hl
                                   2887 ;E:/Dropbox/FAUSTO/SVILUPPI/MSX/CODE/C/MSXgl/engine/src/rom_mapper.h:191: Poke(YAMANOOTO_OFFR, (s >> 2) & 0xC0);
    00000C6B 3E 09            [ 7] 2888 	ld	a, #0x09
    00000C6D E6 C0            [ 7] 2889 	and	a, #0xc0
                                   2890 ;E:/Dropbox/FAUSTO/SVILUPPI/MSX/CODE/C/MSXgl/engine/src/system.h:101: inline void Poke(u16 addr, u8 val) { *(u8*)addr = val; }
    00000C6F 32 FE 7F         [13] 2891 	ld	(#0x7ffe),a
                                   2892 ;E:/Dropbox/FAUSTO/SVILUPPI/MSX/CODE/C/MSXgl/engine/src/rom_mapper.h:195: else if (b == 3)	Poke(ADDR_BANK_3, s & 0xFF);
    00000C72 3E 27            [ 7] 2893 	ld	a, #0x27
                                   2894 ;E:/Dropbox/FAUSTO/SVILUPPI/MSX/CODE/C/MSXgl/engine/src/system.h:101: inline void Poke(u16 addr, u8 val) { *(u8*)addr = val; }
    00000C74 21 00 B0         [10] 2895 	ld	hl, #0xb000
    00000C77 77               [ 7] 2896 	ld	(hl), a
                                   2897 ;./soccerlg.c:464: V9_WriteVRAM(0x08000+sizeof(g_Data_Sprites_Part1a)+sizeof(g_Data_Sprites_Part1b)+8192L, g_Data_Sprites_Part2b, sizeof(g_Data_Sprites_Part2b));	
                                   2898 ;E:/Dropbox/FAUSTO/SVILUPPI/MSX/CODE/C/MSXgl/engine/src/v9990.h:371: inline void V9_WriteVRAM(u32 addr, const u8* src, u16 count) { V9_SetWriteAddress(addr); V9_WriteVRAM_CurrentAddr(src, count); }
    00000C78 11 00 E0         [10] 2899 	ld	de, #0xe000
    00000C7B 65               [ 4] 2900 	ld	h, l
    00000C7C CDr00r00         [17] 2901 	call	_V9_SetWriteAddress
    00000C7F 11 00 20         [10] 2902 	ld	de, #0x2000
    00000C82 21r00r00         [10] 2903 	ld	hl, #_g_Data_Sprites_Part2b
    00000C85 CDr00r00         [17] 2904 	call	_V9_WriteVRAM_CurrentAddr
                                   2905 ;./soccerlg.c:465: SET_BANK_SEGMENT(3, currentSegment);
    00000C88 DD 4E FF         [19] 2906 	ld	c, -1 (ix)
    00000C8B 06 00            [ 7] 2907 	ld	b, #0x00
                                   2908 ;E:/Dropbox/FAUSTO/SVILUPPI/MSX/CODE/C/MSXgl/engine/src/rom_mapper.h:190: g_Bank0Segment[b] = s;
    00000C8D ED 43r06r00      [20] 2909 	ld	((_g_Bank0Segment + 6)), bc
                                   2910 ;E:/Dropbox/FAUSTO/SVILUPPI/MSX/CODE/C/MSXgl/engine/src/rom_mapper.h:191: Poke(YAMANOOTO_OFFR, (s >> 2) & 0xC0);
    00000C91 59               [ 4] 2911 	ld	e, c
    00000C92 50               [ 4] 2912 	ld	d, b
    00000C93 CB 3A            [ 8] 2913 	srl	d
    00000C95 CB 1B            [ 8] 2914 	rr	e
    00000C97 CB 3A            [ 8] 2915 	srl	d
    00000C99 CB 1B            [ 8] 2916 	rr	e
    00000C9B 7B               [ 4] 2917 	ld	a, e
    00000C9C E6 C0            [ 7] 2918 	and	a, #0xc0
                                   2919 ;E:/Dropbox/FAUSTO/SVILUPPI/MSX/CODE/C/MSXgl/engine/src/system.h:101: inline void Poke(u16 addr, u8 val) { *(u8*)addr = val; }
    00000C9E 32 FE 7F         [13] 2920 	ld	(#0x7ffe),a
                                   2921 ;E:/Dropbox/FAUSTO/SVILUPPI/MSX/CODE/C/MSXgl/engine/src/rom_mapper.h:195: else if (b == 3)	Poke(ADDR_BANK_3, s & 0xFF);
                                   2922 ;E:/Dropbox/FAUSTO/SVILUPPI/MSX/CODE/C/MSXgl/engine/src/system.h:101: inline void Poke(u16 addr, u8 val) { *(u8*)addr = val; }
    00000CA1 21 00 B0         [10] 2923 	ld	hl, #0xb000
    00000CA4 71               [ 7] 2924 	ld	(hl), c
                                   2925 ;./soccerlg.c:465: SET_BANK_SEGMENT(3, currentSegment);
                                   2926 ;./soccerlg.c:467: }
    00000CA5 33               [ 6] 2927 	inc	sp
    00000CA6 DD E1            [14] 2928 	pop	ix
    00000CA8 C9               [10] 2929 	ret
                                   2930 ;./soccerlg.c:469: void V9990_PrintLayerAStringAtPos(u8 x, u8 y, const c8* str)
                                   2931 ;	---------------------------------
                                   2932 ; Function V9990_PrintLayerAStringAtPos
                                   2933 ; ---------------------------------
    00000CA9                       2934 _V9990_PrintLayerAStringAtPos::
    00000CA9 DD E5            [15] 2935 	push	ix
    00000CAB DD 21 00 00      [14] 2936 	ld	ix,#0
    00000CAF DD 39            [15] 2937 	add	ix,sp
    00000CB1 F5               [11] 2938 	push	af
    00000CB2 F5               [11] 2939 	push	af
    00000CB3 DD 77 FF         [19] 2940 	ld	-1 (ix), a
    00000CB6 DD 75 FE         [19] 2941 	ld	-2 (ix), l
                                   2942 ;./soccerlg.c:472: while (*str != 0){
    00000CB9 DD 5E 04         [19] 2943 	ld	e, 4 (ix)
    00000CBC DD 56 05         [19] 2944 	ld	d, 5 (ix)
    00000CBF                       2945 00101$:
    00000CBF 1A               [ 7] 2946 	ld	a, (de)
    00000CC0 B7               [ 4] 2947 	or	a, a
    00000CC1 28 3D            [12] 2948 	jr	Z, 00106$
                                   2949 ;./soccerlg.c:473: V9_Poke16(V9_CellAddrP1A(x,y), *(str++));
    00000CC3 13               [ 6] 2950 	inc	de
    00000CC4 DD 77 FC         [19] 2951 	ld	-4 (ix), a
    00000CC7 DD 36 FD 00      [19] 2952 	ld	-3 (ix), #0x00
                                   2953 ;E:/Dropbox/FAUSTO/SVILUPPI/MSX/CODE/C/MSXgl/engine/src/v9990.h:1426: inline u32 V9_CellAddrP1A(u8 x, u8 y) { return V9_P1_PNT_A + (((64 * y) + x) * 2); }
    00000CCB DD 6E FE         [19] 2954 	ld	l, -2 (ix)
                                   2955 ;	spillPairReg hl
                                   2956 ;	spillPairReg hl
    00000CCE 26 00            [ 7] 2957 	ld	h, #0x00
                                   2958 ;	spillPairReg hl
                                   2959 ;	spillPairReg hl
    00000CD0 29               [11] 2960 	add	hl, hl
    00000CD1 29               [11] 2961 	add	hl, hl
    00000CD2 29               [11] 2962 	add	hl, hl
    00000CD3 29               [11] 2963 	add	hl, hl
    00000CD4 29               [11] 2964 	add	hl, hl
    00000CD5 29               [11] 2965 	add	hl, hl
    00000CD6 DD 4E FF         [19] 2966 	ld	c, -1 (ix)
    00000CD9 06 00            [ 7] 2967 	ld	b, #0x00
    00000CDB 09               [11] 2968 	add	hl, bc
    00000CDC 29               [11] 2969 	add	hl, hl
    00000CDD 7C               [ 4] 2970 	ld	a, h
    00000CDE 07               [ 4] 2971 	rlca
    00000CDF 9F               [ 4] 2972 	sbc	a, a
    00000CE0 4F               [ 4] 2973 	ld	c, a
    00000CE1 47               [ 4] 2974 	ld	b, a
    00000CE2 7C               [ 4] 2975 	ld	a, h
    00000CE3 C6 C0            [ 7] 2976 	add	a, #0xc0
    00000CE5 67               [ 4] 2977 	ld	h, a
                                   2978 ;	spillPairReg hl
                                   2979 ;	spillPairReg hl
    00000CE6 79               [ 4] 2980 	ld	a, c
    00000CE7 CE 07            [ 7] 2981 	adc	a, #0x07
    00000CE9 4F               [ 4] 2982 	ld	c, a
    00000CEA 30 01            [12] 2983 	jr	NC, 00119$
    00000CEC 04               [ 4] 2984 	inc	b
    00000CED                       2985 00119$:
                                   2986 ;E:/Dropbox/FAUSTO/SVILUPPI/MSX/CODE/C/MSXgl/engine/src/v9990.h:396: inline void V9_Poke16(u32 addr, u16 val) { V9_SetWriteAddress(addr); V9_Poke16_CurrentAddr(val); }
    00000CED EB               [ 4] 2987 	ex	de, hl
    00000CEE E5               [11] 2988 	push	hl
    00000CEF 69               [ 4] 2989 	ld	l, c
                                   2990 ;	spillPairReg hl
                                   2991 ;	spillPairReg hl
    00000CF0 60               [ 4] 2992 	ld	h, b
                                   2993 ;	spillPairReg hl
                                   2994 ;	spillPairReg hl
    00000CF1 CDr00r00         [17] 2995 	call	_V9_SetWriteAddress
    00000CF4 D1               [10] 2996 	pop	de
    00000CF5 E1               [10] 2997 	pop	hl
    00000CF6 E5               [11] 2998 	push	hl
    00000CF7 CDr00r00         [17] 2999 	call	_V9_Poke16_CurrentAddr
                                   3000 ;./soccerlg.c:474: x++;
    00000CFA DD 34 FF         [23] 3001 	inc	-1 (ix)
                                   3002 ;./soccerlg.c:475: pos++;
    00000CFD C3rBFr0C         [10] 3003 	jp	00101$
    00000D00                       3004 00106$:
                                   3005 ;./soccerlg.c:478: }
    00000D00 DD F9            [10] 3006 	ld	sp, ix
    00000D02 DD E1            [14] 3007 	pop	ix
    00000D04 E1               [10] 3008 	pop	hl
    00000D05 F1               [10] 3009 	pop	af
    00000D06 E9               [ 4] 3010 	jp	(hl)
                                   3011 ;./soccerlg.c:480: void V9990_ClearTextFromLayerA(u8 x, u8 y, u8 length){
                                   3012 ;	---------------------------------
                                   3013 ; Function V9990_ClearTextFromLayerA
                                   3014 ; ---------------------------------
    00000D07                       3015 _V9990_ClearTextFromLayerA::
    00000D07 DD E5            [15] 3016 	push	ix
    00000D09 DD 21 00 00      [14] 3017 	ld	ix,#0
    00000D0D DD 39            [15] 3018 	add	ix,sp
    00000D0F F5               [11] 3019 	push	af
    00000D10 4F               [ 4] 3020 	ld	c, a
    00000D11 DD 75 FE         [19] 3021 	ld	-2 (ix), l
                                   3022 ;./soccerlg.c:481: for(u8 i=0;i<length;i++){
    00000D14 DD 36 FF 00      [19] 3023 	ld	-1 (ix), #0x00
    00000D18                       3024 00105$:
    00000D18 DD 7E FF         [19] 3025 	ld	a, -1 (ix)
    00000D1B DD 96 04         [19] 3026 	sub	a, 4 (ix)
    00000D1E 30 33            [12] 3027 	jr	NC, 00107$
                                   3028 ;E:/Dropbox/FAUSTO/SVILUPPI/MSX/CODE/C/MSXgl/engine/src/v9990.h:1426: inline u32 V9_CellAddrP1A(u8 x, u8 y) { return V9_P1_PNT_A + (((64 * y) + x) * 2); }
    00000D20 DD 6E FE         [19] 3029 	ld	l, -2 (ix)
                                   3030 ;	spillPairReg hl
                                   3031 ;	spillPairReg hl
    00000D23 26 00            [ 7] 3032 	ld	h, #0x00
                                   3033 ;	spillPairReg hl
                                   3034 ;	spillPairReg hl
    00000D25 29               [11] 3035 	add	hl, hl
    00000D26 29               [11] 3036 	add	hl, hl
    00000D27 29               [11] 3037 	add	hl, hl
    00000D28 29               [11] 3038 	add	hl, hl
    00000D29 29               [11] 3039 	add	hl, hl
    00000D2A 29               [11] 3040 	add	hl, hl
    00000D2B 59               [ 4] 3041 	ld	e, c
    00000D2C 16 00            [ 7] 3042 	ld	d, #0x00
    00000D2E 19               [11] 3043 	add	hl, de
    00000D2F 29               [11] 3044 	add	hl, hl
    00000D30 7C               [ 4] 3045 	ld	a, h
    00000D31 07               [ 4] 3046 	rlca
    00000D32 9F               [ 4] 3047 	sbc	a, a
    00000D33 5F               [ 4] 3048 	ld	e, a
    00000D34 57               [ 4] 3049 	ld	d, a
    00000D35 7C               [ 4] 3050 	ld	a, h
    00000D36 C6 C0            [ 7] 3051 	add	a, #0xc0
    00000D38 67               [ 4] 3052 	ld	h, a
                                   3053 ;	spillPairReg hl
                                   3054 ;	spillPairReg hl
    00000D39 7B               [ 4] 3055 	ld	a, e
    00000D3A CE 07            [ 7] 3056 	adc	a, #0x07
    00000D3C 5F               [ 4] 3057 	ld	e, a
    00000D3D 30 01            [12] 3058 	jr	NC, 00120$
    00000D3F 14               [ 4] 3059 	inc	d
    00000D40                       3060 00120$:
                                   3061 ;E:/Dropbox/FAUSTO/SVILUPPI/MSX/CODE/C/MSXgl/engine/src/v9990.h:396: inline void V9_Poke16(u32 addr, u16 val) { V9_SetWriteAddress(addr); V9_Poke16_CurrentAddr(val); }
    00000D40 C5               [11] 3062 	push	bc
    00000D41 EB               [ 4] 3063 	ex	de, hl
    00000D42 CDr00r00         [17] 3064 	call	_V9_SetWriteAddress
    00000D45 C1               [10] 3065 	pop	bc
    00000D46 21 00 00         [10] 3066 	ld	hl, #0x0000
    00000D49 CDr00r00         [17] 3067 	call	_V9_Poke16_CurrentAddr
                                   3068 ;./soccerlg.c:483: x++;
    00000D4C 0C               [ 4] 3069 	inc	c
                                   3070 ;./soccerlg.c:481: for(u8 i=0;i<length;i++){
    00000D4D DD 34 FF         [23] 3071 	inc	-1 (ix)
    00000D50 C3r18r0D         [10] 3072 	jp	00105$
    00000D53                       3073 00107$:
                                   3074 ;./soccerlg.c:485: }
    00000D53 DD F9            [10] 3075 	ld	sp, ix
    00000D55 DD E1            [14] 3076 	pop	ix
    00000D57 E1               [10] 3077 	pop	hl
    00000D58 33               [ 6] 3078 	inc	sp
    00000D59 E9               [ 4] 3079 	jp	(hl)
                                   3080 ;./soccerlg.c:505: void V9990_InitScrollText() {
                                   3081 ;	---------------------------------
                                   3082 ; Function V9990_InitScrollText
                                   3083 ; ---------------------------------
    00000D5A                       3084 _V9990_InitScrollText::
    00000D5A DD E5            [15] 3085 	push	ix
    00000D5C DD 21 00 00      [14] 3086 	ld	ix,#0
    00000D60 DD 39            [15] 3087 	add	ix,sp
    00000D62 3B               [ 6] 3088 	dec	sp
                                   3089 ;./soccerlg.c:506: s_ScrollTextLen = 0;
    00000D63 21 00 00         [10] 3090 	ld	hl, #0x0000
    00000D66 22r99r01         [16] 3091 	ld	(_s_ScrollTextLen), hl
                                   3092 ;./soccerlg.c:507: while (s_ScrollText[s_ScrollTextLen] != 0) s_ScrollTextLen++;
    00000D69                       3093 00101$:
    00000D69 3ErE4            [ 7] 3094 	ld	a, #<(_s_ScrollText)
    00000D6B 21r99r01         [10] 3095 	ld	hl, #_s_ScrollTextLen
    00000D6E 86               [ 7] 3096 	add	a, (hl)
    00000D6F 23               [ 6] 3097 	inc	hl
    00000D70 4F               [ 4] 3098 	ld	c, a
    00000D71 3Es0D            [ 7] 3099 	ld	a, #>(_s_ScrollText)
    00000D73 8E               [ 7] 3100 	adc	a, (hl)
    00000D74 47               [ 4] 3101 	ld	b, a
    00000D75 0A               [ 7] 3102 	ld	a, (bc)
    00000D76 B7               [ 4] 3103 	or	a, a
    00000D77 28 0A            [12] 3104 	jr	Z, 00103$
    00000D79 2Ar99r01         [16] 3105 	ld	hl, (_s_ScrollTextLen)
    00000D7C 23               [ 6] 3106 	inc	hl
    00000D7D 22r99r01         [16] 3107 	ld	(_s_ScrollTextLen), hl
    00000D80 C3r69r0D         [10] 3108 	jp	00101$
    00000D83                       3109 00103$:
                                   3110 ;./soccerlg.c:508: s_ScrollTextPos   = 0;
    00000D83 21 00 00         [10] 3111 	ld	hl, #0x0000
    00000D86 22r9Br01         [16] 3112 	ld	(_s_ScrollTextPos), hl
                                   3113 ;./soccerlg.c:509: s_ScrollTickCount = 0;
    00000D89 21r9Dr01         [10] 3114 	ld	hl, #_s_ScrollTickCount
    00000D8C 36 00            [10] 3115 	ld	(hl), #0x00
                                   3116 ;./soccerlg.c:510: for (u8 col = 0; col < SCROLLTEXT_COLS; col++) {
    00000D8E DD 36 FF 00      [19] 3117 	ld	-1 (ix), #0x00
    00000D92                       3118 00108$:
    00000D92 DD 7E FF         [19] 3119 	ld	a, -1 (ix)
    00000D95 D6 20            [ 7] 3120 	sub	a, #0x20
    00000D97 30 47            [12] 3121 	jr	NC, 00110$
                                   3122 ;./soccerlg.c:511: u16 idx = (col < s_ScrollTextLen) ? col : 0;
    00000D99 DD 4E FF         [19] 3123 	ld	c, -1 (ix)
    00000D9C 06 00            [ 7] 3124 	ld	b, #0x00
    00000D9E DD 5E FF         [19] 3125 	ld	e, -1 (ix)
    00000DA1 16 00            [ 7] 3126 	ld	d, #0x00
    00000DA3 21r99r01         [10] 3127 	ld	hl, #_s_ScrollTextLen
    00000DA6 79               [ 4] 3128 	ld	a, c
    00000DA7 96               [ 7] 3129 	sub	a, (hl)
    00000DA8 23               [ 6] 3130 	inc	hl
    00000DA9 78               [ 4] 3131 	ld	a, b
    00000DAA 9E               [ 7] 3132 	sbc	a, (hl)
    00000DAB 30 05            [12] 3133 	jr	NC, 00112$
    00000DAD 4B               [ 4] 3134 	ld	c, e
    00000DAE 42               [ 4] 3135 	ld	b, d
    00000DAF C3rB5r0D         [10] 3136 	jp	00113$
    00000DB2                       3137 00112$:
    00000DB2 01 00 00         [10] 3138 	ld	bc, #0x0000
    00000DB5                       3139 00113$:
                                   3140 ;./soccerlg.c:512: V9_Poke16(V9_CellAddrP1A(col, SCROLLTEXT_ROW), (u16)s_ScrollText[idx]);
    00000DB5 21rE4r0D         [10] 3141 	ld	hl, #_s_ScrollText
    00000DB8 09               [11] 3142 	add	hl, bc
    00000DB9 4E               [ 7] 3143 	ld	c, (hl)
    00000DBA 06 00            [ 7] 3144 	ld	b, #0x00
                                   3145 ;E:/Dropbox/FAUSTO/SVILUPPI/MSX/CODE/C/MSXgl/engine/src/v9990.h:1426: inline u32 V9_CellAddrP1A(u8 x, u8 y) { return V9_P1_PNT_A + (((64 * y) + x) * 2); }
    00000DBC 21 40 06         [10] 3146 	ld	hl, #0x0640
    00000DBF 19               [11] 3147 	add	hl, de
    00000DC0 29               [11] 3148 	add	hl, hl
    00000DC1 7C               [ 4] 3149 	ld	a, h
    00000DC2 07               [ 4] 3150 	rlca
    00000DC3 9F               [ 4] 3151 	sbc	a, a
    00000DC4 5F               [ 4] 3152 	ld	e, a
    00000DC5 57               [ 4] 3153 	ld	d, a
    00000DC6 7C               [ 4] 3154 	ld	a, h
    00000DC7 C6 C0            [ 7] 3155 	add	a, #0xc0
    00000DC9 67               [ 4] 3156 	ld	h, a
                                   3157 ;	spillPairReg hl
                                   3158 ;	spillPairReg hl
    00000DCA 7B               [ 4] 3159 	ld	a, e
    00000DCB CE 07            [ 7] 3160 	adc	a, #0x07
    00000DCD 5F               [ 4] 3161 	ld	e, a
    00000DCE 30 01            [12] 3162 	jr	NC, 00140$
    00000DD0 14               [ 4] 3163 	inc	d
    00000DD1                       3164 00140$:
                                   3165 ;E:/Dropbox/FAUSTO/SVILUPPI/MSX/CODE/C/MSXgl/engine/src/v9990.h:396: inline void V9_Poke16(u32 addr, u16 val) { V9_SetWriteAddress(addr); V9_Poke16_CurrentAddr(val); }
    00000DD1 C5               [11] 3166 	push	bc
    00000DD2 EB               [ 4] 3167 	ex	de, hl
    00000DD3 CDr00r00         [17] 3168 	call	_V9_SetWriteAddress
                                   3169 ;	spillPairReg hl
                                   3170 ;	spillPairReg hl
    00000DD6 E1               [10] 3171 	pop	hl
                                   3172 ;	spillPairReg hl
                                   3173 ;	spillPairReg hl
    00000DD7 CDr00r00         [17] 3174 	call	_V9_Poke16_CurrentAddr
                                   3175 ;./soccerlg.c:510: for (u8 col = 0; col < SCROLLTEXT_COLS; col++) {
    00000DDA DD 34 FF         [23] 3176 	inc	-1 (ix)
    00000DDD C3r92r0D         [10] 3177 	jp	00108$
    00000DE0                       3178 00110$:
                                   3179 ;./soccerlg.c:514: }
    00000DE0 33               [ 6] 3180 	inc	sp
    00000DE1 DD E1            [14] 3181 	pop	ix
    00000DE3 C9               [10] 3182 	ret
    00000DE4                       3183 _s_ScrollText:
    00000DE4 20 20 20 32 30 32 36  3184 	.ascii "   2026 MSX SOCCER LEAGUE  BY FAUSTO PRACEK  -  ASSOCIAZIONE"
             20 4D 53 58 20 53 4F
             43 43 45 52 20 4C 45
             41 47 55 45 20 20 42
             59 20 46 41 55 53 54
             4F 20 50 52 41 43 45
             4B 20 20 2D 20 20 41
             53 53 4F 43 49 41 5A
             49 4F 4E 45
    00000E20 20 49 54 41 4C 49 41  3185 	.ascii " ITALIANA MSX - POWERED BY MSXGL  -  SPECIAL THANKS TO ARTUR"
             4E 41 20 4D 53 58 20
             2D 20 50 4F 57 45 52
             45 44 20 42 59 20 4D
             53 58 47 4C 20 20 2D
             20 20 53 50 45 43 49
             41 4C 20 54 48 41 4E
             4B 53 20 54 4F 20 41
             52 54 55 52
    00000E5C 4F 20 52 41 47 4F 5A  3186 	.ascii "O RAGOZINI FOR HIS HELP WITH SOUND EFFECTS  AND TO NICOLA BR"
             49 4E 49 20 46 4F 52
             20 48 49 53 20 48 45
             4C 50 20 57 49 54 48
             20 53 4F 55 4E 44 20
             45 46 46 45 43 54 53
             20 20 41 4E 44 20 54
             4F 20 4E 49 43 4F 4C
             41 20 42 52
    00000E98 4F 47 45 4C 4C 49 20  3187 	.ascii "OGELLI FOR HIS TESTING AND SUPPORT THROUGHOUT THE GAMES' DEV"
             46 4F 52 20 48 49 53
             20 54 45 53 54 49 4E
             47 20 41 4E 44 20 53
             55 50 50 4F 52 54 20
             54 48 52 4F 55 47 48
             4F 55 54 20 54 48 45
             20 47 41 4D 45 53 27
             20 44 45 56
    00000ED4 45 4C 4F 50 4D 45 4E  3188 	.ascii "ELOPMENT  -  THE GAME IS A TRIBUTE TO THE 1983 EXCITING SOCC"
             54 20 20 2D 20 20 54
             48 45 20 47 41 4D 45
             20 49 53 20 41 20 54
             52 49 42 55 54 45 20
             54 4F 20 54 48 45 20
             31 39 38 33 20 45 58
             43 49 54 49 4E 47 20
             53 4F 43 43
    00000F10 45 52 20 20 2D 20 20  3189 	.ascii "ER  -  NO COPYRIGHT INFRINGEMENT INTENDED  -  PRESS 1 FOR AR"
             4E 4F 20 43 4F 50 59
             52 49 47 48 54 20 49
             4E 46 52 49 4E 47 45
             4D 45 4E 54 20 49 4E
             54 45 4E 44 45 44 20
             20 2D 20 20 50 52 45
             53 53 20 31 20 46 4F
             52 20 41 52
    00000F4C 43 41 44 45 20 4D 41  3190 	.ascii "CADE MATCH SOUND EFFECTS OR 2 FOR CROWD IN STADIUM SOUNDS"
             54 43 48 20 53 4F 55
             4E 44 20 45 46 46 45
             43 54 53 20 4F 52 20
             32 20 46 4F 52 20 43
             52 4F 57 44 20 49 4E
             20 53 54 41 44 49 55
             4D 20 53 4F 55 4E 44
             53
    00000F85 00                    3191 	.db 0x00
                                   3192 ;./soccerlg.c:517: void V9990_StopScrollText() {
                                   3193 ;	---------------------------------
                                   3194 ; Function V9990_StopScrollText
                                   3195 ; ---------------------------------
    00000F86                       3196 _V9990_StopScrollText::
                                   3197 ;./soccerlg.c:518: s_ScrollTextLen = 0; // disabilita il tick
    00000F86 21 00 00         [10] 3198 	ld	hl, #0x0000
    00000F89 22r99r01         [16] 3199 	ld	(_s_ScrollTextLen), hl
                                   3200 ;./soccerlg.c:519: V9990_ClearTextFromLayerA(0, SCROLLTEXT_ROW, SCROLLTEXT_COLS);
    00000F8C 3E 20            [ 7] 3201 	ld	a, #0x20
    00000F8E F5               [11] 3202 	push	af
    00000F8F 33               [ 6] 3203 	inc	sp
    00000F90 2E 19            [ 7] 3204 	ld	l, #0x19
                                   3205 ;	spillPairReg hl
                                   3206 ;	spillPairReg hl
    00000F92 AF               [ 4] 3207 	xor	a, a
    00000F93 CDr07r0D         [17] 3208 	call	_V9990_ClearTextFromLayerA
                                   3209 ;./soccerlg.c:520: }
    00000F96 C9               [10] 3210 	ret
                                   3211 ;./soccerlg.c:523: static void V9990_TickScrollText() {
                                   3212 ;	---------------------------------
                                   3213 ; Function V9990_TickScrollText
                                   3214 ; ---------------------------------
    00000F97                       3215 _V9990_TickScrollText:
    00000F97 DD E5            [15] 3216 	push	ix
    00000F99 DD 21 00 00      [14] 3217 	ld	ix,#0
    00000F9D DD 39            [15] 3218 	add	ix,sp
    00000F9F 3B               [ 6] 3219 	dec	sp
                                   3220 ;./soccerlg.c:524: if (s_ScrollTextLen == 0) return;
    00000FA0 3Ar9Ar01         [13] 3221 	ld	a, (_s_ScrollTextLen+1)
    00000FA3 21r99r01         [10] 3222 	ld	hl, #_s_ScrollTextLen
    00000FA6 B6               [ 7] 3223 	or	a, (hl)
    00000FA7 CAr2Er10         [10] 3224 	jp	Z,00115$
                                   3225 ;./soccerlg.c:525: s_ScrollTickCount++;
    00000FAA 21r9Dr01         [10] 3226 	ld	hl, #_s_ScrollTickCount
    00000FAD 34               [11] 3227 	inc	(hl)
                                   3228 ;./soccerlg.c:526: if (s_ScrollTickCount < SCROLLTEXT_SPEED) return;
    00000FAE 3Ar9Dr01         [13] 3229 	ld	a, (_s_ScrollTickCount+0)
    00000FB1 D6 06            [ 7] 3230 	sub	a, #0x06
    00000FB3 38 79            [12] 3231 	jr	C, 00115$
                                   3232 ;./soccerlg.c:527: s_ScrollTickCount = 0;
    00000FB5 21r9Dr01         [10] 3233 	ld	hl, #_s_ScrollTickCount
    00000FB8 36 00            [10] 3234 	ld	(hl), #0x00
                                   3235 ;./soccerlg.c:529: s_ScrollTextPos++;
    00000FBA 2Ar9Br01         [16] 3236 	ld	hl, (_s_ScrollTextPos)
    00000FBD 23               [ 6] 3237 	inc	hl
    00000FBE 22r9Br01         [16] 3238 	ld	(_s_ScrollTextPos), hl
                                   3239 ;./soccerlg.c:530: if (s_ScrollTextPos >= s_ScrollTextLen) s_ScrollTextPos = 0;
    00000FC1 21r99r01         [10] 3240 	ld	hl, #_s_ScrollTextLen
    00000FC4 3Ar9Br01         [13] 3241 	ld	a, (_s_ScrollTextPos+0)
    00000FC7 96               [ 7] 3242 	sub	a, (hl)
    00000FC8 23               [ 6] 3243 	inc	hl
    00000FC9 3Ar9Cr01         [13] 3244 	ld	a, (_s_ScrollTextPos+1)
    00000FCC 9E               [ 7] 3245 	sbc	a, (hl)
    00000FCD 38 06            [12] 3246 	jr	C, 00122$
    00000FCF 21 00 00         [10] 3247 	ld	hl, #0x0000
    00000FD2 22r9Br01         [16] 3248 	ld	(_s_ScrollTextPos), hl
                                   3249 ;./soccerlg.c:532: for (u8 col = 0; col < SCROLLTEXT_COLS; col++) {
    00000FD5                       3250 00122$:
    00000FD5 DD 36 FF 00      [19] 3251 	ld	-1 (ix), #0x00
    00000FD9                       3252 00113$:
    00000FD9 DD 7E FF         [19] 3253 	ld	a, -1 (ix)
    00000FDC D6 20            [ 7] 3254 	sub	a, #0x20
    00000FDE 30 4E            [12] 3255 	jr	NC, 00115$
                                   3256 ;./soccerlg.c:533: u16 idx = s_ScrollTextPos + col;
    00000FE0 DD 4E FF         [19] 3257 	ld	c, -1 (ix)
    00000FE3 06 00            [ 7] 3258 	ld	b, #0x00
    00000FE5 2Ar9Br01         [16] 3259 	ld	hl, (_s_ScrollTextPos)
    00000FE8 59               [ 4] 3260 	ld	e, c
    00000FE9 50               [ 4] 3261 	ld	d, b
    00000FEA 19               [11] 3262 	add	hl, de
    00000FEB EB               [ 4] 3263 	ex	de, hl
                                   3264 ;./soccerlg.c:534: if (idx >= s_ScrollTextLen) idx -= s_ScrollTextLen;
    00000FEC 21r99r01         [10] 3265 	ld	hl, #_s_ScrollTextLen
    00000FEF 7B               [ 4] 3266 	ld	a, e
    00000FF0 96               [ 7] 3267 	sub	a, (hl)
    00000FF1 23               [ 6] 3268 	inc	hl
    00000FF2 7A               [ 4] 3269 	ld	a, d
    00000FF3 9E               [ 7] 3270 	sbc	a, (hl)
    00000FF4 38 0A            [12] 3271 	jr	C, 00108$
    00000FF6 21r99r01         [10] 3272 	ld	hl, #_s_ScrollTextLen
    00000FF9 7B               [ 4] 3273 	ld	a, e
    00000FFA 96               [ 7] 3274 	sub	a, (hl)
    00000FFB 23               [ 6] 3275 	inc	hl
    00000FFC 5F               [ 4] 3276 	ld	e, a
    00000FFD 7A               [ 4] 3277 	ld	a, d
    00000FFE 9E               [ 7] 3278 	sbc	a, (hl)
    00000FFF 57               [ 4] 3279 	ld	d, a
    00001000                       3280 00108$:
                                   3281 ;./soccerlg.c:535: V9_Poke16(V9_CellAddrP1A(col, SCROLLTEXT_ROW), (u16)s_ScrollText[idx]);
    00001000 21rE4r0D         [10] 3282 	ld	hl, #_s_ScrollText
    00001003 19               [11] 3283 	add	hl, de
    00001004 5E               [ 7] 3284 	ld	e, (hl)
    00001005 16 00            [ 7] 3285 	ld	d, #0x00
                                   3286 ;E:/Dropbox/FAUSTO/SVILUPPI/MSX/CODE/C/MSXgl/engine/src/v9990.h:1426: inline u32 V9_CellAddrP1A(u8 x, u8 y) { return V9_P1_PNT_A + (((64 * y) + x) * 2); }
    00001007 21 40 06         [10] 3287 	ld	hl, #0x0640
    0000100A 09               [11] 3288 	add	hl, bc
    0000100B 29               [11] 3289 	add	hl, hl
    0000100C 7C               [ 4] 3290 	ld	a, h
    0000100D 07               [ 4] 3291 	rlca
    0000100E 9F               [ 4] 3292 	sbc	a, a
    0000100F 4F               [ 4] 3293 	ld	c, a
    00001010 47               [ 4] 3294 	ld	b, a
    00001011 7C               [ 4] 3295 	ld	a, h
    00001012 C6 C0            [ 7] 3296 	add	a, #0xc0
    00001014 67               [ 4] 3297 	ld	h, a
                                   3298 ;	spillPairReg hl
                                   3299 ;	spillPairReg hl
    00001015 79               [ 4] 3300 	ld	a, c
    00001016 CE 07            [ 7] 3301 	adc	a, #0x07
    00001018 4F               [ 4] 3302 	ld	c, a
    00001019 30 01            [12] 3303 	jr	NC, 00148$
    0000101B 04               [ 4] 3304 	inc	b
    0000101C                       3305 00148$:
                                   3306 ;E:/Dropbox/FAUSTO/SVILUPPI/MSX/CODE/C/MSXgl/engine/src/v9990.h:396: inline void V9_Poke16(u32 addr, u16 val) { V9_SetWriteAddress(addr); V9_Poke16_CurrentAddr(val); }
    0000101C EB               [ 4] 3307 	ex	de, hl
    0000101D E5               [11] 3308 	push	hl
    0000101E 69               [ 4] 3309 	ld	l, c
                                   3310 ;	spillPairReg hl
                                   3311 ;	spillPairReg hl
    0000101F 60               [ 4] 3312 	ld	h, b
                                   3313 ;	spillPairReg hl
                                   3314 ;	spillPairReg hl
    00001020 CDr00r00         [17] 3315 	call	_V9_SetWriteAddress
    00001023 D1               [10] 3316 	pop	de
    00001024 EB               [ 4] 3317 	ex	de, hl
    00001025 CDr00r00         [17] 3318 	call	_V9_Poke16_CurrentAddr
                                   3319 ;./soccerlg.c:532: for (u8 col = 0; col < SCROLLTEXT_COLS; col++) {
    00001028 DD 34 FF         [23] 3320 	inc	-1 (ix)
    0000102B C3rD9r0F         [10] 3321 	jp	00113$
    0000102E                       3322 00115$:
                                   3323 ;./soccerlg.c:537: }
    0000102E 33               [ 6] 3324 	inc	sp
    0000102F DD E1            [14] 3325 	pop	ix
    00001031 C9               [10] 3326 	ret
                                   3327 ;./soccerlg.c:540: void V9_InterruptVBlank(){
                                   3328 ;	---------------------------------
                                   3329 ; Function V9_InterruptVBlank
                                   3330 ; ---------------------------------
    00001032                       3331 _V9_InterruptVBlank::
                                   3332 ;./soccerlg.c:541: g_VSynch = TRUE;
    00001032 21r00r00         [10] 3333 	ld	hl, #_g_VSynch
    00001035 36 01            [10] 3334 	ld	(hl), #0x01
                                   3335 ;./soccerlg.c:542: g_FrameCounter++;
    00001037 FD 21r03r00      [14] 3336 	ld	iy, #_g_FrameCounter
    0000103B FD 34 00         [23] 3337 	inc	0 (iy)
                                   3338 ;./soccerlg.c:543: if(g_FrameCounter==60){
    0000103E 3Ar03r00         [13] 3339 	ld	a, (_g_FrameCounter+0)
    00001041 D6 3C            [ 7] 3340 	sub	a, #0x3c
    00001043 20 0B            [12] 3341 	jr	NZ, 00102$
                                   3342 ;./soccerlg.c:544: g_TimeCounter++;
    00001045 2Ar03r00         [16] 3343 	ld	hl, (_g_TimeCounter)
    00001048 23               [ 6] 3344 	inc	hl
    00001049 22r03r00         [16] 3345 	ld	(_g_TimeCounter), hl
                                   3346 ;./soccerlg.c:545: g_FrameCounter=0;
    0000104C FD 36 00 00      [19] 3347 	ld	0 (iy), #0x00
    00001050                       3348 00102$:
                                   3349 ;./soccerlg.c:547: g_Timer++;
    00001050 21r04r00         [10] 3350 	ld	hl, #_g_Timer
    00001053 34               [11] 3351 	inc	(hl)
                                   3352 ;./soccerlg.c:550: if (g_FieldScrollingActionInProgress != NO_VALUE) {
    00001054 3Ar07r00         [13] 3353 	ld	a, (_g_FieldScrollingActionInProgress+0)
    00001057 3C               [ 4] 3354 	inc	a
    00001058 28 0B            [12] 3355 	jr	Z, 00108$
                                   3356 ;./soccerlg.c:551: CallFnc_VOID(4,TickGameFieldScrolling);
    0000105A 11r00r00         [10] 3357 	ld	de, #_TickGameFieldScrolling
    0000105D 3E 04            [ 7] 3358 	ld	a, #0x04
    0000105F CDr00r00         [17] 3359 	call	_CallFnc_VOID
    00001062 C3r7Er10         [10] 3360 	jp	00109$
    00001065                       3361 00108$:
                                   3362 ;./soccerlg.c:554: if(!g_VblankSuspended && g_MatchStatus!=MATCH_BEFORE_KICK_OFF && g_MatchStatus!=MATCH_SHOW_MENU){
    00001065 3Ar48r00         [13] 3363 	ld	a, (_g_VblankSuspended+0)
    00001068 B7               [ 4] 3364 	or	a, a
    00001069 20 13            [12] 3365 	jr	NZ, 00109$
    0000106B 3Ar09r00         [13] 3366 	ld	a, (_g_MatchStatus+0)
    0000106E 3D               [ 4] 3367 	dec	a
    0000106F 28 0D            [12] 3368 	jr	Z, 00109$
    00001071 3Ar09r00         [13] 3369 	ld	a, (_g_MatchStatus+0)
    00001074 D6 13            [ 7] 3370 	sub	a, #0x13
    00001076 28 06            [12] 3371 	jr	Z, 00109$
                                   3372 ;./soccerlg.c:555: V9_SetScrollingBY((u16)g_FieldCurrentYPosition);
    00001078 2Ar05r00         [16] 3373 	ld	hl, (_g_FieldCurrentYPosition)
    0000107B CDr00r00         [17] 3374 	call	_V9_SetScrollingBY
    0000107E                       3375 00109$:
                                   3376 ;./soccerlg.c:560: PlaySounds();
    0000107E CDrC3r10         [17] 3377 	call	_PlaySounds
                                   3378 ;./soccerlg.c:561: if (g_MatchStatus == MATCH_SHOW_MENU) {
    00001081 3Ar09r00         [13] 3379 	ld	a, (_g_MatchStatus+0)
    00001084 D6 13            [ 7] 3380 	sub	a, #0x13
    00001086 CAr97r0F         [10] 3381 	jp	Z,_V9990_TickScrollText
                                   3382 ;./soccerlg.c:562: V9990_TickScrollText();
    00001089 C9               [10] 3383 	ret
                                   3384 ;./soccerlg.c:564: }
    0000108A C9               [10] 3385 	ret
                                   3386 ;./soccerlg.c:566: void InterruptHook()
                                   3387 ;	---------------------------------
                                   3388 ; Function InterruptHook
                                   3389 ; ---------------------------------
    0000108B                       3390 _InterruptHook::
                                   3391 ;./soccerlg.c:579: __endasm;
    0000108B DB 99            [11] 3392 	in	a, (0x99)
    0000108D DB 66            [11] 3393 	in	a, (0x66)
    0000108F D3 66            [11] 3394 	out	(0x66), a
    00001091 1F               [ 4] 3395 	rra
    00001092 DCr32r10         [17] 3396 	call	c, _V9_InterruptVBlank
                                   3397 ;./soccerlg.c:580: }
    00001095 C9               [10] 3398 	ret
                                   3399 ;./soccerlg.c:586: i32 Math_Abs32(i32 v) { return (v < 0) ? -v : v; }
                                   3400 ;	---------------------------------
                                   3401 ; Function Math_Abs32
                                   3402 ; ---------------------------------
    00001096                       3403 _Math_Abs32::
    00001096 4D               [ 4] 3404 	ld	c, l
    00001097 44               [ 4] 3405 	ld	b, h
    00001098 CB 78            [ 8] 3406 	bit	7, b
    0000109A 28 0D            [12] 3407 	jr	Z, 00103$
    0000109C 21 00 00         [10] 3408 	ld	hl, #0x0000
    0000109F BF               [ 4] 3409 	cp	a, a
    000010A0 ED 52            [15] 3410 	sbc	hl, de
    000010A2 EB               [ 4] 3411 	ex	de, hl
    000010A3 21 00 00         [10] 3412 	ld	hl, #0x0000
    000010A6 ED 42            [15] 3413 	sbc	hl, bc
    000010A8 C9               [10] 3414 	ret
    000010A9                       3415 00103$:
    000010A9 69               [ 4] 3416 	ld	l, c
                                   3417 ;	spillPairReg hl
                                   3418 ;	spillPairReg hl
    000010AA 60               [ 4] 3419 	ld	h, b
                                   3420 ;	spillPairReg hl
                                   3421 ;	spillPairReg hl
    000010AB C9               [10] 3422 	ret
                                   3423 ;./soccerlg.c:588: const TeamStats* GetTeamStats(u8 teamId) {
                                   3424 ;	---------------------------------
                                   3425 ; Function GetTeamStats
                                   3426 ; ---------------------------------
    000010AC                       3427 _GetTeamStats::
    000010AC 4F               [ 4] 3428 	ld	c, a
                                   3429 ;./soccerlg.c:589: if (teamId > 5) return &g_TeamStats[0];
    000010AD 3E 05            [ 7] 3430 	ld	a, #0x05
    000010AF 91               [ 4] 3431 	sub	a, c
    000010B0 30 04            [12] 3432 	jr	NC, 00102$
    000010B2 11r4Fr00         [10] 3433 	ld	de, #_g_TeamStats
    000010B5 C9               [10] 3434 	ret
    000010B6                       3435 00102$:
                                   3436 ;./soccerlg.c:590: return &g_TeamStats[teamId];
    000010B6 06 00            [ 7] 3437 	ld	b, #0x00
    000010B8 69               [ 4] 3438 	ld	l, c
    000010B9 60               [ 4] 3439 	ld	h, b
    000010BA 29               [11] 3440 	add	hl, hl
    000010BB 29               [11] 3441 	add	hl, hl
    000010BC 09               [11] 3442 	add	hl, bc
    000010BD 11r4Fr00         [10] 3443 	ld	de, #_g_TeamStats
    000010C0 19               [11] 3444 	add	hl, de
    000010C1 EB               [ 4] 3445 	ex	de, hl
                                   3446 ;./soccerlg.c:591: }
    000010C2 C9               [10] 3447 	ret
                                   3448 ;./soccerlg.c:592: void PlaySounds(){
                                   3449 ;	---------------------------------
                                   3450 ; Function PlaySounds
                                   3451 ; ---------------------------------
    000010C3                       3452 _PlaySounds::
                                   3453 ;./soccerlg.c:594: YSCC_Decode();
    000010C3 CDr00r00         [17] 3454 	call	_YSCC_Decode
                                   3455 ;./soccerlg.c:596: u8 currentSegment = GET_BANK_SEGMENT(3);
    000010C6 ED 4Br06r00      [20] 3456 	ld	bc, (#(_g_Bank0Segment + 6) + 0)
                                   3457 ;E:/Dropbox/FAUSTO/SVILUPPI/MSX/CODE/C/MSXgl/engine/src/rom_mapper.h:190: g_Bank0Segment[b] = s;
    000010CA 21 45 00         [10] 3458 	ld	hl, #0x0045
    000010CD 22r06r00         [16] 3459 	ld	((_g_Bank0Segment + 6)), hl
                                   3460 ;E:/Dropbox/FAUSTO/SVILUPPI/MSX/CODE/C/MSXgl/engine/src/rom_mapper.h:191: Poke(YAMANOOTO_OFFR, (s >> 2) & 0xC0);
    000010D0 3E 11            [ 7] 3461 	ld	a, #0x11
    000010D2 E6 C0            [ 7] 3462 	and	a, #0xc0
                                   3463 ;E:/Dropbox/FAUSTO/SVILUPPI/MSX/CODE/C/MSXgl/engine/src/system.h:101: inline void Poke(u16 addr, u8 val) { *(u8*)addr = val; }
    000010D4 32 FE 7F         [13] 3464 	ld	(#0x7ffe),a
                                   3465 ;E:/Dropbox/FAUSTO/SVILUPPI/MSX/CODE/C/MSXgl/engine/src/rom_mapper.h:195: else if (b == 3)	Poke(ADDR_BANK_3, s & 0xFF);
    000010D7 3E 45            [ 7] 3466 	ld	a, #0x45
                                   3467 ;E:/Dropbox/FAUSTO/SVILUPPI/MSX/CODE/C/MSXgl/engine/src/system.h:101: inline void Poke(u16 addr, u8 val) { *(u8*)addr = val; }
    000010D9 32 00 B0         [13] 3468 	ld	(#0xb000),a
                                   3469 ;./soccerlg.c:600: ayFX_Update();
    000010DC C5               [11] 3470 	push	bc
    000010DD CDr00r00         [17] 3471 	call	_ayFX_Update
    000010E0 CDr00r00         [17] 3472 	call	_PSG_Apply
    000010E3 C1               [10] 3473 	pop	bc
                                   3474 ;./soccerlg.c:602: SET_BANK_SEGMENT(3, currentSegment);
    000010E4 06 00            [ 7] 3475 	ld	b, #0x00
                                   3476 ;E:/Dropbox/FAUSTO/SVILUPPI/MSX/CODE/C/MSXgl/engine/src/rom_mapper.h:190: g_Bank0Segment[b] = s;
    000010E6 ED 43r06r00      [20] 3477 	ld	((_g_Bank0Segment + 6)), bc
                                   3478 ;E:/Dropbox/FAUSTO/SVILUPPI/MSX/CODE/C/MSXgl/engine/src/rom_mapper.h:191: Poke(YAMANOOTO_OFFR, (s >> 2) & 0xC0);
    000010EA 59               [ 4] 3479 	ld	e, c
    000010EB 50               [ 4] 3480 	ld	d, b
    000010EC CB 3A            [ 8] 3481 	srl	d
    000010EE CB 1B            [ 8] 3482 	rr	e
    000010F0 CB 3A            [ 8] 3483 	srl	d
    000010F2 CB 1B            [ 8] 3484 	rr	e
    000010F4 7B               [ 4] 3485 	ld	a, e
    000010F5 E6 C0            [ 7] 3486 	and	a, #0xc0
                                   3487 ;E:/Dropbox/FAUSTO/SVILUPPI/MSX/CODE/C/MSXgl/engine/src/system.h:101: inline void Poke(u16 addr, u8 val) { *(u8*)addr = val; }
    000010F7 32 FE 7F         [13] 3488 	ld	(#0x7ffe),a
                                   3489 ;E:/Dropbox/FAUSTO/SVILUPPI/MSX/CODE/C/MSXgl/engine/src/rom_mapper.h:195: else if (b == 3)	Poke(ADDR_BANK_3, s & 0xFF);
                                   3490 ;E:/Dropbox/FAUSTO/SVILUPPI/MSX/CODE/C/MSXgl/engine/src/system.h:101: inline void Poke(u16 addr, u8 val) { *(u8*)addr = val; }
    000010FA 21 00 B0         [10] 3491 	ld	hl, #0xb000
    000010FD 71               [ 7] 3492 	ld	(hl), c
                                   3493 ;./soccerlg.c:602: SET_BANK_SEGMENT(3, currentSegment);
                                   3494 ;./soccerlg.c:606: }
    000010FE C9               [10] 3495 	ret
                                   3496 ;./soccerlg.c:611: void main(){
                                   3497 ;	---------------------------------
                                   3498 ; Function main
                                   3499 ; ---------------------------------
    000010FF                       3500 _main::
                                   3501 ;./soccerlg.c:613: Bios_SetHookDirectCallback(H_KEYI, InterruptHook);
    000010FF 01r8Br10         [10] 3502 	ld	bc, #_InterruptHook
                                   3503 ;E:/Dropbox/FAUSTO/SVILUPPI/MSX/CODE/C/MSXgl/engine/src/bios_hook.h:37: *((u8*)hook) = 0xC3; // JUMP
    00001102 21 9A FD         [10] 3504 	ld	hl, #0xfd9a
    00001105 36 C3            [10] 3505 	ld	(hl), #0xc3
                                   3506 ;E:/Dropbox/FAUSTO/SVILUPPI/MSX/CODE/C/MSXgl/engine/src/bios_hook.h:38: *((callback*)++hook) = cb; // Callback address
    00001107 ED 43 9B FD      [20] 3507 	ld	(0xfd9b), bc
                                   3508 ;E:/Dropbox/FAUSTO/SVILUPPI/MSX/CODE/C/MSXgl/engine/src/bios_hook.h:62: *((u8*)hook) = 0xC9; // RET
    0000110B 2E 9F            [ 7] 3509 	ld	l, #0x9f
    0000110D 36 C9            [10] 3510 	ld	(hl), #0xc9
                                   3511 ;E:/Dropbox/FAUSTO/SVILUPPI/MSX/CODE/C/MSXgl/engine/src/rom_mapper.h:190: g_Bank0Segment[b] = s;
    0000110F 21 45 00         [10] 3512 	ld	hl, #0x0045
    00001112 22r06r00         [16] 3513 	ld	((_g_Bank0Segment + 6)), hl
                                   3514 ;E:/Dropbox/FAUSTO/SVILUPPI/MSX/CODE/C/MSXgl/engine/src/rom_mapper.h:191: Poke(YAMANOOTO_OFFR, (s >> 2) & 0xC0);
    00001115 3E 11            [ 7] 3515 	ld	a, #0x11
    00001117 E6 C0            [ 7] 3516 	and	a, #0xc0
                                   3517 ;E:/Dropbox/FAUSTO/SVILUPPI/MSX/CODE/C/MSXgl/engine/src/system.h:101: inline void Poke(u16 addr, u8 val) { *(u8*)addr = val; }
    00001119 32 FE 7F         [13] 3518 	ld	(#0x7ffe),a
                                   3519 ;E:/Dropbox/FAUSTO/SVILUPPI/MSX/CODE/C/MSXgl/engine/src/rom_mapper.h:195: else if (b == 3)	Poke(ADDR_BANK_3, s & 0xFF);
    0000111C 3E 45            [ 7] 3520 	ld	a, #0x45
                                   3521 ;E:/Dropbox/FAUSTO/SVILUPPI/MSX/CODE/C/MSXgl/engine/src/system.h:101: inline void Poke(u16 addr, u8 val) { *(u8*)addr = val; }
    0000111E 32 00 B0         [13] 3522 	ld	(#0xb000),a
                                   3523 ;./soccerlg.c:616: ayFX_InitBank(g_Data_AYFX_Bank);
    00001121 21r00r00         [10] 3524 	ld	hl, #_g_Data_AYFX_Bank
    00001124 CDr00r00         [17] 3525 	call	_ayFX_InitBank
                                   3526 ;E:/Dropbox/FAUSTO/SVILUPPI/MSX/CODE/C/MSXgl/engine/src/ayfx/ayfx_player.h:131: inline void ayFX_SetChannel(u8 chan) { ayFX_Channel = 3 - chan; }
    00001127 21r00r00         [10] 3527 	ld	hl, #_ayFX_Channel
    0000112A 36 01            [10] 3528 	ld	(hl), #0x01
                                   3529 ;E:/Dropbox/FAUSTO/SVILUPPI/MSX/CODE/C/MSXgl/engine/src/ayfx/ayfx_player.h:124: inline void ayFX_SetMode(u8 mode) { ayFX_Mode = mode; }
    0000112C 21r00r00         [10] 3530 	ld	hl, #_ayFX_Mode
    0000112F 36 00            [10] 3531 	ld	(hl), #0x00
                                   3532 ;./soccerlg.c:619: YSCC_Init();
    00001131 CDr00r00         [17] 3533 	call	_YSCC_Init
                                   3534 ;./soccerlg.c:620: CallFnc_VOID(4,MainSub);
    00001134 11r00r00         [10] 3535 	ld	de, #_MainSub
    00001137 3E 04            [ 7] 3536 	ld	a, #0x04
                                   3537 ;./soccerlg.c:621: }
    00001139 C3r00r00         [10] 3538 	jp	_CallFnc_VOID
                                   3539 	.area _CODE
                                   3540 	.area _INITIALIZER
    00000000                       3541 __xinit__g_modernAudio:
    00000000 01                    3542 	.db #0x01	; 1
    00000001                       3543 __xinit__g_PonPonGirlsAreVisible:
    00000001 01                    3544 	.db #0x01	; 1
    00000002                       3545 __xinit__g_BallIsVisible:
    00000002 01                    3546 	.db #0x01	; 1
    00000003                       3547 __xinit__g_TimeCounter:
    00000003 00 00                 3548 	.dw #0x0000
    00000005                       3549 __xinit__g_LastTimeCounter:
    00000005 00 00                 3550 	.dw #0x0000
    00000007                       3551 __xinit__g_FieldScrollingActionInProgress:
    00000007 FF                    3552 	.db #0xff	; 255
    00000008                       3553 __xinit__g_History1:
    00000008 50 4C 59 3A 20 20 20  3554 	.ascii "PLY:      "
             20 20 20
    00000012 00                    3555 	.db 0x00
    00000013 00                    3556 	.db 0x00
    00000014 00                    3557 	.db 0x00
    00000015 00                    3558 	.db 0x00
    00000016 00                    3559 	.db 0x00
    00000017 00                    3560 	.db 0x00
    00000018 00                    3561 	.db 0x00
    00000019 00                    3562 	.db 0x00
    0000001A 00                    3563 	.db 0x00
    0000001B 00                    3564 	.db 0x00
    0000001C                       3565 __xinit__g_History2:
    0000001C 43 50 55 3A 20 20 20  3566 	.ascii "CPU:      "
             20 20 20
    00000026 00                    3567 	.db 0x00
    00000027 00                    3568 	.db 0x00
    00000028 00                    3569 	.db 0x00
    00000029 00                    3570 	.db 0x00
    0000002A 00                    3571 	.db 0x00
    0000002B 00                    3572 	.db 0x00
    0000002C 00                    3573 	.db 0x00
    0000002D 00                    3574 	.db 0x00
    0000002E 00                    3575 	.db 0x00
    0000002F 00                    3576 	.db 0x00
    00000030                       3577 __xinit__g_PcmStartPlaying:
    00000030 00                    3578 	.db #0x00	; 0
    00000031                       3579 __xinit__g_PmcSoundPlaying:
    00000031 FF                    3580 	.db #0xff	; 255
    00000032                       3581 __xinit__g_CornerKickTargetId:
    00000032 FF                    3582 	.db #0xff	; 255
    00000033                       3583 __xinit__g_CornerKickSide:
    00000033 00                    3584 	.db #0x00	; 0
    00000034                       3585 __xinit__g_ActionCooldown:
    00000034 00                    3586 	.db #0x00	; 0
    00000035                       3587 __xinit__g_ShootCooldown:
    00000035 00                    3588 	.db #0x00	; 0
    00000036                       3589 __xinit__g_GameWith2Players:
    00000036 00                    3590 	.db #0x00	; 0
    00000037                       3591 __xinit__g_GkIsGroundKick:
    00000037 00                    3592 	.db #0x00	; 0
    00000038                       3593 __xinit__g_GkAnimPlayerId:
    00000038 FF                    3594 	.db #0xff	; 255
    00000039                       3595 __xinit__g_GkRecoilY:
    00000039 00                    3596 	.db #0x00	;  0
    0000003A                       3597 __xinit__g_GoalKickSide:
    0000003A 00                    3598 	.db #0x00	; 0
    0000003B                       3599 __xinit__g_GkAnimTimer:
    0000003B 00                    3600 	.db #0x00	; 0
    0000003C                       3601 __xinit__g_ThrowInPlayerId:
    0000003C FF                    3602 	.db #0xff	; 255
    0000003D                       3603 __xinit__g_GoalScorerId:
    0000003D FF                    3604 	.db #0xff	; 255
    0000003E                       3605 __xinit__g_ponPonPatternIndex:
    0000003E 00                    3606 	.db #0x00	; 0
    0000003F                       3607 __xinit__g_PonPonGrilsPoseCounter:
    0000003F 00                    3608 	.db #0x00	; 0
    00000040                       3609 __xinit__g_peopleState:
    00000040 00                    3610 	.db #0x00	; 0
    00000041                       3611 __xinit__g_ponPonGirlsInitailized:
    00000041 00                    3612 	.db #0x00	; 0
    00000042                       3613 __xinit__g_SoundRequest:
    00000042 FF                    3614 	.db #0xff	; 255
    00000043                       3615 __xinit__g_ShotCursorX:
    00000043 78 00                 3616 	.dw #0x0078
    00000045                       3617 __xinit__g_ShotCursorDir:
    00000045 02                    3618 	.db #0x02	;  2
    00000046                       3619 __xinit__g_currentVGMPlayingSegment:
    00000046 FF                    3620 	.db #0xff	; 255
    00000047                       3621 __xinit__g_TimerActive:
    00000047 00                    3622 	.db #0x00	; 0
    00000048                       3623 __xinit__g_VblankSuspended:
    00000048 00                    3624 	.db #0x00	; 0
                                   3625 	.area _CABS (ABS)
