                                      1 ;--------------------------------------------------------
                                      2 ; File Created by SDCC : free open source ANSI-C Compiler
                                      3 ; Version 4.2.0 #13081 (MINGW64)
                                      4 ;--------------------------------------------------------
                                      5 	.module soccerlg_s9_b3
                                      6 	.optsdcc -mz80
                                      7 	
                                      8 ;--------------------------------------------------------
                                      9 ; Public variables in this module
                                     10 ;--------------------------------------------------------
                                     11 	.globl _BallInGoal
                                     12 	.globl _PerformShot
                                     13 	.globl _ResetPlayersInfo
                                     14 	.globl _V9990_PrintLayerAStringAtPos
                                     15 	.globl _CornerKick
                                     16 	.globl _GoalkeeperWithBall
                                     17 	.globl _PutBallOnPlayerFeet
                                     18 	.globl _SetPlayerBallPossession
                                     19 	.globl _GetClosestPlayerToBall
                                     20 	.globl _CallFnc_VOID_P2
                                     21 	.globl _Math_Abs32
                                     22 	.globl _ResumeAfterGoalkick
                                     23 	.globl _GetTeamStats
                                     24 	.globl _PlayPCM
                                     25 	.globl _CallFnc_U8_P2
                                     26 	.globl _CallFnc_VOID_16_P2
                                     27 	.globl _CallFnc_VOID_P1
                                     28 	.globl _CallFnc_VOID
                                     29 	.globl _V9_Poke16_CurrentAddr
                                     30 	.globl _V9_SetWriteAddress
                                     31 	.globl _g_SLTSL
                                     32 	.globl _g_GRPACY
                                     33 	.globl _g_GRPACX
                                     34 	.globl _g_LOGOPR
                                     35 	.globl _g_CMASK
                                     36 	.globl _g_CLOC
                                     37 	.globl _g_FNKSTR
                                     38 	.globl _g_ATRBYT
                                     39 	.globl _g_BDRCLR
                                     40 	.globl _g_BAKCLR
                                     41 	.globl _g_FORCLR
                                     42 	.globl _g_CSRX
                                     43 	.globl _g_CSRY
                                     44 	.globl _g_CLIKSW
                                     45 	.globl _g_MLTPAT
                                     46 	.globl _g_MLTATR
                                     47 	.globl _g_MLTCGP
                                     48 	.globl _g_MLTCOL
                                     49 	.globl _g_MLTNAM
                                     50 	.globl _g_GRPPAT
                                     51 	.globl _g_GRPATR
                                     52 	.globl _g_GRPCGP
                                     53 	.globl _g_GRPCOL
                                     54 	.globl _g_GRPNAM
                                     55 	.globl _g_T32PAT
                                     56 	.globl _g_T32ATR
                                     57 	.globl _g_T32CGP
                                     58 	.globl _g_T32COL
                                     59 	.globl _g_T32NAM
                                     60 	.globl _g_TXTPAT
                                     61 	.globl _g_TXTATR
                                     62 	.globl _g_TXTCGP
                                     63 	.globl _g_TXTCOL
                                     64 	.globl _g_TXTNAM
                                     65 	.globl _g_CLMLST
                                     66 	.globl _g_CRTCNT
                                     67 	.globl _g_LINLEN
                                     68 	.globl _g_LINL32
                                     69 	.globl _g_LINL40
                                     70 	.globl _g_BDOS
                                     71 	.globl _g_MASTER
                                     72 	.globl _g_RAMAD3
                                     73 	.globl _g_RAMAD2
                                     74 	.globl _g_RAMAD1
                                     75 	.globl _g_RAMAD0
                                     76 	.globl _g_BREAKV
                                     77 	.globl _g_DISKVE
                                     78 	.globl _g_KANJTABLE
                                     79 	.globl _g_STRSRC
                                     80 	.globl _g_SUBRID
                                     81 	.globl _g_CHAR_16
                                     82 	.globl _g_MSXMID
                                     83 	.globl _g_MSXVER
                                     84 	.globl _g_ROMVersion
                                     85 	.globl _g_BASRVN
                                     86 	.globl _g_VDP_DW
                                     87 	.globl _g_VDP_DR
                                     88 	.globl _g_CGTABL
                                     89 	.globl _g_SVFFFD
                                     90 	.globl _g_RG27SAV
                                     91 	.globl _g_RG26SAV
                                     92 	.globl _g_RG25SAV
                                     93 	.globl _g_SVFFF8
                                     94 	.globl _g_MINROM
                                     95 	.globl _g_RG23SAV
                                     96 	.globl _g_RG22SAV
                                     97 	.globl _g_RG21SAV
                                     98 	.globl _g_RG20SAV
                                     99 	.globl _g_RG19SAV
                                    100 	.globl _g_RG18SAV
                                    101 	.globl _g_RG17SAV
                                    102 	.globl _g_RG16SAV
                                    103 	.globl _g_RG15SAV
                                    104 	.globl _g_RG14SAV
                                    105 	.globl _g_RG13SAV
                                    106 	.globl _g_RG12SAV
                                    107 	.globl _g_RG11SAV
                                    108 	.globl _g_RG10SAV
                                    109 	.globl _g_RG09SAV
                                    110 	.globl _g_RG08SAV
                                    111 	.globl _g_PROCNM
                                    112 	.globl _g_SLTWRK
                                    113 	.globl _g_SLTATR
                                    114 	.globl _g_SLTTBL
                                    115 	.globl _g_EXPTBL
                                    116 	.globl _g_MNROM
                                    117 	.globl _g_DRWANG
                                    118 	.globl _g_DRWSCL
                                    119 	.globl _g_DRWFLG
                                    120 	.globl _g_GYPOS
                                    121 	.globl _g_GXPOS
                                    122 	.globl _g_BRDATR
                                    123 	.globl _g_CASPRV
                                    124 	.globl _g_OLDSCR
                                    125 	.globl _g_SCRMOD
                                    126 	.globl _g_FLBMEM
                                    127 	.globl _g_KANAMD
                                    128 	.globl _g_KANAST
                                    129 	.globl _g_CAPST
                                    130 	.globl _g_CSTYLE
                                    131 	.globl _g_CSRSW
                                    132 	.globl _g_INSFLG
                                    133 	.globl _g_ESCCNT
                                    134 	.globl _g_GRPHED
                                    135 	.globl _g_WINWID
                                    136 	.globl _g_LOWLIM
                                    137 	.globl _g_INTCNT
                                    138 	.globl _g_INTVAL
                                    139 	.globl _g_JIFFY
                                    140 	.globl _g_PADX
                                    141 	.globl _g_PADY
                                    142 	.globl _g_INTFLG
                                    143 	.globl _g_RTYCNT
                                    144 	.globl _g_TRPTBL
                                    145 	.globl _g_HIMEM
                                    146 	.globl _g_BOTTOM
                                    147 	.globl _g_PATWRK
                                    148 	.globl _g_LINWRK
                                    149 	.globl _g_KEYBUF
                                    150 	.globl _g_NEWKEY
                                    151 	.globl _g_OLDKEY
                                    152 	.globl _g_CLIKFL
                                    153 	.globl _g_ONGSBF
                                    154 	.globl _g_FNKFLG
                                    155 	.globl _g_FNKSWI
                                    156 	.globl _g_CODSAV
                                    157 	.globl _g_FSTPOS
                                    158 	.globl _g_LINTTB
                                    159 	.globl _g_BASROM
                                    160 	.globl _g_ENSTOP
                                    161 	.globl _g_VCBC
                                    162 	.globl _g_VCBB
                                    163 	.globl _g_VCBA
                                    164 	.globl _g_PLYCNT
                                    165 	.globl _g_MUSICF
                                    166 	.globl _g_QUEUEN
                                    167 	.globl _g_MCLPTR
                                    168 	.globl _g_MCLLEN
                                    169 	.globl _g_SAVVOL
                                    170 	.globl _g_VOICEN
                                    171 	.globl _g_SAVSP
                                    172 	.globl _g_PRSCNT
                                    173 	.globl _g_LSTMOD
                                    174 	.globl _g_LSTCOM
                                    175 	.globl _g_COMMSK
                                    176 	.globl _g_ESTBLS
                                    177 	.globl _g_FLAGS
                                    178 	.globl _g_ERRORS
                                    179 	.globl _g_DATCNT
                                    180 	.globl _g_DEVNUM
                                    181 	.globl _g_OLDINT
                                    182 	.globl _g_OLDSTT
                                    183 	.globl _g_MEXBIh
                                    184 	.globl _g_RSIQLN
                                    185 	.globl _g_RSFCB
                                    186 	.globl _g_TOCNT
                                    187 	.globl _g_RSTMP
                                    188 	.globl _g_YSAVE
                                    189 	.globl _g_XSAVE
                                    190 	.globl _g_NORUSE
                                    191 	.globl _g_MODE
                                    192 	.globl _g_ROMA
                                    193 	.globl _g_CHRCNT
                                    194 	.globl _g_EXBRSA
                                    195 	.globl _g_AVCSAV
                                    196 	.globl _g_ACPAGE
                                    197 	.globl _g_DPPAGE
                                    198 	.globl _g_RS2IQ
                                    199 	.globl _g_VOICCQ
                                    200 	.globl _g_VOICBQ
                                    201 	.globl _g_VOICAQ
                                    202 	.globl _g_QUEBAK
                                    203 	.globl _g_QUETAB
                                    204 	.globl _g_ASPCT2
                                    205 	.globl _g_ASPCT1
                                    206 	.globl _g_HEADER
                                    207 	.globl _g_HIGH
                                    208 	.globl _g_LOW
                                    209 	.globl _g_CS240
                                    210 	.globl _g_CS120
                                    211 	.globl _g_GETPNT
                                    212 	.globl _g_PUTPNT
                                    213 	.globl _g_REPCNT
                                    214 	.globl _g_SCNCNT
                                    215 	.globl _g_FRCNEW
                                    216 	.globl _g_QUEUES
                                    217 	.globl _g_MINUPD
                                    218 	.globl _g_MAXUPD
                                    219 	.globl _g_TRGFLG
                                    220 	.globl _g_STATFL
                                    221 	.globl _g_RG7SAV
                                    222 	.globl _g_RG6SAV
                                    223 	.globl _g_RG5SAV
                                    224 	.globl _g_RG4SAV
                                    225 	.globl _g_RG3SAV
                                    226 	.globl _g_RG2SAV
                                    227 	.globl _g_RG1SAV
                                    228 	.globl _g_RG0SAV
                                    229 	.globl _g_CNSDFG
                                    230 	.globl _g_USRTAB
                                    231 	.globl _g_CLPRIM
                                    232 	.globl _g_WRPRIM
                                    233 	.globl _g_RDPRIM
                                    234 	.globl _GoalKick
                                    235 	.globl _BallThrowIn
                                    236 	.globl _TickCheckBallBoundaries
                                    237 	.globl _TickGoalkeeperAnimation
                                    238 	.globl _UpdatePassTarget
                                    239 	.globl _GetBestPassTarget
                                    240 	.globl _TickBallCollision
                                    241 	.globl _PrintTeamName
                                    242 	.globl _GetNumberString
                                    243 	.globl _ShowHeaderInfo
                                    244 	.globl _SetTeamsPresentationSpritesPosition
                                    245 	.globl _ResetBallInfo
                                    246 	.globl _SetPlayerTarget
                                    247 	.globl _ShowField
                                    248 ;--------------------------------------------------------
                                    249 ; special function registers
                                    250 ;--------------------------------------------------------
                         000000A8   251 _g_PortPrimarySlot	=	0x00a8
                         000000A9   252 _g_PortReadKeyboard	=	0x00a9
                         000000AA   253 _g_PortAccessKeyboard	=	0x00aa
                         000000AB   254 _g_PortControl	=	0x00ab
                         00000098   255 _g_VDP_DataPort	=	0x0098
                         00000099   256 _g_VDP_RegPort	=	0x0099
                         00000099   257 _g_VDP_AddrPort	=	0x0099
                         00000099   258 _g_VDP_StatPort	=	0x0099
                         000000A0   259 _g_PSG_RegPort	=	0x00a0
                         000000A1   260 _g_PSG_DataPort	=	0x00a1
                         000000A2   261 _g_PSG_StatPort	=	0x00a2
                         00000010   262 _g_PSG_Ext_RegPort	=	0x0010
                         00000011   263 _g_PSG_Ext_DataPort	=	0x0011
                         00000012   264 _g_PSG_Ext_StatPort	=	0x0012
                         0000007C   265 _g_MSXMusic_IndexPort	=	0x007c
                         0000007D   266 _g_MSXMusic_DataPort	=	0x007d
                         000000C0   267 _g_MSXAudio_IndexPort	=	0x00c0
                         000000C1   268 _g_MSXAudio_DataPort	=	0x00c1
                         000000C2   269 _g_MSXAudio_IndexPort2	=	0x00c2
                         000000C3   270 _g_MSXAudio_DataPort2	=	0x00c3
                         000000B4   271 _g_RTC_AddrPort	=	0x00b4
                         000000B5   272 _g_RTC_DataPort	=	0x00b5
                         00000060   273 _g_V9_VRAMPort	=	0x0060
                         00000061   274 _g_V9_PalettePort	=	0x0061
                         00000062   275 _g_V9_CmdDataPort	=	0x0062
                         00000063   276 _g_V9_RegDataPort	=	0x0063
                         00000064   277 _g_V9_RegSelectPort	=	0x0064
                         00000065   278 _g_V9_SatusPort	=	0x0065
                         00000066   279 _g_V9_IntFlagPort	=	0x0066
                         00000067   280 _g_V9_SysCtrlPort	=	0x0067
                         00000068   281 _g_V9_KanjiAddrLPort	=	0x0068
                         00000069   282 _g_V9_KanjiAddrHPort	=	0x0069
                         00000069   283 _g_V9_KanjiDataPort	=	0x0069
                         0000006A   284 _g_V9_Kanji2AddrLPort	=	0x006a
                         0000006B   285 _g_V9_Kanji2AddrHPort	=	0x006b
                         0000006B   286 _g_V9_Kanji2DataPort	=	0x006b
                         0000006F   287 _g_V9_OutputCtrPort	=	0x006f
                                    288 ;--------------------------------------------------------
                                    289 ; ram data
                                    290 ;--------------------------------------------------------
                                    291 	.area _DATA
                         0000F3AE   292 _g_LINL40	=	0xf3ae
                         0000F3AF   293 _g_LINL32	=	0xf3af
                         0000F3B0   294 _g_LINLEN	=	0xf3b0
                         0000F3B1   295 _g_CRTCNT	=	0xf3b1
                         0000F3B2   296 _g_CLMLST	=	0xf3b2
                         0000F3B3   297 _g_TXTNAM	=	0xf3b3
                         0000F3B5   298 _g_TXTCOL	=	0xf3b5
                         0000F3B7   299 _g_TXTCGP	=	0xf3b7
                         0000F3B9   300 _g_TXTATR	=	0xf3b9
                         0000F3BB   301 _g_TXTPAT	=	0xf3bb
                         0000F3BD   302 _g_T32NAM	=	0xf3bd
                         0000F3BF   303 _g_T32COL	=	0xf3bf
                         0000F3C1   304 _g_T32CGP	=	0xf3c1
                         0000F3C3   305 _g_T32ATR	=	0xf3c3
                         0000F3C5   306 _g_T32PAT	=	0xf3c5
                         0000F3C7   307 _g_GRPNAM	=	0xf3c7
                         0000F3C9   308 _g_GRPCOL	=	0xf3c9
                         0000F3CB   309 _g_GRPCGP	=	0xf3cb
                         0000F3CD   310 _g_GRPATR	=	0xf3cd
                         0000F3CF   311 _g_GRPPAT	=	0xf3cf
                         0000F3D1   312 _g_MLTNAM	=	0xf3d1
                         0000F3D3   313 _g_MLTCOL	=	0xf3d3
                         0000F3D5   314 _g_MLTCGP	=	0xf3d5
                         0000F3D7   315 _g_MLTATR	=	0xf3d7
                         0000F3D9   316 _g_MLTPAT	=	0xf3d9
                         0000F3DB   317 _g_CLIKSW	=	0xf3db
                         0000F3DC   318 _g_CSRY	=	0xf3dc
                         0000F3DD   319 _g_CSRX	=	0xf3dd
                         0000F3E9   320 _g_FORCLR	=	0xf3e9
                         0000F3EA   321 _g_BAKCLR	=	0xf3ea
                         0000F3EB   322 _g_BDRCLR	=	0xf3eb
                         0000F3F2   323 _g_ATRBYT	=	0xf3f2
                         0000F87F   324 _g_FNKSTR	=	0xf87f
                         0000F92A   325 _g_CLOC	=	0xf92a
                         0000F92C   326 _g_CMASK	=	0xf92c
                         0000FB02   327 _g_LOGOPR	=	0xfb02
                         0000FCB7   328 _g_GRPACX	=	0xfcb7
                         0000FCB9   329 _g_GRPACY	=	0xfcb9
                         0000FFFF   330 _g_SLTSL	=	0xffff
    00000000                        331 _GetNumberString_str_65536_1314:
    00000000                        332 	.ds 5
                                    333 ;--------------------------------------------------------
                                    334 ; ram data
                                    335 ;--------------------------------------------------------
                                    336 	.area _INITIALIZED
                                    337 ;--------------------------------------------------------
                                    338 ; absolute external ram data
                                    339 ;--------------------------------------------------------
                                    340 	.area _DABS (ABS)
                                    341 ;--------------------------------------------------------
                                    342 ; global & static initialisations
                                    343 ;--------------------------------------------------------
                                    344 	.area _HOME
                                    345 	.area _GSINIT
                                    346 	.area _GSFINAL
                                    347 	.area _GSINIT
                                    348 ;--------------------------------------------------------
                                    349 ; Home
                                    350 ;--------------------------------------------------------
                                    351 	.area _HOME
                                    352 	.area _HOME
                                    353 ;--------------------------------------------------------
                                    354 ; code
                                    355 ;--------------------------------------------------------
                                    356 	.area _SEG9
                                    357 ;E:\Dropbox\FAUSTO\SVILUPPI\MSX\CODE\C\MSXgl\projects\soccerlgSCC/soccerlg_s9_b3.c:27: void GoalKick(u8 teamId){
                                    358 ;	---------------------------------
                                    359 ; Function GoalKick
                                    360 ; ---------------------------------
    00000000                        361 _GoalKick::
    00000000 DD E5            [15]  362 	push	ix
    00000002 DD 21 00 00      [14]  363 	ld	ix,#0
    00000006 DD 39            [15]  364 	add	ix,sp
    00000008 3B               [ 6]  365 	dec	sp
    00000009 DD 77 FF         [19]  366 	ld	-1 (ix), a
                                    367 ;E:\Dropbox\FAUSTO\SVILUPPI\MSX\CODE\C\MSXgl\projects\soccerlgSCC/soccerlg_s9_b3.c:28: g_VblankSuspended=TRUE; 
    0000000C 21r00r00         [10]  368 	ld	hl, #_g_VblankSuspended
    0000000F 36 01            [10]  369 	ld	(hl), #0x01
                                    370 ;E:\Dropbox\FAUSTO\SVILUPPI\MSX\CODE\C\MSXgl\projects\soccerlgSCC/soccerlg_s9_b3.c:29: g_Ball.Size=1;
    00000011 21r04r00         [10]  371 	ld	hl, #(_g_Ball + 4)
    00000014 36 01            [10]  372 	ld	(hl), #0x01
                                    373 ;E:\Dropbox\FAUSTO\SVILUPPI\MSX\CODE\C\MSXgl\projects\soccerlgSCC/soccerlg_s9_b3.c:31: V9990_PrintLayerAStringAtPos(10,18,"GOAL KICK");
    00000016 21r73r00         [10]  374 	ld	hl, #___str_0
    00000019 E5               [11]  375 	push	hl
    0000001A 2E 12            [ 7]  376 	ld	l, #0x12
                                    377 ;	spillPairReg hl
                                    378 ;	spillPairReg hl
    0000001C 3E 0A            [ 7]  379 	ld	a, #0x0a
    0000001E CDr00r00         [17]  380 	call	_V9990_PrintLayerAStringAtPos
                                    381 ;E:\Dropbox\FAUSTO\SVILUPPI\MSX\CODE\C\MSXgl\projects\soccerlgSCC/soccerlg_s9_b3.c:32: PlayPCM(PCM_REFEREER);
    00000021 3E 05            [ 7]  382 	ld	a, #0x05
    00000023 CDr00r00         [17]  383 	call	_PlayPCM
                                    384 ;E:\Dropbox\FAUSTO\SVILUPPI\MSX\CODE\C\MSXgl\projects\soccerlgSCC/soccerlg_s9_b3.c:33: if (!g_modernAudio) PlayPCM(PCM_GOALKICK);
    00000026 3Ar00r00         [13]  385 	ld	a, (_g_modernAudio+0)
    00000029 B7               [ 4]  386 	or	a, a
    0000002A 20 05            [12]  387 	jr	NZ, 00102$
    0000002C 3E 04            [ 7]  388 	ld	a, #0x04
    0000002E CDr00r00         [17]  389 	call	_PlayPCM
    00000031                        390 00102$:
                                    391 ;E:\Dropbox\FAUSTO\SVILUPPI\MSX\CODE\C\MSXgl\projects\soccerlgSCC/soccerlg_s9_b3.c:34: g_MatchStatus=MATCH_BEFORE_GOAL_KICK;
    00000031 21r00r00         [10]  392 	ld	hl, #_g_MatchStatus
    00000034 36 05            [10]  393 	ld	(hl), #0x05
                                    394 ;E:\Dropbox\FAUSTO\SVILUPPI\MSX\CODE\C\MSXgl\projects\soccerlgSCC/soccerlg_s9_b3.c:35: g_RestartKickTeamId = teamId;
    00000036 DD 7E FF         [19]  395 	ld	a, -1 (ix)
    00000039 32r00r00         [13]  396 	ld	(_g_RestartKickTeamId+0), a
                                    397 ;E:\Dropbox\FAUSTO\SVILUPPI\MSX\CODE\C\MSXgl\projects\soccerlgSCC/soccerlg_s9_b3.c:36: g_Timer = 0;
    0000003C 21r00r00         [10]  398 	ld	hl, #_g_Timer
    0000003F 36 00            [10]  399 	ld	(hl), #0x00
                                    400 ;E:\Dropbox\FAUSTO\SVILUPPI\MSX\CODE\C\MSXgl\projects\soccerlgSCC/soccerlg_s9_b3.c:39: CallFnc_VOID_P1(4,SetPlayerBallPossession,NO_VALUE);
    00000041 3E FF            [ 7]  401 	ld	a, #0xff
    00000043 F5               [11]  402 	push	af
    00000044 33               [ 6]  403 	inc	sp
    00000045 11r00r00         [10]  404 	ld	de, #_SetPlayerBallPossession
    00000048 3E 04            [ 7]  405 	ld	a, #0x04
    0000004A CDr00r00         [17]  406 	call	_CallFnc_VOID_P1
                                    407 ;E:\Dropbox\FAUSTO\SVILUPPI\MSX\CODE\C\MSXgl\projects\soccerlgSCC/soccerlg_s9_b3.c:40: g_Ball.PossessionPlayerId = NO_VALUE;
    0000004D 21r06r00         [10]  408 	ld	hl, #(_g_Ball + 6)
    00000050 36 FF            [10]  409 	ld	(hl), #0xff
                                    410 ;E:\Dropbox\FAUSTO\SVILUPPI\MSX\CODE\C\MSXgl\projects\soccerlgSCC/soccerlg_s9_b3.c:43: if (g_Ball.X < FIELD_POS_X_CENTER) g_GoalKickSide = CORNER_SIDE_LEFT;
    00000052 2Ar02r00         [16]  411 	ld	hl, (#_g_Ball + 2)
    00000055 11 78 00         [10]  412 	ld	de, #0x0078
    00000058 BF               [ 4]  413 	cp	a, a
    00000059 ED 52            [15]  414 	sbc	hl, de
    0000005B 30 08            [12]  415 	jr	NC, 00104$
    0000005D 21r00r00         [10]  416 	ld	hl, #_g_GoalKickSide
    00000060 36 00            [10]  417 	ld	(hl), #0x00
    00000062 C3r6Ar00         [10]  418 	jp	00105$
    00000065                        419 00104$:
                                    420 ;E:\Dropbox\FAUSTO\SVILUPPI\MSX\CODE\C\MSXgl\projects\soccerlgSCC/soccerlg_s9_b3.c:44: else g_GoalKickSide = CORNER_SIDE_RIGHT;
    00000065 21r00r00         [10]  421 	ld	hl, #_g_GoalKickSide
    00000068 36 01            [10]  422 	ld	(hl), #0x01
    0000006A                        423 00105$:
                                    424 ;E:\Dropbox\FAUSTO\SVILUPPI\MSX\CODE\C\MSXgl\projects\soccerlgSCC/soccerlg_s9_b3.c:45: g_VblankSuspended=FALSE;
    0000006A 21r00r00         [10]  425 	ld	hl, #_g_VblankSuspended
    0000006D 36 00            [10]  426 	ld	(hl), #0x00
                                    427 ;E:\Dropbox\FAUSTO\SVILUPPI\MSX\CODE\C\MSXgl\projects\soccerlgSCC/soccerlg_s9_b3.c:46: }
    0000006F 33               [ 6]  428 	inc	sp
    00000070 DD E1            [14]  429 	pop	ix
    00000072 C9               [10]  430 	ret
                         0000F380   431 _g_RDPRIM	=	0xf380
                         0000F385   432 _g_WRPRIM	=	0xf385
                         0000F38C   433 _g_CLPRIM	=	0xf38c
                         0000F39A   434 _g_USRTAB	=	0xf39a
                         0000F3DE   435 _g_CNSDFG	=	0xf3de
                         0000F3DF   436 _g_RG0SAV	=	0xf3df
                         0000F3E0   437 _g_RG1SAV	=	0xf3e0
                         0000F3E1   438 _g_RG2SAV	=	0xf3e1
                         0000F3E2   439 _g_RG3SAV	=	0xf3e2
                         0000F3E3   440 _g_RG4SAV	=	0xf3e3
                         0000F3E4   441 _g_RG5SAV	=	0xf3e4
                         0000F3E5   442 _g_RG6SAV	=	0xf3e5
                         0000F3E6   443 _g_RG7SAV	=	0xf3e6
                         0000F3E7   444 _g_STATFL	=	0xf3e7
                         0000F3E8   445 _g_TRGFLG	=	0xf3e8
                         0000F3EC   446 _g_MAXUPD	=	0xf3ec
                         0000F3EF   447 _g_MINUPD	=	0xf3ef
                         0000F3F3   448 _g_QUEUES	=	0xf3f3
                         0000F3F5   449 _g_FRCNEW	=	0xf3f5
                         0000F3F6   450 _g_SCNCNT	=	0xf3f6
                         0000F3F7   451 _g_REPCNT	=	0xf3f7
                         0000F3F8   452 _g_PUTPNT	=	0xf3f8
                         0000F3FA   453 _g_GETPNT	=	0xf3fa
                         0000F3FC   454 _g_CS120	=	0xf3fc
                         0000F401   455 _g_CS240	=	0xf401
                         0000F406   456 _g_LOW	=	0xf406
                         0000F408   457 _g_HIGH	=	0xf408
                         0000F40A   458 _g_HEADER	=	0xf40a
                         0000F40B   459 _g_ASPCT1	=	0xf40b
                         0000F40D   460 _g_ASPCT2	=	0xf40d
                         0000F959   461 _g_QUETAB	=	0xf959
                         0000F971   462 _g_QUEBAK	=	0xf971
                         0000F975   463 _g_VOICAQ	=	0xf975
                         0000F9F5   464 _g_VOICBQ	=	0xf9f5
                         0000FA75   465 _g_VOICCQ	=	0xfa75
                         0000FAF5   466 _g_RS2IQ	=	0xfaf5
                         0000FAF5   467 _g_DPPAGE	=	0xfaf5
                         0000FAF6   468 _g_ACPAGE	=	0xfaf6
                         0000FAF7   469 _g_AVCSAV	=	0xfaf7
                         0000FAF8   470 _g_EXBRSA	=	0xfaf8
                         0000FAF9   471 _g_CHRCNT	=	0xfaf9
                         0000FAFA   472 _g_ROMA	=	0xfafa
                         0000FAFC   473 _g_MODE	=	0xfafc
                         0000FAFD   474 _g_NORUSE	=	0xfafd
                         0000FAFE   475 _g_XSAVE	=	0xfafe
                         0000FB00   476 _g_YSAVE	=	0xfb00
                         0000FB03   477 _g_RSTMP	=	0xfb03
                         0000FB03   478 _g_TOCNT	=	0xfb03
                         0000FB04   479 _g_RSFCB	=	0xfb04
                         0000FB06   480 _g_RSIQLN	=	0xfb06
                         0000FB07   481 _g_MEXBIh	=	0xfb07
                         0000FB0C   482 _g_OLDSTT	=	0xfb0c
                         0000FB0C   483 _g_OLDINT	=	0xfb0c
                         0000FB16   484 _g_DEVNUM	=	0xfb16
                         0000FB17   485 _g_DATCNT	=	0xfb17
                         0000FB1A   486 _g_ERRORS	=	0xfb1a
                         0000FB1B   487 _g_FLAGS	=	0xfb1b
                         0000FB1C   488 _g_ESTBLS	=	0xfb1c
                         0000FB1D   489 _g_COMMSK	=	0xfb1d
                         0000FB1E   490 _g_LSTCOM	=	0xfb1e
                         0000FB1F   491 _g_LSTMOD	=	0xfb1f
                         0000FB35   492 _g_PRSCNT	=	0xfb35
                         0000FB36   493 _g_SAVSP	=	0xfb36
                         0000FB38   494 _g_VOICEN	=	0xfb38
                         0000FB39   495 _g_SAVVOL	=	0xfb39
                         0000FB3B   496 _g_MCLLEN	=	0xfb3b
                         0000FB3C   497 _g_MCLPTR	=	0xfb3c
                         0000FB3E   498 _g_QUEUEN	=	0xfb3e
                         0000FB3F   499 _g_MUSICF	=	0xfb3f
                         0000FB40   500 _g_PLYCNT	=	0xfb40
                         0000FB41   501 _g_VCBA	=	0xfb41
                         0000FB66   502 _g_VCBB	=	0xfb66
                         0000FB8B   503 _g_VCBC	=	0xfb8b
                         0000FBB0   504 _g_ENSTOP	=	0xfbb0
                         0000FBB1   505 _g_BASROM	=	0xfbb1
                         0000FBB2   506 _g_LINTTB	=	0xfbb2
                         0000FBCA   507 _g_FSTPOS	=	0xfbca
                         0000FBCC   508 _g_CODSAV	=	0xfbcc
                         0000FBCD   509 _g_FNKSWI	=	0xfbcd
                         0000FBCE   510 _g_FNKFLG	=	0xfbce
                         0000FBD8   511 _g_ONGSBF	=	0xfbd8
                         0000FBD9   512 _g_CLIKFL	=	0xfbd9
                         0000FBDA   513 _g_OLDKEY	=	0xfbda
                         0000FBE5   514 _g_NEWKEY	=	0xfbe5
                         0000FBF0   515 _g_KEYBUF	=	0xfbf0
                         0000FC18   516 _g_LINWRK	=	0xfc18
                         0000FC40   517 _g_PATWRK	=	0xfc40
                         0000FC48   518 _g_BOTTOM	=	0xfc48
                         0000FC4A   519 _g_HIMEM	=	0xfc4a
                         0000FC4C   520 _g_TRPTBL	=	0xfc4c
                         0000FC9A   521 _g_RTYCNT	=	0xfc9a
                         0000FC9B   522 _g_INTFLG	=	0xfc9b
                         0000FC9C   523 _g_PADY	=	0xfc9c
                         0000FC9D   524 _g_PADX	=	0xfc9d
                         0000FC9E   525 _g_JIFFY	=	0xfc9e
                         0000FCA0   526 _g_INTVAL	=	0xfca0
                         0000FCA2   527 _g_INTCNT	=	0xfca2
                         0000FCA4   528 _g_LOWLIM	=	0xfca4
                         0000FCA5   529 _g_WINWID	=	0xfca5
                         0000FCA6   530 _g_GRPHED	=	0xfca6
                         0000FCA7   531 _g_ESCCNT	=	0xfca7
                         0000FCA8   532 _g_INSFLG	=	0xfca8
                         0000FCA9   533 _g_CSRSW	=	0xfca9
                         0000FCAA   534 _g_CSTYLE	=	0xfcaa
                         0000FCAB   535 _g_CAPST	=	0xfcab
                         0000FCAC   536 _g_KANAST	=	0xfcac
                         0000FCAD   537 _g_KANAMD	=	0xfcad
                         0000FCAE   538 _g_FLBMEM	=	0xfcae
                         0000FCAF   539 _g_SCRMOD	=	0xfcaf
                         0000FCB0   540 _g_OLDSCR	=	0xfcb0
                         0000FCB1   541 _g_CASPRV	=	0xfcb1
                         0000FCB2   542 _g_BRDATR	=	0xfcb2
                         0000FCB3   543 _g_GXPOS	=	0xfcb3
                         0000FCB5   544 _g_GYPOS	=	0xfcb5
                         0000FCBB   545 _g_DRWFLG	=	0xfcbb
                         0000FCBC   546 _g_DRWSCL	=	0xfcbc
                         0000FCBD   547 _g_DRWANG	=	0xfcbd
                         0000FCC1   548 _g_MNROM	=	0xfcc1
                         0000FCC1   549 _g_EXPTBL	=	0xfcc1
                         0000FCC5   550 _g_SLTTBL	=	0xfcc5
                         0000FCC9   551 _g_SLTATR	=	0xfcc9
                         0000FD09   552 _g_SLTWRK	=	0xfd09
                         0000FD89   553 _g_PROCNM	=	0xfd89
                         0000FFE7   554 _g_RG08SAV	=	0xffe7
                         0000FFE8   555 _g_RG09SAV	=	0xffe8
                         0000FFE9   556 _g_RG10SAV	=	0xffe9
                         0000FFEA   557 _g_RG11SAV	=	0xffea
                         0000FFEB   558 _g_RG12SAV	=	0xffeb
                         0000FFEC   559 _g_RG13SAV	=	0xffec
                         0000FFED   560 _g_RG14SAV	=	0xffed
                         0000FFEE   561 _g_RG15SAV	=	0xffee
                         0000FFEF   562 _g_RG16SAV	=	0xffef
                         0000FFF0   563 _g_RG17SAV	=	0xfff0
                         0000FFF1   564 _g_RG18SAV	=	0xfff1
                         0000FFF2   565 _g_RG19SAV	=	0xfff2
                         0000FFF3   566 _g_RG20SAV	=	0xfff3
                         0000FFF4   567 _g_RG21SAV	=	0xfff4
                         0000FFF5   568 _g_RG22SAV	=	0xfff5
                         0000FFF6   569 _g_RG23SAV	=	0xfff6
                         0000FFF7   570 _g_MINROM	=	0xfff7
                         0000FFF8   571 _g_SVFFF8	=	0xfff8
                         0000FFFA   572 _g_RG25SAV	=	0xfffa
                         0000FFFB   573 _g_RG26SAV	=	0xfffb
                         0000FFFC   574 _g_RG27SAV	=	0xfffc
                         0000FFFD   575 _g_SVFFFD	=	0xfffd
                         00000004   576 _g_CGTABL	=	0x0004
                         00000006   577 _g_VDP_DR	=	0x0006
                         00000007   578 _g_VDP_DW	=	0x0007
                         0000002B   579 _g_BASRVN	=	0x002b
                         0000002B   580 _g_ROMVersion	=	0x002b
                         0000002D   581 _g_MSXVER	=	0x002d
                         0000002E   582 _g_MSXMID	=	0x002e
                         00000034   583 _g_CHAR_16	=	0x0034
                         00000000   584 _g_SUBRID	=	0x0000
                         00000002   585 _g_STRSRC	=	0x0002
                         0000F30F   586 _g_KANJTABLE	=	0xf30f
                         0000F323   587 _g_DISKVE	=	0xf323
                         0000F325   588 _g_BREAKV	=	0xf325
                         0000F341   589 _g_RAMAD0	=	0xf341
                         0000F342   590 _g_RAMAD1	=	0xf342
                         0000F343   591 _g_RAMAD2	=	0xf343
                         0000F344   592 _g_RAMAD3	=	0xf344
                         0000F348   593 _g_MASTER	=	0xf348
                         0000F37D   594 _g_BDOS	=	0xf37d
    00000073                        595 ___str_0:
    00000073 47 4F 41 4C 20 4B 49   596 	.ascii "GOAL KICK"
             43 4B
    0000007C 00                     597 	.db 0x00
                                    598 ;E:\Dropbox\FAUSTO\SVILUPPI\MSX\CODE\C\MSXgl\projects\soccerlgSCC/soccerlg_s9_b3.c:48: void BallThrowIn(u8 teamId){
                                    599 ;	---------------------------------
                                    600 ; Function BallThrowIn
                                    601 ; ---------------------------------
    0000007D                        602 _BallThrowIn::
    0000007D DD E5            [15]  603 	push	ix
    0000007F DD 21 00 00      [14]  604 	ld	ix,#0
    00000083 DD 39            [15]  605 	add	ix,sp
    00000085 21 F8 FF         [10]  606 	ld	hl, #-8
    00000088 39               [11]  607 	add	hl, sp
    00000089 F9               [ 6]  608 	ld	sp, hl
    0000008A DD 77 FE         [19]  609 	ld	-2 (ix), a
                                    610 ;E:\Dropbox\FAUSTO\SVILUPPI\MSX\CODE\C\MSXgl\projects\soccerlgSCC/soccerlg_s9_b3.c:51: V9990_PrintLayerAStringAtPos(13,18,"THROW IN");
    0000008D 21r7Cr01         [10]  611 	ld	hl, #___str_1
    00000090 E5               [11]  612 	push	hl
    00000091 2E 12            [ 7]  613 	ld	l, #0x12
                                    614 ;	spillPairReg hl
                                    615 ;	spillPairReg hl
    00000093 3E 0D            [ 7]  616 	ld	a, #0x0d
    00000095 CDr00r00         [17]  617 	call	_V9990_PrintLayerAStringAtPos
                                    618 ;E:\Dropbox\FAUSTO\SVILUPPI\MSX\CODE\C\MSXgl\projects\soccerlgSCC/soccerlg_s9_b3.c:52: PlayPCM(PCM_REFEREER);
    00000098 3E 05            [ 7]  619 	ld	a, #0x05
    0000009A CDr00r00         [17]  620 	call	_PlayPCM
                                    621 ;E:\Dropbox\FAUSTO\SVILUPPI\MSX\CODE\C\MSXgl\projects\soccerlgSCC/soccerlg_s9_b3.c:53: PlayPCM(PCM_THROWIN);
    0000009D 3E 03            [ 7]  622 	ld	a, #0x03
    0000009F CDr00r00         [17]  623 	call	_PlayPCM
                                    624 ;E:\Dropbox\FAUSTO\SVILUPPI\MSX\CODE\C\MSXgl\projects\soccerlgSCC/soccerlg_s9_b3.c:54: g_MatchStatus=MATCH_BEFORE_THROW_IN;
    000000A2 21r00r00         [10]  625 	ld	hl, #_g_MatchStatus
    000000A5 36 03            [10]  626 	ld	(hl), #0x03
                                    627 ;E:\Dropbox\FAUSTO\SVILUPPI\MSX\CODE\C\MSXgl\projects\soccerlgSCC/soccerlg_s9_b3.c:55: g_RestartKickTeamId = teamId;
    000000A7 DD 7E FE         [19]  628 	ld	a, -2 (ix)
    000000AA 32r00r00         [13]  629 	ld	(_g_RestartKickTeamId+0), a
                                    630 ;E:\Dropbox\FAUSTO\SVILUPPI\MSX\CODE\C\MSXgl\projects\soccerlgSCC/soccerlg_s9_b3.c:56: g_Timer = 0;
    000000AD 21r00r00         [10]  631 	ld	hl, #_g_Timer
    000000B0 36 00            [10]  632 	ld	(hl), #0x00
                                    633 ;E:\Dropbox\FAUSTO\SVILUPPI\MSX\CODE\C\MSXgl\projects\soccerlgSCC/soccerlg_s9_b3.c:59: g_Ball.ShotActive = 0;
    000000B2 21r1Br00         [10]  634 	ld	hl, #(_g_Ball + 27)
    000000B5 36 00            [10]  635 	ld	(hl), #0x00
                                    636 ;E:\Dropbox\FAUSTO\SVILUPPI\MSX\CODE\C\MSXgl\projects\soccerlgSCC/soccerlg_s9_b3.c:60: g_Ball.PassTargetPlayerId = NO_VALUE;
    000000B7 21r10r00         [10]  637 	ld	hl, #(_g_Ball + 16)
    000000BA 36 FF            [10]  638 	ld	(hl), #0xff
                                    639 ;E:\Dropbox\FAUSTO\SVILUPPI\MSX\CODE\C\MSXgl\projects\soccerlgSCC/soccerlg_s9_b3.c:61: g_Ball.PossessionPlayerId = NO_VALUE;
    000000BC 21r06r00         [10]  640 	ld	hl, #(_g_Ball + 6)
    000000BF 36 FF            [10]  641 	ld	(hl), #0xff
                                    642 ;E:\Dropbox\FAUSTO\SVILUPPI\MSX\CODE\C\MSXgl\projects\soccerlgSCC/soccerlg_s9_b3.c:64: for(u8 i=0; i<14; i++) {
    000000C1 DD 36 FF 00      [19]  643 	ld	-1 (ix), #0x00
    000000C5                        644 00111$:
    000000C5 DD 7E FF         [19]  645 	ld	a, -1 (ix)
    000000C8 D6 0E            [ 7]  646 	sub	a, #0x0e
    000000CA D2r77r01         [10]  647 	jp	NC, 00113$
                                    648 ;E:\Dropbox\FAUSTO\SVILUPPI\MSX\CODE\C\MSXgl\projects\soccerlgSCC/soccerlg_s9_b3.c:65: g_Players[i].TargetX = g_Players[i].X;
    000000CD DD 4E FF         [19]  649 	ld	c, -1 (ix)
    000000D0 06 00            [ 7]  650 	ld	b, #0x00
    000000D2 69               [ 4]  651 	ld	l, c
    000000D3 60               [ 4]  652 	ld	h, b
    000000D4 29               [11]  653 	add	hl, hl
    000000D5 29               [11]  654 	add	hl, hl
    000000D6 09               [11]  655 	add	hl, bc
    000000D7 29               [11]  656 	add	hl, hl
    000000D8 29               [11]  657 	add	hl, hl
    000000D9 09               [11]  658 	add	hl, bc
    000000DA EB               [ 4]  659 	ex	de, hl
    000000DB 21r00r00         [10]  660 	ld	hl, #_g_Players
    000000DE 19               [11]  661 	add	hl, de
    000000DF EB               [ 4]  662 	ex	de, hl
    000000E0 21 10 00         [10]  663 	ld	hl, #0x0010
    000000E3 19               [11]  664 	add	hl, de
    000000E4 E3               [19]  665 	ex	(sp), hl
    000000E5 6B               [ 4]  666 	ld	l, e
                                    667 ;	spillPairReg hl
                                    668 ;	spillPairReg hl
    000000E6 62               [ 4]  669 	ld	h, d
                                    670 ;	spillPairReg hl
                                    671 ;	spillPairReg hl
    000000E7 23               [ 6]  672 	inc	hl
    000000E8 23               [ 6]  673 	inc	hl
    000000E9 7E               [ 7]  674 	ld	a, (hl)
    000000EA DD 77 FA         [19]  675 	ld	-6 (ix), a
    000000ED 23               [ 6]  676 	inc	hl
    000000EE 7E               [ 7]  677 	ld	a, (hl)
    000000EF DD 77 FB         [19]  678 	ld	-5 (ix), a
    000000F2 E1               [10]  679 	pop	hl
    000000F3 E5               [11]  680 	push	hl
    000000F4 DD 7E FA         [19]  681 	ld	a, -6 (ix)
    000000F7 77               [ 7]  682 	ld	(hl), a
    000000F8 23               [ 6]  683 	inc	hl
    000000F9 DD 7E FB         [19]  684 	ld	a, -5 (ix)
    000000FC 77               [ 7]  685 	ld	(hl), a
                                    686 ;E:\Dropbox\FAUSTO\SVILUPPI\MSX\CODE\C\MSXgl\projects\soccerlgSCC/soccerlg_s9_b3.c:66: g_Players[i].TargetY = g_Players[i].Y;
    000000FD 21 0E 00         [10]  687 	ld	hl, #0x000e
    00000100 19               [11]  688 	add	hl, de
    00000101 4D               [ 4]  689 	ld	c, l
    00000102 44               [ 4]  690 	ld	b, h
    00000103 1A               [ 7]  691 	ld	a, (de)
    00000104 DD 77 FC         [19]  692 	ld	-4 (ix), a
    00000107 13               [ 6]  693 	inc	de
    00000108 1A               [ 7]  694 	ld	a, (de)
    00000109 DD 77 FD         [19]  695 	ld	-3 (ix), a
    0000010C 1B               [ 6]  696 	dec	de
    0000010D 69               [ 4]  697 	ld	l, c
    0000010E 60               [ 4]  698 	ld	h, b
    0000010F DD 7E FC         [19]  699 	ld	a, -4 (ix)
    00000112 77               [ 7]  700 	ld	(hl), a
    00000113 23               [ 6]  701 	inc	hl
    00000114 DD 7E FD         [19]  702 	ld	a, -3 (ix)
    00000117 77               [ 7]  703 	ld	(hl), a
                                    704 ;E:\Dropbox\FAUSTO\SVILUPPI\MSX\CODE\C\MSXgl\projects\soccerlgSCC/soccerlg_s9_b3.c:68: if (g_Players[i].TargetX < FIELD_BOUND_X_LEFT) g_Players[i].TargetX = FIELD_BOUND_X_LEFT;
                                    705 ;	spillPairReg hl
                                    706 ;	spillPairReg hl
                                    707 ;	spillPairReg hl
                                    708 ;	spillPairReg hl
    00000118 DD 7E FA         [19]  709 	ld	a, -6 (ix)
    0000011B DD 66 FB         [19]  710 	ld	h, -5 (ix)
    0000011E D6 0A            [ 7]  711 	sub	a, #0x0a
    00000120 7C               [ 4]  712 	ld	a, h
    00000121 DE 00            [ 7]  713 	sbc	a, #0x00
    00000123 30 07            [12]  714 	jr	NC, 00102$
    00000125 E1               [10]  715 	pop	hl
    00000126 E5               [11]  716 	push	hl
    00000127 36 0A            [10]  717 	ld	(hl), #0x0a
    00000129 23               [ 6]  718 	inc	hl
    0000012A 36 00            [10]  719 	ld	(hl), #0x00
    0000012C                        720 00102$:
                                    721 ;E:\Dropbox\FAUSTO\SVILUPPI\MSX\CODE\C\MSXgl\projects\soccerlgSCC/soccerlg_s9_b3.c:69: if (g_Players[i].TargetX > FIELD_BOUND_X_RIGHT) g_Players[i].TargetX = FIELD_BOUND_X_RIGHT;
    0000012C E1               [10]  722 	pop	hl
    0000012D E5               [11]  723 	push	hl
    0000012E 7E               [ 7]  724 	ld	a, (hl)
    0000012F 23               [ 6]  725 	inc	hl
    00000130 66               [ 7]  726 	ld	h, (hl)
                                    727 ;	spillPairReg hl
    00000131 6F               [ 4]  728 	ld	l, a
                                    729 ;	spillPairReg hl
                                    730 ;	spillPairReg hl
    00000132 3E EC            [ 7]  731 	ld	a, #0xec
    00000134 BD               [ 4]  732 	cp	a, l
    00000135 3E 00            [ 7]  733 	ld	a, #0x00
    00000137 9C               [ 4]  734 	sbc	a, h
    00000138 30 07            [12]  735 	jr	NC, 00104$
    0000013A E1               [10]  736 	pop	hl
    0000013B E5               [11]  737 	push	hl
    0000013C 36 EC            [10]  738 	ld	(hl), #0xec
    0000013E 23               [ 6]  739 	inc	hl
    0000013F 36 00            [10]  740 	ld	(hl), #0x00
    00000141                        741 00104$:
                                    742 ;E:\Dropbox\FAUSTO\SVILUPPI\MSX\CODE\C\MSXgl\projects\soccerlgSCC/soccerlg_s9_b3.c:70: if (g_Players[i].TargetY < FIELD_BOUND_Y_TOP) g_Players[i].TargetY = FIELD_BOUND_Y_TOP;
    00000141 69               [ 4]  743 	ld	l, c
    00000142 60               [ 4]  744 	ld	h, b
    00000143 7E               [ 7]  745 	ld	a, (hl)
    00000144 23               [ 6]  746 	inc	hl
    00000145 66               [ 7]  747 	ld	h, (hl)
                                    748 ;	spillPairReg hl
                                    749 ;	spillPairReg hl
                                    750 ;	spillPairReg hl
    00000146 D6 32            [ 7]  751 	sub	a, #0x32
    00000148 7C               [ 4]  752 	ld	a, h
    00000149 DE 00            [ 7]  753 	sbc	a, #0x00
    0000014B 30 07            [12]  754 	jr	NC, 00106$
    0000014D 69               [ 4]  755 	ld	l, c
    0000014E 60               [ 4]  756 	ld	h, b
    0000014F 36 32            [10]  757 	ld	(hl), #0x32
    00000151 23               [ 6]  758 	inc	hl
    00000152 36 00            [10]  759 	ld	(hl), #0x00
    00000154                        760 00106$:
                                    761 ;E:\Dropbox\FAUSTO\SVILUPPI\MSX\CODE\C\MSXgl\projects\soccerlgSCC/soccerlg_s9_b3.c:71: if (g_Players[i].TargetY > FIELD_BOUND_Y_BOTTOM) g_Players[i].TargetY = FIELD_BOUND_Y_BOTTOM;
    00000154 69               [ 4]  762 	ld	l, c
    00000155 60               [ 4]  763 	ld	h, b
    00000156 7E               [ 7]  764 	ld	a, (hl)
    00000157 23               [ 6]  765 	inc	hl
    00000158 66               [ 7]  766 	ld	h, (hl)
                                    767 ;	spillPairReg hl
    00000159 6F               [ 4]  768 	ld	l, a
                                    769 ;	spillPairReg hl
                                    770 ;	spillPairReg hl
    0000015A 3E B3            [ 7]  771 	ld	a, #0xb3
    0000015C BD               [ 4]  772 	cp	a, l
    0000015D 3E 01            [ 7]  773 	ld	a, #0x01
    0000015F 9C               [ 4]  774 	sbc	a, h
    00000160 30 07            [12]  775 	jr	NC, 00108$
    00000162 3E B3            [ 7]  776 	ld	a, #0xb3
    00000164 02               [ 7]  777 	ld	(bc), a
    00000165 03               [ 6]  778 	inc	bc
    00000166 3E 01            [ 7]  779 	ld	a, #0x01
    00000168 02               [ 7]  780 	ld	(bc), a
    00000169                        781 00108$:
                                    782 ;E:\Dropbox\FAUSTO\SVILUPPI\MSX\CODE\C\MSXgl\projects\soccerlgSCC/soccerlg_s9_b3.c:73: g_Players[i].Status = PLAYER_STATUS_NONE;
    00000169 21 12 00         [10]  783 	ld	hl, #0x0012
    0000016C 19               [11]  784 	add	hl, de
    0000016D AF               [ 4]  785 	xor	a, a
    0000016E 77               [ 7]  786 	ld	(hl), a
    0000016F 23               [ 6]  787 	inc	hl
    00000170 77               [ 7]  788 	ld	(hl), a
                                    789 ;E:\Dropbox\FAUSTO\SVILUPPI\MSX\CODE\C\MSXgl\projects\soccerlgSCC/soccerlg_s9_b3.c:64: for(u8 i=0; i<14; i++) {
    00000171 DD 34 FF         [23]  790 	inc	-1 (ix)
    00000174 C3rC5r00         [10]  791 	jp	00111$
    00000177                        792 00113$:
                                    793 ;E:\Dropbox\FAUSTO\SVILUPPI\MSX\CODE\C\MSXgl\projects\soccerlgSCC/soccerlg_s9_b3.c:75: }
    00000177 DD F9            [10]  794 	ld	sp, ix
    00000179 DD E1            [14]  795 	pop	ix
    0000017B C9               [10]  796 	ret
    0000017C                        797 ___str_1:
    0000017C 54 48 52 4F 57 20 49   798 	.ascii "THROW IN"
             4E
    00000184 00                     799 	.db 0x00
                                    800 ;E:\Dropbox\FAUSTO\SVILUPPI\MSX\CODE\C\MSXgl\projects\soccerlgSCC/soccerlg_s9_b3.c:77: void TickCheckBallBoundaries(){
                                    801 ;	---------------------------------
                                    802 ; Function TickCheckBallBoundaries
                                    803 ; ---------------------------------
    00000185                        804 _TickCheckBallBoundaries::
    00000185 DD E5            [15]  805 	push	ix
    00000187 DD 21 00 00      [14]  806 	ld	ix,#0
    0000018B DD 39            [15]  807 	add	ix,sp
    0000018D 21 F9 FF         [10]  808 	ld	hl, #-7
    00000190 39               [11]  809 	add	hl, sp
    00000191 F9               [ 6]  810 	ld	sp, hl
                                    811 ;E:\Dropbox\FAUSTO\SVILUPPI\MSX\CODE\C\MSXgl\projects\soccerlgSCC/soccerlg_s9_b3.c:78: if(g_MatchStatus!=MATCH_IN_ACTION){
                                    812 ;E:\Dropbox\FAUSTO\SVILUPPI\MSX\CODE\C\MSXgl\projects\soccerlgSCC/soccerlg_s9_b3.c:79: return;
                                    813 ;E:\Dropbox\FAUSTO\SVILUPPI\MSX\CODE\C\MSXgl\projects\soccerlgSCC/soccerlg_s9_b3.c:83: if(g_MatchStatus == MATCH_BALL_ON_GOALKEEPER || g_Ball.PossessionPlayerId != NO_VALUE) {
    00000192 3Ar00r00         [13]  814 	ld	a,(_g_MatchStatus+0)
    00000195 FE 0C            [ 7]  815 	cp	a,#0x0c
    00000197 C2rDAr03         [10]  816 	jp	NZ,00167$
    0000019A D6 0D            [ 7]  817 	sub	a, #0x0d
    0000019C 28 06            [12]  818 	jr	Z, 00107$
    0000019E 3Ar06r00         [13]  819 	ld	a, (#(_g_Ball + 6) + 0)
    000001A1 3C               [ 4]  820 	inc	a
    000001A2 28 1F            [12]  821 	jr	Z, 00108$
    000001A4                        822 00107$:
                                    823 ;E:\Dropbox\FAUSTO\SVILUPPI\MSX\CODE\C\MSXgl\projects\soccerlgSCC/soccerlg_s9_b3.c:84: if(g_Ball.PossessionPlayerId != NO_VALUE) {
    000001A4 21r06r00         [10]  824 	ld	hl, #_g_Ball+6
    000001A7 5E               [ 7]  825 	ld	e, (hl)
    000001A8 7B               [ 4]  826 	ld	a, e
    000001A9 3C               [ 4]  827 	inc	a
    000001AA 28 17            [12]  828 	jr	Z, 00108$
                                    829 ;E:\Dropbox\FAUSTO\SVILUPPI\MSX\CODE\C\MSXgl\projects\soccerlgSCC/soccerlg_s9_b3.c:85: if(g_Players[g_Ball.PossessionPlayerId].Role == PLAYER_ROLE_GOALKEEPER) return;
    000001AC 01r00r00         [10]  830 	ld	bc, #_g_Players+0
    000001AF 16 00            [ 7]  831 	ld	d, #0x00
    000001B1 6B               [ 4]  832 	ld	l, e
    000001B2 62               [ 4]  833 	ld	h, d
    000001B3 29               [11]  834 	add	hl, hl
    000001B4 29               [11]  835 	add	hl, hl
    000001B5 19               [11]  836 	add	hl, de
    000001B6 29               [11]  837 	add	hl, hl
    000001B7 29               [11]  838 	add	hl, hl
    000001B8 19               [11]  839 	add	hl, de
    000001B9 09               [11]  840 	add	hl, bc
    000001BA 11 0D 00         [10]  841 	ld	de, #0x000d
    000001BD 19               [11]  842 	add	hl, de
    000001BE 7E               [ 7]  843 	ld	a, (hl)
    000001BF B7               [ 4]  844 	or	a, a
    000001C0 CArDAr03         [10]  845 	jp	Z,00167$
    000001C3                        846 00108$:
                                    847 ;E:\Dropbox\FAUSTO\SVILUPPI\MSX\CODE\C\MSXgl\projects\soccerlgSCC/soccerlg_s9_b3.c:90: if (g_Ball.ShotActive != 0 || g_Ball.PassTargetPlayerId != NO_VALUE) {
    000001C3 21r1Br00         [10]  848 	ld	hl, #_g_Ball + 27
    000001C6 4E               [ 7]  849 	ld	c, (hl)
                                    850 ;E:\Dropbox\FAUSTO\SVILUPPI\MSX\CODE\C\MSXgl\projects\soccerlgSCC/soccerlg_s9_b3.c:101: if (g_Ball.Y < FIELD_BOUND_Y_TOP) {
    000001C7 ED 5Br00r00      [20]  851 	ld	de, (#_g_Ball + 0)
                                    852 ;E:\Dropbox\FAUSTO\SVILUPPI\MSX\CODE\C\MSXgl\projects\soccerlgSCC/soccerlg_s9_b3.c:90: if (g_Ball.ShotActive != 0 || g_Ball.PassTargetPlayerId != NO_VALUE) {
    000001CB 3Ar10r00         [13]  853 	ld	a, (#_g_Ball + 16)
    000001CE DD 77 FC         [19]  854 	ld	-4 (ix), a
                                    855 ;E:\Dropbox\FAUSTO\SVILUPPI\MSX\CODE\C\MSXgl\projects\soccerlgSCC/soccerlg_s9_b3.c:101: if (g_Ball.Y < FIELD_BOUND_Y_TOP) {
    000001D1 DD 73 FD         [19]  856 	ld	-3 (ix), e
    000001D4 DD 72 FE         [19]  857 	ld	-2 (ix), d
                                    858 ;E:\Dropbox\FAUSTO\SVILUPPI\MSX\CODE\C\MSXgl\projects\soccerlgSCC/soccerlg_s9_b3.c:90: if (g_Ball.ShotActive != 0 || g_Ball.PassTargetPlayerId != NO_VALUE) {
    000001D7 DD 7E FC         [19]  859 	ld	a, -4 (ix)
    000001DA 3C               [ 4]  860 	inc	a
    000001DB 3E 01            [ 7]  861 	ld	a, #0x01
    000001DD 28 01            [12]  862 	jr	Z, 00336$
    000001DF AF               [ 4]  863 	xor	a, a
    000001E0                        864 00336$:
    000001E0 DD 77 FF         [19]  865 	ld	-1 (ix), a
                                    866 ;E:\Dropbox\FAUSTO\SVILUPPI\MSX\CODE\C\MSXgl\projects\soccerlgSCC/soccerlg_s9_b3.c:101: if (g_Ball.Y < FIELD_BOUND_Y_TOP) {
    000001E3 DD 7E FD         [19]  867 	ld	a, -3 (ix)
    000001E6 D6 32            [ 7]  868 	sub	a, #0x32
    000001E8 DD 7E FE         [19]  869 	ld	a, -2 (ix)
    000001EB DE 00            [ 7]  870 	sbc	a, #0x00
    000001ED 3E 00            [ 7]  871 	ld	a, #0x00
    000001EF 17               [ 4]  872 	rla
    000001F0 47               [ 4]  873 	ld	b, a
                                    874 ;E:\Dropbox\FAUSTO\SVILUPPI\MSX\CODE\C\MSXgl\projects\soccerlgSCC/soccerlg_s9_b3.c:90: if (g_Ball.ShotActive != 0 || g_Ball.PassTargetPlayerId != NO_VALUE) {
    000001F1 79               [ 4]  875 	ld	a, c
    000001F2 B7               [ 4]  876 	or	a, a
    000001F3 20 06            [12]  877 	jr	NZ, 00120$
    000001F5 DD CB FF 46      [20]  878 	bit	0, -1 (ix)
    000001F9 20 41            [12]  879 	jr	NZ, 00121$
    000001FB                        880 00120$:
                                    881 ;E:\Dropbox\FAUSTO\SVILUPPI\MSX\CODE\C\MSXgl\projects\soccerlgSCC/soccerlg_s9_b3.c:92: u16 destY = g_Ball.TargetY;
    000001FB 2Ar19r00         [16]  882 	ld	hl, (#_g_Ball + 25)
                                    883 ;E:\Dropbox\FAUSTO\SVILUPPI\MSX\CODE\C\MSXgl\projects\soccerlgSCC/soccerlg_s9_b3.c:95: if (g_Ball.PassTargetPlayerId != NO_VALUE) {
    000001FE DD CB FF 46      [20]  884 	bit	0, -1 (ix)
    00000202 20 1B            [12]  885 	jr	NZ, 00111$
                                    886 ;E:\Dropbox\FAUSTO\SVILUPPI\MSX\CODE\C\MSXgl\projects\soccerlgSCC/soccerlg_s9_b3.c:96: destY = g_Players[g_Ball.PassTargetPlayerId].Y;
    00000204 D5               [11]  887 	push	de
    00000205 DD 5E FC         [19]  888 	ld	e, -4 (ix)
    00000208 16 00            [ 7]  889 	ld	d, #0x00
    0000020A 6B               [ 4]  890 	ld	l, e
    0000020B 62               [ 4]  891 	ld	h, d
    0000020C 29               [11]  892 	add	hl, hl
    0000020D 29               [11]  893 	add	hl, hl
    0000020E 19               [11]  894 	add	hl, de
    0000020F 29               [11]  895 	add	hl, hl
    00000210 29               [11]  896 	add	hl, hl
    00000211 19               [11]  897 	add	hl, de
    00000212 D1               [10]  898 	pop	de
    00000213 3Er00            [ 7]  899 	ld	a, #<(_g_Players)
    00000215 85               [ 4]  900 	add	a, l
    00000216 6F               [ 4]  901 	ld	l, a
                                    902 ;	spillPairReg hl
                                    903 ;	spillPairReg hl
    00000217 3Es00            [ 7]  904 	ld	a, #>(_g_Players)
    00000219 8C               [ 4]  905 	adc	a, h
    0000021A 67               [ 4]  906 	ld	h, a
                                    907 ;	spillPairReg hl
                                    908 ;	spillPairReg hl
    0000021B 7E               [ 7]  909 	ld	a, (hl)
    0000021C 23               [ 6]  910 	inc	hl
    0000021D 66               [ 7]  911 	ld	h, (hl)
                                    912 ;	spillPairReg hl
    0000021E 6F               [ 4]  913 	ld	l, a
                                    914 ;	spillPairReg hl
                                    915 ;	spillPairReg hl
                                    916 ;E:\Dropbox\FAUSTO\SVILUPPI\MSX\CODE\C\MSXgl\projects\soccerlgSCC/soccerlg_s9_b3.c:97: destX = g_Players[g_Ball.PassTargetPlayerId].X;
    0000021F                        917 00111$:
                                    918 ;E:\Dropbox\FAUSTO\SVILUPPI\MSX\CODE\C\MSXgl\projects\soccerlgSCC/soccerlg_s9_b3.c:101: if (g_Ball.Y < FIELD_BOUND_Y_TOP) {
    0000021F 78               [ 4]  919 	ld	a, b
    00000220 B7               [ 4]  920 	or	a, a
    00000221 28 07            [12]  921 	jr	Z, 00115$
                                    922 ;E:\Dropbox\FAUSTO\SVILUPPI\MSX\CODE\C\MSXgl\projects\soccerlgSCC/soccerlg_s9_b3.c:103: if(destY > g_Ball.Y) return;
    00000223 7B               [ 4]  923 	ld	a, e
    00000224 95               [ 4]  924 	sub	a, l
    00000225 7A               [ 4]  925 	ld	a, d
    00000226 9C               [ 4]  926 	sbc	a, h
    00000227 DArDAr03         [10]  927 	jp	C,00167$
    0000022A                        928 00115$:
                                    929 ;E:\Dropbox\FAUSTO\SVILUPPI\MSX\CODE\C\MSXgl\projects\soccerlgSCC/soccerlg_s9_b3.c:107: if (g_Ball.Y > FIELD_BOUND_Y_BOTTOM) {
    0000022A 3E B3            [ 7]  930 	ld	a, #0xb3
    0000022C DD BE FD         [19]  931 	cp	a, -3 (ix)
    0000022F 3E 01            [ 7]  932 	ld	a, #0x01
    00000231 DD 9E FE         [19]  933 	sbc	a, -2 (ix)
    00000234 30 06            [12]  934 	jr	NC, 00121$
                                    935 ;E:\Dropbox\FAUSTO\SVILUPPI\MSX\CODE\C\MSXgl\projects\soccerlgSCC/soccerlg_s9_b3.c:109: if(destY < g_Ball.Y) return;
    00000236 AF               [ 4]  936 	xor	a, a
    00000237 ED 52            [15]  937 	sbc	hl, de
    00000239 DArDAr03         [10]  938 	jp	C,00167$
    0000023C                        939 00121$:
                                    940 ;E:\Dropbox\FAUSTO\SVILUPPI\MSX\CODE\C\MSXgl\projects\soccerlgSCC/soccerlg_s9_b3.c:125: if (g_Ball.Y < FIELD_BOUND_Y_TOP) {
    0000023C 78               [ 4]  941 	ld	a, b
    0000023D B7               [ 4]  942 	or	a, a
    0000023E 28 16            [12]  943 	jr	Z, 00129$
                                    944 ;E:\Dropbox\FAUSTO\SVILUPPI\MSX\CODE\C\MSXgl\projects\soccerlgSCC/soccerlg_s9_b3.c:127: if (g_Ball.ShotActive && (g_Ball.Direction == DIRECTION_DOWN || g_Ball.Direction == DIRECTION_DOWN_LEFT || g_Ball.Direction == DIRECTION_DOWN_RIGHT)) {
    00000240 79               [ 4]  945 	ld	a, c
    00000241 B7               [ 4]  946 	or	a, a
    00000242 28 12            [12]  947 	jr	Z, 00129$
    00000244 3Ar05r00         [13]  948 	ld	a, (#_g_Ball + 5)
    00000247 FE 05            [ 7]  949 	cp	a, #0x05
    00000249 CArDAr03         [10]  950 	jp	Z,00167$
    0000024C FE 06            [ 7]  951 	cp	a, #0x06
    0000024E CArDAr03         [10]  952 	jp	Z,00167$
    00000251 D6 04            [ 7]  953 	sub	a, #0x04
                                    954 ;E:\Dropbox\FAUSTO\SVILUPPI\MSX\CODE\C\MSXgl\projects\soccerlgSCC/soccerlg_s9_b3.c:128: return; 
    00000253 CArDAr03         [10]  955 	jp	Z,00167$
    00000256                        956 00129$:
                                    957 ;E:\Dropbox\FAUSTO\SVILUPPI\MSX\CODE\C\MSXgl\projects\soccerlgSCC/soccerlg_s9_b3.c:133: if (g_Ball.Y > FIELD_BOUND_Y_BOTTOM) {
    00000256 3E B3            [ 7]  958 	ld	a, #0xb3
    00000258 DD BE FD         [19]  959 	cp	a, -3 (ix)
    0000025B 3E 01            [ 7]  960 	ld	a, #0x01
    0000025D DD 9E FE         [19]  961 	sbc	a, -2 (ix)
    00000260 30 16            [12]  962 	jr	NC, 00136$
                                    963 ;E:\Dropbox\FAUSTO\SVILUPPI\MSX\CODE\C\MSXgl\projects\soccerlgSCC/soccerlg_s9_b3.c:135: if (g_Ball.ShotActive && (g_Ball.Direction == DIRECTION_UP || g_Ball.Direction == DIRECTION_UP_LEFT || g_Ball.Direction == DIRECTION_UP_RIGHT)) {
    00000262 79               [ 4]  964 	ld	a, c
    00000263 B7               [ 4]  965 	or	a, a
    00000264 28 12            [12]  966 	jr	Z, 00136$
    00000266 3Ar05r00         [13]  967 	ld	a, (#_g_Ball + 5)
    00000269 FE 01            [ 7]  968 	cp	a, #0x01
    0000026B CArDAr03         [10]  969 	jp	Z,00167$
    0000026E FE 08            [ 7]  970 	cp	a, #0x08
    00000270 CArDAr03         [10]  971 	jp	Z,00167$
    00000273 D6 02            [ 7]  972 	sub	a, #0x02
                                    973 ;E:\Dropbox\FAUSTO\SVILUPPI\MSX\CODE\C\MSXgl\projects\soccerlgSCC/soccerlg_s9_b3.c:136: return;
    00000275 CArDAr03         [10]  974 	jp	Z,00167$
    00000278                        975 00136$:
                                    976 ;E:\Dropbox\FAUSTO\SVILUPPI\MSX\CODE\C\MSXgl\projects\soccerlgSCC/soccerlg_s9_b3.c:143: i16 screenRelY = (i16)g_Ball.Y - (i16)g_FieldCurrentYPosition;
    00000278 33               [ 6]  977 	inc	sp
    00000279 33               [ 6]  978 	inc	sp
    0000027A D5               [11]  979 	push	de
    0000027B 2Ar00r00         [16]  980 	ld	hl, (_g_FieldCurrentYPosition)
    0000027E DD 7E F9         [19]  981 	ld	a, -7 (ix)
    00000281 95               [ 4]  982 	sub	a, l
    00000282 4F               [ 4]  983 	ld	c, a
    00000283 DD 7E FA         [19]  984 	ld	a, -6 (ix)
    00000286 9C               [ 4]  985 	sbc	a, h
    00000287 47               [ 4]  986 	ld	b, a
                                    987 ;E:\Dropbox\FAUSTO\SVILUPPI\MSX\CODE\C\MSXgl\projects\soccerlgSCC/soccerlg_s9_b3.c:144: if (screenRelY < -30 || screenRelY > 242) return; // Screen height 212 + 30px margin
    00000288 79               [ 4]  988 	ld	a, c
    00000289 D6 E2            [ 7]  989 	sub	a, #0xe2
    0000028B 78               [ 4]  990 	ld	a, b
    0000028C 17               [ 4]  991 	rla
    0000028D 3F               [ 4]  992 	ccf
    0000028E 1F               [ 4]  993 	rra
    0000028F DE 7F            [ 7]  994 	sbc	a, #0x7f
    00000291 DArDAr03         [10]  995 	jp	C,00167$
    00000294 3E F2            [ 7]  996 	ld	a, #0xf2
    00000296 B9               [ 4]  997 	cp	a, c
    00000297 3E 00            [ 7]  998 	ld	a, #0x00
    00000299 98               [ 4]  999 	sbc	a, b
    0000029A E2r9Fr02         [10] 1000 	jp	PO, 00345$
    0000029D EE 80            [ 7] 1001 	xor	a, #0x80
    0000029F                       1002 00345$:
    0000029F F2rA5r02         [10] 1003 	jp	P, 00138$
    000002A2 C3rDAr03         [10] 1004 	jp	00167$
    000002A5                       1005 00138$:
                                   1006 ;E:\Dropbox\FAUSTO\SVILUPPI\MSX\CODE\C\MSXgl\projects\soccerlgSCC/soccerlg_s9_b3.c:146: u8 teamId = g_Ball.LastTouchTeamId;
    000002A5 3Ar0Er00         [13] 1007 	ld	a, (#_g_Ball + 14)
                                   1008 ;E:\Dropbox\FAUSTO\SVILUPPI\MSX\CODE\C\MSXgl\projects\soccerlgSCC/soccerlg_s9_b3.c:147: if(teamId==NO_VALUE){
    000002A8 DD 77 FB         [19] 1009 	ld	-5 (ix), a
    000002AB 3C               [ 4] 1010 	inc	a
    000002AC 20 04            [12] 1011 	jr	NZ, 00141$
                                   1012 ;E:\Dropbox\FAUSTO\SVILUPPI\MSX\CODE\C\MSXgl\projects\soccerlgSCC/soccerlg_s9_b3.c:148: teamId=TEAM_1; // Default
    000002AE DD 36 FB 01      [19] 1013 	ld	-5 (ix), #0x01
    000002B2                       1014 00141$:
                                   1015 ;E:\Dropbox\FAUSTO\SVILUPPI\MSX\CODE\C\MSXgl\projects\soccerlgSCC/soccerlg_s9_b3.c:150: u8 opponentTeamId = (teamId == TEAM_1) ? TEAM_2 : TEAM_1;
    000002B2 DD 7E FB         [19] 1016 	ld	a, -5 (ix)
    000002B5 3D               [ 4] 1017 	dec	a
    000002B6 3E 01            [ 7] 1018 	ld	a, #0x01
    000002B8 28 01            [12] 1019 	jr	Z, 00349$
    000002BA AF               [ 4] 1020 	xor	a, a
    000002BB                       1021 00349$:
    000002BB DD 77 FC         [19] 1022 	ld	-4 (ix), a
    000002BE B7               [ 4] 1023 	or	a, a
    000002BF 28 0B            [12] 1024 	jr	Z, 00169$
    000002C1 DD 36 FE 02      [19] 1025 	ld	-2 (ix), #0x02
    000002C5 DD 36 FF 00      [19] 1026 	ld	-1 (ix), #0
    000002C9 C3rD4r02         [10] 1027 	jp	00170$
    000002CC                       1028 00169$:
    000002CC DD 36 FE 01      [19] 1029 	ld	-2 (ix), #0x01
    000002D0 DD 36 FF 00      [19] 1030 	ld	-1 (ix), #0
    000002D4                       1031 00170$:
    000002D4 DD 7E FE         [19] 1032 	ld	a, -2 (ix)
    000002D7 DD 77 FD         [19] 1033 	ld	-3 (ix), a
                                   1034 ;E:\Dropbox\FAUSTO\SVILUPPI\MSX\CODE\C\MSXgl\projects\soccerlgSCC/soccerlg_s9_b3.c:160: if((i16)g_Ball.X < (i16)FIELD_BOUND_X_LEFT || (i16)g_Ball.X > (i16)FIELD_BOUND_X_RIGHT){
    000002DA 21r02r00         [10] 1035 	ld	hl, #_g_Ball + 2
    000002DD 7E               [ 7] 1036 	ld	a, (hl)
    000002DE DD 77 FE         [19] 1037 	ld	-2 (ix), a
    000002E1 23               [ 6] 1038 	inc	hl
    000002E2 7E               [ 7] 1039 	ld	a, (hl)
    000002E3 DD 77 FF         [19] 1040 	ld	-1 (ix), a
    000002E6 DD 7E FE         [19] 1041 	ld	a, -2 (ix)
    000002E9 D6 0A            [ 7] 1042 	sub	a, #0x0a
    000002EB DD 7E FF         [19] 1043 	ld	a, -1 (ix)
    000002EE 17               [ 4] 1044 	rla
    000002EF 3F               [ 4] 1045 	ccf
    000002F0 1F               [ 4] 1046 	rra
    000002F1 DE 80            [ 7] 1047 	sbc	a, #0x80
    000002F3 38 12            [12] 1048 	jr	C, 00142$
    000002F5 3E EC            [ 7] 1049 	ld	a, #0xec
    000002F7 DD BE FE         [19] 1050 	cp	a, -2 (ix)
    000002FA 3E 00            [ 7] 1051 	ld	a, #0x00
    000002FC DD 9E FF         [19] 1052 	sbc	a, -1 (ix)
    000002FF E2r04r03         [10] 1053 	jp	PO, 00350$
    00000302 EE 80            [ 7] 1054 	xor	a, #0x80
    00000304                       1055 00350$:
    00000304 F2r10r03         [10] 1056 	jp	P, 00143$
    00000307                       1057 00142$:
                                   1058 ;E:\Dropbox\FAUSTO\SVILUPPI\MSX\CODE\C\MSXgl\projects\soccerlgSCC/soccerlg_s9_b3.c:161: BallThrowIn(opponentTeamId); //GP_USER
    00000307 DD 7E FD         [19] 1059 	ld	a, -3 (ix)
    0000030A CDr7Dr00         [17] 1060 	call	_BallThrowIn
                                   1061 ;E:\Dropbox\FAUSTO\SVILUPPI\MSX\CODE\C\MSXgl\projects\soccerlgSCC/soccerlg_s9_b3.c:163: return;
    0000030D C3rDAr03         [10] 1062 	jp	00167$
    00000310                       1063 00143$:
                                   1064 ;E:\Dropbox\FAUSTO\SVILUPPI\MSX\CODE\C\MSXgl\projects\soccerlgSCC/soccerlg_s9_b3.c:167: if((i16)g_Ball.Y < (i16)FIELD_BOUND_Y_TOP){
    00000310 DD 7E F9         [19] 1065 	ld	a, -7 (ix)
    00000313 D6 32            [ 7] 1066 	sub	a, #0x32
    00000315 DD 7E FA         [19] 1067 	ld	a, -6 (ix)
    00000318 17               [ 4] 1068 	rla
    00000319 3F               [ 4] 1069 	ccf
    0000031A 1F               [ 4] 1070 	rra
    0000031B DE 80            [ 7] 1071 	sbc	a, #0x80
    0000031D 30 58            [12] 1072 	jr	NC, 00155$
                                   1073 ;E:\Dropbox\FAUSTO\SVILUPPI\MSX\CODE\C\MSXgl\projects\soccerlgSCC/soccerlg_s9_b3.c:169: if (g_ActiveFieldZone == FIELD_SOUTH_ZONE) return;
    0000031F 3Ar00r00         [13] 1074 	ld	a, (_g_ActiveFieldZone+0)
    00000322 D6 02            [ 7] 1075 	sub	a, #0x02
    00000324 CArDAr03         [10] 1076 	jp	Z,00167$
    00000327 C3r2Ar03         [10] 1077 	jp	00146$
    0000032A                       1078 00146$:
                                   1079 ;E:\Dropbox\FAUSTO\SVILUPPI\MSX\CODE\C\MSXgl\projects\soccerlgSCC/soccerlg_s9_b3.c:173: if((i16)g_Ball.X > (i16)(GOAL_X_MIN - 8) && (i16)g_Ball.X < (i16)(GOAL_X_MAX + 8)){
    0000032A 3E 58            [ 7] 1080 	ld	a, #0x58
    0000032C DD BE FE         [19] 1081 	cp	a, -2 (ix)
    0000032F 3E 00            [ 7] 1082 	ld	a, #0x00
    00000331 DD 9E FF         [19] 1083 	sbc	a, -1 (ix)
    00000334 E2r39r03         [10] 1084 	jp	PO, 00353$
    00000337 EE 80            [ 7] 1085 	xor	a, #0x80
    00000339                       1086 00353$:
    00000339 F2r5Ar03         [10] 1087 	jp	P, 00151$
    0000033C DD 7E FE         [19] 1088 	ld	a, -2 (ix)
    0000033F D6 98            [ 7] 1089 	sub	a, #0x98
    00000341 DD 7E FF         [19] 1090 	ld	a, -1 (ix)
    00000344 17               [ 4] 1091 	rla
    00000345 3F               [ 4] 1092 	ccf
    00000346 1F               [ 4] 1093 	rra
    00000347 DE 80            [ 7] 1094 	sbc	a, #0x80
    00000349 30 0F            [12] 1095 	jr	NC, 00151$
                                   1096 ;E:\Dropbox\FAUSTO\SVILUPPI\MSX\CODE\C\MSXgl\projects\soccerlgSCC/soccerlg_s9_b3.c:174: CallFnc_VOID_P1(8,BallInGoal,TEAM_1); // Team 1 attacked up and scored
    0000034B 3E 01            [ 7] 1097 	ld	a, #0x01
    0000034D F5               [11] 1098 	push	af
    0000034E 33               [ 6] 1099 	inc	sp
    0000034F 11r00r00         [10] 1100 	ld	de, #_BallInGoal
    00000352 3E 08            [ 7] 1101 	ld	a, #0x08
    00000354 CDr00r00         [17] 1102 	call	_CallFnc_VOID_P1
    00000357 C3rDAr03         [10] 1103 	jp	00167$
    0000035A                       1104 00151$:
                                   1105 ;E:\Dropbox\FAUSTO\SVILUPPI\MSX\CODE\C\MSXgl\projects\soccerlgSCC/soccerlg_s9_b3.c:177: if(teamId == TEAM_1){ // Attacker touched last
    0000035A DD 7E FC         [19] 1106 	ld	a, -4 (ix)
    0000035D B7               [ 4] 1107 	or	a, a
    0000035E 28 08            [12] 1108 	jr	Z, 00148$
                                   1109 ;E:\Dropbox\FAUSTO\SVILUPPI\MSX\CODE\C\MSXgl\projects\soccerlgSCC/soccerlg_s9_b3.c:178: GoalKick(TEAM_2);
    00000360 3E 02            [ 7] 1110 	ld	a, #0x02
    00000362 CDr00r00         [17] 1111 	call	_GoalKick
    00000365 C3rDAr03         [10] 1112 	jp	00167$
    00000368                       1113 00148$:
                                   1114 ;E:\Dropbox\FAUSTO\SVILUPPI\MSX\CODE\C\MSXgl\projects\soccerlgSCC/soccerlg_s9_b3.c:181: CallFnc_VOID_P1(7,CornerKick,TEAM_1);
    00000368 3E 01            [ 7] 1115 	ld	a, #0x01
    0000036A F5               [11] 1116 	push	af
    0000036B 33               [ 6] 1117 	inc	sp
    0000036C 11r00r00         [10] 1118 	ld	de, #_CornerKick
    0000036F 3E 07            [ 7] 1119 	ld	a, #0x07
    00000371 CDr00r00         [17] 1120 	call	_CallFnc_VOID_P1
                                   1121 ;E:\Dropbox\FAUSTO\SVILUPPI\MSX\CODE\C\MSXgl\projects\soccerlgSCC/soccerlg_s9_b3.c:184: return;
    00000374 C3rDAr03         [10] 1122 	jp	00167$
    00000377                       1123 00155$:
                                   1124 ;E:\Dropbox\FAUSTO\SVILUPPI\MSX\CODE\C\MSXgl\projects\soccerlgSCC/soccerlg_s9_b3.c:188: if((i16)g_Ball.Y > (i16)FIELD_BOUND_Y_BOTTOM){
    00000377 3E B3            [ 7] 1125 	ld	a, #0xb3
    00000379 DD BE F9         [19] 1126 	cp	a, -7 (ix)
    0000037C 3E 01            [ 7] 1127 	ld	a, #0x01
    0000037E DD 9E FA         [19] 1128 	sbc	a, -6 (ix)
    00000381 E2r86r03         [10] 1129 	jp	PO, 00354$
    00000384 EE 80            [ 7] 1130 	xor	a, #0x80
    00000386                       1131 00354$:
    00000386 F2rDAr03         [10] 1132 	jp	P, 00167$
                                   1133 ;E:\Dropbox\FAUSTO\SVILUPPI\MSX\CODE\C\MSXgl\projects\soccerlgSCC/soccerlg_s9_b3.c:190: if (g_ActiveFieldZone == FIELD_NORTH_ZONE) return;
    00000389 3Ar00r00         [13] 1134 	ld	a, (_g_ActiveFieldZone+0)
    0000038C B7               [ 4] 1135 	or	a, a
    0000038D 28 4B            [12] 1136 	jr	Z, 00167$
                                   1137 ;E:\Dropbox\FAUSTO\SVILUPPI\MSX\CODE\C\MSXgl\projects\soccerlgSCC/soccerlg_s9_b3.c:193: if((i16)g_Ball.X > (i16)(GOAL_X_MIN - 8) && (i16)g_Ball.X < (i16)(GOAL_X_MAX + 8)){
    0000038F 3E 58            [ 7] 1138 	ld	a, #0x58
    00000391 DD BE FE         [19] 1139 	cp	a, -2 (ix)
    00000394 3E 00            [ 7] 1140 	ld	a, #0x00
    00000396 DD 9E FF         [19] 1141 	sbc	a, -1 (ix)
    00000399 E2r9Er03         [10] 1142 	jp	PO, 00355$
    0000039C EE 80            [ 7] 1143 	xor	a, #0x80
    0000039E                       1144 00355$:
    0000039E F2rBFr03         [10] 1145 	jp	P, 00162$
    000003A1 DD 7E FE         [19] 1146 	ld	a, -2 (ix)
    000003A4 D6 98            [ 7] 1147 	sub	a, #0x98
    000003A6 DD 7E FF         [19] 1148 	ld	a, -1 (ix)
    000003A9 17               [ 4] 1149 	rla
    000003AA 3F               [ 4] 1150 	ccf
    000003AB 1F               [ 4] 1151 	rra
    000003AC DE 80            [ 7] 1152 	sbc	a, #0x80
    000003AE 30 0F            [12] 1153 	jr	NC, 00162$
                                   1154 ;E:\Dropbox\FAUSTO\SVILUPPI\MSX\CODE\C\MSXgl\projects\soccerlgSCC/soccerlg_s9_b3.c:194: CallFnc_VOID_P1(8,BallInGoal,TEAM_2); // Team 2 attacked down and scored
    000003B0 3E 02            [ 7] 1155 	ld	a, #0x02
    000003B2 F5               [11] 1156 	push	af
    000003B3 33               [ 6] 1157 	inc	sp
    000003B4 11r00r00         [10] 1158 	ld	de, #_BallInGoal
    000003B7 3E 08            [ 7] 1159 	ld	a, #0x08
    000003B9 CDr00r00         [17] 1160 	call	_CallFnc_VOID_P1
    000003BC C3rDAr03         [10] 1161 	jp	00163$
    000003BF                       1162 00162$:
                                   1163 ;E:\Dropbox\FAUSTO\SVILUPPI\MSX\CODE\C\MSXgl\projects\soccerlgSCC/soccerlg_s9_b3.c:197: if(teamId == TEAM_2){ // Attacker touched last (Team 2 attacking down)
    000003BF DD 7E FB         [19] 1164 	ld	a, -5 (ix)
    000003C2 D6 02            [ 7] 1165 	sub	a, #0x02
    000003C4 20 08            [12] 1166 	jr	NZ, 00159$
                                   1167 ;E:\Dropbox\FAUSTO\SVILUPPI\MSX\CODE\C\MSXgl\projects\soccerlgSCC/soccerlg_s9_b3.c:198: GoalKick(TEAM_1);
    000003C6 3E 01            [ 7] 1168 	ld	a, #0x01
    000003C8 CDr00r00         [17] 1169 	call	_GoalKick
    000003CB C3rDAr03         [10] 1170 	jp	00163$
    000003CE                       1171 00159$:
                                   1172 ;E:\Dropbox\FAUSTO\SVILUPPI\MSX\CODE\C\MSXgl\projects\soccerlgSCC/soccerlg_s9_b3.c:201: CallFnc_VOID_P1(7,CornerKick,TEAM_2);
    000003CE 3E 02            [ 7] 1173 	ld	a, #0x02
    000003D0 F5               [11] 1174 	push	af
    000003D1 33               [ 6] 1175 	inc	sp
    000003D2 11r00r00         [10] 1176 	ld	de, #_CornerKick
    000003D5 3E 07            [ 7] 1177 	ld	a, #0x07
    000003D7 CDr00r00         [17] 1178 	call	_CallFnc_VOID_P1
    000003DA                       1179 00163$:
                                   1180 ;E:\Dropbox\FAUSTO\SVILUPPI\MSX\CODE\C\MSXgl\projects\soccerlgSCC/soccerlg_s9_b3.c:204: return;
    000003DA                       1181 00167$:
                                   1182 ;E:\Dropbox\FAUSTO\SVILUPPI\MSX\CODE\C\MSXgl\projects\soccerlgSCC/soccerlg_s9_b3.c:206: }
    000003DA DD F9            [10] 1183 	ld	sp, ix
    000003DC DD E1            [14] 1184 	pop	ix
    000003DE C9               [10] 1185 	ret
                                   1186 ;E:\Dropbox\FAUSTO\SVILUPPI\MSX\CODE\C\MSXgl\projects\soccerlgSCC/soccerlg_s9_b3.c:208: void TickGoalkeeperAnimation() {
                                   1187 ;	---------------------------------
                                   1188 ; Function TickGoalkeeperAnimation
                                   1189 ; ---------------------------------
    000003DF                       1190 _TickGoalkeeperAnimation::
    000003DF DD E5            [15] 1191 	push	ix
    000003E1 DD 21 00 00      [14] 1192 	ld	ix,#0
    000003E5 DD 39            [15] 1193 	add	ix,sp
    000003E7 21 F4 FF         [10] 1194 	ld	hl, #-12
    000003EA 39               [11] 1195 	add	hl, sp
    000003EB F9               [ 6] 1196 	ld	sp, hl
                                   1197 ;E:\Dropbox\FAUSTO\SVILUPPI\MSX\CODE\C\MSXgl\projects\soccerlgSCC/soccerlg_s9_b3.c:209: if (g_MatchStatus != MATCH_BALL_ON_GOALKEEPER) return;
    000003EC 3Ar00r00         [13] 1198 	ld	a, (_g_MatchStatus+0)
    000003EF D6 0D            [ 7] 1199 	sub	a, #0x0d
    000003F1 C2rFEr0D         [10] 1200 	jp	NZ,00209$
                                   1201 ;E:\Dropbox\FAUSTO\SVILUPPI\MSX\CODE\C\MSXgl\projects\soccerlgSCC/soccerlg_s9_b3.c:210: if (g_GkAnimPlayerId == NO_VALUE) return;
    000003F4 3Ar00r00         [13] 1202 	ld	a, (_g_GkAnimPlayerId+0)
    000003F7 3C               [ 4] 1203 	inc	a
    000003F8 CArFEr0D         [10] 1204 	jp	Z,00209$
    000003FB C3rFEr03         [10] 1205 	jp	00104$
    000003FE                       1206 00104$:
                                   1207 ;E:\Dropbox\FAUSTO\SVILUPPI\MSX\CODE\C\MSXgl\projects\soccerlgSCC/soccerlg_s9_b3.c:213: g_Players[g_GkAnimPlayerId].Status = PLAYER_STATUS_POSITIONED;
    000003FE ED 4Br00r00      [20] 1208 	ld	bc, (_g_GkAnimPlayerId)
    00000402 06 00            [ 7] 1209 	ld	b, #0x00
    00000404 69               [ 4] 1210 	ld	l, c
    00000405 60               [ 4] 1211 	ld	h, b
    00000406 29               [11] 1212 	add	hl, hl
    00000407 29               [11] 1213 	add	hl, hl
    00000408 09               [11] 1214 	add	hl, bc
    00000409 29               [11] 1215 	add	hl, hl
    0000040A 29               [11] 1216 	add	hl, hl
    0000040B 09               [11] 1217 	add	hl, bc
    0000040C DD 75 FE         [19] 1218 	ld	-2 (ix), l
    0000040F DD 74 FF         [19] 1219 	ld	-1 (ix), h
    00000412 DD 7E FE         [19] 1220 	ld	a, -2 (ix)
    00000415 C6r00            [ 7] 1221 	add	a, #<(_g_Players)
    00000417 DD 77 FC         [19] 1222 	ld	-4 (ix), a
    0000041A DD 7E FF         [19] 1223 	ld	a, -1 (ix)
    0000041D CEs00            [ 7] 1224 	adc	a, #>(_g_Players)
    0000041F DD 77 FD         [19] 1225 	ld	-3 (ix), a
    00000422 DD 7E FC         [19] 1226 	ld	a, -4 (ix)
    00000425 C6 12            [ 7] 1227 	add	a, #0x12
    00000427 DD 77 FE         [19] 1228 	ld	-2 (ix), a
    0000042A DD 7E FD         [19] 1229 	ld	a, -3 (ix)
    0000042D CE 00            [ 7] 1230 	adc	a, #0x00
    0000042F DD 77 FF         [19] 1231 	ld	-1 (ix), a
    00000432 DD 6E FE         [19] 1232 	ld	l, -2 (ix)
    00000435 DD 66 FF         [19] 1233 	ld	h, -1 (ix)
    00000438 36 04            [10] 1234 	ld	(hl), #0x04
    0000043A 23               [ 6] 1235 	inc	hl
    0000043B 36 00            [10] 1236 	ld	(hl), #0x00
                                   1237 ;E:\Dropbox\FAUSTO\SVILUPPI\MSX\CODE\C\MSXgl\projects\soccerlgSCC/soccerlg_s9_b3.c:215: g_GkAnimTimer++;
    0000043D 21r00r00         [10] 1238 	ld	hl, #_g_GkAnimTimer
    00000440 34               [11] 1239 	inc	(hl)
                                   1240 ;E:\Dropbox\FAUSTO\SVILUPPI\MSX\CODE\C\MSXgl\projects\soccerlgSCC/soccerlg_s9_b3.c:217: u8 kickTime = 60; // 1 Second delay for all (was 30)
    00000441 DD 36 FF 3C      [19] 1241 	ld	-1 (ix), #0x3c
                                   1242 ;E:\Dropbox\FAUSTO\SVILUPPI\MSX\CODE\C\MSXgl\projects\soccerlgSCC/soccerlg_s9_b3.c:218: if (g_GkIsGroundKick) kickTime = 6; // Immediate kick for ground kicks
    00000445 3Ar00r00         [13] 1243 	ld	a, (_g_GkIsGroundKick+0)
    00000448 B7               [ 4] 1244 	or	a, a
    00000449 28 04            [12] 1245 	jr	Z, 00106$
    0000044B DD 36 FF 06      [19] 1246 	ld	-1 (ix), #0x06
    0000044F                       1247 00106$:
                                   1248 ;E:\Dropbox\FAUSTO\SVILUPPI\MSX\CODE\C\MSXgl\projects\soccerlgSCC/soccerlg_s9_b3.c:221: if (g_GkAnimTimer < kickTime) {
    0000044F 3Ar00r00         [13] 1249 	ld	a, (_g_GkAnimTimer+0)
    00000452 DD 96 FF         [19] 1250 	sub	a, -1 (ix)
    00000455 3E 00            [ 7] 1251 	ld	a, #0x00
    00000457 17               [ 4] 1252 	rla
    00000458 DD 77 FE         [19] 1253 	ld	-2 (ix), a
    0000045B B7               [ 4] 1254 	or	a, a
    0000045C CAr5Br06         [10] 1255 	jp	Z, 00205$
                                   1256 ;E:\Dropbox\FAUSTO\SVILUPPI\MSX\CODE\C\MSXgl\projects\soccerlgSCC/soccerlg_s9_b3.c:222: if (g_GkAnimTimer < 30 && (g_GkAnimTimer % 2) == 0 && g_GkRecoilY != 0) { // Faster movement (every 2 frames)
    0000045F 3Ar00r00         [13] 1257 	ld	a, (_g_GkAnimTimer+0)
    00000462 D6 1E            [ 7] 1258 	sub	a, #0x1e
    00000464 D2rD3r05         [10] 1259 	jp	NC, 00112$
    00000467 21r00r00         [10] 1260 	ld	hl, #_g_GkAnimTimer
    0000046A CB 46            [12] 1261 	bit	0, (hl)
    0000046C C2rD3r05         [10] 1262 	jp	NZ,00112$
    0000046F 3Ar00r00         [13] 1263 	ld	a, (_g_GkRecoilY+0)
    00000472 B7               [ 4] 1264 	or	a, a
    00000473 CArD3r05         [10] 1265 	jp	Z, 00112$
                                   1266 ;E:\Dropbox\FAUSTO\SVILUPPI\MSX\CODE\C\MSXgl\projects\soccerlgSCC/soccerlg_s9_b3.c:223: g_Players[g_GkAnimPlayerId].Y += g_GkRecoilY;
    00000476 ED 4Br00r00      [20] 1267 	ld	bc, (_g_GkAnimPlayerId)
    0000047A 06 00            [ 7] 1268 	ld	b, #0x00
    0000047C 69               [ 4] 1269 	ld	l, c
    0000047D 60               [ 4] 1270 	ld	h, b
    0000047E 29               [11] 1271 	add	hl, hl
    0000047F 29               [11] 1272 	add	hl, hl
    00000480 09               [11] 1273 	add	hl, bc
    00000481 29               [11] 1274 	add	hl, hl
    00000482 29               [11] 1275 	add	hl, hl
    00000483 09               [11] 1276 	add	hl, bc
    00000484 DD 75 FE         [19] 1277 	ld	-2 (ix), l
    00000487 DD 74 FF         [19] 1278 	ld	-1 (ix), h
    0000048A DD 7E FE         [19] 1279 	ld	a, -2 (ix)
    0000048D C6r00            [ 7] 1280 	add	a, #<(_g_Players)
    0000048F DD 77 F8         [19] 1281 	ld	-8 (ix), a
    00000492 DD 7E FF         [19] 1282 	ld	a, -1 (ix)
    00000495 CEs00            [ 7] 1283 	adc	a, #>(_g_Players)
    00000497 DD 77 F9         [19] 1284 	ld	-7 (ix), a
    0000049A DD 6E F8         [19] 1285 	ld	l, -8 (ix)
    0000049D DD 66 F9         [19] 1286 	ld	h, -7 (ix)
    000004A0 7E               [ 7] 1287 	ld	a, (hl)
    000004A1 DD 77 FC         [19] 1288 	ld	-4 (ix), a
    000004A4 23               [ 6] 1289 	inc	hl
    000004A5 7E               [ 7] 1290 	ld	a, (hl)
    000004A6 DD 77 FD         [19] 1291 	ld	-3 (ix), a
    000004A9 3Ar00r00         [13] 1292 	ld	a, (_g_GkRecoilY+0)
    000004AC DD 77 FE         [19] 1293 	ld	-2 (ix), a
    000004AF 07               [ 4] 1294 	rlca
    000004B0 9F               [ 4] 1295 	sbc	a, a
    000004B1 DD 77 FF         [19] 1296 	ld	-1 (ix), a
    000004B4 DD 7E FC         [19] 1297 	ld	a, -4 (ix)
    000004B7 DD 77 FA         [19] 1298 	ld	-6 (ix), a
    000004BA DD 7E FD         [19] 1299 	ld	a, -3 (ix)
    000004BD DD 77 FB         [19] 1300 	ld	-5 (ix), a
    000004C0 DD 7E FE         [19] 1301 	ld	a, -2 (ix)
    000004C3 DD 77 FC         [19] 1302 	ld	-4 (ix), a
    000004C6 DD 7E FF         [19] 1303 	ld	a, -1 (ix)
    000004C9 DD 77 FD         [19] 1304 	ld	-3 (ix), a
    000004CC DD 7E FA         [19] 1305 	ld	a, -6 (ix)
    000004CF DD 86 FC         [19] 1306 	add	a, -4 (ix)
    000004D2 DD 77 FE         [19] 1307 	ld	-2 (ix), a
    000004D5 DD 7E FB         [19] 1308 	ld	a, -5 (ix)
    000004D8 DD 8E FD         [19] 1309 	adc	a, -3 (ix)
    000004DB DD 77 FF         [19] 1310 	ld	-1 (ix), a
    000004DE DD 6E F8         [19] 1311 	ld	l, -8 (ix)
    000004E1 DD 66 F9         [19] 1312 	ld	h, -7 (ix)
    000004E4 DD 7E FE         [19] 1313 	ld	a, -2 (ix)
    000004E7 77               [ 7] 1314 	ld	(hl), a
    000004E8 23               [ 6] 1315 	inc	hl
    000004E9 DD 7E FF         [19] 1316 	ld	a, -1 (ix)
    000004EC 77               [ 7] 1317 	ld	(hl), a
                                   1318 ;E:\Dropbox\FAUSTO\SVILUPPI\MSX\CODE\C\MSXgl\projects\soccerlgSCC/soccerlg_s9_b3.c:226: if(g_Players[g_GkAnimPlayerId].Y < FIELD_BOUND_Y_TOP) g_Players[g_GkAnimPlayerId].Y = FIELD_BOUND_Y_TOP;
    000004ED ED 4Br00r00      [20] 1319 	ld	bc, (_g_GkAnimPlayerId)
    000004F1 06 00            [ 7] 1320 	ld	b, #0x00
    000004F3 69               [ 4] 1321 	ld	l, c
    000004F4 60               [ 4] 1322 	ld	h, b
    000004F5 29               [11] 1323 	add	hl, hl
    000004F6 29               [11] 1324 	add	hl, hl
    000004F7 09               [11] 1325 	add	hl, bc
    000004F8 29               [11] 1326 	add	hl, hl
    000004F9 29               [11] 1327 	add	hl, hl
    000004FA 09               [11] 1328 	add	hl, bc
    000004FB DD 75 FE         [19] 1329 	ld	-2 (ix), l
    000004FE DD 74 FF         [19] 1330 	ld	-1 (ix), h
    00000501 3Er00            [ 7] 1331 	ld	a, #<(_g_Players)
    00000503 DD 86 FE         [19] 1332 	add	a, -2 (ix)
    00000506 DD 77 FC         [19] 1333 	ld	-4 (ix), a
    00000509 3Es00            [ 7] 1334 	ld	a, #>(_g_Players)
    0000050B DD 8E FF         [19] 1335 	adc	a, -1 (ix)
    0000050E DD 77 FD         [19] 1336 	ld	-3 (ix), a
    00000511 DD 6E FC         [19] 1337 	ld	l, -4 (ix)
    00000514 DD 66 FD         [19] 1338 	ld	h, -3 (ix)
    00000517 7E               [ 7] 1339 	ld	a, (hl)
    00000518 DD 77 FE         [19] 1340 	ld	-2 (ix), a
    0000051B 23               [ 6] 1341 	inc	hl
    0000051C 7E               [ 7] 1342 	ld	a, (hl)
    0000051D DD 77 FF         [19] 1343 	ld	-1 (ix), a
    00000520 DD 7E FE         [19] 1344 	ld	a, -2 (ix)
    00000523 D6 32            [ 7] 1345 	sub	a, #0x32
    00000525 DD 7E FF         [19] 1346 	ld	a, -1 (ix)
    00000528 DE 00            [ 7] 1347 	sbc	a, #0x00
    0000052A 30 0B            [12] 1348 	jr	NC, 00108$
    0000052C DD 6E FC         [19] 1349 	ld	l, -4 (ix)
    0000052F DD 66 FD         [19] 1350 	ld	h, -3 (ix)
    00000532 36 32            [10] 1351 	ld	(hl), #0x32
    00000534 23               [ 6] 1352 	inc	hl
    00000535 36 00            [10] 1353 	ld	(hl), #0x00
    00000537                       1354 00108$:
                                   1355 ;E:\Dropbox\FAUSTO\SVILUPPI\MSX\CODE\C\MSXgl\projects\soccerlgSCC/soccerlg_s9_b3.c:227: if(g_Players[g_GkAnimPlayerId].Y > FIELD_BOUND_Y_BOTTOM) g_Players[g_GkAnimPlayerId].Y = FIELD_BOUND_Y_BOTTOM;
    00000537 ED 4Br00r00      [20] 1356 	ld	bc, (_g_GkAnimPlayerId)
    0000053B 06 00            [ 7] 1357 	ld	b, #0x00
    0000053D 69               [ 4] 1358 	ld	l, c
    0000053E 60               [ 4] 1359 	ld	h, b
    0000053F 29               [11] 1360 	add	hl, hl
    00000540 29               [11] 1361 	add	hl, hl
    00000541 09               [11] 1362 	add	hl, bc
    00000542 29               [11] 1363 	add	hl, hl
    00000543 29               [11] 1364 	add	hl, hl
    00000544 09               [11] 1365 	add	hl, bc
    00000545 DD 75 FE         [19] 1366 	ld	-2 (ix), l
    00000548 DD 74 FF         [19] 1367 	ld	-1 (ix), h
    0000054B 3Er00            [ 7] 1368 	ld	a, #<(_g_Players)
    0000054D DD 86 FE         [19] 1369 	add	a, -2 (ix)
    00000550 DD 77 FC         [19] 1370 	ld	-4 (ix), a
    00000553 3Es00            [ 7] 1371 	ld	a, #>(_g_Players)
    00000555 DD 8E FF         [19] 1372 	adc	a, -1 (ix)
    00000558 DD 77 FD         [19] 1373 	ld	-3 (ix), a
    0000055B DD 6E FC         [19] 1374 	ld	l, -4 (ix)
    0000055E DD 66 FD         [19] 1375 	ld	h, -3 (ix)
    00000561 7E               [ 7] 1376 	ld	a, (hl)
    00000562 DD 77 FE         [19] 1377 	ld	-2 (ix), a
    00000565 23               [ 6] 1378 	inc	hl
    00000566 7E               [ 7] 1379 	ld	a, (hl)
    00000567 DD 77 FF         [19] 1380 	ld	-1 (ix), a
    0000056A 3E B3            [ 7] 1381 	ld	a, #0xb3
    0000056C DD BE FE         [19] 1382 	cp	a, -2 (ix)
    0000056F 3E 01            [ 7] 1383 	ld	a, #0x01
    00000571 DD 9E FF         [19] 1384 	sbc	a, -1 (ix)
    00000574 30 0B            [12] 1385 	jr	NC, 00110$
    00000576 DD 6E FC         [19] 1386 	ld	l, -4 (ix)
    00000579 DD 66 FD         [19] 1387 	ld	h, -3 (ix)
    0000057C 36 B3            [10] 1388 	ld	(hl), #0xb3
    0000057E 23               [ 6] 1389 	inc	hl
    0000057F 36 01            [10] 1390 	ld	(hl), #0x01
    00000581                       1391 00110$:
                                   1392 ;E:\Dropbox\FAUSTO\SVILUPPI\MSX\CODE\C\MSXgl\projects\soccerlgSCC/soccerlg_s9_b3.c:229: g_Players[g_GkAnimPlayerId].TargetY = g_Players[g_GkAnimPlayerId].Y; // Sync target
    00000581 ED 4Br00r00      [20] 1393 	ld	bc, (_g_GkAnimPlayerId)
    00000585 06 00            [ 7] 1394 	ld	b, #0x00
    00000587 69               [ 4] 1395 	ld	l, c
    00000588 60               [ 4] 1396 	ld	h, b
    00000589 29               [11] 1397 	add	hl, hl
    0000058A 29               [11] 1398 	add	hl, hl
    0000058B 09               [11] 1399 	add	hl, bc
    0000058C 29               [11] 1400 	add	hl, hl
    0000058D 29               [11] 1401 	add	hl, hl
    0000058E 09               [11] 1402 	add	hl, bc
    0000058F DD 75 FC         [19] 1403 	ld	-4 (ix), l
    00000592 DD 74 FD         [19] 1404 	ld	-3 (ix), h
    00000595 3Er00            [ 7] 1405 	ld	a, #<(_g_Players)
    00000597 DD 86 FC         [19] 1406 	add	a, -4 (ix)
    0000059A DD 77 FE         [19] 1407 	ld	-2 (ix), a
    0000059D 3Es00            [ 7] 1408 	ld	a, #>(_g_Players)
    0000059F DD 8E FD         [19] 1409 	adc	a, -3 (ix)
    000005A2 DD 77 FF         [19] 1410 	ld	-1 (ix), a
    000005A5 DD 7E FE         [19] 1411 	ld	a, -2 (ix)
    000005A8 C6 0E            [ 7] 1412 	add	a, #0x0e
    000005AA DD 77 FC         [19] 1413 	ld	-4 (ix), a
    000005AD DD 7E FF         [19] 1414 	ld	a, -1 (ix)
    000005B0 CE 00            [ 7] 1415 	adc	a, #0x00
    000005B2 DD 77 FD         [19] 1416 	ld	-3 (ix), a
    000005B5 DD 6E FE         [19] 1417 	ld	l, -2 (ix)
    000005B8 DD 66 FF         [19] 1418 	ld	h, -1 (ix)
    000005BB 7E               [ 7] 1419 	ld	a, (hl)
    000005BC DD 77 FE         [19] 1420 	ld	-2 (ix), a
    000005BF 23               [ 6] 1421 	inc	hl
    000005C0 7E               [ 7] 1422 	ld	a, (hl)
    000005C1 DD 77 FF         [19] 1423 	ld	-1 (ix), a
    000005C4 DD 6E FC         [19] 1424 	ld	l, -4 (ix)
    000005C7 DD 66 FD         [19] 1425 	ld	h, -3 (ix)
    000005CA DD 7E FE         [19] 1426 	ld	a, -2 (ix)
    000005CD 77               [ 7] 1427 	ld	(hl), a
    000005CE 23               [ 6] 1428 	inc	hl
    000005CF DD 7E FF         [19] 1429 	ld	a, -1 (ix)
    000005D2 77               [ 7] 1430 	ld	(hl), a
    000005D3                       1431 00112$:
                                   1432 ;E:\Dropbox\FAUSTO\SVILUPPI\MSX\CODE\C\MSXgl\projects\soccerlgSCC/soccerlg_s9_b3.c:232: if (g_Players[g_GkAnimPlayerId].TeamId == TEAM_1) {
    000005D3 ED 4Br00r00      [20] 1433 	ld	bc, (_g_GkAnimPlayerId)
    000005D7 06 00            [ 7] 1434 	ld	b, #0x00
    000005D9 69               [ 4] 1435 	ld	l, c
    000005DA 60               [ 4] 1436 	ld	h, b
    000005DB 29               [11] 1437 	add	hl, hl
    000005DC 29               [11] 1438 	add	hl, hl
    000005DD 09               [11] 1439 	add	hl, bc
    000005DE 29               [11] 1440 	add	hl, hl
    000005DF 29               [11] 1441 	add	hl, hl
    000005E0 09               [11] 1442 	add	hl, bc
    000005E1 DD 75 FE         [19] 1443 	ld	-2 (ix), l
    000005E4 DD 74 FF         [19] 1444 	ld	-1 (ix), h
    000005E7 DD 7E FE         [19] 1445 	ld	a, -2 (ix)
    000005EA C6r00            [ 7] 1446 	add	a, #<(_g_Players)
    000005EC DD 77 FB         [19] 1447 	ld	-5 (ix), a
    000005EF DD 7E FF         [19] 1448 	ld	a, -1 (ix)
    000005F2 CEs00            [ 7] 1449 	adc	a, #>(_g_Players)
    000005F4 DD 77 FC         [19] 1450 	ld	-4 (ix), a
    000005F7 DD 7E FB         [19] 1451 	ld	a, -5 (ix)
    000005FA DD 77 FE         [19] 1452 	ld	-2 (ix), a
    000005FD DD 7E FC         [19] 1453 	ld	a, -4 (ix)
    00000600 DD 77 FF         [19] 1454 	ld	-1 (ix), a
    00000603 DD 6E FE         [19] 1455 	ld	l, -2 (ix)
    00000606 DD 66 FF         [19] 1456 	ld	h, -1 (ix)
    00000609 11 09 00         [10] 1457 	ld	de, #0x0009
    0000060C 19               [11] 1458 	add	hl, de
    0000060D 7E               [ 7] 1459 	ld	a, (hl)
    0000060E DD 77 FD         [19] 1460 	ld	-3 (ix), a
                                   1461 ;E:\Dropbox\FAUSTO\SVILUPPI\MSX\CODE\C\MSXgl\projects\soccerlgSCC/soccerlg_s9_b3.c:233: if (g_GkIsGroundKick) g_Players[g_GkAnimPlayerId].PatternId = PLAYER_POSE_BACK;
    00000611 DD 7E FB         [19] 1462 	ld	a, -5 (ix)
    00000614 C6 08            [ 7] 1463 	add	a, #0x08
    00000616 DD 77 FE         [19] 1464 	ld	-2 (ix), a
    00000619 DD 7E FC         [19] 1465 	ld	a, -4 (ix)
    0000061C CE 00            [ 7] 1466 	adc	a, #0x00
    0000061E DD 77 FF         [19] 1467 	ld	-1 (ix), a
                                   1468 ;E:\Dropbox\FAUSTO\SVILUPPI\MSX\CODE\C\MSXgl\projects\soccerlgSCC/soccerlg_s9_b3.c:232: if (g_Players[g_GkAnimPlayerId].TeamId == TEAM_1) {
    00000621 DD 7E FD         [19] 1469 	ld	a, -3 (ix)
    00000624 3D               [ 4] 1470 	dec	a
    00000625 20 1C            [12] 1471 	jr	NZ, 00119$
                                   1472 ;E:\Dropbox\FAUSTO\SVILUPPI\MSX\CODE\C\MSXgl\projects\soccerlgSCC/soccerlg_s9_b3.c:233: if (g_GkIsGroundKick) g_Players[g_GkAnimPlayerId].PatternId = PLAYER_POSE_BACK;
    00000627 3Ar00r00         [13] 1473 	ld	a, (_g_GkIsGroundKick+0)
    0000062A B7               [ 4] 1474 	or	a, a
    0000062B 28 0B            [12] 1475 	jr	Z, 00116$
    0000062D DD 6E FE         [19] 1476 	ld	l, -2 (ix)
    00000630 DD 66 FF         [19] 1477 	ld	h, -1 (ix)
    00000633 36 11            [10] 1478 	ld	(hl), #0x11
    00000635 C3r4Br06         [10] 1479 	jp	00120$
    00000638                       1480 00116$:
                                   1481 ;E:\Dropbox\FAUSTO\SVILUPPI\MSX\CODE\C\MSXgl\projects\soccerlgSCC/soccerlg_s9_b3.c:234: else g_Players[g_GkAnimPlayerId].PatternId = PLAYER_POSE_TEAM1_GK_BALL_FRONT;
    00000638 DD 6E FE         [19] 1482 	ld	l, -2 (ix)
    0000063B DD 66 FF         [19] 1483 	ld	h, -1 (ix)
    0000063E 36 9E            [10] 1484 	ld	(hl), #0x9e
    00000640 C3r4Br06         [10] 1485 	jp	00120$
    00000643                       1486 00119$:
                                   1487 ;E:\Dropbox\FAUSTO\SVILUPPI\MSX\CODE\C\MSXgl\projects\soccerlgSCC/soccerlg_s9_b3.c:236: else g_Players[g_GkAnimPlayerId].PatternId = PLAYER_POSE_FRONT; // Team 2 GK plays like a player (feet)
    00000643 DD 6E FE         [19] 1488 	ld	l, -2 (ix)
    00000646 DD 66 FF         [19] 1489 	ld	h, -1 (ix)
    00000649 36 10            [10] 1490 	ld	(hl), #0x10
    0000064B                       1491 00120$:
                                   1492 ;E:\Dropbox\FAUSTO\SVILUPPI\MSX\CODE\C\MSXgl\projects\soccerlgSCC/soccerlg_s9_b3.c:238: CallFnc_VOID_P1(4, PutBallOnPlayerFeet,g_GkAnimPlayerId);
    0000064B 3Ar00r00         [13] 1493 	ld	a, (_g_GkAnimPlayerId+0)
    0000064E F5               [11] 1494 	push	af
    0000064F 33               [ 6] 1495 	inc	sp
    00000650 11r00r00         [10] 1496 	ld	de, #_PutBallOnPlayerFeet
    00000653 3E 04            [ 7] 1497 	ld	a, #0x04
    00000655 CDr00r00         [17] 1498 	call	_CallFnc_VOID_P1
    00000658 C3rFEr0D         [10] 1499 	jp	00209$
    0000065B                       1500 00205$:
                                   1501 ;E:\Dropbox\FAUSTO\SVILUPPI\MSX\CODE\C\MSXgl\projects\soccerlgSCC/soccerlg_s9_b3.c:240: } else if (g_GkAnimTimer >= kickTime) {
    0000065B DD 4E FE         [19] 1502 	ld	c, -2 (ix)
    0000065E CB 41            [ 8] 1503 	bit	0, c
    00000660 C2rFEr0D         [10] 1504 	jp	NZ, 00209$
                                   1505 ;E:\Dropbox\FAUSTO\SVILUPPI\MSX\CODE\C\MSXgl\projects\soccerlgSCC/soccerlg_s9_b3.c:243: bool safeToKick = false;
    00000663 DD 36 F4 00      [19] 1506 	ld	-12 (ix), #0x00
                                   1507 ;E:\Dropbox\FAUSTO\SVILUPPI\MSX\CODE\C\MSXgl\projects\soccerlgSCC/soccerlg_s9_b3.c:246: if (g_GkAnimTimer > (kickTime + 90)) safeToKick = true; // Wait up to 1.5 seconds for team to move up
    00000667 DD 7E FF         [19] 1508 	ld	a, -1 (ix)
    0000066A DD 77 FE         [19] 1509 	ld	-2 (ix), a
    0000066D DD 36 FF 00      [19] 1510 	ld	-1 (ix), #0x00
    00000671 DD 7E FE         [19] 1511 	ld	a, -2 (ix)
    00000674 C6 5A            [ 7] 1512 	add	a, #0x5a
    00000676 DD 77 FC         [19] 1513 	ld	-4 (ix), a
    00000679 DD 7E FF         [19] 1514 	ld	a, -1 (ix)
    0000067C CE 00            [ 7] 1515 	adc	a, #0x00
    0000067E DD 77 FD         [19] 1516 	ld	-3 (ix), a
    00000681 3Ar00r00         [13] 1517 	ld	a, (_g_GkAnimTimer+0)
    00000684 DD 77 FE         [19] 1518 	ld	-2 (ix), a
    00000687 DD 36 FF 00      [19] 1519 	ld	-1 (ix), #0x00
    0000068B DD 7E FC         [19] 1520 	ld	a, -4 (ix)
    0000068E DD 96 FE         [19] 1521 	sub	a, -2 (ix)
    00000691 DD 7E FD         [19] 1522 	ld	a, -3 (ix)
    00000694 DD 9E FF         [19] 1523 	sbc	a, -1 (ix)
    00000697 E2r9Cr06         [10] 1524 	jp	PO, 00482$
    0000069A EE 80            [ 7] 1525 	xor	a, #0x80
    0000069C                       1526 00482$:
    0000069C F2rA3r06         [10] 1527 	jp	P, 00122$
    0000069F DD 36 F4 01      [19] 1528 	ld	-12 (ix), #0x01
    000006A3                       1529 00122$:
                                   1530 ;E:\Dropbox\FAUSTO\SVILUPPI\MSX\CODE\C\MSXgl\projects\soccerlgSCC/soccerlg_s9_b3.c:249: u8 targetId = GetBestPassTarget(g_GkAnimPlayerId); 
    000006A3 3Ar00r00         [13] 1531 	ld	a, (_g_GkAnimPlayerId+0)
    000006A6 CDr36r0E         [17] 1532 	call	_GetBestPassTarget
    000006A9 DD 77 F5         [19] 1533 	ld	-11 (ix), a
                                   1534 ;E:\Dropbox\FAUSTO\SVILUPPI\MSX\CODE\C\MSXgl\projects\soccerlgSCC/soccerlg_s9_b3.c:250: if (!safeToKick && targetId != NO_VALUE) {
    000006AC DD 7E F4         [19] 1535 	ld	a, -12 (ix)
    000006AF B7               [ 4] 1536 	or	a, a
    000006B0 C2r69r08         [10] 1537 	jp	NZ, 00126$
    000006B3 DD 7E F5         [19] 1538 	ld	a, -11 (ix)
    000006B6 3C               [ 4] 1539 	inc	a
    000006B7 CAr69r08         [10] 1540 	jp	Z,00126$
                                   1541 ;E:\Dropbox\FAUSTO\SVILUPPI\MSX\CODE\C\MSXgl\projects\soccerlgSCC/soccerlg_s9_b3.c:251: u16 dist = (u16)(Math_Abs32((i16)g_Players[targetId].X - (i16)g_Players[g_GkAnimPlayerId].X) + 
    000006BA DD 4E F5         [19] 1542 	ld	c, -11 (ix)
    000006BD 06 00            [ 7] 1543 	ld	b, #0x00
    000006BF 69               [ 4] 1544 	ld	l, c
    000006C0 60               [ 4] 1545 	ld	h, b
    000006C1 29               [11] 1546 	add	hl, hl
    000006C2 29               [11] 1547 	add	hl, hl
    000006C3 09               [11] 1548 	add	hl, bc
    000006C4 29               [11] 1549 	add	hl, hl
    000006C5 29               [11] 1550 	add	hl, hl
    000006C6 09               [11] 1551 	add	hl, bc
    000006C7 DD 75 FC         [19] 1552 	ld	-4 (ix), l
    000006CA DD 74 FD         [19] 1553 	ld	-3 (ix), h
    000006CD 3Er00            [ 7] 1554 	ld	a, #<(_g_Players)
    000006CF DD 86 FC         [19] 1555 	add	a, -4 (ix)
    000006D2 DD 77 FE         [19] 1556 	ld	-2 (ix), a
    000006D5 3Es00            [ 7] 1557 	ld	a, #>(_g_Players)
    000006D7 DD 8E FD         [19] 1558 	adc	a, -3 (ix)
    000006DA DD 77 FF         [19] 1559 	ld	-1 (ix), a
    000006DD DD 7E FE         [19] 1560 	ld	a, -2 (ix)
    000006E0 DD 77 FC         [19] 1561 	ld	-4 (ix), a
    000006E3 DD 7E FF         [19] 1562 	ld	a, -1 (ix)
    000006E6 DD 77 FD         [19] 1563 	ld	-3 (ix), a
    000006E9 DD 6E FC         [19] 1564 	ld	l, -4 (ix)
    000006EC DD 66 FD         [19] 1565 	ld	h, -3 (ix)
    000006EF 23               [ 6] 1566 	inc	hl
    000006F0 23               [ 6] 1567 	inc	hl
    000006F1 7E               [ 7] 1568 	ld	a, (hl)
    000006F2 DD 77 FC         [19] 1569 	ld	-4 (ix), a
    000006F5 23               [ 6] 1570 	inc	hl
    000006F6 7E               [ 7] 1571 	ld	a, (hl)
    000006F7 DD 77 FD         [19] 1572 	ld	-3 (ix), a
    000006FA DD 7E FC         [19] 1573 	ld	a, -4 (ix)
    000006FD DD 77 F8         [19] 1574 	ld	-8 (ix), a
    00000700 DD 7E FD         [19] 1575 	ld	a, -3 (ix)
    00000703 DD 77 F9         [19] 1576 	ld	-7 (ix), a
    00000706 ED 4Br00r00      [20] 1577 	ld	bc, (_g_GkAnimPlayerId)
    0000070A 06 00            [ 7] 1578 	ld	b, #0x00
    0000070C 69               [ 4] 1579 	ld	l, c
    0000070D 60               [ 4] 1580 	ld	h, b
    0000070E 29               [11] 1581 	add	hl, hl
    0000070F 29               [11] 1582 	add	hl, hl
    00000710 09               [11] 1583 	add	hl, bc
    00000711 29               [11] 1584 	add	hl, hl
    00000712 29               [11] 1585 	add	hl, hl
    00000713 09               [11] 1586 	add	hl, bc
    00000714 DD 75 FA         [19] 1587 	ld	-6 (ix), l
    00000717 DD 74 FB         [19] 1588 	ld	-5 (ix), h
    0000071A DD 7E FA         [19] 1589 	ld	a, -6 (ix)
    0000071D C6r00            [ 7] 1590 	add	a, #<(_g_Players)
    0000071F DD 77 FC         [19] 1591 	ld	-4 (ix), a
    00000722 DD 7E FB         [19] 1592 	ld	a, -5 (ix)
    00000725 CEs00            [ 7] 1593 	adc	a, #>(_g_Players)
    00000727 DD 77 FD         [19] 1594 	ld	-3 (ix), a
    0000072A DD 6E FC         [19] 1595 	ld	l, -4 (ix)
    0000072D DD 66 FD         [19] 1596 	ld	h, -3 (ix)
    00000730 23               [ 6] 1597 	inc	hl
    00000731 23               [ 6] 1598 	inc	hl
    00000732 7E               [ 7] 1599 	ld	a, (hl)
    00000733 DD 77 FC         [19] 1600 	ld	-4 (ix), a
    00000736 23               [ 6] 1601 	inc	hl
    00000737 7E               [ 7] 1602 	ld	a, (hl)
    00000738 DD 77 FD         [19] 1603 	ld	-3 (ix), a
    0000073B DD 7E FC         [19] 1604 	ld	a, -4 (ix)
    0000073E DD 77 FA         [19] 1605 	ld	-6 (ix), a
    00000741 DD 7E FD         [19] 1606 	ld	a, -3 (ix)
    00000744 DD 77 FB         [19] 1607 	ld	-5 (ix), a
    00000747 DD 7E F8         [19] 1608 	ld	a, -8 (ix)
    0000074A DD 96 FA         [19] 1609 	sub	a, -6 (ix)
    0000074D DD 77 FC         [19] 1610 	ld	-4 (ix), a
    00000750 DD 7E F9         [19] 1611 	ld	a, -7 (ix)
    00000753 DD 9E FB         [19] 1612 	sbc	a, -5 (ix)
    00000756 DD 77 FD         [19] 1613 	ld	-3 (ix), a
    00000759 DD 7E FC         [19] 1614 	ld	a, -4 (ix)
    0000075C DD 77 FA         [19] 1615 	ld	-6 (ix), a
    0000075F DD 7E FD         [19] 1616 	ld	a, -3 (ix)
    00000762 DD 77 FB         [19] 1617 	ld	-5 (ix), a
    00000765 07               [ 4] 1618 	rlca
    00000766 9F               [ 4] 1619 	sbc	a, a
    00000767 DD 77 FC         [19] 1620 	ld	-4 (ix), a
    0000076A DD 77 FD         [19] 1621 	ld	-3 (ix), a
    0000076D DD 5E FA         [19] 1622 	ld	e, -6 (ix)
    00000770 DD 56 FB         [19] 1623 	ld	d, -5 (ix)
    00000773 DD 6E FC         [19] 1624 	ld	l, -4 (ix)
                                   1625 ;	spillPairReg hl
                                   1626 ;	spillPairReg hl
    00000776 DD 66 FD         [19] 1627 	ld	h, -3 (ix)
                                   1628 ;	spillPairReg hl
                                   1629 ;	spillPairReg hl
    00000779 CDr00r00         [17] 1630 	call	_Math_Abs32
    0000077C DD 73 F6         [19] 1631 	ld	-10 (ix), e
    0000077F DD 72 F7         [19] 1632 	ld	-9 (ix), d
    00000782 DD 75 F8         [19] 1633 	ld	-8 (ix), l
    00000785 DD 74 F9         [19] 1634 	ld	-7 (ix), h
    00000788 DD 6E FE         [19] 1635 	ld	l, -2 (ix)
    0000078B DD 66 FF         [19] 1636 	ld	h, -1 (ix)
    0000078E 7E               [ 7] 1637 	ld	a, (hl)
    0000078F DD 77 FE         [19] 1638 	ld	-2 (ix), a
    00000792 23               [ 6] 1639 	inc	hl
    00000793 7E               [ 7] 1640 	ld	a, (hl)
    00000794 DD 77 FF         [19] 1641 	ld	-1 (ix), a
    00000797 DD 7E FE         [19] 1642 	ld	a, -2 (ix)
    0000079A DD 77 FA         [19] 1643 	ld	-6 (ix), a
    0000079D DD 7E FF         [19] 1644 	ld	a, -1 (ix)
    000007A0 DD 77 FB         [19] 1645 	ld	-5 (ix), a
    000007A3 ED 4Br00r00      [20] 1646 	ld	bc, (_g_GkAnimPlayerId)
    000007A7 06 00            [ 7] 1647 	ld	b, #0x00
    000007A9 69               [ 4] 1648 	ld	l, c
    000007AA 60               [ 4] 1649 	ld	h, b
    000007AB 29               [11] 1650 	add	hl, hl
    000007AC 29               [11] 1651 	add	hl, hl
    000007AD 09               [11] 1652 	add	hl, bc
    000007AE 29               [11] 1653 	add	hl, hl
    000007AF 29               [11] 1654 	add	hl, hl
    000007B0 09               [11] 1655 	add	hl, bc
    000007B1 DD 75 FC         [19] 1656 	ld	-4 (ix), l
    000007B4 DD 74 FD         [19] 1657 	ld	-3 (ix), h
    000007B7 DD 7E FC         [19] 1658 	ld	a, -4 (ix)
    000007BA C6r00            [ 7] 1659 	add	a, #<(_g_Players)
    000007BC DD 77 FE         [19] 1660 	ld	-2 (ix), a
    000007BF DD 7E FD         [19] 1661 	ld	a, -3 (ix)
    000007C2 CEs00            [ 7] 1662 	adc	a, #>(_g_Players)
    000007C4 DD 77 FF         [19] 1663 	ld	-1 (ix), a
    000007C7 DD 6E FE         [19] 1664 	ld	l, -2 (ix)
    000007CA DD 66 FF         [19] 1665 	ld	h, -1 (ix)
    000007CD 7E               [ 7] 1666 	ld	a, (hl)
    000007CE DD 77 FE         [19] 1667 	ld	-2 (ix), a
    000007D1 23               [ 6] 1668 	inc	hl
    000007D2 7E               [ 7] 1669 	ld	a, (hl)
    000007D3 DD 77 FF         [19] 1670 	ld	-1 (ix), a
    000007D6 DD 7E FE         [19] 1671 	ld	a, -2 (ix)
    000007D9 DD 77 FC         [19] 1672 	ld	-4 (ix), a
    000007DC DD 7E FF         [19] 1673 	ld	a, -1 (ix)
    000007DF DD 77 FD         [19] 1674 	ld	-3 (ix), a
    000007E2 DD 7E FA         [19] 1675 	ld	a, -6 (ix)
    000007E5 DD 96 FC         [19] 1676 	sub	a, -4 (ix)
    000007E8 DD 77 FE         [19] 1677 	ld	-2 (ix), a
    000007EB DD 7E FB         [19] 1678 	ld	a, -5 (ix)
    000007EE DD 9E FD         [19] 1679 	sbc	a, -3 (ix)
    000007F1 DD 77 FF         [19] 1680 	ld	-1 (ix), a
    000007F4 DD 7E FE         [19] 1681 	ld	a, -2 (ix)
    000007F7 DD 77 FC         [19] 1682 	ld	-4 (ix), a
    000007FA DD 7E FF         [19] 1683 	ld	a, -1 (ix)
    000007FD DD 77 FD         [19] 1684 	ld	-3 (ix), a
    00000800 07               [ 4] 1685 	rlca
    00000801 9F               [ 4] 1686 	sbc	a, a
    00000802 DD 77 FE         [19] 1687 	ld	-2 (ix), a
    00000805 DD 77 FF         [19] 1688 	ld	-1 (ix), a
    00000808 DD 5E FC         [19] 1689 	ld	e, -4 (ix)
    0000080B DD 56 FD         [19] 1690 	ld	d, -3 (ix)
    0000080E DD 6E FE         [19] 1691 	ld	l, -2 (ix)
                                   1692 ;	spillPairReg hl
                                   1693 ;	spillPairReg hl
    00000811 DD 66 FF         [19] 1694 	ld	h, -1 (ix)
                                   1695 ;	spillPairReg hl
                                   1696 ;	spillPairReg hl
    00000814 CDr00r00         [17] 1697 	call	_Math_Abs32
    00000817 DD 73 FA         [19] 1698 	ld	-6 (ix), e
    0000081A DD 72 FB         [19] 1699 	ld	-5 (ix), d
    0000081D DD 75 FC         [19] 1700 	ld	-4 (ix), l
    00000820 DD 74 FD         [19] 1701 	ld	-3 (ix), h
    00000823 DD 7E F6         [19] 1702 	ld	a, -10 (ix)
    00000826 DD 77 FE         [19] 1703 	ld	-2 (ix), a
    00000829 DD 7E F7         [19] 1704 	ld	a, -9 (ix)
    0000082C DD 77 FF         [19] 1705 	ld	-1 (ix), a
    0000082F DD 7E FA         [19] 1706 	ld	a, -6 (ix)
    00000832 DD 77 FC         [19] 1707 	ld	-4 (ix), a
    00000835 DD 7E FB         [19] 1708 	ld	a, -5 (ix)
    00000838 DD 77 FD         [19] 1709 	ld	-3 (ix), a
    0000083B DD 7E FC         [19] 1710 	ld	a, -4 (ix)
    0000083E DD 86 FE         [19] 1711 	add	a, -2 (ix)
    00000841 DD 77 FA         [19] 1712 	ld	-6 (ix), a
    00000844 DD 7E FD         [19] 1713 	ld	a, -3 (ix)
    00000847 DD 8E FF         [19] 1714 	adc	a, -1 (ix)
    0000084A DD 77 FB         [19] 1715 	ld	-5 (ix), a
    0000084D DD 7E FA         [19] 1716 	ld	a, -6 (ix)
    00000850 DD 77 FE         [19] 1717 	ld	-2 (ix), a
    00000853 DD 7E FB         [19] 1718 	ld	a, -5 (ix)
    00000856 DD 77 FF         [19] 1719 	ld	-1 (ix), a
                                   1720 ;E:\Dropbox\FAUSTO\SVILUPPI\MSX\CODE\C\MSXgl\projects\soccerlgSCC/soccerlg_s9_b3.c:253: if (dist > 60) safeToKick = true;
    00000859 3E 3C            [ 7] 1721 	ld	a, #0x3c
    0000085B DD BE FE         [19] 1722 	cp	a, -2 (ix)
    0000085E 3E 00            [ 7] 1723 	ld	a, #0x00
    00000860 DD 9E FF         [19] 1724 	sbc	a, -1 (ix)
    00000863 30 04            [12] 1725 	jr	NC, 00126$
    00000865 DD 36 F4 01      [19] 1726 	ld	-12 (ix), #0x01
    00000869                       1727 00126$:
                                   1728 ;E:\Dropbox\FAUSTO\SVILUPPI\MSX\CODE\C\MSXgl\projects\soccerlgSCC/soccerlg_s9_b3.c:257: if (!safeToKick) {
    00000869 DD 7E F4         [19] 1729 	ld	a, -12 (ix)
    0000086C B7               [ 4] 1730 	or	a, a
    0000086D C2r2Cr0A         [10] 1731 	jp	NZ, 00133$
                                   1732 ;E:\Dropbox\FAUSTO\SVILUPPI\MSX\CODE\C\MSXgl\projects\soccerlgSCC/soccerlg_s9_b3.c:258: u8 closestOpp = CallFnc_U8_P2(4,GetClosestPlayerToBall,(g_Players[g_GkAnimPlayerId].TeamId == TEAM_1) ? TEAM_2 : TEAM_1, NO_VALUE);
    00000870 ED 4Br00r00      [20] 1733 	ld	bc, (_g_GkAnimPlayerId)
    00000874 06 00            [ 7] 1734 	ld	b, #0x00
    00000876 69               [ 4] 1735 	ld	l, c
    00000877 60               [ 4] 1736 	ld	h, b
    00000878 29               [11] 1737 	add	hl, hl
    00000879 29               [11] 1738 	add	hl, hl
    0000087A 09               [11] 1739 	add	hl, bc
    0000087B 29               [11] 1740 	add	hl, hl
    0000087C 29               [11] 1741 	add	hl, hl
    0000087D 09               [11] 1742 	add	hl, bc
    0000087E DD 75 FC         [19] 1743 	ld	-4 (ix), l
    00000881 DD 74 FD         [19] 1744 	ld	-3 (ix), h
    00000884 DD 7E FC         [19] 1745 	ld	a, -4 (ix)
    00000887 C6r00            [ 7] 1746 	add	a, #<(_g_Players)
    00000889 DD 77 FE         [19] 1747 	ld	-2 (ix), a
    0000088C DD 7E FD         [19] 1748 	ld	a, -3 (ix)
    0000088F CEs00            [ 7] 1749 	adc	a, #>(_g_Players)
    00000891 DD 77 FF         [19] 1750 	ld	-1 (ix), a
    00000894 DD 6E FE         [19] 1751 	ld	l, -2 (ix)
    00000897 DD 66 FF         [19] 1752 	ld	h, -1 (ix)
    0000089A 11 09 00         [10] 1753 	ld	de, #0x0009
    0000089D 19               [11] 1754 	add	hl, de
    0000089E 7E               [ 7] 1755 	ld	a, (hl)
    0000089F 3D               [ 4] 1756 	dec	a
    000008A0 20 0B            [12] 1757 	jr	NZ, 00211$
    000008A2 DD 36 FE 02      [19] 1758 	ld	-2 (ix), #0x02
    000008A6 DD 36 FF 00      [19] 1759 	ld	-1 (ix), #0
    000008AA C3rB5r08         [10] 1760 	jp	00212$
    000008AD                       1761 00211$:
    000008AD DD 36 FE 01      [19] 1762 	ld	-2 (ix), #0x01
    000008B1 DD 36 FF 00      [19] 1763 	ld	-1 (ix), #0
    000008B5                       1764 00212$:
    000008B5 DD 7E FE         [19] 1765 	ld	a, -2 (ix)
    000008B8 26 FF            [ 7] 1766 	ld	h, #0xff
                                   1767 ;	spillPairReg hl
                                   1768 ;	spillPairReg hl
    000008BA E5               [11] 1769 	push	hl
    000008BB 33               [ 6] 1770 	inc	sp
    000008BC F5               [11] 1771 	push	af
    000008BD 33               [ 6] 1772 	inc	sp
    000008BE 11r00r00         [10] 1773 	ld	de, #_GetClosestPlayerToBall
    000008C1 3E 04            [ 7] 1774 	ld	a, #0x04
    000008C3 CDr00r00         [17] 1775 	call	_CallFnc_U8_P2
                                   1776 ;E:\Dropbox\FAUSTO\SVILUPPI\MSX\CODE\C\MSXgl\projects\soccerlgSCC/soccerlg_s9_b3.c:259: if (closestOpp != NO_VALUE) {
    000008C6 DD 77 FF         [19] 1777 	ld	-1 (ix), a
    000008C9 3C               [ 4] 1778 	inc	a
    000008CA CAr2Cr0A         [10] 1779 	jp	Z,00133$
                                   1780 ;E:\Dropbox\FAUSTO\SVILUPPI\MSX\CODE\C\MSXgl\projects\soccerlgSCC/soccerlg_s9_b3.c:263: u16 edist = (u16)(Math_Abs32((i16)g_Players[closestOpp].X - (i16)g_Ball.X) + 
    000008CD DD 4E FF         [19] 1781 	ld	c, -1 (ix)
    000008D0 06 00            [ 7] 1782 	ld	b, #0x00
    000008D2 69               [ 4] 1783 	ld	l, c
    000008D3 60               [ 4] 1784 	ld	h, b
    000008D4 29               [11] 1785 	add	hl, hl
    000008D5 29               [11] 1786 	add	hl, hl
    000008D6 09               [11] 1787 	add	hl, bc
    000008D7 29               [11] 1788 	add	hl, hl
    000008D8 29               [11] 1789 	add	hl, hl
    000008D9 09               [11] 1790 	add	hl, bc
    000008DA DD 75 FC         [19] 1791 	ld	-4 (ix), l
    000008DD DD 74 FD         [19] 1792 	ld	-3 (ix), h
    000008E0 DD 7E FC         [19] 1793 	ld	a, -4 (ix)
    000008E3 C6r00            [ 7] 1794 	add	a, #<(_g_Players)
    000008E5 DD 77 FE         [19] 1795 	ld	-2 (ix), a
    000008E8 DD 7E FD         [19] 1796 	ld	a, -3 (ix)
    000008EB CEs00            [ 7] 1797 	adc	a, #>(_g_Players)
    000008ED DD 77 FF         [19] 1798 	ld	-1 (ix), a
    000008F0 DD 7E FE         [19] 1799 	ld	a, -2 (ix)
    000008F3 DD 77 FC         [19] 1800 	ld	-4 (ix), a
    000008F6 DD 7E FF         [19] 1801 	ld	a, -1 (ix)
    000008F9 DD 77 FD         [19] 1802 	ld	-3 (ix), a
    000008FC DD 6E FC         [19] 1803 	ld	l, -4 (ix)
    000008FF DD 66 FD         [19] 1804 	ld	h, -3 (ix)
    00000902 23               [ 6] 1805 	inc	hl
    00000903 23               [ 6] 1806 	inc	hl
    00000904 7E               [ 7] 1807 	ld	a, (hl)
    00000905 DD 77 FC         [19] 1808 	ld	-4 (ix), a
    00000908 23               [ 6] 1809 	inc	hl
    00000909 7E               [ 7] 1810 	ld	a, (hl)
    0000090A DD 77 FD         [19] 1811 	ld	-3 (ix), a
    0000090D DD 7E FC         [19] 1812 	ld	a, -4 (ix)
    00000910 DD 77 F8         [19] 1813 	ld	-8 (ix), a
    00000913 DD 7E FD         [19] 1814 	ld	a, -3 (ix)
    00000916 DD 77 F9         [19] 1815 	ld	-7 (ix), a
    00000919 21r02r00         [10] 1816 	ld	hl, #_g_Ball + 2
    0000091C 7E               [ 7] 1817 	ld	a, (hl)
    0000091D DD 77 FC         [19] 1818 	ld	-4 (ix), a
    00000920 23               [ 6] 1819 	inc	hl
    00000921 7E               [ 7] 1820 	ld	a, (hl)
    00000922 DD 77 FD         [19] 1821 	ld	-3 (ix), a
    00000925 DD 7E FC         [19] 1822 	ld	a, -4 (ix)
    00000928 DD 77 FA         [19] 1823 	ld	-6 (ix), a
    0000092B DD 7E FD         [19] 1824 	ld	a, -3 (ix)
    0000092E DD 77 FB         [19] 1825 	ld	-5 (ix), a
    00000931 DD 7E F8         [19] 1826 	ld	a, -8 (ix)
    00000934 DD 96 FA         [19] 1827 	sub	a, -6 (ix)
    00000937 DD 77 FC         [19] 1828 	ld	-4 (ix), a
    0000093A DD 7E F9         [19] 1829 	ld	a, -7 (ix)
    0000093D DD 9E FB         [19] 1830 	sbc	a, -5 (ix)
    00000940 DD 77 FD         [19] 1831 	ld	-3 (ix), a
    00000943 DD 7E FC         [19] 1832 	ld	a, -4 (ix)
    00000946 DD 77 FA         [19] 1833 	ld	-6 (ix), a
    00000949 DD 7E FD         [19] 1834 	ld	a, -3 (ix)
    0000094C DD 77 FB         [19] 1835 	ld	-5 (ix), a
    0000094F 07               [ 4] 1836 	rlca
    00000950 9F               [ 4] 1837 	sbc	a, a
    00000951 DD 77 FC         [19] 1838 	ld	-4 (ix), a
    00000954 DD 77 FD         [19] 1839 	ld	-3 (ix), a
    00000957 DD 5E FA         [19] 1840 	ld	e, -6 (ix)
    0000095A DD 56 FB         [19] 1841 	ld	d, -5 (ix)
    0000095D DD 6E FC         [19] 1842 	ld	l, -4 (ix)
                                   1843 ;	spillPairReg hl
                                   1844 ;	spillPairReg hl
    00000960 DD 66 FD         [19] 1845 	ld	h, -3 (ix)
                                   1846 ;	spillPairReg hl
                                   1847 ;	spillPairReg hl
    00000963 CDr00r00         [17] 1848 	call	_Math_Abs32
    00000966 DD 73 F6         [19] 1849 	ld	-10 (ix), e
    00000969 DD 72 F7         [19] 1850 	ld	-9 (ix), d
    0000096C DD 75 F8         [19] 1851 	ld	-8 (ix), l
    0000096F DD 74 F9         [19] 1852 	ld	-7 (ix), h
    00000972 DD 6E FE         [19] 1853 	ld	l, -2 (ix)
    00000975 DD 66 FF         [19] 1854 	ld	h, -1 (ix)
    00000978 7E               [ 7] 1855 	ld	a, (hl)
    00000979 DD 77 FE         [19] 1856 	ld	-2 (ix), a
    0000097C 23               [ 6] 1857 	inc	hl
    0000097D 7E               [ 7] 1858 	ld	a, (hl)
    0000097E DD 77 FF         [19] 1859 	ld	-1 (ix), a
    00000981 DD 7E FE         [19] 1860 	ld	a, -2 (ix)
    00000984 DD 77 FA         [19] 1861 	ld	-6 (ix), a
    00000987 DD 7E FF         [19] 1862 	ld	a, -1 (ix)
    0000098A DD 77 FB         [19] 1863 	ld	-5 (ix), a
    0000098D 21r00r00         [10] 1864 	ld	hl, #_g_Ball
    00000990 7E               [ 7] 1865 	ld	a, (hl)
    00000991 DD 77 FE         [19] 1866 	ld	-2 (ix), a
    00000994 23               [ 6] 1867 	inc	hl
    00000995 7E               [ 7] 1868 	ld	a, (hl)
    00000996 DD 77 FF         [19] 1869 	ld	-1 (ix), a
    00000999 DD 7E FE         [19] 1870 	ld	a, -2 (ix)
    0000099C DD 77 FC         [19] 1871 	ld	-4 (ix), a
    0000099F DD 7E FF         [19] 1872 	ld	a, -1 (ix)
    000009A2 DD 77 FD         [19] 1873 	ld	-3 (ix), a
    000009A5 DD 7E FA         [19] 1874 	ld	a, -6 (ix)
    000009A8 DD 96 FC         [19] 1875 	sub	a, -4 (ix)
    000009AB DD 77 FE         [19] 1876 	ld	-2 (ix), a
    000009AE DD 7E FB         [19] 1877 	ld	a, -5 (ix)
    000009B1 DD 9E FD         [19] 1878 	sbc	a, -3 (ix)
    000009B4 DD 77 FF         [19] 1879 	ld	-1 (ix), a
    000009B7 DD 7E FE         [19] 1880 	ld	a, -2 (ix)
    000009BA DD 77 FC         [19] 1881 	ld	-4 (ix), a
    000009BD DD 7E FF         [19] 1882 	ld	a, -1 (ix)
    000009C0 DD 77 FD         [19] 1883 	ld	-3 (ix), a
    000009C3 07               [ 4] 1884 	rlca
    000009C4 9F               [ 4] 1885 	sbc	a, a
    000009C5 DD 77 FE         [19] 1886 	ld	-2 (ix), a
    000009C8 DD 77 FF         [19] 1887 	ld	-1 (ix), a
    000009CB DD 5E FC         [19] 1888 	ld	e, -4 (ix)
    000009CE DD 56 FD         [19] 1889 	ld	d, -3 (ix)
    000009D1 DD 6E FE         [19] 1890 	ld	l, -2 (ix)
                                   1891 ;	spillPairReg hl
                                   1892 ;	spillPairReg hl
    000009D4 DD 66 FF         [19] 1893 	ld	h, -1 (ix)
                                   1894 ;	spillPairReg hl
                                   1895 ;	spillPairReg hl
    000009D7 CDr00r00         [17] 1896 	call	_Math_Abs32
    000009DA DD 73 FA         [19] 1897 	ld	-6 (ix), e
    000009DD DD 72 FB         [19] 1898 	ld	-5 (ix), d
    000009E0 DD 75 FC         [19] 1899 	ld	-4 (ix), l
    000009E3 DD 74 FD         [19] 1900 	ld	-3 (ix), h
    000009E6 DD 7E F6         [19] 1901 	ld	a, -10 (ix)
    000009E9 DD 77 FE         [19] 1902 	ld	-2 (ix), a
    000009EC DD 7E F7         [19] 1903 	ld	a, -9 (ix)
    000009EF DD 77 FF         [19] 1904 	ld	-1 (ix), a
    000009F2 DD 7E FA         [19] 1905 	ld	a, -6 (ix)
    000009F5 DD 77 FC         [19] 1906 	ld	-4 (ix), a
    000009F8 DD 7E FB         [19] 1907 	ld	a, -5 (ix)
    000009FB DD 77 FD         [19] 1908 	ld	-3 (ix), a
    000009FE DD 7E FC         [19] 1909 	ld	a, -4 (ix)
    00000A01 DD 86 FE         [19] 1910 	add	a, -2 (ix)
    00000A04 DD 77 FA         [19] 1911 	ld	-6 (ix), a
    00000A07 DD 7E FD         [19] 1912 	ld	a, -3 (ix)
    00000A0A DD 8E FF         [19] 1913 	adc	a, -1 (ix)
    00000A0D DD 77 FB         [19] 1914 	ld	-5 (ix), a
    00000A10 DD 7E FA         [19] 1915 	ld	a, -6 (ix)
    00000A13 DD 77 FE         [19] 1916 	ld	-2 (ix), a
    00000A16 DD 7E FB         [19] 1917 	ld	a, -5 (ix)
    00000A19 DD 77 FF         [19] 1918 	ld	-1 (ix), a
                                   1919 ;E:\Dropbox\FAUSTO\SVILUPPI\MSX\CODE\C\MSXgl\projects\soccerlgSCC/soccerlg_s9_b3.c:265: if (edist < 40) safeToKick = true;
    00000A1C DD 7E FE         [19] 1920 	ld	a, -2 (ix)
    00000A1F D6 28            [ 7] 1921 	sub	a, #0x28
    00000A21 DD 7E FF         [19] 1922 	ld	a, -1 (ix)
    00000A24 DE 00            [ 7] 1923 	sbc	a, #0x00
    00000A26 30 04            [12] 1924 	jr	NC, 00133$
    00000A28 DD 36 F4 01      [19] 1925 	ld	-12 (ix), #0x01
    00000A2C                       1926 00133$:
                                   1927 ;E:\Dropbox\FAUSTO\SVILUPPI\MSX\CODE\C\MSXgl\projects\soccerlgSCC/soccerlg_s9_b3.c:270: if (g_GkIsGroundKick) safeToKick = true;
    00000A2C 3Ar00r00         [13] 1928 	ld	a, (_g_GkIsGroundKick+0)
    00000A2F B7               [ 4] 1929 	or	a, a
    00000A30 28 04            [12] 1930 	jr	Z, 00135$
    00000A32 DD 36 F4 01      [19] 1931 	ld	-12 (ix), #0x01
    00000A36                       1932 00135$:
                                   1933 ;E:\Dropbox\FAUSTO\SVILUPPI\MSX\CODE\C\MSXgl\projects\soccerlgSCC/soccerlg_s9_b3.c:274: if (!safeToKick) {
    00000A36 DD 7E F4         [19] 1934 	ld	a, -12 (ix)
    00000A39 B7               [ 4] 1935 	or	a, a
    00000A3A C2r0Cr0B         [10] 1936 	jp	NZ, 00162$
                                   1937 ;E:\Dropbox\FAUSTO\SVILUPPI\MSX\CODE\C\MSXgl\projects\soccerlgSCC/soccerlg_s9_b3.c:275: bool areaClear = true;
    00000A3D 0E 01            [ 7] 1938 	ld	c, #0x01
                                   1939 ;E:\Dropbox\FAUSTO\SVILUPPI\MSX\CODE\C\MSXgl\projects\soccerlgSCC/soccerlg_s9_b3.c:276: u8 gkTeam = g_Players[g_GkAnimPlayerId].TeamId;
    00000A3F ED 5Br00r00      [20] 1940 	ld	de, (_g_GkAnimPlayerId)
    00000A43 16 00            [ 7] 1941 	ld	d, #0x00
    00000A45 6B               [ 4] 1942 	ld	l, e
    00000A46 62               [ 4] 1943 	ld	h, d
    00000A47 29               [11] 1944 	add	hl, hl
    00000A48 29               [11] 1945 	add	hl, hl
    00000A49 19               [11] 1946 	add	hl, de
    00000A4A 29               [11] 1947 	add	hl, hl
    00000A4B 29               [11] 1948 	add	hl, hl
    00000A4C 19               [11] 1949 	add	hl, de
    00000A4D 11r00r00         [10] 1950 	ld	de, #_g_Players
    00000A50 19               [11] 1951 	add	hl, de
    00000A51 11 09 00         [10] 1952 	ld	de, #0x0009
    00000A54 19               [11] 1953 	add	hl, de
    00000A55 7E               [ 7] 1954 	ld	a, (hl)
                                   1955 ;E:\Dropbox\FAUSTO\SVILUPPI\MSX\CODE\C\MSXgl\projects\soccerlgSCC/soccerlg_s9_b3.c:278: for(u8 i=0; i<14; i++) {
    00000A56 3D               [ 4] 1956 	dec	a
    00000A57 3E 01            [ 7] 1957 	ld	a, #0x01
    00000A59 28 01            [12] 1958 	jr	Z, 00488$
    00000A5B AF               [ 4] 1959 	xor	a, a
    00000A5C                       1960 00488$:
    00000A5C 47               [ 4] 1961 	ld	b, a
    00000A5D 1E 00            [ 7] 1962 	ld	e, #0x00
    00000A5F                       1963 00208$:
    00000A5F 7B               [ 4] 1964 	ld	a, e
    00000A60 D6 0E            [ 7] 1965 	sub	a, #0x0e
    00000A62 D2r03r0B         [10] 1966 	jp	NC, 00158$
                                   1967 ;E:\Dropbox\FAUSTO\SVILUPPI\MSX\CODE\C\MSXgl\projects\soccerlgSCC/soccerlg_s9_b3.c:279: if (i == g_GkAnimPlayerId) continue;
    00000A65 3Ar00r00         [13] 1968 	ld	a, (_g_GkAnimPlayerId+0)
    00000A68 93               [ 4] 1969 	sub	a, e
    00000A69 CArFFr0A         [10] 1970 	jp	Z,00157$
                                   1971 ;E:\Dropbox\FAUSTO\SVILUPPI\MSX\CODE\C\MSXgl\projects\soccerlgSCC/soccerlg_s9_b3.c:280: u16 py = g_Players[i].Y;
    00000A6C D5               [11] 1972 	push	de
    00000A6D 16 00            [ 7] 1973 	ld	d, #0x00
    00000A6F 6B               [ 4] 1974 	ld	l, e
    00000A70 62               [ 4] 1975 	ld	h, d
    00000A71 29               [11] 1976 	add	hl, hl
    00000A72 29               [11] 1977 	add	hl, hl
    00000A73 19               [11] 1978 	add	hl, de
    00000A74 29               [11] 1979 	add	hl, hl
    00000A75 29               [11] 1980 	add	hl, hl
    00000A76 19               [11] 1981 	add	hl, de
    00000A77 D1               [10] 1982 	pop	de
    00000A78 FD 21r00r00      [14] 1983 	ld	iy, #_g_Players
    00000A7C C5               [11] 1984 	push	bc
    00000A7D 4D               [ 4] 1985 	ld	c, l
    00000A7E 44               [ 4] 1986 	ld	b, h
    00000A7F FD 09            [15] 1987 	add	iy, bc
    00000A81 C1               [10] 1988 	pop	bc
    00000A82 FD 7E 00         [19] 1989 	ld	a, 0 (iy)
    00000A85 DD 77 FE         [19] 1990 	ld	-2 (ix), a
    00000A88 FD 7E 01         [19] 1991 	ld	a, 1 (iy)
    00000A8B DD 77 FF         [19] 1992 	ld	-1 (ix), a
                                   1993 ;E:\Dropbox\FAUSTO\SVILUPPI\MSX\CODE\C\MSXgl\projects\soccerlgSCC/soccerlg_s9_b3.c:284: if (g_Players[i].TeamId == TEAM_1 && py > 350) areaClear = false;
    00000A8E FD 56 09         [19] 1994 	ld	d, 9 (iy)
                                   1995 ;E:\Dropbox\FAUSTO\SVILUPPI\MSX\CODE\C\MSXgl\projects\soccerlgSCC/soccerlg_s9_b3.c:282: if (gkTeam == TEAM_1) { // Bottom Goal (Y=430)
    00000A91 78               [ 4] 1996 	ld	a, b
    00000A92 B7               [ 4] 1997 	or	a, a
    00000A93 28 34            [12] 1998 	jr	Z, 00153$
                                   1999 ;E:\Dropbox\FAUSTO\SVILUPPI\MSX\CODE\C\MSXgl\projects\soccerlgSCC/soccerlg_s9_b3.c:284: if (g_Players[i].TeamId == TEAM_1 && py > 350) areaClear = false;
    00000A95 15               [ 4] 2000 	dec	d
    00000A96 3E 01            [ 7] 2001 	ld	a, #0x01
    00000A98 28 01            [12] 2002 	jr	Z, 00491$
    00000A9A AF               [ 4] 2003 	xor	a, a
    00000A9B                       2004 00491$:
    00000A9B 57               [ 4] 2005 	ld	d, a
    00000A9C B7               [ 4] 2006 	or	a, a
    00000A9D 28 13            [12] 2007 	jr	Z, 00142$
    00000A9F DD 6E FE         [19] 2008 	ld	l, -2 (ix)
                                   2009 ;	spillPairReg hl
                                   2010 ;	spillPairReg hl
    00000AA2 DD 66 FF         [19] 2011 	ld	h, -1 (ix)
                                   2012 ;	spillPairReg hl
                                   2013 ;	spillPairReg hl
    00000AA5 3E 5E            [ 7] 2014 	ld	a, #0x5e
    00000AA7 BD               [ 4] 2015 	cp	a, l
    00000AA8 3E 01            [ 7] 2016 	ld	a, #0x01
    00000AAA 9C               [ 4] 2017 	sbc	a, h
    00000AAB 30 05            [12] 2018 	jr	NC, 00142$
    00000AAD 0E 00            [ 7] 2019 	ld	c, #0x00
    00000AAF C3rFBr0A         [10] 2020 	jp	00154$
    00000AB2                       2021 00142$:
                                   2022 ;E:\Dropbox\FAUSTO\SVILUPPI\MSX\CODE\C\MSXgl\projects\soccerlgSCC/soccerlg_s9_b3.c:286: else if (g_Players[i].TeamId != TEAM_1 && py > 360) areaClear = false;
    00000AB2 CB 42            [ 8] 2023 	bit	0, d
    00000AB4 20 45            [12] 2024 	jr	NZ, 00154$
    00000AB6 DD 56 FE         [19] 2025 	ld	d, -2 (ix)
    00000AB9 DD 6E FF         [19] 2026 	ld	l, -1 (ix)
                                   2027 ;	spillPairReg hl
                                   2028 ;	spillPairReg hl
    00000ABC 3E 68            [ 7] 2029 	ld	a, #0x68
    00000ABE BA               [ 4] 2030 	cp	a, d
    00000ABF 3E 01            [ 7] 2031 	ld	a, #0x01
    00000AC1 9D               [ 4] 2032 	sbc	a, l
    00000AC2 30 37            [12] 2033 	jr	NC, 00154$
    00000AC4 0E 00            [ 7] 2034 	ld	c, #0x00
    00000AC6 C3rFBr0A         [10] 2035 	jp	00154$
    00000AC9                       2036 00153$:
                                   2037 ;E:\Dropbox\FAUSTO\SVILUPPI\MSX\CODE\C\MSXgl\projects\soccerlgSCC/soccerlg_s9_b3.c:289: if (g_Players[i].TeamId == TEAM_2 && py < 130) areaClear = false;
    00000AC9 7A               [ 4] 2038 	ld	a, d
    00000ACA D6 02            [ 7] 2039 	sub	a, #0x02
    00000ACC 3E 01            [ 7] 2040 	ld	a, #0x01
    00000ACE 28 01            [12] 2041 	jr	Z, 00493$
    00000AD0 AF               [ 4] 2042 	xor	a, a
    00000AD1                       2043 00493$:
    00000AD1 57               [ 4] 2044 	ld	d, a
    00000AD2 B7               [ 4] 2045 	or	a, a
    00000AD3 28 12            [12] 2046 	jr	Z, 00149$
                                   2047 ;	spillPairReg hl
                                   2048 ;	spillPairReg hl
                                   2049 ;	spillPairReg hl
                                   2050 ;	spillPairReg hl
    00000AD5 DD 7E FE         [19] 2051 	ld	a, -2 (ix)
    00000AD8 DD 66 FF         [19] 2052 	ld	h, -1 (ix)
    00000ADB D6 82            [ 7] 2053 	sub	a, #0x82
    00000ADD 7C               [ 4] 2054 	ld	a, h
    00000ADE DE 00            [ 7] 2055 	sbc	a, #0x00
    00000AE0 30 05            [12] 2056 	jr	NC, 00149$
    00000AE2 0E 00            [ 7] 2057 	ld	c, #0x00
    00000AE4 C3rFBr0A         [10] 2058 	jp	00154$
    00000AE7                       2059 00149$:
                                   2060 ;E:\Dropbox\FAUSTO\SVILUPPI\MSX\CODE\C\MSXgl\projects\soccerlgSCC/soccerlg_s9_b3.c:291: else if (g_Players[i].TeamId != TEAM_2 && py < 120) areaClear = false;
    00000AE7 CB 42            [ 8] 2061 	bit	0, d
    00000AE9 20 10            [12] 2062 	jr	NZ, 00154$
    00000AEB DD 56 FE         [19] 2063 	ld	d, -2 (ix)
    00000AEE DD 6E FF         [19] 2064 	ld	l, -1 (ix)
                                   2065 ;	spillPairReg hl
                                   2066 ;	spillPairReg hl
    00000AF1 7A               [ 4] 2067 	ld	a, d
    00000AF2 D6 78            [ 7] 2068 	sub	a, #0x78
    00000AF4 7D               [ 4] 2069 	ld	a, l
    00000AF5 DE 00            [ 7] 2070 	sbc	a, #0x00
    00000AF7 30 02            [12] 2071 	jr	NC, 00154$
    00000AF9 0E 00            [ 7] 2072 	ld	c, #0x00
    00000AFB                       2073 00154$:
                                   2074 ;E:\Dropbox\FAUSTO\SVILUPPI\MSX\CODE\C\MSXgl\projects\soccerlgSCC/soccerlg_s9_b3.c:293: if (!areaClear) break;
    00000AFB 79               [ 4] 2075 	ld	a, c
    00000AFC B7               [ 4] 2076 	or	a, a
    00000AFD 28 04            [12] 2077 	jr	Z, 00158$
    00000AFF                       2078 00157$:
                                   2079 ;E:\Dropbox\FAUSTO\SVILUPPI\MSX\CODE\C\MSXgl\projects\soccerlgSCC/soccerlg_s9_b3.c:278: for(u8 i=0; i<14; i++) {
    00000AFF 1C               [ 4] 2080 	inc	e
    00000B00 C3r5Fr0A         [10] 2081 	jp	00208$
    00000B03                       2082 00158$:
                                   2083 ;E:\Dropbox\FAUSTO\SVILUPPI\MSX\CODE\C\MSXgl\projects\soccerlgSCC/soccerlg_s9_b3.c:295: if (!areaClear) return; // Wait!
    00000B03 79               [ 4] 2084 	ld	a, c
    00000B04 B7               [ 4] 2085 	or	a, a
    00000B05 CArFEr0D         [10] 2086 	jp	Z,00209$
                                   2087 ;E:\Dropbox\FAUSTO\SVILUPPI\MSX\CODE\C\MSXgl\projects\soccerlgSCC/soccerlg_s9_b3.c:296: safeToKick = true;
    00000B08 DD 36 F4 01      [19] 2088 	ld	-12 (ix), #0x01
    00000B0C                       2089 00162$:
                                   2090 ;E:\Dropbox\FAUSTO\SVILUPPI\MSX\CODE\C\MSXgl\projects\soccerlgSCC/soccerlg_s9_b3.c:299: if (safeToKick) {
    00000B0C DD 7E F4         [19] 2091 	ld	a, -12 (ix)
    00000B0F B7               [ 4] 2092 	or	a, a
    00000B10 CArFEr0D         [10] 2093 	jp	Z, 00209$
                                   2094 ;E:\Dropbox\FAUSTO\SVILUPPI\MSX\CODE\C\MSXgl\projects\soccerlgSCC/soccerlg_s9_b3.c:301: u8 team = g_Players[g_GkAnimPlayerId].TeamId;
    00000B13 ED 4Br00r00      [20] 2095 	ld	bc, (_g_GkAnimPlayerId)
    00000B17 06 00            [ 7] 2096 	ld	b, #0x00
    00000B19 69               [ 4] 2097 	ld	l, c
    00000B1A 60               [ 4] 2098 	ld	h, b
    00000B1B 29               [11] 2099 	add	hl, hl
    00000B1C 29               [11] 2100 	add	hl, hl
    00000B1D 09               [11] 2101 	add	hl, bc
    00000B1E 29               [11] 2102 	add	hl, hl
    00000B1F 29               [11] 2103 	add	hl, hl
    00000B20 09               [11] 2104 	add	hl, bc
    00000B21 11r00r00         [10] 2105 	ld	de, #_g_Players
    00000B24 19               [11] 2106 	add	hl, de
    00000B25 11 09 00         [10] 2107 	ld	de, #0x0009
    00000B28 19               [11] 2108 	add	hl, de
    00000B29 4E               [ 7] 2109 	ld	c, (hl)
                                   2110 ;E:\Dropbox\FAUSTO\SVILUPPI\MSX\CODE\C\MSXgl\projects\soccerlgSCC/soccerlg_s9_b3.c:305: u8 rnd = (g_FrameCounter * 17 + g_Ball.X * 3) % 64; // 0-63
    00000B2A 3Ar00r00         [13] 2111 	ld	a, (_g_FrameCounter+0)
    00000B2D 5F               [ 4] 2112 	ld	e, a
    00000B2E 16 00            [ 7] 2113 	ld	d, #0x00
    00000B30 6B               [ 4] 2114 	ld	l, e
    00000B31 62               [ 4] 2115 	ld	h, d
    00000B32 29               [11] 2116 	add	hl, hl
    00000B33 29               [11] 2117 	add	hl, hl
    00000B34 29               [11] 2118 	add	hl, hl
    00000B35 29               [11] 2119 	add	hl, hl
    00000B36 19               [11] 2120 	add	hl, de
    00000B37 EB               [ 4] 2121 	ex	de, hl
    00000B38 2Ar02r00         [16] 2122 	ld	hl, (#_g_Ball + 2)
    00000B3B D5               [11] 2123 	push	de
    00000B3C 5D               [ 4] 2124 	ld	e, l
    00000B3D 54               [ 4] 2125 	ld	d, h
    00000B3E 29               [11] 2126 	add	hl, hl
    00000B3F 19               [11] 2127 	add	hl, de
    00000B40 D1               [10] 2128 	pop	de
    00000B41 19               [11] 2129 	add	hl, de
    00000B42 7D               [ 4] 2130 	ld	a, l
    00000B43 E6 3F            [ 7] 2131 	and	a, #0x3f
    00000B45 DD 77 FE         [19] 2132 	ld	-2 (ix), a
                                   2133 ;E:\Dropbox\FAUSTO\SVILUPPI\MSX\CODE\C\MSXgl\projects\soccerlgSCC/soccerlg_s9_b3.c:320: if (team == TEAM_1) ty = FIELD_POS_Y_CENTER + dist;
    00000B48 0D               [ 4] 2134 	dec	c
    00000B49 3E 01            [ 7] 2135 	ld	a, #0x01
    00000B4B 28 01            [12] 2136 	jr	Z, 00495$
    00000B4D AF               [ 4] 2137 	xor	a, a
    00000B4E                       2138 00495$:
    00000B4E DD 77 FF         [19] 2139 	ld	-1 (ix), a
                                   2140 ;E:\Dropbox\FAUSTO\SVILUPPI\MSX\CODE\C\MSXgl\projects\soccerlgSCC/soccerlg_s9_b3.c:307: if (targetId != NO_VALUE) {
    00000B51 DD 7E F5         [19] 2141 	ld	a, -11 (ix)
    00000B54 3C               [ 4] 2142 	inc	a
    00000B55 CAr19r0C         [10] 2143 	jp	Z,00177$
                                   2144 ;E:\Dropbox\FAUSTO\SVILUPPI\MSX\CODE\C\MSXgl\projects\soccerlgSCC/soccerlg_s9_b3.c:308: tx = g_Players[targetId].X;
    00000B58 DD 4E F5         [19] 2145 	ld	c, -11 (ix)
    00000B5B 06 00            [ 7] 2146 	ld	b, #0x00
    00000B5D 69               [ 4] 2147 	ld	l, c
    00000B5E 60               [ 4] 2148 	ld	h, b
    00000B5F 29               [11] 2149 	add	hl, hl
    00000B60 29               [11] 2150 	add	hl, hl
    00000B61 09               [11] 2151 	add	hl, bc
    00000B62 29               [11] 2152 	add	hl, hl
    00000B63 29               [11] 2153 	add	hl, hl
    00000B64 09               [11] 2154 	add	hl, bc
    00000B65 11r00r00         [10] 2155 	ld	de, #_g_Players
    00000B68 19               [11] 2156 	add	hl, de
                                   2157 ;	spillPairReg hl
                                   2158 ;	spillPairReg hl
    00000B69 4D               [ 4] 2159 	ld	c,l
    00000B6A 44               [ 4] 2160 	ld	b,h
                                   2161 ;	spillPairReg hl
                                   2162 ;	spillPairReg hl
    00000B6B 23               [ 6] 2163 	inc	hl
    00000B6C 23               [ 6] 2164 	inc	hl
    00000B6D 5E               [ 7] 2165 	ld	e, (hl)
    00000B6E 23               [ 6] 2166 	inc	hl
    00000B6F 56               [ 7] 2167 	ld	d, (hl)
                                   2168 ;E:\Dropbox\FAUSTO\SVILUPPI\MSX\CODE\C\MSXgl\projects\soccerlgSCC/soccerlg_s9_b3.c:309: ty = g_Players[targetId].Y;
    00000B70 69               [ 4] 2169 	ld	l, c
    00000B71 60               [ 4] 2170 	ld	h, b
    00000B72 4E               [ 7] 2171 	ld	c, (hl)
    00000B73 23               [ 6] 2172 	inc	hl
    00000B74 46               [ 7] 2173 	ld	b, (hl)
                                   2174 ;E:\Dropbox\FAUSTO\SVILUPPI\MSX\CODE\C\MSXgl\projects\soccerlgSCC/soccerlg_s9_b3.c:311: if (rnd & 1) tx += (rnd >> 2); else tx -= (rnd >> 2);
    00000B75 DD 7E FE         [19] 2175 	ld	a, -2 (ix)
    00000B78 0F               [ 4] 2176 	rrca
    00000B79 0F               [ 4] 2177 	rrca
    00000B7A E6 3F            [ 7] 2178 	and	a, #0x3f
    00000B7C 2E 00            [ 7] 2179 	ld	l, #0x00
                                   2180 ;	spillPairReg hl
                                   2181 ;	spillPairReg hl
    00000B7E DD 77 FC         [19] 2182 	ld	-4 (ix), a
    00000B81 DD 75 FD         [19] 2183 	ld	-3 (ix), l
    00000B84 DD CB FE 46      [20] 2184 	bit	0, -2 (ix)
    00000B88 28 10            [12] 2185 	jr	Z, 00164$
    00000B8A DD 6E FC         [19] 2186 	ld	l, -4 (ix)
    00000B8D DD 66 FD         [19] 2187 	ld	h, -3 (ix)
    00000B90 19               [11] 2188 	add	hl, de
    00000B91 DD 75 F8         [19] 2189 	ld	-8 (ix), l
    00000B94 DD 74 F9         [19] 2190 	ld	-7 (ix), h
    00000B97 C3rA9r0B         [10] 2191 	jp	00165$
    00000B9A                       2192 00164$:
    00000B9A 7B               [ 4] 2193 	ld	a, e
    00000B9B DD 96 FC         [19] 2194 	sub	a, -4 (ix)
    00000B9E 5F               [ 4] 2195 	ld	e, a
    00000B9F 7A               [ 4] 2196 	ld	a, d
    00000BA0 DD 9E FD         [19] 2197 	sbc	a, -3 (ix)
    00000BA3 DD 73 F8         [19] 2198 	ld	-8 (ix), e
    00000BA6 DD 77 F9         [19] 2199 	ld	-7 (ix), a
    00000BA9                       2200 00165$:
                                   2201 ;E:\Dropbox\FAUSTO\SVILUPPI\MSX\CODE\C\MSXgl\projects\soccerlgSCC/soccerlg_s9_b3.c:312: if (rnd & 2) ty += (rnd >> 2); else ty -= (rnd >> 2);
    00000BA9 DD CB FE 4E      [20] 2202 	bit	1, -2 (ix)
    00000BAD 28 10            [12] 2203 	jr	Z, 00167$
    00000BAF DD 6E FC         [19] 2204 	ld	l, -4 (ix)
    00000BB2 DD 66 FD         [19] 2205 	ld	h, -3 (ix)
    00000BB5 09               [11] 2206 	add	hl, bc
    00000BB6 DD 75 FA         [19] 2207 	ld	-6 (ix), l
    00000BB9 DD 74 FB         [19] 2208 	ld	-5 (ix), h
    00000BBC C3rCEr0B         [10] 2209 	jp	00168$
    00000BBF                       2210 00167$:
    00000BBF 79               [ 4] 2211 	ld	a, c
    00000BC0 DD 96 FC         [19] 2212 	sub	a, -4 (ix)
    00000BC3 4F               [ 4] 2213 	ld	c, a
    00000BC4 78               [ 4] 2214 	ld	a, b
    00000BC5 DD 9E FD         [19] 2215 	sbc	a, -3 (ix)
    00000BC8 DD 71 FA         [19] 2216 	ld	-6 (ix), c
    00000BCB DD 77 FB         [19] 2217 	ld	-5 (ix), a
    00000BCE                       2218 00168$:
                                   2219 ;E:\Dropbox\FAUSTO\SVILUPPI\MSX\CODE\C\MSXgl\projects\soccerlgSCC/soccerlg_s9_b3.c:314: if (tx < 60) tx = 60 + (rnd % 10);
    00000BCE DD 7E F8         [19] 2220 	ld	a, -8 (ix)
    00000BD1 DD 46 F9         [19] 2221 	ld	b, -7 (ix)
    00000BD4 D6 3C            [ 7] 2222 	sub	a, #0x3c
    00000BD6 78               [ 4] 2223 	ld	a, b
    00000BD7 DE 00            [ 7] 2224 	sbc	a, #0x00
    00000BD9 30 15            [12] 2225 	jr	NC, 00170$
    00000BDB DD 6E FE         [19] 2226 	ld	l, -2 (ix)
                                   2227 ;	spillPairReg hl
                                   2228 ;	spillPairReg hl
    00000BDE 26 00            [ 7] 2229 	ld	h, #0x00
                                   2230 ;	spillPairReg hl
                                   2231 ;	spillPairReg hl
    00000BE0 11 0A 00         [10] 2232 	ld	de, #0x000a
    00000BE3 CDr00r00         [17] 2233 	call	__modsint
    00000BE6 21 3C 00         [10] 2234 	ld	hl, #0x003c
    00000BE9 19               [11] 2235 	add	hl, de
    00000BEA DD 75 F8         [19] 2236 	ld	-8 (ix), l
    00000BED DD 74 F9         [19] 2237 	ld	-7 (ix), h
    00000BF0                       2238 00170$:
                                   2239 ;E:\Dropbox\FAUSTO\SVILUPPI\MSX\CODE\C\MSXgl\projects\soccerlgSCC/soccerlg_s9_b3.c:315: if (tx > 180) tx = 180 - (rnd % 10);
    00000BF0 DD 4E F8         [19] 2240 	ld	c, -8 (ix)
    00000BF3 DD 46 F9         [19] 2241 	ld	b, -7 (ix)
    00000BF6 3E B4            [ 7] 2242 	ld	a, #0xb4
    00000BF8 B9               [ 4] 2243 	cp	a, c
    00000BF9 3E 00            [ 7] 2244 	ld	a, #0x00
    00000BFB 98               [ 4] 2245 	sbc	a, b
    00000BFC D2rC0r0C         [10] 2246 	jp	NC, 00178$
    00000BFF DD 6E FE         [19] 2247 	ld	l, -2 (ix)
                                   2248 ;	spillPairReg hl
                                   2249 ;	spillPairReg hl
    00000C02 26 00            [ 7] 2250 	ld	h, #0x00
                                   2251 ;	spillPairReg hl
                                   2252 ;	spillPairReg hl
    00000C04 11 0A 00         [10] 2253 	ld	de, #0x000a
    00000C07 CDr00r00         [17] 2254 	call	__modsint
    00000C0A 3E B4            [ 7] 2255 	ld	a, #0xb4
    00000C0C 93               [ 4] 2256 	sub	a, e
    00000C0D 4F               [ 4] 2257 	ld	c, a
    00000C0E 9F               [ 4] 2258 	sbc	a, a
    00000C0F 92               [ 4] 2259 	sub	a, d
    00000C10 DD 71 F8         [19] 2260 	ld	-8 (ix), c
    00000C13 DD 77 F9         [19] 2261 	ld	-7 (ix), a
    00000C16 C3rC0r0C         [10] 2262 	jp	00178$
    00000C19                       2263 00177$:
                                   2264 ;E:\Dropbox\FAUSTO\SVILUPPI\MSX\CODE\C\MSXgl\projects\soccerlgSCC/soccerlg_s9_b3.c:318: tx = FIELD_POS_X_CENTER + (rnd - 32);
    00000C19 DD 7E FE         [19] 2265 	ld	a, -2 (ix)
    00000C1C DD 77 FC         [19] 2266 	ld	-4 (ix), a
    00000C1F DD 36 FD 00      [19] 2267 	ld	-3 (ix), #0x00
    00000C23 DD 7E FC         [19] 2268 	ld	a, -4 (ix)
    00000C26 C6 58            [ 7] 2269 	add	a, #0x58
    00000C28 DD 77 FA         [19] 2270 	ld	-6 (ix), a
    00000C2B DD 7E FD         [19] 2271 	ld	a, -3 (ix)
    00000C2E CE 00            [ 7] 2272 	adc	a, #0x00
    00000C30 DD 77 FB         [19] 2273 	ld	-5 (ix), a
    00000C33 DD 7E FA         [19] 2274 	ld	a, -6 (ix)
    00000C36 DD 77 F8         [19] 2275 	ld	-8 (ix), a
    00000C39 DD 7E FB         [19] 2276 	ld	a, -5 (ix)
    00000C3C DD 77 F9         [19] 2277 	ld	-7 (ix), a
                                   2278 ;E:\Dropbox\FAUSTO\SVILUPPI\MSX\CODE\C\MSXgl\projects\soccerlgSCC/soccerlg_s9_b3.c:319: u8 dist = 10 + (rnd * 3) / 2; // Variable length (10-105px from center)
    00000C3F DD 4E FC         [19] 2279 	ld	c, -4 (ix)
    00000C42 DD 46 FD         [19] 2280 	ld	b, -3 (ix)
    00000C45 69               [ 4] 2281 	ld	l, c
    00000C46 60               [ 4] 2282 	ld	h, b
    00000C47 29               [11] 2283 	add	hl, hl
    00000C48 09               [11] 2284 	add	hl, bc
    00000C49 DD 75 FA         [19] 2285 	ld	-6 (ix), l
    00000C4C DD 74 FB         [19] 2286 	ld	-5 (ix), h
    00000C4F DD 7E FA         [19] 2287 	ld	a, -6 (ix)
    00000C52 DD 77 FC         [19] 2288 	ld	-4 (ix), a
    00000C55 DD 7E FB         [19] 2289 	ld	a, -5 (ix)
    00000C58 DD 77 FD         [19] 2290 	ld	-3 (ix), a
    00000C5B DD CB FB 7E      [20] 2291 	bit	7, -5 (ix)
    00000C5F 28 10            [12] 2292 	jr	Z, 00213$
    00000C61 DD 7E FA         [19] 2293 	ld	a, -6 (ix)
    00000C64 C6 01            [ 7] 2294 	add	a, #0x01
    00000C66 DD 77 FC         [19] 2295 	ld	-4 (ix), a
    00000C69 DD 7E FB         [19] 2296 	ld	a, -5 (ix)
    00000C6C CE 00            [ 7] 2297 	adc	a, #0x00
    00000C6E DD 77 FD         [19] 2298 	ld	-3 (ix), a
    00000C71                       2299 00213$:
    00000C71 DD 4E FC         [19] 2300 	ld	c, -4 (ix)
    00000C74 DD 46 FD         [19] 2301 	ld	b, -3 (ix)
    00000C77 CB 28            [ 8] 2302 	sra	b
    00000C79 CB 19            [ 8] 2303 	rr	c
    00000C7B DD 71 FD         [19] 2304 	ld	-3 (ix), c
    00000C7E 79               [ 4] 2305 	ld	a, c
    00000C7F C6 0A            [ 7] 2306 	add	a, #0x0a
                                   2307 ;E:\Dropbox\FAUSTO\SVILUPPI\MSX\CODE\C\MSXgl\projects\soccerlgSCC/soccerlg_s9_b3.c:320: if (team == TEAM_1) ty = FIELD_POS_Y_CENTER + dist;
    00000C81 DD 77 FD         [19] 2308 	ld	-3 (ix), a
    00000C84 DD 77 FA         [19] 2309 	ld	-6 (ix), a
    00000C87 DD 36 FB 00      [19] 2310 	ld	-5 (ix), #0x00
    00000C8B DD 7E FF         [19] 2311 	ld	a, -1 (ix)
    00000C8E B7               [ 4] 2312 	or	a, a
    00000C8F 28 1F            [12] 2313 	jr	Z, 00174$
    00000C91 DD 7E FA         [19] 2314 	ld	a, -6 (ix)
    00000C94 C6 F3            [ 7] 2315 	add	a, #0xf3
    00000C96 DD 77 FC         [19] 2316 	ld	-4 (ix), a
    00000C99 DD 7E FB         [19] 2317 	ld	a, -5 (ix)
    00000C9C CE 00            [ 7] 2318 	adc	a, #0x00
    00000C9E DD 77 FD         [19] 2319 	ld	-3 (ix), a
    00000CA1 DD 7E FC         [19] 2320 	ld	a, -4 (ix)
    00000CA4 DD 77 FA         [19] 2321 	ld	-6 (ix), a
    00000CA7 DD 7E FD         [19] 2322 	ld	a, -3 (ix)
    00000CAA DD 77 FB         [19] 2323 	ld	-5 (ix), a
    00000CAD C3rC0r0C         [10] 2324 	jp	00178$
    00000CB0                       2325 00174$:
                                   2326 ;E:\Dropbox\FAUSTO\SVILUPPI\MSX\CODE\C\MSXgl\projects\soccerlgSCC/soccerlg_s9_b3.c:321: else ty = FIELD_POS_Y_CENTER - dist;
    00000CB0 3E F3            [ 7] 2327 	ld	a, #0xf3
    00000CB2 DD 96 FA         [19] 2328 	sub	a, -6 (ix)
    00000CB5 4F               [ 4] 2329 	ld	c, a
    00000CB6 9F               [ 4] 2330 	sbc	a, a
    00000CB7 DD 96 FB         [19] 2331 	sub	a, -5 (ix)
    00000CBA DD 71 FA         [19] 2332 	ld	-6 (ix), c
    00000CBD DD 77 FB         [19] 2333 	ld	-5 (ix), a
    00000CC0                       2334 00178$:
                                   2335 ;E:\Dropbox\FAUSTO\SVILUPPI\MSX\CODE\C\MSXgl\projects\soccerlgSCC/soccerlg_s9_b3.c:312: if (rnd & 2) ty += (rnd >> 2); else ty -= (rnd >> 2);
    00000CC0 DD 7E FA         [19] 2336 	ld	a, -6 (ix)
    00000CC3 DD 77 FC         [19] 2337 	ld	-4 (ix), a
    00000CC6 DD 7E FB         [19] 2338 	ld	a, -5 (ix)
    00000CC9 DD 77 FD         [19] 2339 	ld	-3 (ix), a
                                   2340 ;E:\Dropbox\FAUSTO\SVILUPPI\MSX\CODE\C\MSXgl\projects\soccerlgSCC/soccerlg_s9_b3.c:325: if (team == TEAM_1) {
    00000CCC DD 7E FF         [19] 2341 	ld	a, -1 (ix)
    00000CCF B7               [ 4] 2342 	or	a, a
    00000CD0 28 47            [12] 2343 	jr	Z, 00184$
                                   2344 ;E:\Dropbox\FAUSTO\SVILUPPI\MSX\CODE\C\MSXgl\projects\soccerlgSCC/soccerlg_s9_b3.c:328: if (ty < FIELD_POS_Y_CENTER) ty = FIELD_POS_Y_CENTER + (rnd % 30);
    00000CD2 DD 7E FC         [19] 2345 	ld	a, -4 (ix)
    00000CD5 D6 F3            [ 7] 2346 	sub	a, #0xf3
    00000CD7 DD 7E FD         [19] 2347 	ld	a, -3 (ix)
    00000CDA DE 00            [ 7] 2348 	sbc	a, #0x00
    00000CDC 30 73            [12] 2349 	jr	NC, 00185$
    00000CDE DD 7E FE         [19] 2350 	ld	a, -2 (ix)
    00000CE1 DD 77 FB         [19] 2351 	ld	-5 (ix), a
    00000CE4 DD 36 FC 00      [19] 2352 	ld	-4 (ix), #0x00
    00000CE8 11 1E 00         [10] 2353 	ld	de, #0x001e
    00000CEB DD 6E FB         [19] 2354 	ld	l, -5 (ix)
                                   2355 ;	spillPairReg hl
                                   2356 ;	spillPairReg hl
    00000CEE DD 66 FC         [19] 2357 	ld	h, -4 (ix)
                                   2358 ;	spillPairReg hl
                                   2359 ;	spillPairReg hl
    00000CF1 CDr00r00         [17] 2360 	call	__modsint
    00000CF4 DD 73 FC         [19] 2361 	ld	-4 (ix), e
    00000CF7 DD 72 FD         [19] 2362 	ld	-3 (ix), d
    00000CFA DD 7E FC         [19] 2363 	ld	a, -4 (ix)
    00000CFD C6 F3            [ 7] 2364 	add	a, #0xf3
    00000CFF DD 77 FE         [19] 2365 	ld	-2 (ix), a
    00000D02 DD 7E FD         [19] 2366 	ld	a, -3 (ix)
    00000D05 CE 00            [ 7] 2367 	adc	a, #0x00
    00000D07 DD 77 FF         [19] 2368 	ld	-1 (ix), a
    00000D0A DD 7E FE         [19] 2369 	ld	a, -2 (ix)
    00000D0D DD 77 FA         [19] 2370 	ld	-6 (ix), a
    00000D10 DD 7E FF         [19] 2371 	ld	a, -1 (ix)
    00000D13 DD 77 FB         [19] 2372 	ld	-5 (ix), a
    00000D16 C3r51r0D         [10] 2373 	jp	00185$
    00000D19                       2374 00184$:
                                   2375 ;E:\Dropbox\FAUSTO\SVILUPPI\MSX\CODE\C\MSXgl\projects\soccerlgSCC/soccerlg_s9_b3.c:331: if (ty > FIELD_POS_Y_CENTER) ty = FIELD_POS_Y_CENTER - (rnd % 30);
    00000D19 3E F3            [ 7] 2376 	ld	a, #0xf3
    00000D1B DD BE FC         [19] 2377 	cp	a, -4 (ix)
    00000D1E 3E 00            [ 7] 2378 	ld	a, #0x00
    00000D20 DD 9E FD         [19] 2379 	sbc	a, -3 (ix)
    00000D23 30 2C            [12] 2380 	jr	NC, 00185$
    00000D25 DD 7E FE         [19] 2381 	ld	a, -2 (ix)
    00000D28 DD 77 FB         [19] 2382 	ld	-5 (ix), a
    00000D2B DD 36 FC 00      [19] 2383 	ld	-4 (ix), #0x00
    00000D2F 11 1E 00         [10] 2384 	ld	de, #0x001e
    00000D32 DD 6E FB         [19] 2385 	ld	l, -5 (ix)
                                   2386 ;	spillPairReg hl
                                   2387 ;	spillPairReg hl
    00000D35 DD 66 FC         [19] 2388 	ld	h, -4 (ix)
                                   2389 ;	spillPairReg hl
                                   2390 ;	spillPairReg hl
    00000D38 CDr00r00         [17] 2391 	call	__modsint
    00000D3B DD 73 FE         [19] 2392 	ld	-2 (ix), e
    00000D3E DD 72 FF         [19] 2393 	ld	-1 (ix), d
    00000D41 3E F3            [ 7] 2394 	ld	a, #0xf3
    00000D43 DD 96 FE         [19] 2395 	sub	a, -2 (ix)
    00000D46 4F               [ 4] 2396 	ld	c, a
    00000D47 9F               [ 4] 2397 	sbc	a, a
    00000D48 DD 96 FF         [19] 2398 	sub	a, -1 (ix)
    00000D4B DD 71 FA         [19] 2399 	ld	-6 (ix), c
    00000D4E DD 77 FB         [19] 2400 	ld	-5 (ix), a
    00000D51                       2401 00185$:
                                   2402 ;E:\Dropbox\FAUSTO\SVILUPPI\MSX\CODE\C\MSXgl\projects\soccerlgSCC/soccerlg_s9_b3.c:335: if (tx < FIELD_BOUND_X_LEFT) tx = FIELD_BOUND_X_LEFT;
    00000D51 DD 7E F8         [19] 2403 	ld	a, -8 (ix)
    00000D54 DD 46 F9         [19] 2404 	ld	b, -7 (ix)
    00000D57 D6 0A            [ 7] 2405 	sub	a, #0x0a
    00000D59 78               [ 4] 2406 	ld	a, b
    00000D5A DE 00            [ 7] 2407 	sbc	a, #0x00
    00000D5C 30 08            [12] 2408 	jr	NC, 00187$
    00000D5E DD 36 F8 0A      [19] 2409 	ld	-8 (ix), #0x0a
    00000D62 DD 36 F9 00      [19] 2410 	ld	-7 (ix), #0
    00000D66                       2411 00187$:
                                   2412 ;E:\Dropbox\FAUSTO\SVILUPPI\MSX\CODE\C\MSXgl\projects\soccerlgSCC/soccerlg_s9_b3.c:336: if (tx > FIELD_BOUND_X_RIGHT) tx = FIELD_BOUND_X_RIGHT;
    00000D66 DD 4E F8         [19] 2413 	ld	c, -8 (ix)
    00000D69 DD 46 F9         [19] 2414 	ld	b, -7 (ix)
    00000D6C 3E EC            [ 7] 2415 	ld	a, #0xec
    00000D6E B9               [ 4] 2416 	cp	a, c
    00000D6F 3E 00            [ 7] 2417 	ld	a, #0x00
    00000D71 98               [ 4] 2418 	sbc	a, b
    00000D72 30 08            [12] 2419 	jr	NC, 00189$
    00000D74 DD 36 F8 EC      [19] 2420 	ld	-8 (ix), #0xec
    00000D78 DD 36 F9 00      [19] 2421 	ld	-7 (ix), #0
    00000D7C                       2422 00189$:
                                   2423 ;E:\Dropbox\FAUSTO\SVILUPPI\MSX\CODE\C\MSXgl\projects\soccerlgSCC/soccerlg_s9_b3.c:339: CallFnc_VOID_16_P2(8, PerformShot, tx, ty);
    00000D7C DD 6E FA         [19] 2424 	ld	l, -6 (ix)
                                   2425 ;	spillPairReg hl
                                   2426 ;	spillPairReg hl
    00000D7F DD 66 FB         [19] 2427 	ld	h, -5 (ix)
                                   2428 ;	spillPairReg hl
                                   2429 ;	spillPairReg hl
    00000D82 E5               [11] 2430 	push	hl
    00000D83 DD 6E F8         [19] 2431 	ld	l, -8 (ix)
                                   2432 ;	spillPairReg hl
                                   2433 ;	spillPairReg hl
    00000D86 DD 66 F9         [19] 2434 	ld	h, -7 (ix)
                                   2435 ;	spillPairReg hl
                                   2436 ;	spillPairReg hl
    00000D89 E5               [11] 2437 	push	hl
    00000D8A 11r00r00         [10] 2438 	ld	de, #_PerformShot
    00000D8D 3E 08            [ 7] 2439 	ld	a, #0x08
    00000D8F CDr00r00         [17] 2440 	call	_CallFnc_VOID_16_P2
                                   2441 ;E:\Dropbox\FAUSTO\SVILUPPI\MSX\CODE\C\MSXgl\projects\soccerlgSCC/soccerlg_s9_b3.c:342: u8 dir = g_Players[g_GkAnimPlayerId].Direction;
    00000D92 ED 4Br00r00      [20] 2442 	ld	bc, (_g_GkAnimPlayerId)
    00000D96 06 00            [ 7] 2443 	ld	b, #0x00
    00000D98 69               [ 4] 2444 	ld	l, c
    00000D99 60               [ 4] 2445 	ld	h, b
    00000D9A 29               [11] 2446 	add	hl, hl
    00000D9B 29               [11] 2447 	add	hl, hl
    00000D9C 09               [11] 2448 	add	hl, bc
    00000D9D 29               [11] 2449 	add	hl, hl
    00000D9E 29               [11] 2450 	add	hl, hl
    00000D9F 09               [11] 2451 	add	hl, bc
    00000DA0 11r00r00         [10] 2452 	ld	de, #_g_Players
    00000DA3 19               [11] 2453 	add	hl, de
    00000DA4 4D               [ 4] 2454 	ld	c, l
    00000DA5 44               [ 4] 2455 	ld	b, h
    00000DA6 59               [ 4] 2456 	ld	e, c
    00000DA7 50               [ 4] 2457 	ld	d, b
    00000DA8 21 0A 00         [10] 2458 	ld	hl, #10
    00000DAB 19               [11] 2459 	add	hl, de
    00000DAC 7E               [ 7] 2460 	ld	a, (hl)
                                   2461 ;E:\Dropbox\FAUSTO\SVILUPPI\MSX\CODE\C\MSXgl\projects\soccerlgSCC/soccerlg_s9_b3.c:345: if (dir == DIRECTION_RIGHT || dir == DIRECTION_UP_RIGHT || dir == DIRECTION_DOWN_RIGHT) 
    00000DAD FE 03            [ 7] 2462 	cp	a, #0x03
    00000DAF 28 08            [12] 2463 	jr	Z, 00195$
    00000DB1 FE 02            [ 7] 2464 	cp	a, #0x02
    00000DB3 28 04            [12] 2465 	jr	Z, 00195$
    00000DB5 FE 04            [ 7] 2466 	cp	a, #0x04
    00000DB7 20 05            [12] 2467 	jr	NZ, 00196$
    00000DB9                       2468 00195$:
                                   2469 ;E:\Dropbox\FAUSTO\SVILUPPI\MSX\CODE\C\MSXgl\projects\soccerlgSCC/soccerlg_s9_b3.c:346: pose = (team == TEAM_1) ? PLAYER_POSE_TEAM1_RESTART_RIGHT : PLAYER_POSE_TEAM2_RESTART_RIGHT;
    00000DB9 1E CB            [ 7] 2470 	ld	e, #0xcb
    00000DBB C3rD1r0D         [10] 2471 	jp	00197$
    00000DBE                       2472 00196$:
                                   2473 ;E:\Dropbox\FAUSTO\SVILUPPI\MSX\CODE\C\MSXgl\projects\soccerlgSCC/soccerlg_s9_b3.c:347: else if (dir == DIRECTION_LEFT || dir == DIRECTION_UP_LEFT || dir == DIRECTION_DOWN_LEFT)
    00000DBE FE 07            [ 7] 2474 	cp	a, #0x07
    00000DC0 28 08            [12] 2475 	jr	Z, 00190$
    00000DC2 FE 08            [ 7] 2476 	cp	a, #0x08
    00000DC4 28 04            [12] 2477 	jr	Z, 00190$
    00000DC6 D6 06            [ 7] 2478 	sub	a, #0x06
    00000DC8 20 05            [12] 2479 	jr	NZ, 00191$
    00000DCA                       2480 00190$:
                                   2481 ;E:\Dropbox\FAUSTO\SVILUPPI\MSX\CODE\C\MSXgl\projects\soccerlgSCC/soccerlg_s9_b3.c:348: pose = (team == TEAM_1) ? PLAYER_POSE_TEAM1_RESTART_LEFT : PLAYER_POSE_TEAM2_RESTART_LEFT;
    00000DCA 1E 44            [ 7] 2482 	ld	e, #0x44
    00000DCC C3rD1r0D         [10] 2483 	jp	00197$
    00000DCF                       2484 00191$:
                                   2485 ;E:\Dropbox\FAUSTO\SVILUPPI\MSX\CODE\C\MSXgl\projects\soccerlgSCC/soccerlg_s9_b3.c:350: pose = (team == TEAM_1) ? PLAYER_POSE_TEAM1_RESTART_FRONT : PLAYER_POSE_TEAM2_RESTART_FRONT;
    00000DCF 1E 45            [ 7] 2486 	ld	e, #0x45
    00000DD1                       2487 00197$:
                                   2488 ;E:\Dropbox\FAUSTO\SVILUPPI\MSX\CODE\C\MSXgl\projects\soccerlgSCC/soccerlg_s9_b3.c:352: g_Players[g_GkAnimPlayerId].PatternId = pose;
    00000DD1 21 08 00         [10] 2489 	ld	hl, #0x0008
    00000DD4 09               [11] 2490 	add	hl, bc
    00000DD5 73               [ 7] 2491 	ld	(hl), e
                                   2492 ;E:\Dropbox\FAUSTO\SVILUPPI\MSX\CODE\C\MSXgl\projects\soccerlgSCC/soccerlg_s9_b3.c:353: g_Players[g_GkAnimPlayerId].Status = PLAYER_STATUS_POSITIONED;
    00000DD6 ED 4Br00r00      [20] 2493 	ld	bc, (_g_GkAnimPlayerId)
    00000DDA 06 00            [ 7] 2494 	ld	b, #0x00
    00000DDC 69               [ 4] 2495 	ld	l, c
    00000DDD 60               [ 4] 2496 	ld	h, b
    00000DDE 29               [11] 2497 	add	hl, hl
    00000DDF 29               [11] 2498 	add	hl, hl
    00000DE0 09               [11] 2499 	add	hl, bc
    00000DE1 29               [11] 2500 	add	hl, hl
    00000DE2 29               [11] 2501 	add	hl, hl
    00000DE3 09               [11] 2502 	add	hl, bc
    00000DE4 11r00r00         [10] 2503 	ld	de, #_g_Players
    00000DE7 19               [11] 2504 	add	hl, de
    00000DE8 01 12 00         [10] 2505 	ld	bc, #0x0012
    00000DEB 09               [11] 2506 	add	hl, bc
    00000DEC 36 04            [10] 2507 	ld	(hl), #0x04
    00000DEE 23               [ 6] 2508 	inc	hl
    00000DEF 36 00            [10] 2509 	ld	(hl), #0x00
                                   2510 ;E:\Dropbox\FAUSTO\SVILUPPI\MSX\CODE\C\MSXgl\projects\soccerlgSCC/soccerlg_s9_b3.c:355: g_Ball.StealCooldown = 30;
    00000DF1 21r0Fr00         [10] 2511 	ld	hl, #(_g_Ball + 15)
    00000DF4 36 1E            [10] 2512 	ld	(hl), #0x1e
                                   2513 ;E:\Dropbox\FAUSTO\SVILUPPI\MSX\CODE\C\MSXgl\projects\soccerlgSCC/soccerlg_s9_b3.c:356: ResumeAfterGoalkick();
    00000DF6 CDr00r00         [17] 2514 	call	_ResumeAfterGoalkick
                                   2515 ;E:\Dropbox\FAUSTO\SVILUPPI\MSX\CODE\C\MSXgl\projects\soccerlgSCC/soccerlg_s9_b3.c:357: g_MatchStatus = MATCH_IN_ACTION;
    00000DF9 21r00r00         [10] 2516 	ld	hl, #_g_MatchStatus
    00000DFC 36 0C            [10] 2517 	ld	(hl), #0x0c
    00000DFE                       2518 00209$:
                                   2519 ;E:\Dropbox\FAUSTO\SVILUPPI\MSX\CODE\C\MSXgl\projects\soccerlgSCC/soccerlg_s9_b3.c:361: }
    00000DFE DD F9            [10] 2520 	ld	sp, ix
    00000E00 DD E1            [14] 2521 	pop	ix
    00000E02 C9               [10] 2522 	ret
                                   2523 ;E:\Dropbox\FAUSTO\SVILUPPI\MSX\CODE\C\MSXgl\projects\soccerlgSCC/soccerlg_s9_b3.c:363: void UpdatePassTarget() {
                                   2524 ;	---------------------------------
                                   2525 ; Function UpdatePassTarget
                                   2526 ; ---------------------------------
    00000E03                       2527 _UpdatePassTarget::
                                   2528 ;E:\Dropbox\FAUSTO\SVILUPPI\MSX\CODE\C\MSXgl\projects\soccerlgSCC/soccerlg_s9_b3.c:365: if (g_MatchStatus != MATCH_IN_ACTION && g_MatchStatus != MATCH_BALL_ON_GOALKEEPER) {
    00000E03 3Ar00r00         [13] 2529 	ld	a,(_g_MatchStatus+0)
    00000E06 FE 0C            [ 7] 2530 	cp	a,#0x0c
    00000E08 28 03            [12] 2531 	jr	Z, 00102$
    00000E0A D6 0D            [ 7] 2532 	sub	a, #0x0d
                                   2533 ;E:\Dropbox\FAUSTO\SVILUPPI\MSX\CODE\C\MSXgl\projects\soccerlgSCC/soccerlg_s9_b3.c:366: return; 
    00000E0C C0               [11] 2534 	ret	NZ
    00000E0D                       2535 00102$:
                                   2536 ;E:\Dropbox\FAUSTO\SVILUPPI\MSX\CODE\C\MSXgl\projects\soccerlgSCC/soccerlg_s9_b3.c:369: u8 carrier = g_Ball.PossessionPlayerId;
    00000E0D 3Ar06r00         [13] 2537 	ld	a, (#_g_Ball + 6)
    00000E10 4F               [ 4] 2538 	ld	c, a
                                   2539 ;E:\Dropbox\FAUSTO\SVILUPPI\MSX\CODE\C\MSXgl\projects\soccerlgSCC/soccerlg_s9_b3.c:371: if (g_Ball.PossessionPlayerId == NO_VALUE) {
    00000E11 3C               [ 4] 2540 	inc	a
    00000E12 20 06            [12] 2541 	jr	NZ, 00105$
                                   2542 ;E:\Dropbox\FAUSTO\SVILUPPI\MSX\CODE\C\MSXgl\projects\soccerlgSCC/soccerlg_s9_b3.c:372: g_PassTargetPlayer = NO_VALUE;
    00000E14 21r00r00         [10] 2543 	ld	hl, #_g_PassTargetPlayer
    00000E17 36 FF            [10] 2544 	ld	(hl), #0xff
                                   2545 ;E:\Dropbox\FAUSTO\SVILUPPI\MSX\CODE\C\MSXgl\projects\soccerlgSCC/soccerlg_s9_b3.c:373: return;
    00000E19 C9               [10] 2546 	ret
    00000E1A                       2547 00105$:
                                   2548 ;E:\Dropbox\FAUSTO\SVILUPPI\MSX\CODE\C\MSXgl\projects\soccerlgSCC/soccerlg_s9_b3.c:377: if (g_FrameCounter & 1) return;
    00000E1A 3Ar00r00         [13] 2549 	ld	a, (_g_FrameCounter+0)
    00000E1D 0F               [ 4] 2550 	rrca
    00000E1E D8               [11] 2551 	ret	C
                                   2552 ;E:\Dropbox\FAUSTO\SVILUPPI\MSX\CODE\C\MSXgl\projects\soccerlgSCC/soccerlg_s9_b3.c:379: if (carrier != NO_VALUE) {
    00000E1F 79               [ 4] 2553 	ld	a, c
    00000E20 3C               [ 4] 2554 	inc	a
    00000E21 28 08            [12] 2555 	jr	Z, 00111$
                                   2556 ;E:\Dropbox\FAUSTO\SVILUPPI\MSX\CODE\C\MSXgl\projects\soccerlgSCC/soccerlg_s9_b3.c:380: g_PassTargetPlayer = GetBestPassTarget(carrier);
    00000E23 79               [ 4] 2557 	ld	a, c
    00000E24 CDr36r0E         [17] 2558 	call	_GetBestPassTarget
    00000E27 32r00r00         [13] 2559 	ld	(_g_PassTargetPlayer+0), a
    00000E2A C9               [10] 2560 	ret
    00000E2B                       2561 00111$:
                                   2562 ;E:\Dropbox\FAUSTO\SVILUPPI\MSX\CODE\C\MSXgl\projects\soccerlgSCC/soccerlg_s9_b3.c:382: if (g_Ball.PassTargetPlayerId == NO_VALUE) g_PassTargetPlayer = NO_VALUE;
    00000E2B 3Ar10r00         [13] 2563 	ld	a, (#_g_Ball + 16)
    00000E2E 3C               [ 4] 2564 	inc	a
    00000E2F C0               [11] 2565 	ret	NZ
    00000E30 21r00r00         [10] 2566 	ld	hl, #_g_PassTargetPlayer
    00000E33 36 FF            [10] 2567 	ld	(hl), #0xff
                                   2568 ;E:\Dropbox\FAUSTO\SVILUPPI\MSX\CODE\C\MSXgl\projects\soccerlgSCC/soccerlg_s9_b3.c:384: }
    00000E35 C9               [10] 2569 	ret
                                   2570 ;E:\Dropbox\FAUSTO\SVILUPPI\MSX\CODE\C\MSXgl\projects\soccerlgSCC/soccerlg_s9_b3.c:386: u8 GetBestPassTarget(u8 passerId) {
                                   2571 ;	---------------------------------
                                   2572 ; Function GetBestPassTarget
                                   2573 ; ---------------------------------
    00000E36                       2574 _GetBestPassTarget::
    00000E36 DD E5            [15] 2575 	push	ix
    00000E38 DD 21 00 00      [14] 2576 	ld	ix,#0
    00000E3C DD 39            [15] 2577 	add	ix,sp
    00000E3E 21 E0 FF         [10] 2578 	ld	hl, #-32
    00000E41 39               [11] 2579 	add	hl, sp
    00000E42 F9               [ 6] 2580 	ld	sp, hl
    00000E43 DD 77 FE         [19] 2581 	ld	-2 (ix), a
                                   2582 ;E:\Dropbox\FAUSTO\SVILUPPI\MSX\CODE\C\MSXgl\projects\soccerlgSCC/soccerlg_s9_b3.c:387: u8 bestTarget = NO_VALUE;
    00000E46 DD 36 E0 FF      [19] 2583 	ld	-32 (ix), #0xff
                                   2584 ;E:\Dropbox\FAUSTO\SVILUPPI\MSX\CODE\C\MSXgl\projects\soccerlgSCC/soccerlg_s9_b3.c:388: i32 bestScore = 0;//-2100000000;
    00000E4A AF               [ 4] 2585 	xor	a, a
    00000E4B DD 77 E1         [19] 2586 	ld	-31 (ix), a
    00000E4E DD 77 E2         [19] 2587 	ld	-30 (ix), a
    00000E51 DD 77 E3         [19] 2588 	ld	-29 (ix), a
    00000E54 DD 77 E4         [19] 2589 	ld	-28 (ix), a
                                   2590 ;E:\Dropbox\FAUSTO\SVILUPPI\MSX\CODE\C\MSXgl\projects\soccerlgSCC/soccerlg_s9_b3.c:389: u8 teamId = g_Players[passerId].TeamId;
    00000E57 DD 4E FE         [19] 2591 	ld	c, -2 (ix)
    00000E5A 06 00            [ 7] 2592 	ld	b, #0x00
    00000E5C 69               [ 4] 2593 	ld	l, c
    00000E5D 60               [ 4] 2594 	ld	h, b
    00000E5E 29               [11] 2595 	add	hl, hl
    00000E5F 29               [11] 2596 	add	hl, hl
    00000E60 09               [11] 2597 	add	hl, bc
    00000E61 29               [11] 2598 	add	hl, hl
    00000E62 29               [11] 2599 	add	hl, hl
    00000E63 09               [11] 2600 	add	hl, bc
    00000E64 EB               [ 4] 2601 	ex	de, hl
    00000E65 21r00r00         [10] 2602 	ld	hl, #_g_Players
    00000E68 19               [11] 2603 	add	hl, de
    00000E69 EB               [ 4] 2604 	ex	de, hl
    00000E6A D5               [11] 2605 	push	de
    00000E6B FD E1            [14] 2606 	pop	iy
    00000E6D FD 7E 09         [19] 2607 	ld	a, 9 (iy)
    00000E70 DD 77 E5         [19] 2608 	ld	-27 (ix), a
                                   2609 ;E:\Dropbox\FAUSTO\SVILUPPI\MSX\CODE\C\MSXgl\projects\soccerlgSCC/soccerlg_s9_b3.c:390: u8 dir = g_Players[passerId].Direction;
    00000E73 D5               [11] 2610 	push	de
    00000E74 FD E1            [14] 2611 	pop	iy
    00000E76 FD 4E 0A         [19] 2612 	ld	c, 10 (iy)
                                   2613 ;E:\Dropbox\FAUSTO\SVILUPPI\MSX\CODE\C\MSXgl\projects\soccerlgSCC/soccerlg_s9_b3.c:391: i16 px = (i16)g_Players[passerId].X;
    00000E79 6B               [ 4] 2614 	ld	l, e
                                   2615 ;	spillPairReg hl
                                   2616 ;	spillPairReg hl
    00000E7A 62               [ 4] 2617 	ld	h, d
                                   2618 ;	spillPairReg hl
                                   2619 ;	spillPairReg hl
    00000E7B 23               [ 6] 2620 	inc	hl
    00000E7C 23               [ 6] 2621 	inc	hl
    00000E7D 46               [ 7] 2622 	ld	b, (hl)
    00000E7E 23               [ 6] 2623 	inc	hl
    00000E7F 7E               [ 7] 2624 	ld	a, (hl)
    00000E80 DD 70 E6         [19] 2625 	ld	-26 (ix), b
    00000E83 DD 77 E7         [19] 2626 	ld	-25 (ix), a
                                   2627 ;E:\Dropbox\FAUSTO\SVILUPPI\MSX\CODE\C\MSXgl\projects\soccerlgSCC/soccerlg_s9_b3.c:392: i16 py = (i16)g_Players[passerId].Y;
    00000E86 6B               [ 4] 2628 	ld	l, e
    00000E87 62               [ 4] 2629 	ld	h, d
    00000E88 46               [ 7] 2630 	ld	b, (hl)
    00000E89 23               [ 6] 2631 	inc	hl
    00000E8A 7E               [ 7] 2632 	ld	a, (hl)
    00000E8B DD 70 E8         [19] 2633 	ld	-24 (ix), b
    00000E8E DD 77 E9         [19] 2634 	ld	-23 (ix), a
                                   2635 ;E:\Dropbox\FAUSTO\SVILUPPI\MSX\CODE\C\MSXgl\projects\soccerlgSCC/soccerlg_s9_b3.c:393: bool isGK = (g_Players[passerId].Role == PLAYER_ROLE_GOALKEEPER);
    00000E91 D5               [11] 2636 	push	de
    00000E92 FD E1            [14] 2637 	pop	iy
    00000E94 FD 7E 0D         [19] 2638 	ld	a, 13 (iy)
    00000E97 DD 77 EA         [19] 2639 	ld	-22 (ix), a
    00000E9A B7               [ 4] 2640 	or	a, a
    00000E9B 3E 01            [ 7] 2641 	ld	a, #0x01
    00000E9D 28 01            [12] 2642 	jr	Z, 00291$
    00000E9F AF               [ 4] 2643 	xor	a, a
    00000EA0                       2644 00291$:
    00000EA0 DD 77 EB         [19] 2645 	ld	-21 (ix), a
                                   2646 ;E:\Dropbox\FAUSTO\SVILUPPI\MSX\CODE\C\MSXgl\projects\soccerlgSCC/soccerlg_s9_b3.c:396: i16 dirX = 0, dirY = 0;
    00000EA3 AF               [ 4] 2647 	xor	a, a
    00000EA4 DD 77 EC         [19] 2648 	ld	-20 (ix), a
    00000EA7 DD 77 ED         [19] 2649 	ld	-19 (ix), a
    00000EAA AF               [ 4] 2650 	xor	a, a
    00000EAB DD 77 EE         [19] 2651 	ld	-18 (ix), a
    00000EAE DD 77 EF         [19] 2652 	ld	-17 (ix), a
                                   2653 ;E:\Dropbox\FAUSTO\SVILUPPI\MSX\CODE\C\MSXgl\projects\soccerlgSCC/soccerlg_s9_b3.c:399: if (dir == DIRECTION_NONE) dir = g_Players[passerId].PreviousDirection;
    00000EB1 79               [ 4] 2654 	ld	a, c
    00000EB2 B7               [ 4] 2655 	or	a, a
    00000EB3 20 05            [12] 2656 	jr	NZ, 00102$
    00000EB5 21 0B 00         [10] 2657 	ld	hl, #11
    00000EB8 19               [11] 2658 	add	hl, de
    00000EB9 4E               [ 7] 2659 	ld	c, (hl)
    00000EBA                       2660 00102$:
                                   2661 ;E:\Dropbox\FAUSTO\SVILUPPI\MSX\CODE\C\MSXgl\projects\soccerlgSCC/soccerlg_s9_b3.c:401: if (dir == DIRECTION_UP) dirY = -100;
    00000EBA 79               [ 4] 2662 	ld	a, c
    00000EBB 3D               [ 4] 2663 	dec	a
    00000EBC 20 0B            [12] 2664 	jr	NZ, 00128$
    00000EBE DD 36 EE 9C      [19] 2665 	ld	-18 (ix), #0x9c
    00000EC2 DD 36 EF FF      [19] 2666 	ld	-17 (ix), #0xff
    00000EC6 C3r72r0F         [10] 2667 	jp	00187$
    00000EC9                       2668 00128$:
                                   2669 ;E:\Dropbox\FAUSTO\SVILUPPI\MSX\CODE\C\MSXgl\projects\soccerlgSCC/soccerlg_s9_b3.c:402: else if (dir == DIRECTION_DOWN) dirY = 100;
    00000EC9 79               [ 4] 2670 	ld	a, c
    00000ECA D6 05            [ 7] 2671 	sub	a, #0x05
    00000ECC 20 0B            [12] 2672 	jr	NZ, 00125$
    00000ECE DD 36 EE 64      [19] 2673 	ld	-18 (ix), #0x64
    00000ED2 DD 36 EF 00      [19] 2674 	ld	-17 (ix), #0
    00000ED6 C3r72r0F         [10] 2675 	jp	00187$
    00000ED9                       2676 00125$:
                                   2677 ;E:\Dropbox\FAUSTO\SVILUPPI\MSX\CODE\C\MSXgl\projects\soccerlgSCC/soccerlg_s9_b3.c:403: else if (dir == DIRECTION_LEFT) dirX = -100;
    00000ED9 79               [ 4] 2678 	ld	a, c
    00000EDA D6 07            [ 7] 2679 	sub	a, #0x07
    00000EDC 20 0B            [12] 2680 	jr	NZ, 00122$
    00000EDE DD 36 EC 9C      [19] 2681 	ld	-20 (ix), #0x9c
    00000EE2 DD 36 ED FF      [19] 2682 	ld	-19 (ix), #0xff
    00000EE6 C3r72r0F         [10] 2683 	jp	00187$
    00000EE9                       2684 00122$:
                                   2685 ;E:\Dropbox\FAUSTO\SVILUPPI\MSX\CODE\C\MSXgl\projects\soccerlgSCC/soccerlg_s9_b3.c:404: else if (dir == DIRECTION_RIGHT) dirX = 100;
    00000EE9 79               [ 4] 2686 	ld	a, c
    00000EEA D6 03            [ 7] 2687 	sub	a, #0x03
    00000EEC 20 0B            [12] 2688 	jr	NZ, 00119$
    00000EEE DD 36 EC 64      [19] 2689 	ld	-20 (ix), #0x64
    00000EF2 DD 36 ED 00      [19] 2690 	ld	-19 (ix), #0
    00000EF6 C3r72r0F         [10] 2691 	jp	00187$
    00000EF9                       2692 00119$:
                                   2693 ;E:\Dropbox\FAUSTO\SVILUPPI\MSX\CODE\C\MSXgl\projects\soccerlgSCC/soccerlg_s9_b3.c:405: else if (dir == DIRECTION_UP_RIGHT) { dirX = 70; dirY = -70; }
    00000EF9 79               [ 4] 2694 	ld	a, c
    00000EFA D6 02            [ 7] 2695 	sub	a, #0x02
    00000EFC 20 13            [12] 2696 	jr	NZ, 00116$
    00000EFE DD 36 EC 46      [19] 2697 	ld	-20 (ix), #0x46
    00000F02 AF               [ 4] 2698 	xor	a, a
    00000F03 DD 77 ED         [19] 2699 	ld	-19 (ix), a
    00000F06 DD 36 EE BA      [19] 2700 	ld	-18 (ix), #0xba
    00000F0A DD 36 EF FF      [19] 2701 	ld	-17 (ix), #0xff
    00000F0E C3r72r0F         [10] 2702 	jp	00187$
    00000F11                       2703 00116$:
                                   2704 ;E:\Dropbox\FAUSTO\SVILUPPI\MSX\CODE\C\MSXgl\projects\soccerlgSCC/soccerlg_s9_b3.c:406: else if (dir == DIRECTION_UP_LEFT) { dirX = -70; dirY = -70; }
    00000F11 79               [ 4] 2705 	ld	a, c
    00000F12 D6 08            [ 7] 2706 	sub	a, #0x08
    00000F14 20 13            [12] 2707 	jr	NZ, 00113$
    00000F16 DD 36 EC BA      [19] 2708 	ld	-20 (ix), #0xba
    00000F1A DD 36 ED FF      [19] 2709 	ld	-19 (ix), #0xff
    00000F1E DD 36 EE BA      [19] 2710 	ld	-18 (ix), #0xba
    00000F22 DD 36 EF FF      [19] 2711 	ld	-17 (ix), #0xff
    00000F26 C3r72r0F         [10] 2712 	jp	00187$
    00000F29                       2713 00113$:
                                   2714 ;E:\Dropbox\FAUSTO\SVILUPPI\MSX\CODE\C\MSXgl\projects\soccerlgSCC/soccerlg_s9_b3.c:407: else if (dir == DIRECTION_DOWN_RIGHT) { dirX = 70; dirY = 70; }
    00000F29 79               [ 4] 2715 	ld	a, c
    00000F2A D6 04            [ 7] 2716 	sub	a, #0x04
    00000F2C 20 13            [12] 2717 	jr	NZ, 00110$
    00000F2E DD 36 EC 46      [19] 2718 	ld	-20 (ix), #0x46
    00000F32 DD 36 ED 00      [19] 2719 	ld	-19 (ix), #0
    00000F36 DD 36 EE 46      [19] 2720 	ld	-18 (ix), #0x46
    00000F3A DD 36 EF 00      [19] 2721 	ld	-17 (ix), #0
    00000F3E C3r72r0F         [10] 2722 	jp	00187$
    00000F41                       2723 00110$:
                                   2724 ;E:\Dropbox\FAUSTO\SVILUPPI\MSX\CODE\C\MSXgl\projects\soccerlgSCC/soccerlg_s9_b3.c:408: else if (dir == DIRECTION_DOWN_LEFT) { dirX = -70; dirY = 70; }
    00000F41 79               [ 4] 2725 	ld	a, c
    00000F42 D6 06            [ 7] 2726 	sub	a, #0x06
    00000F44 20 13            [12] 2727 	jr	NZ, 00107$
    00000F46 DD 36 EC BA      [19] 2728 	ld	-20 (ix), #0xba
    00000F4A DD 36 ED FF      [19] 2729 	ld	-19 (ix), #0xff
    00000F4E DD 36 EE 46      [19] 2730 	ld	-18 (ix), #0x46
    00000F52 DD 36 EF 00      [19] 2731 	ld	-17 (ix), #0
    00000F56 C3r72r0F         [10] 2732 	jp	00187$
    00000F59                       2733 00107$:
                                   2734 ;E:\Dropbox\FAUSTO\SVILUPPI\MSX\CODE\C\MSXgl\projects\soccerlgSCC/soccerlg_s9_b3.c:410: if (teamId == TEAM_1) dirY = -100; 
    00000F59 DD 7E E5         [19] 2735 	ld	a, -27 (ix)
    00000F5C 3D               [ 4] 2736 	dec	a
    00000F5D 20 0B            [12] 2737 	jr	NZ, 00104$
    00000F5F DD 36 EE 9C      [19] 2738 	ld	-18 (ix), #0x9c
    00000F63 DD 36 EF FF      [19] 2739 	ld	-17 (ix), #0xff
    00000F67 C3r72r0F         [10] 2740 	jp	00187$
    00000F6A                       2741 00104$:
                                   2742 ;E:\Dropbox\FAUSTO\SVILUPPI\MSX\CODE\C\MSXgl\projects\soccerlgSCC/soccerlg_s9_b3.c:411: else dirY = 100; 
    00000F6A DD 36 EE 64      [19] 2743 	ld	-18 (ix), #0x64
    00000F6E DD 36 EF 00      [19] 2744 	ld	-17 (ix), #0
                                   2745 ;E:\Dropbox\FAUSTO\SVILUPPI\MSX\CODE\C\MSXgl\projects\soccerlgSCC/soccerlg_s9_b3.c:414: for(i=0; i<14; i++) {
    00000F72                       2746 00187$:
    00000F72 DD 36 FF 00      [19] 2747 	ld	-1 (ix), #0x00
    00000F76                       2748 00157$:
                                   2749 ;E:\Dropbox\FAUSTO\SVILUPPI\MSX\CODE\C\MSXgl\projects\soccerlgSCC/soccerlg_s9_b3.c:419: if(g_Players[i].TeamId != teamId) continue;
    00000F76 DD 4E FF         [19] 2750 	ld	c, -1 (ix)
    00000F79 06 00            [ 7] 2751 	ld	b, #0x00
    00000F7B 69               [ 4] 2752 	ld	l, c
    00000F7C 60               [ 4] 2753 	ld	h, b
    00000F7D 29               [11] 2754 	add	hl, hl
    00000F7E 29               [11] 2755 	add	hl, hl
    00000F7F 09               [11] 2756 	add	hl, bc
    00000F80 29               [11] 2757 	add	hl, hl
    00000F81 29               [11] 2758 	add	hl, hl
    00000F82 09               [11] 2759 	add	hl, bc
    00000F83 EB               [ 4] 2760 	ex	de, hl
    00000F84 21r00r00         [10] 2761 	ld	hl, #_g_Players
    00000F87 19               [11] 2762 	add	hl, de
    00000F88 DD 75 FC         [19] 2763 	ld	-4 (ix), l
    00000F8B DD 74 FD         [19] 2764 	ld	-3 (ix), h
    00000F8E 01 09 00         [10] 2765 	ld	bc,#9
    00000F91 09               [11] 2766 	add	hl,bc
    00000F92 DD 7E E5         [19] 2767 	ld	a,-27 (ix)
    00000F95 96               [ 7] 2768 	sub	a,(hl)
    00000F96 C2r48r12         [10] 2769 	jp	NZ,00155$
                                   2770 ;E:\Dropbox\FAUSTO\SVILUPPI\MSX\CODE\C\MSXgl\projects\soccerlgSCC/soccerlg_s9_b3.c:420: if(i == passerId) continue;
    00000F99 DD 7E FE         [19] 2771 	ld	a, -2 (ix)
    00000F9C DD 96 FF         [19] 2772 	sub	a, -1 (ix)
    00000F9F CAr48r12         [10] 2773 	jp	Z,00155$
                                   2774 ;E:\Dropbox\FAUSTO\SVILUPPI\MSX\CODE\C\MSXgl\projects\soccerlgSCC/soccerlg_s9_b3.c:422: if(g_Players[i].Role == PLAYER_ROLE_GOALKEEPER) continue; 
    00000FA2 DD 4E FC         [19] 2775 	ld	c, -4 (ix)
    00000FA5 DD 46 FD         [19] 2776 	ld	b, -3 (ix)
    00000FA8 21 0D 00         [10] 2777 	ld	hl, #13
    00000FAB 09               [11] 2778 	add	hl, bc
    00000FAC 7E               [ 7] 2779 	ld	a, (hl)
    00000FAD B7               [ 4] 2780 	or	a, a
    00000FAE CAr48r12         [10] 2781 	jp	Z, 00155$
                                   2782 ;E:\Dropbox\FAUSTO\SVILUPPI\MSX\CODE\C\MSXgl\projects\soccerlgSCC/soccerlg_s9_b3.c:425: if (g_Players[i].Y < g_FieldCurrentYPosition || g_Players[i].Y > (g_FieldCurrentYPosition + 220)) {
    00000FB1 DD 6E FC         [19] 2783 	ld	l, -4 (ix)
    00000FB4 DD 66 FD         [19] 2784 	ld	h, -3 (ix)
    00000FB7 4E               [ 7] 2785 	ld	c, (hl)
    00000FB8 23               [ 6] 2786 	inc	hl
    00000FB9 46               [ 7] 2787 	ld	b, (hl)
    00000FBA 59               [ 4] 2788 	ld	e, c
    00000FBB 50               [ 4] 2789 	ld	d, b
    00000FBC 2Ar00r00         [16] 2790 	ld	hl, (_g_FieldCurrentYPosition)
    00000FBF 7B               [ 4] 2791 	ld	a, e
    00000FC0 95               [ 4] 2792 	sub	a, l
    00000FC1 7A               [ 4] 2793 	ld	a, d
    00000FC2 9C               [ 4] 2794 	sbc	a, h
    00000FC3 DAr48r12         [10] 2795 	jp	C, 00155$
    00000FC6 FD 21 DC 00      [14] 2796 	ld	iy, #0x00dc
    00000FCA C5               [11] 2797 	push	bc
    00000FCB ED 4Br00r00      [20] 2798 	ld	bc, (_g_FieldCurrentYPosition)
    00000FCF FD 09            [15] 2799 	add	iy, bc
    00000FD1 C1               [10] 2800 	pop	bc
    00000FD2 FD E5            [15] 2801 	push	iy
    00000FD4 E1               [10] 2802 	pop	hl
    00000FD5 AF               [ 4] 2803 	xor	a, a
    00000FD6 ED 52            [15] 2804 	sbc	hl, de
    00000FD8 DAr48r12         [10] 2805 	jp	C, 00155$
                                   2806 ;E:\Dropbox\FAUSTO\SVILUPPI\MSX\CODE\C\MSXgl\projects\soccerlgSCC/soccerlg_s9_b3.c:429: dx = (i16)g_Players[i].X - px;
    00000FDB DD 6E FC         [19] 2807 	ld	l, -4 (ix)
                                   2808 ;	spillPairReg hl
                                   2809 ;	spillPairReg hl
    00000FDE DD 66 FD         [19] 2810 	ld	h, -3 (ix)
                                   2811 ;	spillPairReg hl
                                   2812 ;	spillPairReg hl
    00000FE1 23               [ 6] 2813 	inc	hl
    00000FE2 23               [ 6] 2814 	inc	hl
    00000FE3 5E               [ 7] 2815 	ld	e, (hl)
    00000FE4 23               [ 6] 2816 	inc	hl
    00000FE5 56               [ 7] 2817 	ld	d, (hl)
    00000FE6 7B               [ 4] 2818 	ld	a, e
    00000FE7 DD 96 E6         [19] 2819 	sub	a, -26 (ix)
    00000FEA 5F               [ 4] 2820 	ld	e, a
    00000FEB 7A               [ 4] 2821 	ld	a, d
    00000FEC DD 9E E7         [19] 2822 	sbc	a, -25 (ix)
    00000FEF DD 73 FA         [19] 2823 	ld	-6 (ix), e
    00000FF2 DD 77 FB         [19] 2824 	ld	-5 (ix), a
                                   2825 ;E:\Dropbox\FAUSTO\SVILUPPI\MSX\CODE\C\MSXgl\projects\soccerlgSCC/soccerlg_s9_b3.c:430: dy = (i16)g_Players[i].Y - py;
    00000FF5 79               [ 4] 2826 	ld	a, c
    00000FF6 DD 96 E8         [19] 2827 	sub	a, -24 (ix)
    00000FF9 4F               [ 4] 2828 	ld	c, a
    00000FFA 78               [ 4] 2829 	ld	a, b
    00000FFB DD 9E E9         [19] 2830 	sbc	a, -23 (ix)
    00000FFE DD 71 FC         [19] 2831 	ld	-4 (ix), c
    00001001 DD 77 FD         [19] 2832 	ld	-3 (ix), a
                                   2833 ;E:\Dropbox\FAUSTO\SVILUPPI\MSX\CODE\C\MSXgl\projects\soccerlgSCC/soccerlg_s9_b3.c:434: adx = (dx < 0) ? -dx : dx;
    00001004 DD 46 FB         [19] 2834 	ld	b, -5 (ix)
    00001007 CB 78            [ 8] 2835 	bit	7, b
    00001009 28 11            [12] 2836 	jr	Z, 00160$
    0000100B AF               [ 4] 2837 	xor	a, a
    0000100C DD 96 FA         [19] 2838 	sub	a, -6 (ix)
    0000100F DD 77 F8         [19] 2839 	ld	-8 (ix), a
    00001012 9F               [ 4] 2840 	sbc	a, a
    00001013 DD 96 FB         [19] 2841 	sub	a, -5 (ix)
    00001016 DD 77 F9         [19] 2842 	ld	-7 (ix), a
    00001019 C3r28r10         [10] 2843 	jp	00161$
    0000101C                       2844 00160$:
    0000101C DD 7E FA         [19] 2845 	ld	a, -6 (ix)
    0000101F DD 77 F8         [19] 2846 	ld	-8 (ix), a
    00001022 DD 7E FB         [19] 2847 	ld	a, -5 (ix)
    00001025 DD 77 F9         [19] 2848 	ld	-7 (ix), a
    00001028                       2849 00161$:
    00001028 DD 4E F8         [19] 2850 	ld	c, -8 (ix)
    0000102B DD 46 F9         [19] 2851 	ld	b, -7 (ix)
                                   2852 ;E:\Dropbox\FAUSTO\SVILUPPI\MSX\CODE\C\MSXgl\projects\soccerlgSCC/soccerlg_s9_b3.c:435: ady = (dy < 0) ? -dy : dy;
    0000102E DD 56 FD         [19] 2853 	ld	d, -3 (ix)
    00001031 CB 7A            [ 8] 2854 	bit	7, d
    00001033 28 0C            [12] 2855 	jr	Z, 00162$
    00001035 AF               [ 4] 2856 	xor	a, a
    00001036 DD 96 FC         [19] 2857 	sub	a, -4 (ix)
    00001039 5F               [ 4] 2858 	ld	e, a
    0000103A 9F               [ 4] 2859 	sbc	a, a
    0000103B DD 96 FD         [19] 2860 	sub	a, -3 (ix)
    0000103E C3r47r10         [10] 2861 	jp	00163$
    00001041                       2862 00162$:
    00001041 DD 5E FC         [19] 2863 	ld	e, -4 (ix)
    00001044 DD 7E FD         [19] 2864 	ld	a, -3 (ix)
    00001047                       2865 00163$:
    00001047 DD 73 F0         [19] 2866 	ld	-16 (ix), e
    0000104A DD 77 F1         [19] 2867 	ld	-15 (ix), a
                                   2868 ;E:\Dropbox\FAUSTO\SVILUPPI\MSX\CODE\C\MSXgl\projects\soccerlgSCC/soccerlg_s9_b3.c:436: if (adx < 32 && ady < 32) continue;
    0000104D 59               [ 4] 2869 	ld	e, c
    0000104E 50               [ 4] 2870 	ld	d, b
    0000104F 7B               [ 4] 2871 	ld	a, e
    00001050 D6 20            [ 7] 2872 	sub	a, #0x20
    00001052 7A               [ 4] 2873 	ld	a, d
    00001053 17               [ 4] 2874 	rla
    00001054 3F               [ 4] 2875 	ccf
    00001055 1F               [ 4] 2876 	rra
    00001056 DE 80            [ 7] 2877 	sbc	a, #0x80
    00001058 30 12            [12] 2878 	jr	NC, 00140$
    0000105A DD 5E F0         [19] 2879 	ld	e, -16 (ix)
    0000105D DD 56 F1         [19] 2880 	ld	d, -15 (ix)
    00001060 7B               [ 4] 2881 	ld	a, e
    00001061 D6 20            [ 7] 2882 	sub	a, #0x20
    00001063 7A               [ 4] 2883 	ld	a, d
    00001064 17               [ 4] 2884 	rla
    00001065 3F               [ 4] 2885 	ccf
    00001066 1F               [ 4] 2886 	rra
    00001067 DE 80            [ 7] 2887 	sbc	a, #0x80
    00001069 DAr48r12         [10] 2888 	jp	C, 00155$
    0000106C                       2889 00140$:
                                   2890 ;E:\Dropbox\FAUSTO\SVILUPPI\MSX\CODE\C\MSXgl\projects\soccerlgSCC/soccerlg_s9_b3.c:439: if (isGK && (adx + ady) < 160) continue; // Increased min distance (force long ball)
    0000106C DD 7E EB         [19] 2891 	ld	a, -21 (ix)
    0000106F B7               [ 4] 2892 	or	a, a
    00001070 28 15            [12] 2893 	jr	Z, 00143$
    00001072 DD 6E F0         [19] 2894 	ld	l, -16 (ix)
    00001075 DD 66 F1         [19] 2895 	ld	h, -15 (ix)
    00001078 09               [11] 2896 	add	hl, bc
    00001079 11 A0 80         [10] 2897 	ld	de, #0x80a0
    0000107C 29               [11] 2898 	add	hl, hl
    0000107D 3F               [ 4] 2899 	ccf
    0000107E CB 1C            [ 8] 2900 	rr	h
    00001080 CB 1D            [ 8] 2901 	rr	l
    00001082 ED 52            [15] 2902 	sbc	hl, de
    00001084 DAr48r12         [10] 2903 	jp	C, 00155$
    00001087                       2904 00143$:
                                   2905 ;E:\Dropbox\FAUSTO\SVILUPPI\MSX\CODE\C\MSXgl\projects\soccerlgSCC/soccerlg_s9_b3.c:444: if (((i32)dx*(i32)dx + (i32)dy*(i32)dy) > 62500) continue;
    00001087 DD 7E FA         [19] 2906 	ld	a, -6 (ix)
    0000108A DD 77 F2         [19] 2907 	ld	-14 (ix), a
    0000108D DD 7E FB         [19] 2908 	ld	a, -5 (ix)
    00001090 DD 77 F3         [19] 2909 	ld	-13 (ix), a
    00001093 07               [ 4] 2910 	rlca
    00001094 9F               [ 4] 2911 	sbc	a, a
    00001095 DD 77 F4         [19] 2912 	ld	-12 (ix), a
    00001098 DD 77 F5         [19] 2913 	ld	-11 (ix), a
    0000109B DD 7E FC         [19] 2914 	ld	a, -4 (ix)
    0000109E DD 77 F6         [19] 2915 	ld	-10 (ix), a
    000010A1 DD 7E FD         [19] 2916 	ld	a, -3 (ix)
    000010A4 DD 77 F7         [19] 2917 	ld	-9 (ix), a
    000010A7 07               [ 4] 2918 	rlca
    000010A8 9F               [ 4] 2919 	sbc	a, a
    000010A9 DD 77 F8         [19] 2920 	ld	-8 (ix), a
    000010AC DD 77 F9         [19] 2921 	ld	-7 (ix), a
                                   2922 ;E:\Dropbox\FAUSTO\SVILUPPI\MSX\CODE\C\MSXgl\projects\soccerlgSCC/soccerlg_s9_b3.c:442: if (g_Players[passerId].Role == PLAYER_ROLE_GOALKEEPER) {
    000010AF DD 7E EA         [19] 2923 	ld	a, -22 (ix)
    000010B2 B7               [ 4] 2924 	or	a, a
    000010B3 20 74            [12] 2925 	jr	NZ, 00148$
                                   2926 ;E:\Dropbox\FAUSTO\SVILUPPI\MSX\CODE\C\MSXgl\projects\soccerlgSCC/soccerlg_s9_b3.c:444: if (((i32)dx*(i32)dx + (i32)dy*(i32)dy) > 62500) continue;
    000010B5 C5               [11] 2927 	push	bc
    000010B6 DD 6E F4         [19] 2928 	ld	l, -12 (ix)
                                   2929 ;	spillPairReg hl
                                   2930 ;	spillPairReg hl
    000010B9 DD 66 F5         [19] 2931 	ld	h, -11 (ix)
                                   2932 ;	spillPairReg hl
                                   2933 ;	spillPairReg hl
    000010BC E5               [11] 2934 	push	hl
    000010BD DD 6E F2         [19] 2935 	ld	l, -14 (ix)
                                   2936 ;	spillPairReg hl
                                   2937 ;	spillPairReg hl
    000010C0 DD 66 F3         [19] 2938 	ld	h, -13 (ix)
                                   2939 ;	spillPairReg hl
                                   2940 ;	spillPairReg hl
    000010C3 E5               [11] 2941 	push	hl
    000010C4 DD 5E F2         [19] 2942 	ld	e, -14 (ix)
    000010C7 DD 56 F3         [19] 2943 	ld	d, -13 (ix)
    000010CA DD 6E F4         [19] 2944 	ld	l, -12 (ix)
                                   2945 ;	spillPairReg hl
                                   2946 ;	spillPairReg hl
    000010CD DD 66 F5         [19] 2947 	ld	h, -11 (ix)
                                   2948 ;	spillPairReg hl
                                   2949 ;	spillPairReg hl
    000010D0 CDr00r00         [17] 2950 	call	__mullong
    000010D3 F1               [10] 2951 	pop	af
    000010D4 F1               [10] 2952 	pop	af
    000010D5 DD 73 FA         [19] 2953 	ld	-6 (ix), e
    000010D8 DD 72 FB         [19] 2954 	ld	-5 (ix), d
    000010DB DD 75 FC         [19] 2955 	ld	-4 (ix), l
    000010DE DD 74 FD         [19] 2956 	ld	-3 (ix), h
    000010E1 DD 6E F8         [19] 2957 	ld	l, -8 (ix)
                                   2958 ;	spillPairReg hl
                                   2959 ;	spillPairReg hl
    000010E4 DD 66 F9         [19] 2960 	ld	h, -7 (ix)
                                   2961 ;	spillPairReg hl
                                   2962 ;	spillPairReg hl
    000010E7 E5               [11] 2963 	push	hl
    000010E8 DD 6E F6         [19] 2964 	ld	l, -10 (ix)
                                   2965 ;	spillPairReg hl
                                   2966 ;	spillPairReg hl
    000010EB DD 66 F7         [19] 2967 	ld	h, -9 (ix)
                                   2968 ;	spillPairReg hl
                                   2969 ;	spillPairReg hl
    000010EE E5               [11] 2970 	push	hl
    000010EF DD 5E F6         [19] 2971 	ld	e, -10 (ix)
    000010F2 DD 56 F7         [19] 2972 	ld	d, -9 (ix)
    000010F5 DD 6E F8         [19] 2973 	ld	l, -8 (ix)
                                   2974 ;	spillPairReg hl
                                   2975 ;	spillPairReg hl
    000010F8 DD 66 F9         [19] 2976 	ld	h, -7 (ix)
                                   2977 ;	spillPairReg hl
                                   2978 ;	spillPairReg hl
    000010FB CDr00r00         [17] 2979 	call	__mullong
    000010FE F1               [10] 2980 	pop	af
    000010FF F1               [10] 2981 	pop	af
    00001100 C1               [10] 2982 	pop	bc
    00001101 7B               [ 4] 2983 	ld	a, e
    00001102 DD 86 FA         [19] 2984 	add	a, -6 (ix)
    00001105 5F               [ 4] 2985 	ld	e, a
    00001106 7A               [ 4] 2986 	ld	a, d
    00001107 DD 8E FB         [19] 2987 	adc	a, -5 (ix)
    0000110A 57               [ 4] 2988 	ld	d, a
    0000110B 7D               [ 4] 2989 	ld	a, l
    0000110C DD 8E FC         [19] 2990 	adc	a, -4 (ix)
    0000110F 6F               [ 4] 2991 	ld	l, a
                                   2992 ;	spillPairReg hl
                                   2993 ;	spillPairReg hl
    00001110 7C               [ 4] 2994 	ld	a, h
    00001111 DD 8E FD         [19] 2995 	adc	a, -3 (ix)
    00001114 67               [ 4] 2996 	ld	h, a
                                   2997 ;	spillPairReg hl
                                   2998 ;	spillPairReg hl
    00001115 3E 24            [ 7] 2999 	ld	a, #0x24
    00001117 BB               [ 4] 3000 	cp	a, e
    00001118 3E F4            [ 7] 3001 	ld	a, #0xf4
    0000111A 9A               [ 4] 3002 	sbc	a, d
    0000111B 3E 00            [ 7] 3003 	ld	a, #0x00
    0000111D 9D               [ 4] 3004 	sbc	a, l
    0000111E 3E 00            [ 7] 3005 	ld	a, #0x00
    00001120 9C               [ 4] 3006 	sbc	a, h
    00001121 E2r26r11         [10] 3007 	jp	PO, 00313$
    00001124 EE 80            [ 7] 3008 	xor	a, #0x80
    00001126                       3009 00313$:
    00001126 FAr48r12         [10] 3010 	jp	M, 00155$
    00001129                       3011 00148$:
                                   3012 ;E:\Dropbox\FAUSTO\SVILUPPI\MSX\CODE\C\MSXgl\projects\soccerlgSCC/soccerlg_s9_b3.c:447: dot = ((i32)dx * dirX) + ((i32)dy * dirY);
    00001129 DD 5E EC         [19] 3013 	ld	e, -20 (ix)
    0000112C DD 7E ED         [19] 3014 	ld	a, -19 (ix)
    0000112F 57               [ 4] 3015 	ld	d, a
    00001130 07               [ 4] 3016 	rlca
    00001131 ED 62            [15] 3017 	sbc	hl, hl
    00001133 C5               [11] 3018 	push	bc
    00001134 E5               [11] 3019 	push	hl
    00001135 D5               [11] 3020 	push	de
    00001136 DD 5E F2         [19] 3021 	ld	e, -14 (ix)
    00001139 DD 56 F3         [19] 3022 	ld	d, -13 (ix)
    0000113C DD 6E F4         [19] 3023 	ld	l, -12 (ix)
                                   3024 ;	spillPairReg hl
                                   3025 ;	spillPairReg hl
    0000113F DD 66 F5         [19] 3026 	ld	h, -11 (ix)
                                   3027 ;	spillPairReg hl
                                   3028 ;	spillPairReg hl
    00001142 CDr00r00         [17] 3029 	call	__mullong
    00001145 F1               [10] 3030 	pop	af
    00001146 F1               [10] 3031 	pop	af
    00001147 DD 73 FA         [19] 3032 	ld	-6 (ix), e
    0000114A DD 72 FB         [19] 3033 	ld	-5 (ix), d
    0000114D DD 75 FC         [19] 3034 	ld	-4 (ix), l
    00001150 DD 74 FD         [19] 3035 	ld	-3 (ix), h
    00001153 C1               [10] 3036 	pop	bc
    00001154 DD 5E EE         [19] 3037 	ld	e, -18 (ix)
    00001157 DD 7E EF         [19] 3038 	ld	a, -17 (ix)
    0000115A 57               [ 4] 3039 	ld	d, a
    0000115B 07               [ 4] 3040 	rlca
    0000115C ED 62            [15] 3041 	sbc	hl, hl
    0000115E C5               [11] 3042 	push	bc
    0000115F E5               [11] 3043 	push	hl
    00001160 D5               [11] 3044 	push	de
    00001161 DD 5E F6         [19] 3045 	ld	e, -10 (ix)
    00001164 DD 56 F7         [19] 3046 	ld	d, -9 (ix)
    00001167 DD 6E F8         [19] 3047 	ld	l, -8 (ix)
                                   3048 ;	spillPairReg hl
                                   3049 ;	spillPairReg hl
    0000116A DD 66 F9         [19] 3050 	ld	h, -7 (ix)
                                   3051 ;	spillPairReg hl
                                   3052 ;	spillPairReg hl
    0000116D CDr00r00         [17] 3053 	call	__mullong
    00001170 F1               [10] 3054 	pop	af
    00001171 F1               [10] 3055 	pop	af
    00001172 C1               [10] 3056 	pop	bc
    00001173 7B               [ 4] 3057 	ld	a, e
    00001174 DD 86 FA         [19] 3058 	add	a, -6 (ix)
    00001177 5F               [ 4] 3059 	ld	e, a
    00001178 7A               [ 4] 3060 	ld	a, d
    00001179 DD 8E FB         [19] 3061 	adc	a, -5 (ix)
    0000117C 57               [ 4] 3062 	ld	d, a
    0000117D 7D               [ 4] 3063 	ld	a, l
    0000117E DD 8E FC         [19] 3064 	adc	a, -4 (ix)
    00001181 6F               [ 4] 3065 	ld	l, a
                                   3066 ;	spillPairReg hl
                                   3067 ;	spillPairReg hl
    00001182 7C               [ 4] 3068 	ld	a, h
    00001183 DD 8E FD         [19] 3069 	adc	a, -3 (ix)
    00001186 67               [ 4] 3070 	ld	h, a
                                   3071 ;	spillPairReg hl
                                   3072 ;	spillPairReg hl
    00001187 DD 73 FA         [19] 3073 	ld	-6 (ix), e
    0000118A DD 72 FB         [19] 3074 	ld	-5 (ix), d
    0000118D DD 75 FC         [19] 3075 	ld	-4 (ix), l
    00001190 DD 74 FD         [19] 3076 	ld	-3 (ix), h
                                   3077 ;E:\Dropbox\FAUSTO\SVILUPPI\MSX\CODE\C\MSXgl\projects\soccerlgSCC/soccerlg_s9_b3.c:450: if (dot <= 0) {
    00001193 AF               [ 4] 3078 	xor	a, a
    00001194 DD BE FA         [19] 3079 	cp	a, -6 (ix)
    00001197 DD 9E FB         [19] 3080 	sbc	a, -5 (ix)
    0000119A 3E 00            [ 7] 3081 	ld	a, #0x00
    0000119C DD 9E FC         [19] 3082 	sbc	a, -4 (ix)
    0000119F 3E 00            [ 7] 3083 	ld	a, #0x00
    000011A1 DD 9E FD         [19] 3084 	sbc	a, -3 (ix)
    000011A4 E2rA9r11         [10] 3085 	jp	PO, 00314$
    000011A7 EE 80            [ 7] 3086 	xor	a, #0x80
    000011A9                       3087 00314$:
    000011A9 F2r48r12         [10] 3088 	jp	P, 00155$
                                   3089 ;E:\Dropbox\FAUSTO\SVILUPPI\MSX\CODE\C\MSXgl\projects\soccerlgSCC/soccerlg_s9_b3.c:461: score = dot - ((i32)(adx + ady) * 60); 
    000011AC DD 6E F0         [19] 3090 	ld	l, -16 (ix)
    000011AF DD 66 F1         [19] 3091 	ld	h, -15 (ix)
    000011B2 09               [11] 3092 	add	hl, bc
    000011B3 DD 75 F6         [19] 3093 	ld	-10 (ix), l
    000011B6 7C               [ 4] 3094 	ld	a, h
    000011B7 DD 77 F7         [19] 3095 	ld	-9 (ix), a
    000011BA 07               [ 4] 3096 	rlca
    000011BB 9F               [ 4] 3097 	sbc	a, a
                                   3098 ;	spillPairReg hl
                                   3099 ;	spillPairReg hl
    000011BC DD 77 F8         [19] 3100 	ld	-8 (ix), a
    000011BF DD 77 F9         [19] 3101 	ld	-7 (ix), a
    000011C2 6F               [ 4] 3102 	ld	l, a
    000011C3 67               [ 4] 3103 	ld	h, a
                                   3104 ;	spillPairReg hl
                                   3105 ;	spillPairReg hl
    000011C4 E5               [11] 3106 	push	hl
    000011C5 DD 6E F6         [19] 3107 	ld	l, -10 (ix)
                                   3108 ;	spillPairReg hl
                                   3109 ;	spillPairReg hl
    000011C8 DD 66 F7         [19] 3110 	ld	h, -9 (ix)
                                   3111 ;	spillPairReg hl
                                   3112 ;	spillPairReg hl
    000011CB E5               [11] 3113 	push	hl
    000011CC 11 3C 00         [10] 3114 	ld	de, #0x003c
    000011CF 21 00 00         [10] 3115 	ld	hl, #0x0000
    000011D2 CDr00r00         [17] 3116 	call	__mullong
    000011D5 F1               [10] 3117 	pop	af
    000011D6 F1               [10] 3118 	pop	af
    000011D7 DD 7E FA         [19] 3119 	ld	a, -6 (ix)
    000011DA 93               [ 4] 3120 	sub	a, e
    000011DB 4F               [ 4] 3121 	ld	c, a
    000011DC DD 7E FB         [19] 3122 	ld	a, -5 (ix)
    000011DF 9A               [ 4] 3123 	sbc	a, d
    000011E0 47               [ 4] 3124 	ld	b, a
    000011E1 DD 7E FC         [19] 3125 	ld	a, -4 (ix)
    000011E4 9D               [ 4] 3126 	sbc	a, l
    000011E5 5F               [ 4] 3127 	ld	e, a
    000011E6 DD 7E FD         [19] 3128 	ld	a, -3 (ix)
    000011E9 9C               [ 4] 3129 	sbc	a, h
    000011EA 57               [ 4] 3130 	ld	d, a
                                   3131 ;E:\Dropbox\FAUSTO\SVILUPPI\MSX\CODE\C\MSXgl\projects\soccerlgSCC/soccerlg_s9_b3.c:463: if (isGK) {
    000011EB DD 7E EB         [19] 3132 	ld	a, -21 (ix)
    000011EE B7               [ 4] 3133 	or	a, a
    000011EF 28 2D            [12] 3134 	jr	Z, 00152$
                                   3135 ;E:\Dropbox\FAUSTO\SVILUPPI\MSX\CODE\C\MSXgl\projects\soccerlgSCC/soccerlg_s9_b3.c:465: score = dot + ((i32)(adx + ady) * 10); 
    000011F1 DD 6E F8         [19] 3136 	ld	l, -8 (ix)
                                   3137 ;	spillPairReg hl
                                   3138 ;	spillPairReg hl
    000011F4 DD 66 F9         [19] 3139 	ld	h, -7 (ix)
                                   3140 ;	spillPairReg hl
                                   3141 ;	spillPairReg hl
    000011F7 E5               [11] 3142 	push	hl
    000011F8 DD 6E F6         [19] 3143 	ld	l, -10 (ix)
                                   3144 ;	spillPairReg hl
                                   3145 ;	spillPairReg hl
    000011FB DD 66 F7         [19] 3146 	ld	h, -9 (ix)
                                   3147 ;	spillPairReg hl
                                   3148 ;	spillPairReg hl
    000011FE E5               [11] 3149 	push	hl
    000011FF 11 0A 00         [10] 3150 	ld	de, #0x000a
    00001202 21 00 00         [10] 3151 	ld	hl, #0x0000
    00001205 CDr00r00         [17] 3152 	call	__mullong
    00001208 F1               [10] 3153 	pop	af
    00001209 F1               [10] 3154 	pop	af
    0000120A 7B               [ 4] 3155 	ld	a, e
    0000120B DD 86 FA         [19] 3156 	add	a, -6 (ix)
    0000120E 4F               [ 4] 3157 	ld	c, a
    0000120F 7A               [ 4] 3158 	ld	a, d
    00001210 DD 8E FB         [19] 3159 	adc	a, -5 (ix)
    00001213 47               [ 4] 3160 	ld	b, a
    00001214 7D               [ 4] 3161 	ld	a, l
    00001215 DD 8E FC         [19] 3162 	adc	a, -4 (ix)
    00001218 5F               [ 4] 3163 	ld	e, a
    00001219 7C               [ 4] 3164 	ld	a, h
    0000121A DD 8E FD         [19] 3165 	adc	a, -3 (ix)
    0000121D 57               [ 4] 3166 	ld	d, a
    0000121E                       3167 00152$:
                                   3168 ;E:\Dropbox\FAUSTO\SVILUPPI\MSX\CODE\C\MSXgl\projects\soccerlgSCC/soccerlg_s9_b3.c:468: if (score > bestScore) {
    0000121E DD 7E E1         [19] 3169 	ld	a, -31 (ix)
    00001221 91               [ 4] 3170 	sub	a, c
    00001222 DD 7E E2         [19] 3171 	ld	a, -30 (ix)
    00001225 98               [ 4] 3172 	sbc	a, b
    00001226 DD 7E E3         [19] 3173 	ld	a, -29 (ix)
    00001229 9B               [ 4] 3174 	sbc	a, e
    0000122A DD 7E E4         [19] 3175 	ld	a, -28 (ix)
    0000122D 9A               [ 4] 3176 	sbc	a, d
    0000122E E2r33r12         [10] 3177 	jp	PO, 00315$
    00001231 EE 80            [ 7] 3178 	xor	a, #0x80
    00001233                       3179 00315$:
    00001233 F2r48r12         [10] 3180 	jp	P, 00155$
                                   3181 ;E:\Dropbox\FAUSTO\SVILUPPI\MSX\CODE\C\MSXgl\projects\soccerlgSCC/soccerlg_s9_b3.c:469: bestScore = score;
    00001236 DD 71 E1         [19] 3182 	ld	-31 (ix), c
    00001239 DD 70 E2         [19] 3183 	ld	-30 (ix), b
    0000123C DD 73 E3         [19] 3184 	ld	-29 (ix), e
    0000123F DD 72 E4         [19] 3185 	ld	-28 (ix), d
                                   3186 ;E:\Dropbox\FAUSTO\SVILUPPI\MSX\CODE\C\MSXgl\projects\soccerlgSCC/soccerlg_s9_b3.c:470: bestTarget = i;
    00001242 DD 7E FF         [19] 3187 	ld	a, -1 (ix)
    00001245 DD 77 E0         [19] 3188 	ld	-32 (ix), a
    00001248                       3189 00155$:
                                   3190 ;E:\Dropbox\FAUSTO\SVILUPPI\MSX\CODE\C\MSXgl\projects\soccerlgSCC/soccerlg_s9_b3.c:414: for(i=0; i<14; i++) {
    00001248 DD 34 FF         [23] 3191 	inc	-1 (ix)
    0000124B DD 7E FF         [19] 3192 	ld	a, -1 (ix)
    0000124E D6 0E            [ 7] 3193 	sub	a, #0x0e
    00001250 DAr76r0F         [10] 3194 	jp	C, 00157$
                                   3195 ;E:\Dropbox\FAUSTO\SVILUPPI\MSX\CODE\C\MSXgl\projects\soccerlgSCC/soccerlg_s9_b3.c:506: return bestTarget;
    00001253 DD 7E E0         [19] 3196 	ld	a, -32 (ix)
                                   3197 ;E:\Dropbox\FAUSTO\SVILUPPI\MSX\CODE\C\MSXgl\projects\soccerlgSCC/soccerlg_s9_b3.c:507: }
    00001256 DD F9            [10] 3198 	ld	sp, ix
    00001258 DD E1            [14] 3199 	pop	ix
    0000125A C9               [10] 3200 	ret
                                   3201 ;E:\Dropbox\FAUSTO\SVILUPPI\MSX\CODE\C\MSXgl\projects\soccerlgSCC/soccerlg_s9_b3.c:509: void TickBallCollision(){
                                   3202 ;	---------------------------------
                                   3203 ; Function TickBallCollision
                                   3204 ; ---------------------------------
    0000125B                       3205 _TickBallCollision::
    0000125B DD E5            [15] 3206 	push	ix
    0000125D DD 21 00 00      [14] 3207 	ld	ix,#0
    00001261 DD 39            [15] 3208 	add	ix,sp
    00001263 21 ED FF         [10] 3209 	ld	hl, #-19
    00001266 39               [11] 3210 	add	hl, sp
    00001267 F9               [ 6] 3211 	ld	sp, hl
                                   3212 ;E:\Dropbox\FAUSTO\SVILUPPI\MSX\CODE\C\MSXgl\projects\soccerlgSCC/soccerlg_s9_b3.c:510: if(g_MatchStatus!=MATCH_IN_ACTION){
                                   3213 ;E:\Dropbox\FAUSTO\SVILUPPI\MSX\CODE\C\MSXgl\projects\soccerlgSCC/soccerlg_s9_b3.c:511: return;
                                   3214 ;E:\Dropbox\FAUSTO\SVILUPPI\MSX\CODE\C\MSXgl\projects\soccerlgSCC/soccerlg_s9_b3.c:515: if (g_MatchStatus == MATCH_BALL_ON_GOALKEEPER) {
    00001268 3Ar00r00         [13] 3215 	ld	a,(_g_MatchStatus+0)
    0000126B FE 0C            [ 7] 3216 	cp	a,#0x0c
    0000126D C2r35r16         [10] 3217 	jp	NZ,00174$
    00001270 D6 0D            [ 7] 3218 	sub	a, #0x0d
    00001272 CAr35r16         [10] 3219 	jp	Z,00174$
                                   3220 ;E:\Dropbox\FAUSTO\SVILUPPI\MSX\CODE\C\MSXgl\projects\soccerlgSCC/soccerlg_s9_b3.c:516: return;
    00001275 C3r78r12         [10] 3221 	jp	00104$
    00001278                       3222 00104$:
                                   3223 ;E:\Dropbox\FAUSTO\SVILUPPI\MSX\CODE\C\MSXgl\projects\soccerlgSCC/soccerlg_s9_b3.c:520: if (g_Ball.PossessionPlayerId != NO_VALUE) {
    00001278 3Ar06r00         [13] 3224 	ld	a, (#(_g_Ball + 6) + 0)
    0000127B 3C               [ 4] 3225 	inc	a
    0000127C 28 0A            [12] 3226 	jr	Z, 00108$
                                   3227 ;E:\Dropbox\FAUSTO\SVILUPPI\MSX\CODE\C\MSXgl\projects\soccerlgSCC/soccerlg_s9_b3.c:521: if (g_Ball.PossessionTimer < 255) g_Ball.PossessionTimer++;
    0000127E 01r1Cr00         [10] 3228 	ld	bc, #_g_Ball + 28
    00001281 0A               [ 7] 3229 	ld	a, (bc)
    00001282 FE FF            [ 7] 3230 	cp	a, #0xff
    00001284 30 02            [12] 3231 	jr	NC, 00108$
    00001286 3C               [ 4] 3232 	inc	a
    00001287 02               [ 7] 3233 	ld	(bc), a
    00001288                       3234 00108$:
                                   3235 ;E:\Dropbox\FAUSTO\SVILUPPI\MSX\CODE\C\MSXgl\projects\soccerlgSCC/soccerlg_s9_b3.c:525: if (g_Ball.StealCooldown > 0) {
    00001288 3Ar0Fr00         [13] 3236 	ld	a, (#(_g_Ball + 15) + 0)
    0000128B B7               [ 4] 3237 	or	a, a
    0000128C 28 04            [12] 3238 	jr	Z, 00110$
                                   3239 ;E:\Dropbox\FAUSTO\SVILUPPI\MSX\CODE\C\MSXgl\projects\soccerlgSCC/soccerlg_s9_b3.c:526: g_Ball.StealCooldown--;
    0000128E 3D               [ 4] 3240 	dec	a
    0000128F 32r0Fr00         [13] 3241 	ld	(#(_g_Ball + 15)),a
    00001292                       3242 00110$:
                                   3243 ;E:\Dropbox\FAUSTO\SVILUPPI\MSX\CODE\C\MSXgl\projects\soccerlgSCC/soccerlg_s9_b3.c:531: if (g_Ball.PossessionPlayerId == NO_VALUE) { // Ball in air
    00001292 21r06r00         [10] 3244 	ld	hl, #(_g_Ball + 6)
    00001295 4E               [ 7] 3245 	ld	c, (hl)
                                   3246 ;E:\Dropbox\FAUSTO\SVILUPPI\MSX\CODE\C\MSXgl\projects\soccerlgSCC/soccerlg_s9_b3.c:534: if (g_Ball.ShotActive == 1) {
                                   3247 ;E:\Dropbox\FAUSTO\SVILUPPI\MSX\CODE\C\MSXgl\projects\soccerlgSCC/soccerlg_s9_b3.c:535: i16 diffStart = (i16)g_Ball.X - (i16)g_Ball.PassStartX; 
                                   3248 ;E:\Dropbox\FAUSTO\SVILUPPI\MSX\CODE\C\MSXgl\projects\soccerlgSCC/soccerlg_s9_b3.c:531: if (g_Ball.PossessionPlayerId == NO_VALUE) { // Ball in air
    00001296 0C               [ 4] 3249 	inc	c
    00001297 28 00            [12] 3250 	jr	Z, 00348$
    00001299                       3251 00348$:
                                   3252 ;E:\Dropbox\FAUSTO\SVILUPPI\MSX\CODE\C\MSXgl\projects\soccerlgSCC/soccerlg_s9_b3.c:541: for(u8 i=0; i<14; i++){
    00001299 DD 36 ED 00      [19] 3253 	ld	-19 (ix), #0x00
    0000129D DD 36 FF 00      [19] 3254 	ld	-1 (ix), #0x00
    000012A1                       3255 00173$:
    000012A1 DD 7E FF         [19] 3256 	ld	a, -1 (ix)
    000012A4 D6 0E            [ 7] 3257 	sub	a, #0x0e
    000012A6 D2r35r16         [10] 3258 	jp	NC, 00174$
                                   3259 ;E:\Dropbox\FAUSTO\SVILUPPI\MSX\CODE\C\MSXgl\projects\soccerlgSCC/soccerlg_s9_b3.c:542: if(g_Players[i].Status == PLAYER_STATUS_NONE) continue;
    000012A9 DD 4E FF         [19] 3260 	ld	c, -1 (ix)
    000012AC 06 00            [ 7] 3261 	ld	b, #0x00
    000012AE 69               [ 4] 3262 	ld	l, c
    000012AF 60               [ 4] 3263 	ld	h, b
    000012B0 29               [11] 3264 	add	hl, hl
    000012B1 29               [11] 3265 	add	hl, hl
    000012B2 09               [11] 3266 	add	hl, bc
    000012B3 29               [11] 3267 	add	hl, hl
    000012B4 29               [11] 3268 	add	hl, hl
    000012B5 09               [11] 3269 	add	hl, bc
    000012B6 EB               [ 4] 3270 	ex	de, hl
    000012B7 21r00r00         [10] 3271 	ld	hl, #_g_Players
    000012BA 19               [11] 3272 	add	hl, de
    000012BB DD 75 EE         [19] 3273 	ld	-18 (ix), l
    000012BE DD 74 EF         [19] 3274 	ld	-17 (ix), h
                                   3275 ;E:\Dropbox\FAUSTO\SVILUPPI\MSX\CODE\C\MSXgl\projects\soccerlgSCC/soccerlg_s9_b3.c:617: g_Players[i].Status = PLAYER_STATUS_POSITIONED; // Lock it
    000012C1 DD 7E EE         [19] 3276 	ld	a, -18 (ix)
    000012C4 C6 12            [ 7] 3277 	add	a, #0x12
    000012C6 DD 77 F0         [19] 3278 	ld	-16 (ix), a
    000012C9 DD 7E EF         [19] 3279 	ld	a, -17 (ix)
    000012CC CE 00            [ 7] 3280 	adc	a, #0x00
    000012CE DD 77 F1         [19] 3281 	ld	-15 (ix), a
                                   3282 ;E:\Dropbox\FAUSTO\SVILUPPI\MSX\CODE\C\MSXgl\projects\soccerlgSCC/soccerlg_s9_b3.c:542: if(g_Players[i].Status == PLAYER_STATUS_NONE) continue;
    000012D1 DD 6E F0         [19] 3283 	ld	l, -16 (ix)
    000012D4 DD 66 F1         [19] 3284 	ld	h, -15 (ix)
    000012D7 7E               [ 7] 3285 	ld	a, (hl)
    000012D8 23               [ 6] 3286 	inc	hl
    000012D9 B6               [ 7] 3287 	or	a, (hl)
    000012DA CAr29r16         [10] 3288 	jp	Z, 00170$
                                   3289 ;E:\Dropbox\FAUSTO\SVILUPPI\MSX\CODE\C\MSXgl\projects\soccerlgSCC/soccerlg_s9_b3.c:543: if(g_Ball.PossessionPlayerId == i) continue; // Skip self
    000012DD 21r06r00         [10] 3290 	ld	hl, #(_g_Ball + 6)
    000012E0 DD 7E FF         [19] 3291 	ld	a,-1 (ix)
    000012E3 96               [ 7] 3292 	sub	a,(hl)
    000012E4 CAr29r16         [10] 3293 	jp	Z,00170$
                                   3294 ;E:\Dropbox\FAUSTO\SVILUPPI\MSX\CODE\C\MSXgl\projects\soccerlgSCC/soccerlg_s9_b3.c:548: u8 hitDist = 14;
    000012E7 DD 36 F2 0E      [19] 3295 	ld	-14 (ix), #0x0e
                                   3296 ;E:\Dropbox\FAUSTO\SVILUPPI\MSX\CODE\C\MSXgl\projects\soccerlgSCC/soccerlg_s9_b3.c:589: if (g_Players[i].Role == PLAYER_ROLE_GOALKEEPER) {
    000012EB DD 7E EE         [19] 3297 	ld	a, -18 (ix)
    000012EE C6 0D            [ 7] 3298 	add	a, #0x0d
    000012F0 DD 77 F3         [19] 3299 	ld	-13 (ix), a
    000012F3 DD 7E EF         [19] 3300 	ld	a, -17 (ix)
    000012F6 CE 00            [ 7] 3301 	adc	a, #0x00
    000012F8 DD 77 F4         [19] 3302 	ld	-12 (ix), a
                                   3303 ;E:\Dropbox\FAUSTO\SVILUPPI\MSX\CODE\C\MSXgl\projects\soccerlgSCC/soccerlg_s9_b3.c:549: if (g_Players[i].Role == PLAYER_ROLE_GOALKEEPER) {
    000012FB DD 6E F3         [19] 3304 	ld	l, -13 (ix)
    000012FE DD 66 F4         [19] 3305 	ld	h, -12 (ix)
    00001301 7E               [ 7] 3306 	ld	a, (hl)
    00001302 B7               [ 4] 3307 	or	a, a
    00001303 20 2F            [12] 3308 	jr	NZ, 00129$
                                   3309 ;E:\Dropbox\FAUSTO\SVILUPPI\MSX\CODE\C\MSXgl\projects\soccerlgSCC/soccerlg_s9_b3.c:550: u8 countryId = (g_Players[i].TeamId == TEAM_1) ? g_Team1PaletteId : g_Team2PaletteId;
    00001305 DD 4E EE         [19] 3310 	ld	c, -18 (ix)
    00001308 DD 46 EF         [19] 3311 	ld	b, -17 (ix)
    0000130B 21 09 00         [10] 3312 	ld	hl, #9
    0000130E 09               [11] 3313 	add	hl, bc
    0000130F 7E               [ 7] 3314 	ld	a, (hl)
    00001310 3D               [ 4] 3315 	dec	a
    00001311 20 06            [12] 3316 	jr	NZ, 00176$
    00001313 3Ar00r00         [13] 3317 	ld	a, (_g_Team1PaletteId+0)
    00001316 C3r1Cr13         [10] 3318 	jp	00177$
    00001319                       3319 00176$:
    00001319 3Ar00r00         [13] 3320 	ld	a, (_g_Team2PaletteId+0)
    0000131C                       3321 00177$:
                                   3322 ;E:\Dropbox\FAUSTO\SVILUPPI\MSX\CODE\C\MSXgl\projects\soccerlgSCC/soccerlg_s9_b3.c:551: const TeamStats* stats = GetTeamStats(countryId);
    0000131C CDr00r00         [17] 3323 	call	_GetTeamStats
                                   3324 ;E:\Dropbox\FAUSTO\SVILUPPI\MSX\CODE\C\MSXgl\projects\soccerlgSCC/soccerlg_s9_b3.c:552: if (g_Ball.ShotActive) hitDist = stats->GkSkill; 
    0000131F 3Ar1Br00         [13] 3325 	ld	a, (#(_g_Ball + 27) + 0)
    00001322 B7               [ 4] 3326 	or	a, a
    00001323 28 0B            [12] 3327 	jr	Z, 00126$
    00001325 21 04 00         [10] 3328 	ld	hl, #4
    00001328 19               [11] 3329 	add	hl, de
    00001329 7E               [ 7] 3330 	ld	a, (hl)
    0000132A DD 77 F2         [19] 3331 	ld	-14 (ix), a
    0000132D C3r34r13         [10] 3332 	jp	00129$
    00001330                       3333 00126$:
                                   3334 ;E:\Dropbox\FAUSTO\SVILUPPI\MSX\CODE\C\MSXgl\projects\soccerlgSCC/soccerlg_s9_b3.c:553: else hitDist = 14; 
    00001330 DD 36 F2 0E      [19] 3335 	ld	-14 (ix), #0x0e
    00001334                       3336 00129$:
                                   3337 ;E:\Dropbox\FAUSTO\SVILUPPI\MSX\CODE\C\MSXgl\projects\soccerlgSCC/soccerlg_s9_b3.c:557: u16 diffX = (g_Ball.X > g_Players[i].X) ? (g_Ball.X - g_Players[i].X) : (g_Players[i].X - g_Ball.X);
    00001334 21r02r00         [10] 3338 	ld	hl, #_g_Ball + 2
    00001337 7E               [ 7] 3339 	ld	a, (hl)
    00001338 DD 77 F5         [19] 3340 	ld	-11 (ix), a
    0000133B 23               [ 6] 3341 	inc	hl
    0000133C 7E               [ 7] 3342 	ld	a, (hl)
    0000133D DD 77 F6         [19] 3343 	ld	-10 (ix), a
    00001340 DD 6E EE         [19] 3344 	ld	l, -18 (ix)
                                   3345 ;	spillPairReg hl
                                   3346 ;	spillPairReg hl
    00001343 DD 66 EF         [19] 3347 	ld	h, -17 (ix)
                                   3348 ;	spillPairReg hl
                                   3349 ;	spillPairReg hl
    00001346 23               [ 6] 3350 	inc	hl
    00001347 23               [ 6] 3351 	inc	hl
    00001348 7E               [ 7] 3352 	ld	a, (hl)
    00001349 DD 77 F7         [19] 3353 	ld	-9 (ix), a
    0000134C 23               [ 6] 3354 	inc	hl
    0000134D 7E               [ 7] 3355 	ld	a, (hl)
    0000134E DD 77 F8         [19] 3356 	ld	-8 (ix), a
    00001351 DD 7E F7         [19] 3357 	ld	a, -9 (ix)
    00001354 DD 96 F5         [19] 3358 	sub	a, -11 (ix)
    00001357 DD 7E F8         [19] 3359 	ld	a, -8 (ix)
    0000135A DD 9E F6         [19] 3360 	sbc	a, -10 (ix)
    0000135D 30 15            [12] 3361 	jr	NC, 00178$
    0000135F DD 7E F5         [19] 3362 	ld	a, -11 (ix)
    00001362 DD 96 F7         [19] 3363 	sub	a, -9 (ix)
    00001365 DD 77 FD         [19] 3364 	ld	-3 (ix), a
    00001368 DD 7E F6         [19] 3365 	ld	a, -10 (ix)
    0000136B DD 9E F8         [19] 3366 	sbc	a, -8 (ix)
    0000136E DD 77 FE         [19] 3367 	ld	-2 (ix), a
    00001371 C3r86r13         [10] 3368 	jp	00179$
    00001374                       3369 00178$:
    00001374 DD 7E F7         [19] 3370 	ld	a, -9 (ix)
    00001377 DD 96 F5         [19] 3371 	sub	a, -11 (ix)
    0000137A DD 77 FD         [19] 3372 	ld	-3 (ix), a
    0000137D DD 7E F8         [19] 3373 	ld	a, -8 (ix)
    00001380 DD 9E F6         [19] 3374 	sbc	a, -10 (ix)
    00001383 DD 77 FE         [19] 3375 	ld	-2 (ix), a
    00001386                       3376 00179$:
    00001386 DD 7E FD         [19] 3377 	ld	a, -3 (ix)
    00001389 DD 77 F9         [19] 3378 	ld	-7 (ix), a
    0000138C DD 7E FE         [19] 3379 	ld	a, -2 (ix)
    0000138F DD 77 FA         [19] 3380 	ld	-6 (ix), a
                                   3381 ;E:\Dropbox\FAUSTO\SVILUPPI\MSX\CODE\C\MSXgl\projects\soccerlgSCC/soccerlg_s9_b3.c:558: u16 diffY = (g_Ball.Y > g_Players[i].Y) ? (g_Ball.Y - g_Players[i].Y) : (g_Players[i].Y - g_Ball.Y);
    00001392 21r00r00         [10] 3382 	ld	hl, #_g_Ball
    00001395 7E               [ 7] 3383 	ld	a, (hl)
    00001396 DD 77 FB         [19] 3384 	ld	-5 (ix), a
    00001399 23               [ 6] 3385 	inc	hl
    0000139A 7E               [ 7] 3386 	ld	a, (hl)
    0000139B DD 77 FC         [19] 3387 	ld	-4 (ix), a
    0000139E DD 6E EE         [19] 3388 	ld	l, -18 (ix)
    000013A1 DD 66 EF         [19] 3389 	ld	h, -17 (ix)
    000013A4 4E               [ 7] 3390 	ld	c, (hl)
    000013A5 23               [ 6] 3391 	inc	hl
    000013A6 46               [ 7] 3392 	ld	b, (hl)
    000013A7 79               [ 4] 3393 	ld	a, c
    000013A8 DD 96 FB         [19] 3394 	sub	a, -5 (ix)
    000013AB 78               [ 4] 3395 	ld	a, b
    000013AC DD 9E FC         [19] 3396 	sbc	a, -4 (ix)
    000013AF 30 11            [12] 3397 	jr	NC, 00180$
    000013B1 DD 7E FB         [19] 3398 	ld	a, -5 (ix)
    000013B4 91               [ 4] 3399 	sub	a, c
    000013B5 DD 77 FD         [19] 3400 	ld	-3 (ix), a
    000013B8 DD 7E FC         [19] 3401 	ld	a, -4 (ix)
    000013BB 98               [ 4] 3402 	sbc	a, b
    000013BC DD 77 FE         [19] 3403 	ld	-2 (ix), a
    000013BF C3rD0r13         [10] 3404 	jp	00181$
    000013C2                       3405 00180$:
    000013C2 79               [ 4] 3406 	ld	a, c
    000013C3 DD 96 FB         [19] 3407 	sub	a, -5 (ix)
    000013C6 DD 77 FD         [19] 3408 	ld	-3 (ix), a
    000013C9 78               [ 4] 3409 	ld	a, b
    000013CA DD 9E FC         [19] 3410 	sbc	a, -4 (ix)
    000013CD DD 77 FE         [19] 3411 	ld	-2 (ix), a
    000013D0                       3412 00181$:
    000013D0 DD 6E FD         [19] 3413 	ld	l, -3 (ix)
                                   3414 ;	spillPairReg hl
                                   3415 ;	spillPairReg hl
    000013D3 DD 66 FE         [19] 3416 	ld	h, -2 (ix)
                                   3417 ;	spillPairReg hl
                                   3418 ;	spillPairReg hl
                                   3419 ;E:\Dropbox\FAUSTO\SVILUPPI\MSX\CODE\C\MSXgl\projects\soccerlgSCC/soccerlg_s9_b3.c:560: if(diffX < hitDist && diffY < hitDist){ 
    000013D6 DD 4E F2         [19] 3420 	ld	c, -14 (ix)
    000013D9 06 00            [ 7] 3421 	ld	b, #0x00
    000013DB DD 7E F9         [19] 3422 	ld	a, -7 (ix)
    000013DE 91               [ 4] 3423 	sub	a, c
    000013DF DD 7E FA         [19] 3424 	ld	a, -6 (ix)
    000013E2 98               [ 4] 3425 	sbc	a, b
    000013E3 D2r29r16         [10] 3426 	jp	NC, 00170$
    000013E6 AF               [ 4] 3427 	xor	a, a
    000013E7 ED 42            [15] 3428 	sbc	hl, bc
    000013E9 D2r29r16         [10] 3429 	jp	NC, 00170$
                                   3430 ;E:\Dropbox\FAUSTO\SVILUPPI\MSX\CODE\C\MSXgl\projects\soccerlgSCC/soccerlg_s9_b3.c:561: if (g_Ball.PossessionPlayerId == NO_VALUE) {
    000013EC 21r06r00         [10] 3431 	ld	hl, #(_g_Ball + 6)
    000013EF 4E               [ 7] 3432 	ld	c, (hl)
    000013F0 79               [ 4] 3433 	ld	a, c
    000013F1 3C               [ 4] 3434 	inc	a
    000013F2 C2rA7r15         [10] 3435 	jp	NZ,00165$
                                   3436 ;E:\Dropbox\FAUSTO\SVILUPPI\MSX\CODE\C\MSXgl\projects\soccerlgSCC/soccerlg_s9_b3.c:580: if (g_Ball.ShotActive == 1 || g_Ball.PassTargetPlayerId != NO_VALUE) {
    000013F5 3Ar1Br00         [13] 3437 	ld	a, (#(_g_Ball + 27) + 0)
    000013F8 DD 77 FE         [19] 3438 	ld	-2 (ix), a
    000013FB 3D               [ 4] 3439 	dec	a
    000013FC 28 06            [12] 3440 	jr	Z, 00136$
    000013FE 3Ar10r00         [13] 3441 	ld	a, (#(_g_Ball + 16) + 0)
    00001401 3C               [ 4] 3442 	inc	a
    00001402 28 43            [12] 3443 	jr	Z, 00137$
    00001404                       3444 00136$:
                                   3445 ;E:\Dropbox\FAUSTO\SVILUPPI\MSX\CODE\C\MSXgl\projects\soccerlgSCC/soccerlg_s9_b3.c:581: i16 dxStart = (i16)g_Ball.X - (i16)g_Ball.PassStartX;
    00001404 DD 4E F5         [19] 3446 	ld	c, -11 (ix)
    00001407 DD 46 F6         [19] 3447 	ld	b, -10 (ix)
    0000140A 2Ar11r00         [16] 3448 	ld	hl, (#(_g_Ball + 17) + 0)
    0000140D 79               [ 4] 3449 	ld	a, c
    0000140E 95               [ 4] 3450 	sub	a, l
    0000140F 4F               [ 4] 3451 	ld	c, a
    00001410 78               [ 4] 3452 	ld	a, b
    00001411 9C               [ 4] 3453 	sbc	a, h
    00001412 47               [ 4] 3454 	ld	b, a
                                   3455 ;E:\Dropbox\FAUSTO\SVILUPPI\MSX\CODE\C\MSXgl\projects\soccerlgSCC/soccerlg_s9_b3.c:582: i16 dyStart = (i16)g_Ball.Y - (i16)g_Ball.PassStartY;
    00001413 DD 5E FB         [19] 3456 	ld	e, -5 (ix)
    00001416 DD 56 FC         [19] 3457 	ld	d, -4 (ix)
    00001419 2Ar13r00         [16] 3458 	ld	hl, (#_g_Ball + 19)
    0000141C 7B               [ 4] 3459 	ld	a, e
    0000141D 95               [ 4] 3460 	sub	a, l
    0000141E 6F               [ 4] 3461 	ld	l, a
                                   3462 ;	spillPairReg hl
                                   3463 ;	spillPairReg hl
    0000141F 7A               [ 4] 3464 	ld	a, d
    00001420 9C               [ 4] 3465 	sbc	a, h
    00001421 67               [ 4] 3466 	ld	h, a
                                   3467 ;	spillPairReg hl
                                   3468 ;	spillPairReg hl
                                   3469 ;E:\Dropbox\FAUSTO\SVILUPPI\MSX\CODE\C\MSXgl\projects\soccerlgSCC/soccerlg_s9_b3.c:583: if (dxStart < 0) dxStart = -dxStart;
    00001422 50               [ 4] 3470 	ld	d, b
    00001423 CB 7A            [ 8] 3471 	bit	7, d
    00001425 28 06            [12] 3472 	jr	Z, 00131$
    00001427 AF               [ 4] 3473 	xor	a, a
    00001428 91               [ 4] 3474 	sub	a, c
    00001429 4F               [ 4] 3475 	ld	c, a
    0000142A 9F               [ 4] 3476 	sbc	a, a
    0000142B 90               [ 4] 3477 	sub	a, b
    0000142C 47               [ 4] 3478 	ld	b, a
    0000142D                       3479 00131$:
                                   3480 ;E:\Dropbox\FAUSTO\SVILUPPI\MSX\CODE\C\MSXgl\projects\soccerlgSCC/soccerlg_s9_b3.c:584: if (dyStart < 0) dyStart = -dyStart;
    0000142D 54               [ 4] 3481 	ld	d, h
    0000142E CB 7A            [ 8] 3482 	bit	7, d
    00001430 28 06            [12] 3483 	jr	Z, 00133$
    00001432 AF               [ 4] 3484 	xor	a, a
    00001433 95               [ 4] 3485 	sub	a, l
    00001434 6F               [ 4] 3486 	ld	l, a
                                   3487 ;	spillPairReg hl
                                   3488 ;	spillPairReg hl
    00001435 9F               [ 4] 3489 	sbc	a, a
    00001436 94               [ 4] 3490 	sub	a, h
    00001437 67               [ 4] 3491 	ld	h, a
                                   3492 ;	spillPairReg hl
                                   3493 ;	spillPairReg hl
    00001438                       3494 00133$:
                                   3495 ;E:\Dropbox\FAUSTO\SVILUPPI\MSX\CODE\C\MSXgl\projects\soccerlgSCC/soccerlg_s9_b3.c:585: if ((dxStart + dyStart) < 24) continue; 
    00001438 09               [11] 3496 	add	hl, bc
    00001439 11 18 80         [10] 3497 	ld	de, #0x8018
    0000143C 29               [11] 3498 	add	hl, hl
    0000143D 3F               [ 4] 3499 	ccf
    0000143E CB 1C            [ 8] 3500 	rr	h
    00001440 CB 1D            [ 8] 3501 	rr	l
    00001442 ED 52            [15] 3502 	sbc	hl, de
    00001444 DAr29r16         [10] 3503 	jp	C, 00170$
    00001447                       3504 00137$:
                                   3505 ;E:\Dropbox\FAUSTO\SVILUPPI\MSX\CODE\C\MSXgl\projects\soccerlgSCC/soccerlg_s9_b3.c:589: if (g_Players[i].Role == PLAYER_ROLE_GOALKEEPER) {
    00001447 DD 6E F3         [19] 3506 	ld	l, -13 (ix)
    0000144A DD 66 F4         [19] 3507 	ld	h, -12 (ix)
                                   3508 ;E:\Dropbox\FAUSTO\SVILUPPI\MSX\CODE\C\MSXgl\projects\soccerlgSCC/soccerlg_s9_b3.c:628: g_Ball.Size = 2;
                                   3509 ;E:\Dropbox\FAUSTO\SVILUPPI\MSX\CODE\C\MSXgl\projects\soccerlgSCC/soccerlg_s9_b3.c:589: if (g_Players[i].Role == PLAYER_ROLE_GOALKEEPER) {
    0000144D 7E               [ 7] 3510 	ld	a, (hl)
    0000144E B7               [ 4] 3511 	or	a, a
    0000144F C2r78r15         [10] 3512 	jp	NZ, 00157$
                                   3513 ;E:\Dropbox\FAUSTO\SVILUPPI\MSX\CODE\C\MSXgl\projects\soccerlgSCC/soccerlg_s9_b3.c:591: bool wasShot = (g_Ball.ShotActive != 0);
    00001452 DD 7E FE         [19] 3514 	ld	a, -2 (ix)
    00001455 D6 01            [ 7] 3515 	sub	a,#0x01
    00001457 3E 00            [ 7] 3516 	ld	a, #0x00
    00001459 17               [ 4] 3517 	rla
    0000145A EE 01            [ 7] 3518 	xor	a, #0x01
    0000145C DD 77 FF         [19] 3519 	ld	-1 (ix), a
                                   3520 ;E:\Dropbox\FAUSTO\SVILUPPI\MSX\CODE\C\MSXgl\projects\soccerlgSCC/soccerlg_s9_b3.c:605: u8 team = g_Players[i].TeamId;
    0000145F DD 7E EE         [19] 3521 	ld	a, -18 (ix)
    00001462 C6 09            [ 7] 3522 	add	a, #0x09
    00001464 DD 77 FC         [19] 3523 	ld	-4 (ix), a
    00001467 DD 7E EF         [19] 3524 	ld	a, -17 (ix)
    0000146A CE 00            [ 7] 3525 	adc	a, #0x00
    0000146C DD 77 FD         [19] 3526 	ld	-3 (ix), a
                                   3527 ;E:\Dropbox\FAUSTO\SVILUPPI\MSX\CODE\C\MSXgl\projects\soccerlgSCC/soccerlg_s9_b3.c:594: if (g_Ball.ShotActive) {
    0000146F DD 7E FE         [19] 3528 	ld	a, -2 (ix)
    00001472 B7               [ 4] 3529 	or	a, a
    00001473 CAr33r15         [10] 3530 	jp	Z, 00153$
                                   3531 ;E:\Dropbox\FAUSTO\SVILUPPI\MSX\CODE\C\MSXgl\projects\soccerlgSCC/soccerlg_s9_b3.c:595: i16 signedDiffX = (i16)g_Ball.X - (i16)g_Players[i].X;
    00001476 DD 7E F5         [19] 3532 	ld	a, -11 (ix)
    00001479 DD 77 FA         [19] 3533 	ld	-6 (ix), a
    0000147C DD 7E F6         [19] 3534 	ld	a, -10 (ix)
    0000147F DD 77 FB         [19] 3535 	ld	-5 (ix), a
    00001482 DD 7E F7         [19] 3536 	ld	a, -9 (ix)
    00001485 DD 77 F4         [19] 3537 	ld	-12 (ix), a
    00001488 DD 7E F8         [19] 3538 	ld	a, -8 (ix)
    0000148B DD 77 F5         [19] 3539 	ld	-11 (ix), a
    0000148E DD 7E FA         [19] 3540 	ld	a, -6 (ix)
    00001491 DD 96 F4         [19] 3541 	sub	a, -12 (ix)
    00001494 DD 77 F8         [19] 3542 	ld	-8 (ix), a
    00001497 DD 7E FB         [19] 3543 	ld	a, -5 (ix)
    0000149A DD 9E F5         [19] 3544 	sbc	a, -11 (ix)
    0000149D DD 77 F9         [19] 3545 	ld	-7 (ix), a
    000014A0 DD 7E F8         [19] 3546 	ld	a, -8 (ix)
    000014A3 DD 77 FA         [19] 3547 	ld	-6 (ix), a
    000014A6 DD 7E F9         [19] 3548 	ld	a, -7 (ix)
    000014A9 DD 77 FB         [19] 3549 	ld	-5 (ix), a
                                   3550 ;E:\Dropbox\FAUSTO\SVILUPPI\MSX\CODE\C\MSXgl\projects\soccerlgSCC/soccerlg_s9_b3.c:598: if (signedDiffX >= -5 && signedDiffX <= 5) {
    000014AC DD 7E FA         [19] 3551 	ld	a, -6 (ix)
    000014AF DD 77 F8         [19] 3552 	ld	-8 (ix), a
    000014B2 DD 7E FB         [19] 3553 	ld	a, -5 (ix)
    000014B5 DD 77 F9         [19] 3554 	ld	-7 (ix), a
    000014B8 3E 05            [ 7] 3555 	ld	a, #0x05
    000014BA DD BE F8         [19] 3556 	cp	a, -8 (ix)
    000014BD 3E 00            [ 7] 3557 	ld	a, #0x00
    000014BF DD 9E F9         [19] 3558 	sbc	a, -7 (ix)
    000014C2 E2rC7r14         [10] 3559 	jp	PO, 00356$
    000014C5 EE 80            [ 7] 3560 	xor	a, #0x80
    000014C7                       3561 00356$:
    000014C7 07               [ 4] 3562 	rlca
    000014C8 E6 01            [ 7] 3563 	and	a,#0x01
    000014CA 4F               [ 4] 3564 	ld	c, a
    000014CB DD 7E FA         [19] 3565 	ld	a, -6 (ix)
    000014CE D6 FB            [ 7] 3566 	sub	a, #0xfb
    000014D0 DD 7E FB         [19] 3567 	ld	a, -5 (ix)
    000014D3 17               [ 4] 3568 	rla
    000014D4 3F               [ 4] 3569 	ccf
    000014D5 1F               [ 4] 3570 	rra
    000014D6 DE 7F            [ 7] 3571 	sbc	a, #0x7f
    000014D8 38 04            [12] 3572 	jr	C, 00149$
    000014DA CB 41            [ 8] 3573 	bit	0, c
    000014DC 28 55            [12] 3574 	jr	Z, 00153$
    000014DE                       3575 00149$:
                                   3576 ;E:\Dropbox\FAUSTO\SVILUPPI\MSX\CODE\C\MSXgl\projects\soccerlgSCC/soccerlg_s9_b3.c:605: u8 team = g_Players[i].TeamId;
    000014DE DD 6E FC         [19] 3577 	ld	l, -4 (ix)
    000014E1 DD 66 FD         [19] 3578 	ld	h, -3 (ix)
    000014E4 7E               [ 7] 3579 	ld	a, (hl)
                                   3580 ;E:\Dropbox\FAUSTO\SVILUPPI\MSX\CODE\C\MSXgl\projects\soccerlgSCC/soccerlg_s9_b3.c:609: if (team == TEAM_1) divePose = PLAYER_POSE_TEAM1_GK_DOWN_RIGHT;
    000014E5 3D               [ 4] 3581 	dec	a
    000014E6 3E 01            [ 7] 3582 	ld	a, #0x01
    000014E8 28 01            [12] 3583 	jr	Z, 00358$
    000014EA AF               [ 4] 3584 	xor	a, a
    000014EB                       3585 00358$:
    000014EB DD 77 FB         [19] 3586 	ld	-5 (ix), a
                                   3587 ;E:\Dropbox\FAUSTO\SVILUPPI\MSX\CODE\C\MSXgl\projects\soccerlgSCC/soccerlg_s9_b3.c:608: if (signedDiffX > 5) { // Ball to Right
    000014EE DD 71 FE         [19] 3588 	ld	-2 (ix), c
    000014F1 79               [ 4] 3589 	ld	a, c
    000014F2 B7               [ 4] 3590 	or	a, a
    000014F3 28 14            [12] 3591 	jr	Z, 00146$
                                   3592 ;E:\Dropbox\FAUSTO\SVILUPPI\MSX\CODE\C\MSXgl\projects\soccerlgSCC/soccerlg_s9_b3.c:609: if (team == TEAM_1) divePose = PLAYER_POSE_TEAM1_GK_DOWN_RIGHT;
    000014F5 DD 7E FB         [19] 3593 	ld	a, -5 (ix)
    000014F8 B7               [ 4] 3594 	or	a, a
    000014F9 28 07            [12] 3595 	jr	Z, 00140$
    000014FB DD 36 FE 3F      [19] 3596 	ld	-2 (ix), #0x3f
    000014FF C3r1Ar15         [10] 3597 	jp	00147$
    00001502                       3598 00140$:
                                   3599 ;E:\Dropbox\FAUSTO\SVILUPPI\MSX\CODE\C\MSXgl\projects\soccerlgSCC/soccerlg_s9_b3.c:610: else divePose = PLAYER_POSE_TEAM2_GK_DOWN_RIGHT;
    00001502 DD 36 FE 2F      [19] 3600 	ld	-2 (ix), #0x2f
    00001506 C3r1Ar15         [10] 3601 	jp	00147$
    00001509                       3602 00146$:
                                   3603 ;E:\Dropbox\FAUSTO\SVILUPPI\MSX\CODE\C\MSXgl\projects\soccerlgSCC/soccerlg_s9_b3.c:612: if (team == TEAM_1) divePose = PLAYER_POSE_TEAM1_GK_DOWN_LEFT;
    00001509 DD 7E FB         [19] 3604 	ld	a, -5 (ix)
    0000150C B7               [ 4] 3605 	or	a, a
    0000150D 28 07            [12] 3606 	jr	Z, 00143$
    0000150F DD 36 FE A0      [19] 3607 	ld	-2 (ix), #0xa0
    00001513 C3r1Ar15         [10] 3608 	jp	00147$
    00001516                       3609 00143$:
                                   3610 ;E:\Dropbox\FAUSTO\SVILUPPI\MSX\CODE\C\MSXgl\projects\soccerlgSCC/soccerlg_s9_b3.c:613: else divePose = PLAYER_POSE_TEAM2_GK_DOWN_LEFT;
    00001516 DD 36 FE A0      [19] 3611 	ld	-2 (ix), #0xa0
    0000151A                       3612 00147$:
                                   3613 ;E:\Dropbox\FAUSTO\SVILUPPI\MSX\CODE\C\MSXgl\projects\soccerlgSCC/soccerlg_s9_b3.c:616: g_Players[i].PatternId = divePose;
    0000151A DD 6E EE         [19] 3614 	ld	l, -18 (ix)
    0000151D DD 66 EF         [19] 3615 	ld	h, -17 (ix)
    00001520 11 08 00         [10] 3616 	ld	de, #0x0008
    00001523 19               [11] 3617 	add	hl, de
    00001524 DD 7E FE         [19] 3618 	ld	a, -2 (ix)
    00001527 77               [ 7] 3619 	ld	(hl), a
                                   3620 ;E:\Dropbox\FAUSTO\SVILUPPI\MSX\CODE\C\MSXgl\projects\soccerlgSCC/soccerlg_s9_b3.c:617: g_Players[i].Status = PLAYER_STATUS_POSITIONED; // Lock it
    00001528 DD 6E F0         [19] 3621 	ld	l, -16 (ix)
    0000152B DD 66 F1         [19] 3622 	ld	h, -15 (ix)
    0000152E 36 04            [10] 3623 	ld	(hl), #0x04
    00001530 23               [ 6] 3624 	inc	hl
    00001531 36 00            [10] 3625 	ld	(hl), #0x00
    00001533                       3626 00153$:
                                   3627 ;E:\Dropbox\FAUSTO\SVILUPPI\MSX\CODE\C\MSXgl\projects\soccerlgSCC/soccerlg_s9_b3.c:621: CallFnc_VOID_P1(4,PutBallOnPlayerFeet,i);
    00001533 DD 7E ED         [19] 3628 	ld	a, -19 (ix)
    00001536 F5               [11] 3629 	push	af
    00001537 33               [ 6] 3630 	inc	sp
    00001538 11r00r00         [10] 3631 	ld	de, #_PutBallOnPlayerFeet
    0000153B 3E 04            [ 7] 3632 	ld	a, #0x04
    0000153D CDr00r00         [17] 3633 	call	_CallFnc_VOID_P1
                                   3634 ;E:\Dropbox\FAUSTO\SVILUPPI\MSX\CODE\C\MSXgl\projects\soccerlgSCC/soccerlg_s9_b3.c:622: CallFnc_VOID_P2(5,GoalkeeperWithBall,g_Players[i].TeamId, !wasShot); 
    00001540 DD 7E FF         [19] 3635 	ld	a, -1 (ix)
    00001543 D6 01            [ 7] 3636 	sub	a,#0x01
    00001545 3E 00            [ 7] 3637 	ld	a, #0x00
    00001547 17               [ 4] 3638 	rla
    00001548 DD 6E FC         [19] 3639 	ld	l, -4 (ix)
    0000154B DD 66 FD         [19] 3640 	ld	h, -3 (ix)
    0000154E 46               [ 7] 3641 	ld	b, (hl)
    0000154F F5               [11] 3642 	push	af
    00001550 33               [ 6] 3643 	inc	sp
    00001551 C5               [11] 3644 	push	bc
    00001552 33               [ 6] 3645 	inc	sp
    00001553 11r00r00         [10] 3646 	ld	de, #_GoalkeeperWithBall
    00001556 3E 05            [ 7] 3647 	ld	a, #0x05
    00001558 CDr00r00         [17] 3648 	call	_CallFnc_VOID_P2
                                   3649 ;E:\Dropbox\FAUSTO\SVILUPPI\MSX\CODE\C\MSXgl\projects\soccerlgSCC/soccerlg_s9_b3.c:623: if (!wasShot) g_GkIsGroundKick = false; // Force Slow/Hand mode for Steals
    0000155B DD 7E FF         [19] 3650 	ld	a, -1 (ix)
    0000155E B7               [ 4] 3651 	or	a, a
    0000155F 20 05            [12] 3652 	jr	NZ, 00155$
    00001561 21r00r00         [10] 3653 	ld	hl, #_g_GkIsGroundKick
    00001564 36 00            [10] 3654 	ld	(hl), #0x00
    00001566                       3655 00155$:
                                   3656 ;E:\Dropbox\FAUSTO\SVILUPPI\MSX\CODE\C\MSXgl\projects\soccerlgSCC/soccerlg_s9_b3.c:626: g_Ball.PassTargetPlayerId = NO_VALUE;
    00001566 21r10r00         [10] 3657 	ld	hl, #(_g_Ball + 16)
    00001569 36 FF            [10] 3658 	ld	(hl), #0xff
                                   3659 ;E:\Dropbox\FAUSTO\SVILUPPI\MSX\CODE\C\MSXgl\projects\soccerlgSCC/soccerlg_s9_b3.c:627: g_Ball.ShotActive = 0;
    0000156B 21r1Br00         [10] 3660 	ld	hl, #(_g_Ball + 27)
    0000156E 36 00            [10] 3661 	ld	(hl), #0x00
                                   3662 ;E:\Dropbox\FAUSTO\SVILUPPI\MSX\CODE\C\MSXgl\projects\soccerlgSCC/soccerlg_s9_b3.c:628: g_Ball.Size = 2;
    00001570 21r04r00         [10] 3663 	ld	hl, #(_g_Ball + 4)
    00001573 36 02            [10] 3664 	ld	(hl), #0x02
                                   3665 ;E:\Dropbox\FAUSTO\SVILUPPI\MSX\CODE\C\MSXgl\projects\soccerlgSCC/soccerlg_s9_b3.c:630: return; // Stop checking
    00001575 C3r35r16         [10] 3666 	jp	00174$
    00001578                       3667 00157$:
                                   3668 ;E:\Dropbox\FAUSTO\SVILUPPI\MSX\CODE\C\MSXgl\projects\soccerlgSCC/soccerlg_s9_b3.c:634: g_Ball.PassTargetPlayerId = NO_VALUE; 
    00001578 21r10r00         [10] 3669 	ld	hl, #(_g_Ball + 16)
    0000157B 36 FF            [10] 3670 	ld	(hl), #0xff
                                   3671 ;E:\Dropbox\FAUSTO\SVILUPPI\MSX\CODE\C\MSXgl\projects\soccerlgSCC/soccerlg_s9_b3.c:635: g_Ball.ShotActive = 0; 
    0000157D 21r1Br00         [10] 3672 	ld	hl, #(_g_Ball + 27)
    00001580 36 00            [10] 3673 	ld	(hl), #0x00
                                   3674 ;E:\Dropbox\FAUSTO\SVILUPPI\MSX\CODE\C\MSXgl\projects\soccerlgSCC/soccerlg_s9_b3.c:636: g_Ball.KickMoveState = 3; // Force ball to snap to feet immediately (No visual lag)
    00001582 21r0Dr00         [10] 3675 	ld	hl, #(_g_Ball + 13)
    00001585 36 03            [10] 3676 	ld	(hl), #0x03
                                   3677 ;E:\Dropbox\FAUSTO\SVILUPPI\MSX\CODE\C\MSXgl\projects\soccerlgSCC/soccerlg_s9_b3.c:637: g_Ball.Size = 1; // On feet = small
    00001587 21r04r00         [10] 3678 	ld	hl, #(_g_Ball + 4)
    0000158A 36 01            [10] 3679 	ld	(hl), #0x01
                                   3680 ;E:\Dropbox\FAUSTO\SVILUPPI\MSX\CODE\C\MSXgl\projects\soccerlgSCC/soccerlg_s9_b3.c:638: CallFnc_VOID_P1(4,PutBallOnPlayerFeet,i);
    0000158C DD 7E ED         [19] 3681 	ld	a, -19 (ix)
    0000158F F5               [11] 3682 	push	af
    00001590 33               [ 6] 3683 	inc	sp
    00001591 11r00r00         [10] 3684 	ld	de, #_PutBallOnPlayerFeet
    00001594 3E 04            [ 7] 3685 	ld	a, #0x04
    00001596 CDr00r00         [17] 3686 	call	_CallFnc_VOID_P1
                                   3687 ;E:\Dropbox\FAUSTO\SVILUPPI\MSX\CODE\C\MSXgl\projects\soccerlgSCC/soccerlg_s9_b3.c:639: g_Players[i].Status = PLAYER_STATUS_HAS_BALL;
    00001599 DD 6E F0         [19] 3688 	ld	l, -16 (ix)
    0000159C DD 66 F1         [19] 3689 	ld	h, -15 (ix)
    0000159F 36 01            [10] 3690 	ld	(hl), #0x01
    000015A1 23               [ 6] 3691 	inc	hl
    000015A2 36 00            [10] 3692 	ld	(hl), #0x00
                                   3693 ;E:\Dropbox\FAUSTO\SVILUPPI\MSX\CODE\C\MSXgl\projects\soccerlgSCC/soccerlg_s9_b3.c:640: return; // Stop checking
    000015A4 C3r35r16         [10] 3694 	jp	00174$
    000015A7                       3695 00165$:
                                   3696 ;E:\Dropbox\FAUSTO\SVILUPPI\MSX\CODE\C\MSXgl\projects\soccerlgSCC/soccerlg_s9_b3.c:646: if (g_Ball.StealCooldown > 0) continue;
    000015A7 3Ar0Fr00         [13] 3697 	ld	a, (#(_g_Ball + 15) + 0)
    000015AA B7               [ 4] 3698 	or	a, a
    000015AB 20 7C            [12] 3699 	jr	NZ, 00170$
                                   3700 ;E:\Dropbox\FAUSTO\SVILUPPI\MSX\CODE\C\MSXgl\projects\soccerlgSCC/soccerlg_s9_b3.c:648: u8 currentOwner = g_Ball.PossessionPlayerId;
                                   3701 ;E:\Dropbox\FAUSTO\SVILUPPI\MSX\CODE\C\MSXgl\projects\soccerlgSCC/soccerlg_s9_b3.c:651: if (g_Players[i].Role == PLAYER_ROLE_GOALKEEPER) {
    000015AD DD 6E F3         [19] 3702 	ld	l, -13 (ix)
    000015B0 DD 66 F4         [19] 3703 	ld	h, -12 (ix)
    000015B3 46               [ 7] 3704 	ld	b, (hl)
                                   3705 ;E:\Dropbox\FAUSTO\SVILUPPI\MSX\CODE\C\MSXgl\projects\soccerlgSCC/soccerlg_s9_b3.c:605: u8 team = g_Players[i].TeamId;
    000015B4 DD 6E EE         [19] 3706 	ld	l, -18 (ix)
    000015B7 DD 66 EF         [19] 3707 	ld	h, -17 (ix)
    000015BA 11 09 00         [10] 3708 	ld	de, #0x0009
    000015BD 19               [11] 3709 	add	hl, de
                                   3710 ;E:\Dropbox\FAUSTO\SVILUPPI\MSX\CODE\C\MSXgl\projects\soccerlgSCC/soccerlg_s9_b3.c:651: if (g_Players[i].Role == PLAYER_ROLE_GOALKEEPER) {
    000015BE 78               [ 4] 3711 	ld	a, b
    000015BF B7               [ 4] 3712 	or	a, a
    000015C0 20 35            [12] 3713 	jr	NZ, 00161$
                                   3714 ;E:\Dropbox\FAUSTO\SVILUPPI\MSX\CODE\C\MSXgl\projects\soccerlgSCC/soccerlg_s9_b3.c:652: CallFnc_VOID_P1(4,PutBallOnPlayerFeet,i);
    000015C2 E5               [11] 3715 	push	hl
    000015C3 DD 7E ED         [19] 3716 	ld	a, -19 (ix)
    000015C6 F5               [11] 3717 	push	af
    000015C7 33               [ 6] 3718 	inc	sp
    000015C8 11r00r00         [10] 3719 	ld	de, #_PutBallOnPlayerFeet
    000015CB 3E 04            [ 7] 3720 	ld	a, #0x04
    000015CD CDr00r00         [17] 3721 	call	_CallFnc_VOID_P1
    000015D0 E1               [10] 3722 	pop	hl
                                   3723 ;E:\Dropbox\FAUSTO\SVILUPPI\MSX\CODE\C\MSXgl\projects\soccerlgSCC/soccerlg_s9_b3.c:653: CallFnc_VOID_P2(5,GoalkeeperWithBall,g_Players[i].TeamId, 1); 
    000015D1 7E               [ 7] 3724 	ld	a, (hl)
    000015D2 26 01            [ 7] 3725 	ld	h, #0x01
                                   3726 ;	spillPairReg hl
                                   3727 ;	spillPairReg hl
    000015D4 E5               [11] 3728 	push	hl
    000015D5 33               [ 6] 3729 	inc	sp
    000015D6 F5               [11] 3730 	push	af
    000015D7 33               [ 6] 3731 	inc	sp
    000015D8 11r00r00         [10] 3732 	ld	de, #_GoalkeeperWithBall
    000015DB 3E 05            [ 7] 3733 	ld	a, #0x05
    000015DD CDr00r00         [17] 3734 	call	_CallFnc_VOID_P2
                                   3735 ;E:\Dropbox\FAUSTO\SVILUPPI\MSX\CODE\C\MSXgl\projects\soccerlgSCC/soccerlg_s9_b3.c:654: g_GkIsGroundKick = false; // Force Slow/Hand mode for Steals
    000015E0 21r00r00         [10] 3736 	ld	hl, #_g_GkIsGroundKick
    000015E3 36 00            [10] 3737 	ld	(hl), #0x00
                                   3738 ;E:\Dropbox\FAUSTO\SVILUPPI\MSX\CODE\C\MSXgl\projects\soccerlgSCC/soccerlg_s9_b3.c:657: g_Ball.PassTargetPlayerId = NO_VALUE;
    000015E5 21r10r00         [10] 3739 	ld	hl, #(_g_Ball + 16)
    000015E8 36 FF            [10] 3740 	ld	(hl), #0xff
                                   3741 ;E:\Dropbox\FAUSTO\SVILUPPI\MSX\CODE\C\MSXgl\projects\soccerlgSCC/soccerlg_s9_b3.c:658: g_Ball.ShotActive = 0;
    000015EA 21r1Br00         [10] 3742 	ld	hl, #(_g_Ball + 27)
    000015ED 36 00            [10] 3743 	ld	(hl), #0x00
                                   3744 ;E:\Dropbox\FAUSTO\SVILUPPI\MSX\CODE\C\MSXgl\projects\soccerlgSCC/soccerlg_s9_b3.c:659: g_Ball.Size = 2;
    000015EF 21r04r00         [10] 3745 	ld	hl, #(_g_Ball + 4)
    000015F2 36 02            [10] 3746 	ld	(hl), #0x02
                                   3747 ;E:\Dropbox\FAUSTO\SVILUPPI\MSX\CODE\C\MSXgl\projects\soccerlgSCC/soccerlg_s9_b3.c:660: return;
    000015F4 C3r35r16         [10] 3748 	jp	00174$
    000015F7                       3749 00161$:
                                   3750 ;E:\Dropbox\FAUSTO\SVILUPPI\MSX\CODE\C\MSXgl\projects\soccerlgSCC/soccerlg_s9_b3.c:663: if (g_Players[i].TeamId != g_Players[currentOwner].TeamId) {
    000015F7 5E               [ 7] 3751 	ld	e, (hl)
    000015F8 06 00            [ 7] 3752 	ld	b, #0x00
    000015FA 69               [ 4] 3753 	ld	l, c
    000015FB 60               [ 4] 3754 	ld	h, b
    000015FC 29               [11] 3755 	add	hl, hl
    000015FD 29               [11] 3756 	add	hl, hl
    000015FE 09               [11] 3757 	add	hl, bc
    000015FF 29               [11] 3758 	add	hl, hl
    00001600 29               [11] 3759 	add	hl, hl
    00001601 09               [11] 3760 	add	hl, bc
    00001602 01r00r00         [10] 3761 	ld	bc, #_g_Players
    00001605 09               [11] 3762 	add	hl, bc
    00001606 01 09 00         [10] 3763 	ld	bc, #0x0009
    00001609 09               [11] 3764 	add	hl, bc
    0000160A 4E               [ 7] 3765 	ld	c, (hl)
    0000160B 7B               [ 4] 3766 	ld	a, e
    0000160C 91               [ 4] 3767 	sub	a, c
    0000160D 28 1A            [12] 3768 	jr	Z, 00170$
                                   3769 ;E:\Dropbox\FAUSTO\SVILUPPI\MSX\CODE\C\MSXgl\projects\soccerlgSCC/soccerlg_s9_b3.c:665: CallFnc_VOID_P1(4,PutBallOnPlayerFeet,i);
    0000160F DD 7E ED         [19] 3770 	ld	a, -19 (ix)
    00001612 F5               [11] 3771 	push	af
    00001613 33               [ 6] 3772 	inc	sp
    00001614 11r00r00         [10] 3773 	ld	de, #_PutBallOnPlayerFeet
    00001617 3E 04            [ 7] 3774 	ld	a, #0x04
    00001619 CDr00r00         [17] 3775 	call	_CallFnc_VOID_P1
                                   3776 ;E:\Dropbox\FAUSTO\SVILUPPI\MSX\CODE\C\MSXgl\projects\soccerlgSCC/soccerlg_s9_b3.c:667: g_Ball.PassTargetPlayerId = NO_VALUE;
    0000161C 21r10r00         [10] 3777 	ld	hl, #(_g_Ball + 16)
    0000161F 36 FF            [10] 3778 	ld	(hl), #0xff
                                   3779 ;E:\Dropbox\FAUSTO\SVILUPPI\MSX\CODE\C\MSXgl\projects\soccerlgSCC/soccerlg_s9_b3.c:668: g_Ball.ShotActive = 0;
    00001621 21r1Br00         [10] 3780 	ld	hl, #(_g_Ball + 27)
    00001624 36 00            [10] 3781 	ld	(hl), #0x00
                                   3782 ;E:\Dropbox\FAUSTO\SVILUPPI\MSX\CODE\C\MSXgl\projects\soccerlgSCC/soccerlg_s9_b3.c:669: return;
    00001626 C3r35r16         [10] 3783 	jp	00174$
    00001629                       3784 00170$:
                                   3785 ;E:\Dropbox\FAUSTO\SVILUPPI\MSX\CODE\C\MSXgl\projects\soccerlgSCC/soccerlg_s9_b3.c:541: for(u8 i=0; i<14; i++){
    00001629 DD 34 FF         [23] 3786 	inc	-1 (ix)
    0000162C DD 7E FF         [19] 3787 	ld	a, -1 (ix)
    0000162F DD 77 ED         [19] 3788 	ld	-19 (ix), a
    00001632 C3rA1r12         [10] 3789 	jp	00173$
    00001635                       3790 00174$:
                                   3791 ;E:\Dropbox\FAUSTO\SVILUPPI\MSX\CODE\C\MSXgl\projects\soccerlgSCC/soccerlg_s9_b3.c:674: }
    00001635 DD F9            [10] 3792 	ld	sp, ix
    00001637 DD E1            [14] 3793 	pop	ix
    00001639 C9               [10] 3794 	ret
                                   3795 ;E:\Dropbox\FAUSTO\SVILUPPI\MSX\CODE\C\MSXgl\projects\soccerlgSCC/soccerlg_s9_b3.c:676: void PrintTeamName(u8 x, u8 teamPaletteId) {
                                   3796 ;	---------------------------------
                                   3797 ; Function PrintTeamName
                                   3798 ; ---------------------------------
    0000163A                       3799 _PrintTeamName::
    0000163A DD E5            [15] 3800 	push	ix
    0000163C DD 21 00 00      [14] 3801 	ld	ix,#0
    00001640 DD 39            [15] 3802 	add	ix,sp
    00001642 F5               [11] 3803 	push	af
    00001643 DD 77 FF         [19] 3804 	ld	-1 (ix), a
    00001646 4D               [ 4] 3805 	ld	c, l
                                   3806 ;E:\Dropbox\FAUSTO\SVILUPPI\MSX\CODE\C\MSXgl\projects\soccerlgSCC/soccerlg_s9_b3.c:681: switch (teamPaletteId) {
    00001647 3E 05            [ 7] 3807 	ld	a, #0x05
    00001649 91               [ 4] 3808 	sub	a, c
    0000164A 38 3F            [12] 3809 	jr	C, 00107$
    0000164C 06 00            [ 7] 3810 	ld	b, #0x00
    0000164E 21r55r16         [10] 3811 	ld	hl, #00127$
    00001651 09               [11] 3812 	add	hl, bc
    00001652 09               [11] 3813 	add	hl, bc
    00001653 09               [11] 3814 	add	hl, bc
    00001654 E9               [ 4] 3815 	jp	(hl)
    00001655                       3816 00127$:
    00001655 C3r67r16         [10] 3817 	jp	00101$
    00001658 C3r85r16         [10] 3818 	jp	00106$
    0000165B C3r73r16         [10] 3819 	jp	00103$
    0000165E C3r6Dr16         [10] 3820 	jp	00102$
    00001661 C3r79r16         [10] 3821 	jp	00104$
    00001664 C3r7Fr16         [10] 3822 	jp	00105$
                                   3823 ;E:\Dropbox\FAUSTO\SVILUPPI\MSX\CODE\C\MSXgl\projects\soccerlgSCC/soccerlg_s9_b3.c:683: case TEAM_AUS: pName = "AUS"; break;
    00001667                       3824 00101$:
    00001667 11r1Er17         [10] 3825 	ld	de, #___str_2
    0000166A C3r8Er16         [10] 3826 	jp	00110$
                                   3827 ;E:\Dropbox\FAUSTO\SVILUPPI\MSX\CODE\C\MSXgl\projects\soccerlgSCC/soccerlg_s9_b3.c:684: case TEAM_BRA: pName = "BRA"; break;
    0000166D                       3828 00102$:
    0000166D 11r22r17         [10] 3829 	ld	de, #___str_3
    00001670 C3r8Er16         [10] 3830 	jp	00110$
                                   3831 ;E:\Dropbox\FAUSTO\SVILUPPI\MSX\CODE\C\MSXgl\projects\soccerlgSCC/soccerlg_s9_b3.c:685: case TEAM_ITA: pName = "ITA"; break;
    00001673                       3832 00103$:
    00001673 11r26r17         [10] 3833 	ld	de, #___str_4
    00001676 C3r8Er16         [10] 3834 	jp	00110$
                                   3835 ;E:\Dropbox\FAUSTO\SVILUPPI\MSX\CODE\C\MSXgl\projects\soccerlgSCC/soccerlg_s9_b3.c:686: case TEAM_FRA: pName = "FRA"; break;
    00001679                       3836 00104$:
    00001679 11r2Ar17         [10] 3837 	ld	de, #___str_5
    0000167C C3r8Er16         [10] 3838 	jp	00110$
                                   3839 ;E:\Dropbox\FAUSTO\SVILUPPI\MSX\CODE\C\MSXgl\projects\soccerlgSCC/soccerlg_s9_b3.c:687: case TEAM_GBR: pName = "GBR"; break;
    0000167F                       3840 00105$:
    0000167F 11r2Er17         [10] 3841 	ld	de, #___str_6
    00001682 C3r8Er16         [10] 3842 	jp	00110$
                                   3843 ;E:\Dropbox\FAUSTO\SVILUPPI\MSX\CODE\C\MSXgl\projects\soccerlgSCC/soccerlg_s9_b3.c:688: case TEAM_GER: pName = "GER"; break;
    00001685                       3844 00106$:
    00001685 11r32r17         [10] 3845 	ld	de, #___str_7
    00001688 C3r8Er16         [10] 3846 	jp	00110$
                                   3847 ;E:\Dropbox\FAUSTO\SVILUPPI\MSX\CODE\C\MSXgl\projects\soccerlgSCC/soccerlg_s9_b3.c:689: default:       pName = "   "; break;
    0000168B                       3848 00107$:
    0000168B 11r36r17         [10] 3849 	ld	de, #___str_8
                                   3850 ;E:\Dropbox\FAUSTO\SVILUPPI\MSX\CODE\C\MSXgl\projects\soccerlgSCC/soccerlg_s9_b3.c:690: }
    0000168E                       3851 00110$:
                                   3852 ;E:\Dropbox\FAUSTO\SVILUPPI\MSX\CODE\C\MSXgl\projects\soccerlgSCC/soccerlg_s9_b3.c:692: V9990_PrintLayerAStringAtPos(x, 0, pName);
    0000168E D5               [11] 3853 	push	de
    0000168F D5               [11] 3854 	push	de
    00001690 2E 00            [ 7] 3855 	ld	l, #0x00
                                   3856 ;	spillPairReg hl
                                   3857 ;	spillPairReg hl
    00001692 DD 7E FF         [19] 3858 	ld	a, -1 (ix)
    00001695 CDr00r00         [17] 3859 	call	_V9990_PrintLayerAStringAtPos
    00001698 D1               [10] 3860 	pop	de
                                   3861 ;E:\Dropbox\FAUSTO\SVILUPPI\MSX\CODE\C\MSXgl\projects\soccerlgSCC/soccerlg_s9_b3.c:694: g_History1[0] = pName[0];
    00001699 1A               [ 7] 3862 	ld	a, (de)
    0000169A DD 77 FE         [19] 3863 	ld	-2 (ix), a
                                   3864 ;E:\Dropbox\FAUSTO\SVILUPPI\MSX\CODE\C\MSXgl\projects\soccerlgSCC/soccerlg_s9_b3.c:695: g_History1[1] = pName[1];
    0000169D 4B               [ 4] 3865 	ld	c, e
    0000169E 42               [ 4] 3866 	ld	b, d
    0000169F 03               [ 6] 3867 	inc	bc
                                   3868 ;E:\Dropbox\FAUSTO\SVILUPPI\MSX\CODE\C\MSXgl\projects\soccerlgSCC/soccerlg_s9_b3.c:696: g_History1[2] = pName[2];
    000016A0 13               [ 6] 3869 	inc	de
    000016A1 13               [ 6] 3870 	inc	de
                                   3871 ;E:\Dropbox\FAUSTO\SVILUPPI\MSX\CODE\C\MSXgl\projects\soccerlgSCC/soccerlg_s9_b3.c:693: if(x==0){
    000016A2 DD 7E FF         [19] 3872 	ld	a, -1 (ix)
    000016A5 B7               [ 4] 3873 	or	a, a
    000016A6 20 3A            [12] 3874 	jr	NZ, 00112$
                                   3875 ;E:\Dropbox\FAUSTO\SVILUPPI\MSX\CODE\C\MSXgl\projects\soccerlgSCC/soccerlg_s9_b3.c:694: g_History1[0] = pName[0];
    000016A8 21r00r00         [10] 3876 	ld	hl, #_g_History1
    000016AB DD 7E FE         [19] 3877 	ld	a, -2 (ix)
    000016AE 77               [ 7] 3878 	ld	(hl), a
                                   3879 ;E:\Dropbox\FAUSTO\SVILUPPI\MSX\CODE\C\MSXgl\projects\soccerlgSCC/soccerlg_s9_b3.c:695: g_History1[1] = pName[1];
    000016AF 23               [ 6] 3880 	inc	hl
    000016B0 0A               [ 7] 3881 	ld	a, (bc)
    000016B1 77               [ 7] 3882 	ld	(hl), a
                                   3883 ;E:\Dropbox\FAUSTO\SVILUPPI\MSX\CODE\C\MSXgl\projects\soccerlgSCC/soccerlg_s9_b3.c:696: g_History1[2] = pName[2];
    000016B2 01r02r00         [10] 3884 	ld	bc, #_g_History1 + 2
    000016B5 1A               [ 7] 3885 	ld	a, (de)
    000016B6 02               [ 7] 3886 	ld	(bc), a
                                   3887 ;E:\Dropbox\FAUSTO\SVILUPPI\MSX\CODE\C\MSXgl\projects\soccerlgSCC/soccerlg_s9_b3.c:697: g_History1[3] = ':';
    000016B7 21r03r00         [10] 3888 	ld	hl, #(_g_History1 + 3)
    000016BA 36 3A            [10] 3889 	ld	(hl), #0x3a
                                   3890 ;E:\Dropbox\FAUSTO\SVILUPPI\MSX\CODE\C\MSXgl\projects\soccerlgSCC/soccerlg_s9_b3.c:698: g_History1[4] = ' ';
    000016BC 21r04r00         [10] 3891 	ld	hl, #(_g_History1 + 4)
    000016BF 36 20            [10] 3892 	ld	(hl), #0x20
                                   3893 ;E:\Dropbox\FAUSTO\SVILUPPI\MSX\CODE\C\MSXgl\projects\soccerlgSCC/soccerlg_s9_b3.c:699: g_History1[5] = ' ';
    000016C1 21r05r00         [10] 3894 	ld	hl, #(_g_History1 + 5)
    000016C4 36 20            [10] 3895 	ld	(hl), #0x20
                                   3896 ;E:\Dropbox\FAUSTO\SVILUPPI\MSX\CODE\C\MSXgl\projects\soccerlgSCC/soccerlg_s9_b3.c:700: g_History1[6] = ' ';
    000016C6 21r06r00         [10] 3897 	ld	hl, #(_g_History1 + 6)
    000016C9 36 20            [10] 3898 	ld	(hl), #0x20
                                   3899 ;E:\Dropbox\FAUSTO\SVILUPPI\MSX\CODE\C\MSXgl\projects\soccerlgSCC/soccerlg_s9_b3.c:701: g_History1[7] = ' ';
    000016CB 21r07r00         [10] 3900 	ld	hl, #(_g_History1 + 7)
    000016CE 36 20            [10] 3901 	ld	(hl), #0x20
                                   3902 ;E:\Dropbox\FAUSTO\SVILUPPI\MSX\CODE\C\MSXgl\projects\soccerlgSCC/soccerlg_s9_b3.c:702: g_History1[8] = ' ';
    000016D0 21r08r00         [10] 3903 	ld	hl, #(_g_History1 + 8)
    000016D3 36 20            [10] 3904 	ld	(hl), #0x20
                                   3905 ;E:\Dropbox\FAUSTO\SVILUPPI\MSX\CODE\C\MSXgl\projects\soccerlgSCC/soccerlg_s9_b3.c:703: g_History1[9] = ' ';
    000016D5 21r09r00         [10] 3906 	ld	hl, #(_g_History1 + 9)
    000016D8 36 20            [10] 3907 	ld	(hl), #0x20
                                   3908 ;E:\Dropbox\FAUSTO\SVILUPPI\MSX\CODE\C\MSXgl\projects\soccerlgSCC/soccerlg_s9_b3.c:704: g_History1[10] = '\0';
    000016DA 21r0Ar00         [10] 3909 	ld	hl, #(_g_History1 + 10)
    000016DD 36 00            [10] 3910 	ld	(hl), #0x00
    000016DF C3r19r17         [10] 3911 	jp	00114$
    000016E2                       3912 00112$:
                                   3913 ;E:\Dropbox\FAUSTO\SVILUPPI\MSX\CODE\C\MSXgl\projects\soccerlgSCC/soccerlg_s9_b3.c:707: g_History2[0] = pName[0];
    000016E2 21r00r00         [10] 3914 	ld	hl, #_g_History2
    000016E5 DD 7E FE         [19] 3915 	ld	a, -2 (ix)
    000016E8 77               [ 7] 3916 	ld	(hl), a
                                   3917 ;E:\Dropbox\FAUSTO\SVILUPPI\MSX\CODE\C\MSXgl\projects\soccerlgSCC/soccerlg_s9_b3.c:708: g_History2[1] = pName[1];
    000016E9 0A               [ 7] 3918 	ld	a, (bc)
    000016EA 32r01r00         [13] 3919 	ld	(#(_g_History2 + 1)),a
                                   3920 ;E:\Dropbox\FAUSTO\SVILUPPI\MSX\CODE\C\MSXgl\projects\soccerlgSCC/soccerlg_s9_b3.c:709: g_History2[2] = pName[2];
    000016ED 1A               [ 7] 3921 	ld	a, (de)
    000016EE 32r02r00         [13] 3922 	ld	(#(_g_History2 + 2)),a
                                   3923 ;E:\Dropbox\FAUSTO\SVILUPPI\MSX\CODE\C\MSXgl\projects\soccerlgSCC/soccerlg_s9_b3.c:710: g_History2[3] = ':';
    000016F1 21r03r00         [10] 3924 	ld	hl, #(_g_History2 + 3)
    000016F4 36 3A            [10] 3925 	ld	(hl), #0x3a
                                   3926 ;E:\Dropbox\FAUSTO\SVILUPPI\MSX\CODE\C\MSXgl\projects\soccerlgSCC/soccerlg_s9_b3.c:711: g_History2[4] = ' ';
    000016F6 21r04r00         [10] 3927 	ld	hl, #(_g_History2 + 4)
    000016F9 36 20            [10] 3928 	ld	(hl), #0x20
                                   3929 ;E:\Dropbox\FAUSTO\SVILUPPI\MSX\CODE\C\MSXgl\projects\soccerlgSCC/soccerlg_s9_b3.c:712: g_History2[5] = ' ';
    000016FB 21r05r00         [10] 3930 	ld	hl, #(_g_History2 + 5)
    000016FE 36 20            [10] 3931 	ld	(hl), #0x20
                                   3932 ;E:\Dropbox\FAUSTO\SVILUPPI\MSX\CODE\C\MSXgl\projects\soccerlgSCC/soccerlg_s9_b3.c:713: g_History2[6] = ' ';
    00001700 21r06r00         [10] 3933 	ld	hl, #(_g_History2 + 6)
    00001703 36 20            [10] 3934 	ld	(hl), #0x20
                                   3935 ;E:\Dropbox\FAUSTO\SVILUPPI\MSX\CODE\C\MSXgl\projects\soccerlgSCC/soccerlg_s9_b3.c:714: g_History2[7] = ' ';
    00001705 21r07r00         [10] 3936 	ld	hl, #(_g_History2 + 7)
    00001708 36 20            [10] 3937 	ld	(hl), #0x20
                                   3938 ;E:\Dropbox\FAUSTO\SVILUPPI\MSX\CODE\C\MSXgl\projects\soccerlgSCC/soccerlg_s9_b3.c:715: g_History2[8] = ' ';
    0000170A 21r08r00         [10] 3939 	ld	hl, #(_g_History2 + 8)
    0000170D 36 20            [10] 3940 	ld	(hl), #0x20
                                   3941 ;E:\Dropbox\FAUSTO\SVILUPPI\MSX\CODE\C\MSXgl\projects\soccerlgSCC/soccerlg_s9_b3.c:716: g_History2[9] = ' ';
    0000170F 21r09r00         [10] 3942 	ld	hl, #(_g_History2 + 9)
    00001712 36 20            [10] 3943 	ld	(hl), #0x20
                                   3944 ;E:\Dropbox\FAUSTO\SVILUPPI\MSX\CODE\C\MSXgl\projects\soccerlgSCC/soccerlg_s9_b3.c:717: g_History2[10] = '\0';
    00001714 21r0Ar00         [10] 3945 	ld	hl, #(_g_History2 + 10)
    00001717 36 00            [10] 3946 	ld	(hl), #0x00
    00001719                       3947 00114$:
                                   3948 ;E:\Dropbox\FAUSTO\SVILUPPI\MSX\CODE\C\MSXgl\projects\soccerlgSCC/soccerlg_s9_b3.c:719: }
    00001719 DD F9            [10] 3949 	ld	sp, ix
    0000171B DD E1            [14] 3950 	pop	ix
    0000171D C9               [10] 3951 	ret
    0000171E                       3952 ___str_2:
    0000171E 41 55 53              3953 	.ascii "AUS"
    00001721 00                    3954 	.db 0x00
    00001722                       3955 ___str_3:
    00001722 42 52 41              3956 	.ascii "BRA"
    00001725 00                    3957 	.db 0x00
    00001726                       3958 ___str_4:
    00001726 49 54 41              3959 	.ascii "ITA"
    00001729 00                    3960 	.db 0x00
    0000172A                       3961 ___str_5:
    0000172A 46 52 41              3962 	.ascii "FRA"
    0000172D 00                    3963 	.db 0x00
    0000172E                       3964 ___str_6:
    0000172E 47 42 52              3965 	.ascii "GBR"
    00001731 00                    3966 	.db 0x00
    00001732                       3967 ___str_7:
    00001732 47 45 52              3968 	.ascii "GER"
    00001735 00                    3969 	.db 0x00
    00001736                       3970 ___str_8:
    00001736 20 20 20              3971 	.ascii "   "
    00001739 00                    3972 	.db 0x00
                                   3973 ;E:\Dropbox\FAUSTO\SVILUPPI\MSX\CODE\C\MSXgl\projects\soccerlgSCC/soccerlg_s9_b3.c:721: char *GetNumberString(u16 value)
                                   3974 ;	---------------------------------
                                   3975 ; Function GetNumberString
                                   3976 ; ---------------------------------
    0000173A                       3977 _GetNumberString::
    0000173A EB               [ 4] 3978 	ex	de, hl
                                   3979 ;E:\Dropbox\FAUSTO\SVILUPPI\MSX\CODE\C\MSXgl\projects\soccerlgSCC/soccerlg_s9_b3.c:725: if (value < 10) {
    0000173B 4B               [ 4] 3980 	ld	c, e
    0000173C 42               [ 4] 3981 	ld	b, d
    0000173D 79               [ 4] 3982 	ld	a, c
    0000173E D6 0A            [ 7] 3983 	sub	a, #0x0a
    00001740 78               [ 4] 3984 	ld	a, b
    00001741 DE 00            [ 7] 3985 	sbc	a, #0x00
    00001743 30 0D            [12] 3986 	jr	NC, 00102$
                                   3987 ;E:\Dropbox\FAUSTO\SVILUPPI\MSX\CODE\C\MSXgl\projects\soccerlgSCC/soccerlg_s9_b3.c:726: str[0] = '0' + value;
    00001745 01r00r00         [10] 3988 	ld	bc, #_GetNumberString_str_65536_1314+0
    00001748 7B               [ 4] 3989 	ld	a, e
    00001749 C6 30            [ 7] 3990 	add	a, #0x30
    0000174B 02               [ 7] 3991 	ld	(bc), a
                                   3992 ;E:\Dropbox\FAUSTO\SVILUPPI\MSX\CODE\C\MSXgl\projects\soccerlgSCC/soccerlg_s9_b3.c:727: str[1] = '\0';
    0000174C 03               [ 6] 3993 	inc	bc
    0000174D AF               [ 4] 3994 	xor	a, a
    0000174E 02               [ 7] 3995 	ld	(bc), a
    0000174F C3r75r17         [10] 3996 	jp	00103$
    00001752                       3997 00102$:
                                   3998 ;E:\Dropbox\FAUSTO\SVILUPPI\MSX\CODE\C\MSXgl\projects\soccerlgSCC/soccerlg_s9_b3.c:729: str[0] = '0' + (value / 10);
    00001752 C5               [11] 3999 	push	bc
    00001753 11 0A 00         [10] 4000 	ld	de, #0x000a
    00001756 69               [ 4] 4001 	ld	l, c
                                   4002 ;	spillPairReg hl
                                   4003 ;	spillPairReg hl
    00001757 60               [ 4] 4004 	ld	h, b
                                   4005 ;	spillPairReg hl
                                   4006 ;	spillPairReg hl
    00001758 CDr00r00         [17] 4007 	call	__divuint
    0000175B C1               [10] 4008 	pop	bc
    0000175C 7B               [ 4] 4009 	ld	a, e
    0000175D C6 30            [ 7] 4010 	add	a, #0x30
    0000175F 32r00r00         [13] 4011 	ld	(#_GetNumberString_str_65536_1314),a
                                   4012 ;E:\Dropbox\FAUSTO\SVILUPPI\MSX\CODE\C\MSXgl\projects\soccerlgSCC/soccerlg_s9_b3.c:730: str[1] = '0' + (value % 10);
    00001762 11 0A 00         [10] 4013 	ld	de, #0x000a
    00001765 69               [ 4] 4014 	ld	l, c
                                   4015 ;	spillPairReg hl
                                   4016 ;	spillPairReg hl
    00001766 60               [ 4] 4017 	ld	h, b
                                   4018 ;	spillPairReg hl
                                   4019 ;	spillPairReg hl
    00001767 CDr00r00         [17] 4020 	call	__moduint
    0000176A 7B               [ 4] 4021 	ld	a, e
    0000176B C6 30            [ 7] 4022 	add	a, #0x30
    0000176D 32r01r00         [13] 4023 	ld	(#(_GetNumberString_str_65536_1314 + 1)),a
                                   4024 ;E:\Dropbox\FAUSTO\SVILUPPI\MSX\CODE\C\MSXgl\projects\soccerlgSCC/soccerlg_s9_b3.c:731: str[2] = '\0';
    00001770 21r02r00         [10] 4025 	ld	hl, #(_GetNumberString_str_65536_1314 + 2)
    00001773 36 00            [10] 4026 	ld	(hl), #0x00
    00001775                       4027 00103$:
                                   4028 ;E:\Dropbox\FAUSTO\SVILUPPI\MSX\CODE\C\MSXgl\projects\soccerlgSCC/soccerlg_s9_b3.c:734: return str;
    00001775 11r00r00         [10] 4029 	ld	de, #_GetNumberString_str_65536_1314
                                   4030 ;E:\Dropbox\FAUSTO\SVILUPPI\MSX\CODE\C\MSXgl\projects\soccerlgSCC/soccerlg_s9_b3.c:735: }
    00001778 C9               [10] 4031 	ret
                                   4032 ;E:\Dropbox\FAUSTO\SVILUPPI\MSX\CODE\C\MSXgl\projects\soccerlgSCC/soccerlg_s9_b3.c:737: void ShowHeaderInfo(){
                                   4033 ;	---------------------------------
                                   4034 ; Function ShowHeaderInfo
                                   4035 ; ---------------------------------
    00001779                       4036 _ShowHeaderInfo::
    00001779 DD E5            [15] 4037 	push	ix
    0000177B DD 21 00 00      [14] 4038 	ld	ix,#0
    0000177F DD 39            [15] 4039 	add	ix,sp
    00001781 3B               [ 6] 4040 	dec	sp
                                   4041 ;E:\Dropbox\FAUSTO\SVILUPPI\MSX\CODE\C\MSXgl\projects\soccerlgSCC/soccerlg_s9_b3.c:740: u8 pos1 = (g_Team1Score >= 10) ? 4 : 5;
    00001782 3Ar00r00         [13] 4042 	ld	a, (_g_Team1Score+0)
    00001785 D6 0A            [ 7] 4043 	sub	a, #0x0a
    00001787 38 06            [12] 4044 	jr	C, 00106$
    00001789 01 04 00         [10] 4045 	ld	bc, #0x0004
    0000178C C3r92r17         [10] 4046 	jp	00107$
    0000178F                       4047 00106$:
    0000178F 01 05 00         [10] 4048 	ld	bc, #0x0005
    00001792                       4049 00107$:
                                   4050 ;E:\Dropbox\FAUSTO\SVILUPPI\MSX\CODE\C\MSXgl\projects\soccerlgSCC/soccerlg_s9_b3.c:741: u8 pos2 = (g_Team2Score >= 10) ? 9 : 10;
    00001792 3Ar00r00         [13] 4051 	ld	a, (_g_Team2Score+0)
    00001795 D6 0A            [ 7] 4052 	sub	a, #0x0a
    00001797 38 06            [12] 4053 	jr	C, 00108$
    00001799 11 09 00         [10] 4054 	ld	de, #0x0009
    0000179C C3rA2r17         [10] 4055 	jp	00109$
    0000179F                       4056 00108$:
    0000179F 11 0A 00         [10] 4057 	ld	de, #0x000a
    000017A2                       4058 00109$:
    000017A2 DD 73 FF         [19] 4059 	ld	-1 (ix), e
                                   4060 ;E:\Dropbox\FAUSTO\SVILUPPI\MSX\CODE\C\MSXgl\projects\soccerlgSCC/soccerlg_s9_b3.c:743: PrintTeamName(0, g_Team1PaletteId);
    000017A5 C5               [11] 4061 	push	bc
    000017A6 3Ar00r00         [13] 4062 	ld	a, (_g_Team1PaletteId+0)
    000017A9 6F               [ 4] 4063 	ld	l, a
                                   4064 ;	spillPairReg hl
                                   4065 ;	spillPairReg hl
    000017AA AF               [ 4] 4066 	xor	a, a
    000017AB CDr3Ar16         [17] 4067 	call	_PrintTeamName
    000017AE C1               [10] 4068 	pop	bc
                                   4069 ;E:\Dropbox\FAUSTO\SVILUPPI\MSX\CODE\C\MSXgl\projects\soccerlgSCC/soccerlg_s9_b3.c:745: V9990_PrintLayerAStringAtPos(pos1, 0, GetNumberString(g_Team1Score));
    000017AF 3Ar00r00         [13] 4070 	ld	a, (_g_Team1Score+0)
    000017B2 6F               [ 4] 4071 	ld	l, a
                                   4072 ;	spillPairReg hl
                                   4073 ;	spillPairReg hl
    000017B3 26 00            [ 7] 4074 	ld	h, #0x00
                                   4075 ;	spillPairReg hl
                                   4076 ;	spillPairReg hl
    000017B5 C5               [11] 4077 	push	bc
    000017B6 CDr3Ar17         [17] 4078 	call	_GetNumberString
    000017B9 C1               [10] 4079 	pop	bc
    000017BA D5               [11] 4080 	push	de
    000017BB 2E 00            [ 7] 4081 	ld	l, #0x00
                                   4082 ;	spillPairReg hl
                                   4083 ;	spillPairReg hl
    000017BD 79               [ 4] 4084 	ld	a, c
    000017BE CDr00r00         [17] 4085 	call	_V9990_PrintLayerAStringAtPos
                                   4086 ;E:\Dropbox\FAUSTO\SVILUPPI\MSX\CODE\C\MSXgl\projects\soccerlgSCC/soccerlg_s9_b3.c:746: V9990_PrintLayerAStringAtPos(7, 0, "-");
    000017C1 21r4Fr18         [10] 4087 	ld	hl, #___str_9
    000017C4 E5               [11] 4088 	push	hl
    000017C5 2E 00            [ 7] 4089 	ld	l, #0x00
                                   4090 ;	spillPairReg hl
                                   4091 ;	spillPairReg hl
    000017C7 3E 07            [ 7] 4092 	ld	a, #0x07
    000017C9 CDr00r00         [17] 4093 	call	_V9990_PrintLayerAStringAtPos
                                   4094 ;E:\Dropbox\FAUSTO\SVILUPPI\MSX\CODE\C\MSXgl\projects\soccerlgSCC/soccerlg_s9_b3.c:747: V9990_PrintLayerAStringAtPos(pos2, 0, GetNumberString(g_Team2Score));
    000017CC 3Ar00r00         [13] 4095 	ld	a, (_g_Team2Score+0)
    000017CF 6F               [ 4] 4096 	ld	l, a
                                   4097 ;	spillPairReg hl
                                   4098 ;	spillPairReg hl
    000017D0 26 00            [ 7] 4099 	ld	h, #0x00
                                   4100 ;	spillPairReg hl
                                   4101 ;	spillPairReg hl
    000017D2 CDr3Ar17         [17] 4102 	call	_GetNumberString
    000017D5 D5               [11] 4103 	push	de
    000017D6 2E 00            [ 7] 4104 	ld	l, #0x00
                                   4105 ;	spillPairReg hl
                                   4106 ;	spillPairReg hl
    000017D8 DD 7E FF         [19] 4107 	ld	a, -1 (ix)
    000017DB CDr00r00         [17] 4108 	call	_V9990_PrintLayerAStringAtPos
                                   4109 ;E:\Dropbox\FAUSTO\SVILUPPI\MSX\CODE\C\MSXgl\projects\soccerlgSCC/soccerlg_s9_b3.c:749: PrintTeamName(12, g_Team2PaletteId);
    000017DE 3Ar00r00         [13] 4110 	ld	a, (_g_Team2PaletteId+0)
    000017E1 6F               [ 4] 4111 	ld	l, a
                                   4112 ;	spillPairReg hl
                                   4113 ;	spillPairReg hl
    000017E2 3E 0C            [ 7] 4114 	ld	a, #0x0c
    000017E4 CDr3Ar16         [17] 4115 	call	_PrintTeamName
                                   4116 ;E:\Dropbox\FAUSTO\SVILUPPI\MSX\CODE\C\MSXgl\projects\soccerlgSCC/soccerlg_s9_b3.c:750: u8 minutes=g_SecondsToEndOfMatch / 60;
    000017E7 3Ar00r00         [13] 4117 	ld	a, (_g_SecondsToEndOfMatch+0)
    000017EA 6F               [ 4] 4118 	ld	l, a
                                   4119 ;	spillPairReg hl
                                   4120 ;	spillPairReg hl
    000017EB 26 00            [ 7] 4121 	ld	h, #0x00
                                   4122 ;	spillPairReg hl
                                   4123 ;	spillPairReg hl
    000017ED 11 3C 00         [10] 4124 	ld	de, #0x003c
    000017F0 CDr00r00         [17] 4125 	call	__divsint
                                   4126 ;E:\Dropbox\FAUSTO\SVILUPPI\MSX\CODE\C\MSXgl\projects\soccerlgSCC/soccerlg_s9_b3.c:751: u8 seconds=g_SecondsToEndOfMatch - minutes*60;
    000017F3 7B               [ 4] 4127 	ld	a, e
    000017F4 4F               [ 4] 4128 	ld	c, a
    000017F5 87               [ 4] 4129 	add	a, a
    000017F6 87               [ 4] 4130 	add	a, a
    000017F7 87               [ 4] 4131 	add	a, a
    000017F8 87               [ 4] 4132 	add	a, a
    000017F9 91               [ 4] 4133 	sub	a, c
    000017FA 87               [ 4] 4134 	add	a, a
    000017FB 87               [ 4] 4135 	add	a, a
    000017FC 4F               [ 4] 4136 	ld	c, a
    000017FD 3Ar00r00         [13] 4137 	ld	a, (_g_SecondsToEndOfMatch+0)
    00001800 91               [ 4] 4138 	sub	a, c
    00001801 4F               [ 4] 4139 	ld	c, a
                                   4140 ;E:\Dropbox\FAUSTO\SVILUPPI\MSX\CODE\C\MSXgl\projects\soccerlgSCC/soccerlg_s9_b3.c:752: V9990_PrintLayerAStringAtPos(28,0,GetNumberString(minutes));
    00001802 16 00            [ 7] 4141 	ld	d, #0x00
    00001804 C5               [11] 4142 	push	bc
    00001805 EB               [ 4] 4143 	ex	de, hl
    00001806 CDr3Ar17         [17] 4144 	call	_GetNumberString
    00001809 D5               [11] 4145 	push	de
    0000180A 2E 00            [ 7] 4146 	ld	l, #0x00
                                   4147 ;	spillPairReg hl
                                   4148 ;	spillPairReg hl
    0000180C 3E 1C            [ 7] 4149 	ld	a, #0x1c
    0000180E CDr00r00         [17] 4150 	call	_V9990_PrintLayerAStringAtPos
    00001811 21r51r18         [10] 4151 	ld	hl, #___str_10
    00001814 E5               [11] 4152 	push	hl
    00001815 2E 00            [ 7] 4153 	ld	l, #0x00
                                   4154 ;	spillPairReg hl
                                   4155 ;	spillPairReg hl
    00001817 3E 1D            [ 7] 4156 	ld	a, #0x1d
    00001819 CDr00r00         [17] 4157 	call	_V9990_PrintLayerAStringAtPos
    0000181C C1               [10] 4158 	pop	bc
                                   4159 ;E:\Dropbox\FAUSTO\SVILUPPI\MSX\CODE\C\MSXgl\projects\soccerlgSCC/soccerlg_s9_b3.c:755: V9990_PrintLayerAStringAtPos(30,0,GetNumberString(seconds));
    0000181D 69               [ 4] 4160 	ld	l, c
                                   4161 ;	spillPairReg hl
                                   4162 ;	spillPairReg hl
    0000181E 26 00            [ 7] 4163 	ld	h, #0x00
                                   4164 ;	spillPairReg hl
                                   4165 ;	spillPairReg hl
                                   4166 ;E:\Dropbox\FAUSTO\SVILUPPI\MSX\CODE\C\MSXgl\projects\soccerlgSCC/soccerlg_s9_b3.c:754: if(seconds>=10){
    00001820 79               [ 4] 4167 	ld	a, c
    00001821 D6 0A            [ 7] 4168 	sub	a, #0x0a
    00001823 38 0E            [12] 4169 	jr	C, 00102$
                                   4170 ;E:\Dropbox\FAUSTO\SVILUPPI\MSX\CODE\C\MSXgl\projects\soccerlgSCC/soccerlg_s9_b3.c:755: V9990_PrintLayerAStringAtPos(30,0,GetNumberString(seconds));
    00001825 CDr3Ar17         [17] 4171 	call	_GetNumberString
    00001828 D5               [11] 4172 	push	de
    00001829 2E 00            [ 7] 4173 	ld	l, #0x00
                                   4174 ;	spillPairReg hl
                                   4175 ;	spillPairReg hl
    0000182B 3E 1E            [ 7] 4176 	ld	a, #0x1e
    0000182D CDr00r00         [17] 4177 	call	_V9990_PrintLayerAStringAtPos
    00001830 C3r4Br18         [10] 4178 	jp	00104$
    00001833                       4179 00102$:
                                   4180 ;E:\Dropbox\FAUSTO\SVILUPPI\MSX\CODE\C\MSXgl\projects\soccerlgSCC/soccerlg_s9_b3.c:758: V9990_PrintLayerAStringAtPos(30,0,"0");
    00001833 01r53r18         [10] 4181 	ld	bc, #___str_11+0
    00001836 E5               [11] 4182 	push	hl
    00001837 C5               [11] 4183 	push	bc
    00001838 2E 00            [ 7] 4184 	ld	l, #0x00
                                   4185 ;	spillPairReg hl
                                   4186 ;	spillPairReg hl
    0000183A 3E 1E            [ 7] 4187 	ld	a, #0x1e
    0000183C CDr00r00         [17] 4188 	call	_V9990_PrintLayerAStringAtPos
    0000183F E1               [10] 4189 	pop	hl
                                   4190 ;E:\Dropbox\FAUSTO\SVILUPPI\MSX\CODE\C\MSXgl\projects\soccerlgSCC/soccerlg_s9_b3.c:759: V9990_PrintLayerAStringAtPos(31,0,GetNumberString(seconds));
    00001840 CDr3Ar17         [17] 4191 	call	_GetNumberString
    00001843 D5               [11] 4192 	push	de
    00001844 2E 00            [ 7] 4193 	ld	l, #0x00
                                   4194 ;	spillPairReg hl
                                   4195 ;	spillPairReg hl
    00001846 3E 1F            [ 7] 4196 	ld	a, #0x1f
    00001848 CDr00r00         [17] 4197 	call	_V9990_PrintLayerAStringAtPos
    0000184B                       4198 00104$:
                                   4199 ;E:\Dropbox\FAUSTO\SVILUPPI\MSX\CODE\C\MSXgl\projects\soccerlgSCC/soccerlg_s9_b3.c:761: }
    0000184B 33               [ 6] 4200 	inc	sp
    0000184C DD E1            [14] 4201 	pop	ix
    0000184E C9               [10] 4202 	ret
    0000184F                       4203 ___str_9:
    0000184F 2D                    4204 	.ascii "-"
    00001850 00                    4205 	.db 0x00
    00001851                       4206 ___str_10:
    00001851 3A                    4207 	.ascii ":"
    00001852 00                    4208 	.db 0x00
    00001853                       4209 ___str_11:
    00001853 30                    4210 	.ascii "0"
    00001854 00                    4211 	.db 0x00
                                   4212 ;E:\Dropbox\FAUSTO\SVILUPPI\MSX\CODE\C\MSXgl\projects\soccerlgSCC/soccerlg_s9_b3.c:763: void SetTeamsPresentationSpritesPosition(){
                                   4213 ;	---------------------------------
                                   4214 ; Function SetTeamsPresentationSpritesPosition
                                   4215 ; ---------------------------------
    00001855                       4216 _SetTeamsPresentationSpritesPosition::
    00001855 DD E5            [15] 4217 	push	ix
    00001857 DD 21 00 00      [14] 4218 	ld	ix,#0
    0000185B DD 39            [15] 4219 	add	ix,sp
    0000185D F5               [11] 4220 	push	af
    0000185E F5               [11] 4221 	push	af
                                   4222 ;E:\Dropbox\FAUSTO\SVILUPPI\MSX\CODE\C\MSXgl\projects\soccerlgSCC/soccerlg_s9_b3.c:764: g_MatchStatus=MATCH_NOT_STARTED;
    0000185F 21r00r00         [10] 4223 	ld	hl, #_g_MatchStatus
                                   4224 ;E:\Dropbox\FAUSTO\SVILUPPI\MSX\CODE\C\MSXgl\projects\soccerlgSCC/soccerlg_s9_b3.c:765: for(u8 i=0;i<7;i++){
    00001862 36 00            [10] 4225 	ld	(hl), #0x00
    00001864 4E               [ 7] 4226 	ld	c, (hl)
    00001865                       4227 00105$:
    00001865 79               [ 4] 4228 	ld	a, c
    00001866 D6 07            [ 7] 4229 	sub	a, #0x07
    00001868 30 53            [12] 4230 	jr	NC, 00101$
                                   4231 ;E:\Dropbox\FAUSTO\SVILUPPI\MSX\CODE\C\MSXgl\projects\soccerlgSCC/soccerlg_s9_b3.c:766: g_Players[i].Y=230;
    0000186A 06 00            [ 7] 4232 	ld	b, #0x00
    0000186C 69               [ 4] 4233 	ld	l, c
    0000186D 60               [ 4] 4234 	ld	h, b
    0000186E 29               [11] 4235 	add	hl, hl
    0000186F 29               [11] 4236 	add	hl, hl
    00001870 09               [11] 4237 	add	hl, bc
    00001871 29               [11] 4238 	add	hl, hl
    00001872 29               [11] 4239 	add	hl, hl
    00001873 09               [11] 4240 	add	hl, bc
    00001874 EB               [ 4] 4241 	ex	de, hl
    00001875 21r00r00         [10] 4242 	ld	hl, #_g_Players
    00001878 19               [11] 4243 	add	hl, de
    00001879 E3               [19] 4244 	ex	(sp), hl
    0000187A E1               [10] 4245 	pop	hl
    0000187B E5               [11] 4246 	push	hl
    0000187C 36 E6            [10] 4247 	ld	(hl), #0xe6
    0000187E 23               [ 6] 4248 	inc	hl
    0000187F 36 00            [10] 4249 	ld	(hl), #0x00
                                   4250 ;E:\Dropbox\FAUSTO\SVILUPPI\MSX\CODE\C\MSXgl\projects\soccerlgSCC/soccerlg_s9_b3.c:767: g_Players[i].X=72+i*20;
    00001881 DD 7E FC         [19] 4251 	ld	a, -4 (ix)
    00001884 C6 02            [ 7] 4252 	add	a, #0x02
    00001886 DD 77 FE         [19] 4253 	ld	-2 (ix), a
    00001889 DD 7E FD         [19] 4254 	ld	a, -3 (ix)
    0000188C CE 00            [ 7] 4255 	adc	a, #0x00
    0000188E DD 77 FF         [19] 4256 	ld	-1 (ix), a
    00001891 59               [ 4] 4257 	ld	e, c
    00001892 16 00            [ 7] 4258 	ld	d, #0x00
    00001894 6B               [ 4] 4259 	ld	l, e
    00001895 62               [ 4] 4260 	ld	h, d
    00001896 29               [11] 4261 	add	hl, hl
    00001897 29               [11] 4262 	add	hl, hl
    00001898 19               [11] 4263 	add	hl, de
    00001899 29               [11] 4264 	add	hl, hl
    0000189A 29               [11] 4265 	add	hl, hl
    0000189B 11 48 00         [10] 4266 	ld	de, #0x0048
    0000189E 19               [11] 4267 	add	hl, de
    0000189F EB               [ 4] 4268 	ex	de, hl
    000018A0 DD 6E FE         [19] 4269 	ld	l, -2 (ix)
    000018A3 DD 66 FF         [19] 4270 	ld	h, -1 (ix)
    000018A6 73               [ 7] 4271 	ld	(hl), e
    000018A7 23               [ 6] 4272 	inc	hl
    000018A8 72               [ 7] 4273 	ld	(hl), d
                                   4274 ;E:\Dropbox\FAUSTO\SVILUPPI\MSX\CODE\C\MSXgl\projects\soccerlgSCC/soccerlg_s9_b3.c:768: g_Players[i].PatternId=PLAYER_POSE_FRONT;
    000018A9 E1               [10] 4275 	pop	hl
    000018AA E5               [11] 4276 	push	hl
    000018AB 11 08 00         [10] 4277 	ld	de, #0x0008
    000018AE 19               [11] 4278 	add	hl, de
    000018AF 36 10            [10] 4279 	ld	(hl), #0x10
                                   4280 ;E:\Dropbox\FAUSTO\SVILUPPI\MSX\CODE\C\MSXgl\projects\soccerlgSCC/soccerlg_s9_b3.c:769: g_Players[i].TeamId=TEAM_2;
    000018B1 E1               [10] 4281 	pop	hl
    000018B2 E5               [11] 4282 	push	hl
    000018B3 11 09 00         [10] 4283 	ld	de, #0x0009
    000018B6 19               [11] 4284 	add	hl, de
    000018B7 36 02            [10] 4285 	ld	(hl), #0x02
                                   4286 ;E:\Dropbox\FAUSTO\SVILUPPI\MSX\CODE\C\MSXgl\projects\soccerlgSCC/soccerlg_s9_b3.c:765: for(u8 i=0;i<7;i++){
    000018B9 0C               [ 4] 4287 	inc	c
    000018BA C3r65r18         [10] 4288 	jp	00105$
    000018BD                       4289 00101$:
                                   4290 ;E:\Dropbox\FAUSTO\SVILUPPI\MSX\CODE\C\MSXgl\projects\soccerlgSCC/soccerlg_s9_b3.c:772: for(u8 i=7;i<14;i++){
    000018BD 0E 07            [ 7] 4291 	ld	c, #0x07
    000018BF                       4292 00108$:
    000018BF 79               [ 4] 4293 	ld	a, c
    000018C0 D6 0E            [ 7] 4294 	sub	a, #0x0e
    000018C2 30 55            [12] 4295 	jr	NC, 00102$
                                   4296 ;E:\Dropbox\FAUSTO\SVILUPPI\MSX\CODE\C\MSXgl\projects\soccerlgSCC/soccerlg_s9_b3.c:773: g_Players[i].Y=250;
    000018C4 06 00            [ 7] 4297 	ld	b, #0x00
    000018C6 69               [ 4] 4298 	ld	l, c
    000018C7 60               [ 4] 4299 	ld	h, b
    000018C8 29               [11] 4300 	add	hl, hl
    000018C9 29               [11] 4301 	add	hl, hl
    000018CA 09               [11] 4302 	add	hl, bc
    000018CB 29               [11] 4303 	add	hl, hl
    000018CC 29               [11] 4304 	add	hl, hl
    000018CD 09               [11] 4305 	add	hl, bc
    000018CE 11r00r00         [10] 4306 	ld	de, #_g_Players
    000018D1 19               [11] 4307 	add	hl, de
    000018D2 5D               [ 4] 4308 	ld	e, l
    000018D3 54               [ 4] 4309 	ld	d, h
    000018D4 36 FA            [10] 4310 	ld	(hl), #0xfa
    000018D6 23               [ 6] 4311 	inc	hl
    000018D7 36 00            [10] 4312 	ld	(hl), #0x00
                                   4313 ;E:\Dropbox\FAUSTO\SVILUPPI\MSX\CODE\C\MSXgl\projects\soccerlgSCC/soccerlg_s9_b3.c:774: g_Players[i].X=72+(i-7)*20;
    000018D9 21 02 00         [10] 4314 	ld	hl, #0x0002
    000018DC 19               [11] 4315 	add	hl, de
    000018DD E3               [19] 4316 	ex	(sp), hl
    000018DE 79               [ 4] 4317 	ld	a, c
    000018DF 06 00            [ 7] 4318 	ld	b, #0x00
    000018E1 C6 F9            [ 7] 4319 	add	a, #0xf9
    000018E3 6F               [ 4] 4320 	ld	l, a
                                   4321 ;	spillPairReg hl
                                   4322 ;	spillPairReg hl
    000018E4 78               [ 4] 4323 	ld	a, b
    000018E5 CE FF            [ 7] 4324 	adc	a, #0xff
    000018E7 67               [ 4] 4325 	ld	h, a
                                   4326 ;	spillPairReg hl
                                   4327 ;	spillPairReg hl
    000018E8 D5               [11] 4328 	push	de
    000018E9 5D               [ 4] 4329 	ld	e, l
    000018EA 54               [ 4] 4330 	ld	d, h
    000018EB 29               [11] 4331 	add	hl, hl
    000018EC 29               [11] 4332 	add	hl, hl
    000018ED 19               [11] 4333 	add	hl, de
    000018EE 29               [11] 4334 	add	hl, hl
    000018EF 29               [11] 4335 	add	hl, hl
    000018F0 D1               [10] 4336 	pop	de
    000018F1 7D               [ 4] 4337 	ld	a, l
    000018F2 C6 48            [ 7] 4338 	add	a, #0x48
    000018F4 47               [ 4] 4339 	ld	b, a
    000018F5 7C               [ 4] 4340 	ld	a, h
    000018F6 CE 00            [ 7] 4341 	adc	a, #0x00
    000018F8 DD 70 FE         [19] 4342 	ld	-2 (ix), b
    000018FB DD 77 FF         [19] 4343 	ld	-1 (ix), a
    000018FE E1               [10] 4344 	pop	hl
    000018FF E5               [11] 4345 	push	hl
    00001900 DD 7E FE         [19] 4346 	ld	a, -2 (ix)
    00001903 77               [ 7] 4347 	ld	(hl), a
    00001904 23               [ 6] 4348 	inc	hl
    00001905 DD 7E FF         [19] 4349 	ld	a, -1 (ix)
    00001908 77               [ 7] 4350 	ld	(hl), a
                                   4351 ;E:\Dropbox\FAUSTO\SVILUPPI\MSX\CODE\C\MSXgl\projects\soccerlgSCC/soccerlg_s9_b3.c:775: g_Players[i].PatternId=PLAYER_POSE_BACK;
    00001909 21 08 00         [10] 4352 	ld	hl, #0x0008
    0000190C 19               [11] 4353 	add	hl, de
    0000190D 36 11            [10] 4354 	ld	(hl), #0x11
                                   4355 ;E:\Dropbox\FAUSTO\SVILUPPI\MSX\CODE\C\MSXgl\projects\soccerlgSCC/soccerlg_s9_b3.c:776: g_Players[i].TeamId=TEAM_1;
    0000190F 21 09 00         [10] 4356 	ld	hl, #0x0009
    00001912 19               [11] 4357 	add	hl, de
    00001913 36 01            [10] 4358 	ld	(hl), #0x01
                                   4359 ;E:\Dropbox\FAUSTO\SVILUPPI\MSX\CODE\C\MSXgl\projects\soccerlgSCC/soccerlg_s9_b3.c:772: for(u8 i=7;i<14;i++){
    00001915 0C               [ 4] 4360 	inc	c
    00001916 C3rBFr18         [10] 4361 	jp	00108$
    00001919                       4362 00102$:
                                   4363 ;E:\Dropbox\FAUSTO\SVILUPPI\MSX\CODE\C\MSXgl\projects\soccerlgSCC/soccerlg_s9_b3.c:778: g_Players[REFEREE].Y=FIELD_POS_Y_CENTER;
    00001919 21 F3 00         [10] 4364 	ld	hl, #0x00f3
    0000191C 22r26r01         [16] 4365 	ld	((_g_Players + 294)), hl
                                   4366 ;E:\Dropbox\FAUSTO\SVILUPPI\MSX\CODE\C\MSXgl\projects\soccerlgSCC/soccerlg_s9_b3.c:779: g_Players[REFEREE].X=30;
    0000191F 2E 1E            [ 7] 4367 	ld	l, #0x1e
    00001921 22r28r01         [16] 4368 	ld	((_g_Players + 296)), hl
                                   4369 ;E:\Dropbox\FAUSTO\SVILUPPI\MSX\CODE\C\MSXgl\projects\soccerlgSCC/soccerlg_s9_b3.c:780: g_Players[REFEREE].PatternId=PLAYER_POSE_RIGHT;
    00001924 21r2Er01         [10] 4370 	ld	hl, #(_g_Players + 302)
    00001927 36 9D            [10] 4371 	ld	(hl), #0x9d
                                   4372 ;E:\Dropbox\FAUSTO\SVILUPPI\MSX\CODE\C\MSXgl\projects\soccerlgSCC/soccerlg_s9_b3.c:781: g_Players[REFEREE].TeamId=REFEREE;
    00001929 21r2Fr01         [10] 4373 	ld	hl, #(_g_Players + 303)
    0000192C 36 0E            [10] 4374 	ld	(hl), #0x0e
                                   4375 ;E:\Dropbox\FAUSTO\SVILUPPI\MSX\CODE\C\MSXgl\projects\soccerlgSCC/soccerlg_s9_b3.c:782: g_Players[REFEREE].LastPose=0;
    0000192E 21r32r01         [10] 4376 	ld	hl, #(_g_Players + 306)
    00001931 36 00            [10] 4377 	ld	(hl), #0x00
                                   4378 ;E:\Dropbox\FAUSTO\SVILUPPI\MSX\CODE\C\MSXgl\projects\soccerlgSCC/soccerlg_s9_b3.c:783: g_Players[REFEREE].Direction=DIRECTION_RIGHT;
    00001933 21r30r01         [10] 4379 	ld	hl, #(_g_Players + 304)
    00001936 36 03            [10] 4380 	ld	(hl), #0x03
                                   4381 ;E:\Dropbox\FAUSTO\SVILUPPI\MSX\CODE\C\MSXgl\projects\soccerlgSCC/soccerlg_s9_b3.c:784: g_Players[REFEREE].Role=NO_VALUE;
    00001938 21r33r01         [10] 4382 	ld	hl, #(_g_Players + 307)
    0000193B 36 FF            [10] 4383 	ld	(hl), #0xff
                                   4384 ;E:\Dropbox\FAUSTO\SVILUPPI\MSX\CODE\C\MSXgl\projects\soccerlgSCC/soccerlg_s9_b3.c:785: g_Players[REFEREE].Status=PLAYER_STATUS_NONE;
    0000193D 21 00 00         [10] 4385 	ld	hl, #0x0000
    00001940 22r38r01         [16] 4386 	ld	((_g_Players + 312)), hl
                                   4387 ;E:\Dropbox\FAUSTO\SVILUPPI\MSX\CODE\C\MSXgl\projects\soccerlgSCC/soccerlg_s9_b3.c:786: CallFnc_VOID(8,ResetPlayersInfo);
    00001943 11r00r00         [10] 4388 	ld	de, #_ResetPlayersInfo
    00001946 3E 08            [ 7] 4389 	ld	a, #0x08
    00001948 CDr00r00         [17] 4390 	call	_CallFnc_VOID
                                   4391 ;E:\Dropbox\FAUSTO\SVILUPPI\MSX\CODE\C\MSXgl\projects\soccerlgSCC/soccerlg_s9_b3.c:787: SetPlayerTarget(REFEREE); 
    0000194B 3E 0E            [ 7] 4392 	ld	a, #0x0e
    0000194D CDrD5r19         [17] 4393 	call	_SetPlayerTarget
                                   4394 ;E:\Dropbox\FAUSTO\SVILUPPI\MSX\CODE\C\MSXgl\projects\soccerlgSCC/soccerlg_s9_b3.c:795: for(u8 i=0;i<14;i++){
    00001950 0E 00            [ 7] 4395 	ld	c, #0x00
    00001952                       4396 00111$:
    00001952 79               [ 4] 4397 	ld	a, c
    00001953 D6 0E            [ 7] 4398 	sub	a, #0x0e
    00001955 30 39            [12] 4399 	jr	NC, 00103$
                                   4400 ;E:\Dropbox\FAUSTO\SVILUPPI\MSX\CODE\C\MSXgl\projects\soccerlgSCC/soccerlg_s9_b3.c:796: g_Players[i].AiTickCounter=0;
    00001957 06 00            [ 7] 4401 	ld	b, #0x00
    00001959 69               [ 4] 4402 	ld	l, c
    0000195A 60               [ 4] 4403 	ld	h, b
    0000195B 29               [11] 4404 	add	hl, hl
    0000195C 29               [11] 4405 	add	hl, hl
    0000195D 09               [11] 4406 	add	hl, bc
    0000195E 29               [11] 4407 	add	hl, hl
    0000195F 29               [11] 4408 	add	hl, hl
    00001960 09               [11] 4409 	add	hl, bc
    00001961 EB               [ 4] 4410 	ex	de, hl
    00001962 21r00r00         [10] 4411 	ld	hl, #_g_Players
    00001965 19               [11] 4412 	add	hl, de
    00001966 EB               [ 4] 4413 	ex	de, hl
    00001967 21 14 00         [10] 4414 	ld	hl, #0x0014
    0000196A 19               [11] 4415 	add	hl, de
    0000196B 36 00            [10] 4416 	ld	(hl), #0x00
                                   4417 ;E:\Dropbox\FAUSTO\SVILUPPI\MSX\CODE\C\MSXgl\projects\soccerlgSCC/soccerlg_s9_b3.c:797: g_Players[i].Role = k_PlayerRoles[i % 7];
    0000196D 21 0D 00         [10] 4418 	ld	hl, #0x000d
    00001970 19               [11] 4419 	add	hl, de
    00001971 DD 75 FE         [19] 4420 	ld	-2 (ix), l
    00001974 DD 74 FF         [19] 4421 	ld	-1 (ix), h
    00001977 69               [ 4] 4422 	ld	l, c
                                   4423 ;	spillPairReg hl
                                   4424 ;	spillPairReg hl
    00001978 26 00            [ 7] 4425 	ld	h, #0x00
                                   4426 ;	spillPairReg hl
                                   4427 ;	spillPairReg hl
    0000197A C5               [11] 4428 	push	bc
    0000197B 11 07 00         [10] 4429 	ld	de, #0x0007
    0000197E CDr00r00         [17] 4430 	call	__modsint
    00001981 C1               [10] 4431 	pop	bc
    00001982 21rADr19         [10] 4432 	ld	hl, #_SetTeamsPresentationSpritesPosition_k_PlayerRoles_65537_1326
    00001985 19               [11] 4433 	add	hl, de
    00001986 7E               [ 7] 4434 	ld	a, (hl)
    00001987 D1               [10] 4435 	pop	de
    00001988 E1               [10] 4436 	pop	hl
    00001989 E5               [11] 4437 	push	hl
    0000198A D5               [11] 4438 	push	de
    0000198B 77               [ 7] 4439 	ld	(hl), a
                                   4440 ;E:\Dropbox\FAUSTO\SVILUPPI\MSX\CODE\C\MSXgl\projects\soccerlgSCC/soccerlg_s9_b3.c:795: for(u8 i=0;i<14;i++){
    0000198C 0C               [ 4] 4441 	inc	c
    0000198D C3r52r19         [10] 4442 	jp	00111$
    00001990                       4443 00103$:
                                   4444 ;E:\Dropbox\FAUSTO\SVILUPPI\MSX\CODE\C\MSXgl\projects\soccerlgSCC/soccerlg_s9_b3.c:799: g_Ball.X=FIELD_POS_X_CENTER;
    00001990 21 78 00         [10] 4445 	ld	hl, #0x0078
    00001993 22r02r00         [16] 4446 	ld	((_g_Ball + 2)), hl
                                   4447 ;E:\Dropbox\FAUSTO\SVILUPPI\MSX\CODE\C\MSXgl\projects\soccerlgSCC/soccerlg_s9_b3.c:800: g_Ball.Y=FIELD_POS_Y_CENTER;
    00001996 2E F3            [ 7] 4448 	ld	l, #0xf3
    00001998 22r00r00         [16] 4449 	ld	(_g_Ball), hl
                                   4450 ;E:\Dropbox\FAUSTO\SVILUPPI\MSX\CODE\C\MSXgl\projects\soccerlgSCC/soccerlg_s9_b3.c:801: g_Ball.PreviousY=g_Ball.Y;
    0000199B ED 4Br00r00      [20] 4451 	ld	bc, (#_g_Ball + 0)
    0000199F ED 43r07r00      [20] 4452 	ld	((_g_Ball + 7)), bc
                                   4453 ;E:\Dropbox\FAUSTO\SVILUPPI\MSX\CODE\C\MSXgl\projects\soccerlgSCC/soccerlg_s9_b3.c:802: ResetBallInfo(true);
    000019A3 3E 01            [ 7] 4454 	ld	a, #0x01
    000019A5 CDrB4r19         [17] 4455 	call	_ResetBallInfo
                                   4456 ;E:\Dropbox\FAUSTO\SVILUPPI\MSX\CODE\C\MSXgl\projects\soccerlgSCC/soccerlg_s9_b3.c:803: }
    000019A8 DD F9            [10] 4457 	ld	sp, ix
    000019AA DD E1            [14] 4458 	pop	ix
    000019AC C9               [10] 4459 	ret
    000019AD                       4460 _SetTeamsPresentationSpritesPosition_k_PlayerRoles_65537_1326:
    000019AD 00                    4461 	.db #0x00	; 0
    000019AE 01                    4462 	.db #0x01	; 1
    000019AF 04                    4463 	.db #0x04	; 4
    000019B0 03                    4464 	.db #0x03	; 3
    000019B1 02                    4465 	.db #0x02	; 2
    000019B2 05                    4466 	.db #0x05	; 5
    000019B3 06                    4467 	.db #0x06	; 6
                                   4468 ;E:\Dropbox\FAUSTO\SVILUPPI\MSX\CODE\C\MSXgl\projects\soccerlgSCC/soccerlg_s9_b3.c:805: void ResetBallInfo(bool resetPossessionPlayer){
                                   4469 ;	---------------------------------
                                   4470 ; Function ResetBallInfo
                                   4471 ; ---------------------------------
    000019B4                       4472 _ResetBallInfo::
    000019B4 4F               [ 4] 4473 	ld	c, a
                                   4474 ;E:\Dropbox\FAUSTO\SVILUPPI\MSX\CODE\C\MSXgl\projects\soccerlgSCC/soccerlg_s9_b3.c:806: g_Ball.PreviousY=g_Ball.Y;
    000019B5 ED 5Br00r00      [20] 4475 	ld	de, (#_g_Ball + 0)
    000019B9 ED 53r07r00      [20] 4476 	ld	((_g_Ball + 7)), de
                                   4477 ;E:\Dropbox\FAUSTO\SVILUPPI\MSX\CODE\C\MSXgl\projects\soccerlgSCC/soccerlg_s9_b3.c:807: g_Ball.KickMoveState=NO_VALUE;
    000019BD 21r0Dr00         [10] 4478 	ld	hl, #(_g_Ball + 13)
    000019C0 36 FF            [10] 4479 	ld	(hl), #0xff
                                   4480 ;E:\Dropbox\FAUSTO\SVILUPPI\MSX\CODE\C\MSXgl\projects\soccerlgSCC/soccerlg_s9_b3.c:808: g_Ball.Size=1;
    000019C2 21r04r00         [10] 4481 	ld	hl, #(_g_Ball + 4)
    000019C5 36 01            [10] 4482 	ld	(hl), #0x01
                                   4483 ;E:\Dropbox\FAUSTO\SVILUPPI\MSX\CODE\C\MSXgl\projects\soccerlgSCC/soccerlg_s9_b3.c:809: g_Ball.Direction=DIRECTION_NONE;
    000019C7 21r05r00         [10] 4484 	ld	hl, #(_g_Ball + 5)
    000019CA 36 00            [10] 4485 	ld	(hl), #0x00
                                   4486 ;E:\Dropbox\FAUSTO\SVILUPPI\MSX\CODE\C\MSXgl\projects\soccerlgSCC/soccerlg_s9_b3.c:810: if(resetPossessionPlayer){
    000019CC 79               [ 4] 4487 	ld	a, c
    000019CD B7               [ 4] 4488 	or	a, a
    000019CE C8               [11] 4489 	ret	Z
                                   4490 ;E:\Dropbox\FAUSTO\SVILUPPI\MSX\CODE\C\MSXgl\projects\soccerlgSCC/soccerlg_s9_b3.c:811: g_Ball.PossessionPlayerId=NO_VALUE;
    000019CF 21r06r00         [10] 4491 	ld	hl, #(_g_Ball + 6)
    000019D2 36 FF            [10] 4492 	ld	(hl), #0xff
                                   4493 ;E:\Dropbox\FAUSTO\SVILUPPI\MSX\CODE\C\MSXgl\projects\soccerlgSCC/soccerlg_s9_b3.c:813: }
    000019D4 C9               [10] 4494 	ret
                                   4495 ;E:\Dropbox\FAUSTO\SVILUPPI\MSX\CODE\C\MSXgl\projects\soccerlgSCC/soccerlg_s9_b3.c:815: void SetPlayerTarget(u8 playerId){
                                   4496 ;	---------------------------------
                                   4497 ; Function SetPlayerTarget
                                   4498 ; ---------------------------------
    000019D5                       4499 _SetPlayerTarget::
    000019D5 DD E5            [15] 4500 	push	ix
    000019D7 DD 21 00 00      [14] 4501 	ld	ix,#0
    000019DB DD 39            [15] 4502 	add	ix,sp
    000019DD 21 F1 FF         [10] 4503 	ld	hl, #-15
    000019E0 39               [11] 4504 	add	hl, sp
    000019E1 F9               [ 6] 4505 	ld	sp, hl
    000019E2 DD 77 FF         [19] 4506 	ld	-1 (ix), a
                                   4507 ;E:\Dropbox\FAUSTO\SVILUPPI\MSX\CODE\C\MSXgl\projects\soccerlgSCC/soccerlg_s9_b3.c:816: if(g_FieldScrollingActionInProgress!=NO_VALUE && g_MatchStatus!=MATCH_BEFORE_KICK_OFF){
    000019E5 3Ar00r00         [13] 4508 	ld	a, (_g_MatchStatus+0)
    000019E8 3D               [ 4] 4509 	dec	a
    000019E9 3E 01            [ 7] 4510 	ld	a, #0x01
    000019EB 28 01            [12] 4511 	jr	Z, 00188$
    000019ED AF               [ 4] 4512 	xor	a, a
    000019EE                       4513 00188$:
    000019EE DD 77 FE         [19] 4514 	ld	-2 (ix), a
    000019F1 3Ar00r00         [13] 4515 	ld	a, (_g_FieldScrollingActionInProgress+0)
    000019F4 3C               [ 4] 4516 	inc	a
    000019F5 28 07            [12] 4517 	jr	Z, 00102$
    000019F7 DD CB FE 46      [20] 4518 	bit	0, -2 (ix)
                                   4519 ;E:\Dropbox\FAUSTO\SVILUPPI\MSX\CODE\C\MSXgl\projects\soccerlgSCC/soccerlg_s9_b3.c:817: return;
    000019FB CAr5Ar1B         [10] 4520 	jp	Z,00121$
    000019FE                       4521 00102$:
                                   4522 ;E:\Dropbox\FAUSTO\SVILUPPI\MSX\CODE\C\MSXgl\projects\soccerlgSCC/soccerlg_s9_b3.c:819: switch(g_MatchStatus){
    000019FE DD 7E FE         [19] 4523 	ld	a, -2 (ix)
    00001A01 B7               [ 4] 4524 	or	a, a
    00001A02 CAr5Ar1B         [10] 4525 	jp	Z, 00121$
                                   4526 ;E:\Dropbox\FAUSTO\SVILUPPI\MSX\CODE\C\MSXgl\projects\soccerlgSCC/soccerlg_s9_b3.c:841: if(g_Players[playerId].TeamId==REFEREE){
    00001A05 01r00r00         [10] 4527 	ld	bc, #_g_Players+0
    00001A08 DD 5E FF         [19] 4528 	ld	e, -1 (ix)
    00001A0B 16 00            [ 7] 4529 	ld	d, #0x00
    00001A0D 6B               [ 4] 4530 	ld	l, e
    00001A0E 62               [ 4] 4531 	ld	h, d
    00001A0F 29               [11] 4532 	add	hl, hl
    00001A10 29               [11] 4533 	add	hl, hl
    00001A11 19               [11] 4534 	add	hl, de
    00001A12 29               [11] 4535 	add	hl, hl
    00001A13 29               [11] 4536 	add	hl, hl
    00001A14 19               [11] 4537 	add	hl, de
    00001A15 09               [11] 4538 	add	hl, bc
    00001A16 EB               [ 4] 4539 	ex	de, hl
    00001A17 D5               [11] 4540 	push	de
    00001A18 FD E1            [14] 4541 	pop	iy
    00001A1A FD 7E 09         [19] 4542 	ld	a, 9 (iy)
    00001A1D DD 77 F3         [19] 4543 	ld	-13 (ix), a
                                   4544 ;E:\Dropbox\FAUSTO\SVILUPPI\MSX\CODE\C\MSXgl\projects\soccerlgSCC/soccerlg_s9_b3.c:843: g_Players[playerId].TargetX=FIELD_POS_X_CENTER - 30; 
    00001A20 21 10 00         [10] 4545 	ld	hl, #0x0010
    00001A23 19               [11] 4546 	add	hl, de
    00001A24 DD 75 F4         [19] 4547 	ld	-12 (ix), l
    00001A27 DD 74 F5         [19] 4548 	ld	-11 (ix), h
                                   4549 ;E:\Dropbox\FAUSTO\SVILUPPI\MSX\CODE\C\MSXgl\projects\soccerlgSCC/soccerlg_s9_b3.c:844: g_Players[playerId].TargetY=FIELD_POS_Y_CENTER - 40; 
    00001A2A 21 0E 00         [10] 4550 	ld	hl, #0x000e
    00001A2D 19               [11] 4551 	add	hl, de
    00001A2E DD 75 F6         [19] 4552 	ld	-10 (ix), l
    00001A31 DD 74 F7         [19] 4553 	ld	-9 (ix), h
                                   4554 ;E:\Dropbox\FAUSTO\SVILUPPI\MSX\CODE\C\MSXgl\projects\soccerlgSCC/soccerlg_s9_b3.c:841: if(g_Players[playerId].TeamId==REFEREE){
    00001A34 DD 7E F3         [19] 4555 	ld	a, -13 (ix)
    00001A37 D6 0E            [ 7] 4556 	sub	a, #0x0e
    00001A39 20 19            [12] 4557 	jr	NZ, 00118$
                                   4558 ;E:\Dropbox\FAUSTO\SVILUPPI\MSX\CODE\C\MSXgl\projects\soccerlgSCC/soccerlg_s9_b3.c:843: g_Players[playerId].TargetX=FIELD_POS_X_CENTER - 30; 
    00001A3B DD 6E F4         [19] 4559 	ld	l, -12 (ix)
    00001A3E DD 66 F5         [19] 4560 	ld	h, -11 (ix)
    00001A41 36 5A            [10] 4561 	ld	(hl), #0x5a
    00001A43 23               [ 6] 4562 	inc	hl
    00001A44 36 00            [10] 4563 	ld	(hl), #0x00
                                   4564 ;E:\Dropbox\FAUSTO\SVILUPPI\MSX\CODE\C\MSXgl\projects\soccerlgSCC/soccerlg_s9_b3.c:844: g_Players[playerId].TargetY=FIELD_POS_Y_CENTER - 40; 
    00001A46 DD 6E F6         [19] 4565 	ld	l, -10 (ix)
    00001A49 DD 66 F7         [19] 4566 	ld	h, -9 (ix)
    00001A4C 36 CB            [10] 4567 	ld	(hl), #0xcb
    00001A4E 23               [ 6] 4568 	inc	hl
    00001A4F 36 00            [10] 4569 	ld	(hl), #0x00
    00001A51 C3r5Ar1B         [10] 4570 	jp	00121$
    00001A54                       4571 00118$:
                                   4572 ;E:\Dropbox\FAUSTO\SVILUPPI\MSX\CODE\C\MSXgl\projects\soccerlgSCC/soccerlg_s9_b3.c:847: u8 role = g_Players[playerId].Role;
    00001A54 21 0D 00         [10] 4573 	ld	hl, #13
    00001A57 19               [11] 4574 	add	hl, de
    00001A58 7E               [ 7] 4575 	ld	a, (hl)
    00001A59 DD 77 F8         [19] 4576 	ld	-8 (ix), a
                                   4577 ;E:\Dropbox\FAUSTO\SVILUPPI\MSX\CODE\C\MSXgl\projects\soccerlgSCC/soccerlg_s9_b3.c:848: if (role > 6) role = 0; // Safety
    00001A5C 3E 06            [ 7] 4578 	ld	a, #0x06
    00001A5E DD 96 F8         [19] 4579 	sub	a, -8 (ix)
    00001A61 30 04            [12] 4580 	jr	NC, 00106$
    00001A63 DD 36 F8 00      [19] 4581 	ld	-8 (ix), #0x00
    00001A67                       4582 00106$:
                                   4583 ;E:\Dropbox\FAUSTO\SVILUPPI\MSX\CODE\C\MSXgl\projects\soccerlgSCC/soccerlg_s9_b3.c:850: bool isTeam1 = (g_Players[playerId].TeamId == TEAM_1);
    00001A67 DD 7E F3         [19] 4584 	ld	a, -13 (ix)
    00001A6A 3D               [ 4] 4585 	dec	a
    00001A6B 3E 01            [ 7] 4586 	ld	a, #0x01
    00001A6D 28 01            [12] 4587 	jr	Z, 00193$
    00001A6F AF               [ 4] 4588 	xor	a, a
    00001A70                       4589 00193$:
    00001A70 DD 77 F9         [19] 4590 	ld	-7 (ix), a
                                   4591 ;E:\Dropbox\FAUSTO\SVILUPPI\MSX\CODE\C\MSXgl\projects\soccerlgSCC/soccerlg_s9_b3.c:853: u16 tx = k_KO_X[role];
    00001A73 01r5Fr1B         [10] 4592 	ld	bc, #_SetPlayerTarget_k_KO_X_196608_1336+0
    00001A76 DD 6E F8         [19] 4593 	ld	l, -8 (ix)
    00001A79 26 00            [ 7] 4594 	ld	h, #0x00
    00001A7B 09               [11] 4595 	add	hl, bc
    00001A7C 7E               [ 7] 4596 	ld	a, (hl)
    00001A7D DD 77 FE         [19] 4597 	ld	-2 (ix), a
    00001A80 DD 77 FA         [19] 4598 	ld	-6 (ix), a
    00001A83 DD 36 FB 00      [19] 4599 	ld	-5 (ix), #0x00
                                   4600 ;E:\Dropbox\FAUSTO\SVILUPPI\MSX\CODE\C\MSXgl\projects\soccerlgSCC/soccerlg_s9_b3.c:854: u16 ty = isTeam1 ? k_KO_Y_T1[role] : k_KO_Y_T2[role];
    00001A87 DD 7E F8         [19] 4601 	ld	a, -8 (ix)
    00001A8A DD 77 FD         [19] 4602 	ld	-3 (ix), a
    00001A8D DD 36 FE 00      [19] 4603 	ld	-2 (ix), #0x00
    00001A91 DD CB FD 26      [23] 4604 	sla	-3 (ix)
    00001A95 DD CB FE 16      [23] 4605 	rl	-2 (ix)
    00001A99 DD 7E F9         [19] 4606 	ld	a, -7 (ix)
    00001A9C B7               [ 4] 4607 	or	a, a
    00001A9D 28 16            [12] 4608 	jr	Z, 00123$
    00001A9F 01r66r1B         [10] 4609 	ld	bc, #_SetPlayerTarget_k_KO_Y_T1_196608_1336+0
    00001AA2 DD 6E FD         [19] 4610 	ld	l, -3 (ix)
    00001AA5 DD 66 FE         [19] 4611 	ld	h, -2 (ix)
    00001AA8 09               [11] 4612 	add	hl, bc
    00001AA9 7E               [ 7] 4613 	ld	a, (hl)
    00001AAA DD 77 F1         [19] 4614 	ld	-15 (ix), a
    00001AAD 23               [ 6] 4615 	inc	hl
    00001AAE 7E               [ 7] 4616 	ld	a, (hl)
    00001AAF DD 77 F2         [19] 4617 	ld	-14 (ix), a
    00001AB2 C3rCAr1A         [10] 4618 	jp	00124$
    00001AB5                       4619 00123$:
    00001AB5 DD 7E FD         [19] 4620 	ld	a, -3 (ix)
    00001AB8 C6r74            [ 7] 4621 	add	a, #<(_SetPlayerTarget_k_KO_Y_T2_196608_1336)
    00001ABA 4F               [ 4] 4622 	ld	c, a
    00001ABB DD 7E FE         [19] 4623 	ld	a, -2 (ix)
    00001ABE CEs1B            [ 7] 4624 	adc	a, #>(_SetPlayerTarget_k_KO_Y_T2_196608_1336)
    00001AC0 47               [ 4] 4625 	ld	b, a
    00001AC1 0A               [ 7] 4626 	ld	a, (bc)
    00001AC2 DD 77 F1         [19] 4627 	ld	-15 (ix), a
    00001AC5 03               [ 6] 4628 	inc	bc
    00001AC6 0A               [ 7] 4629 	ld	a, (bc)
    00001AC7 DD 77 F2         [19] 4630 	ld	-14 (ix), a
    00001ACA                       4631 00124$:
    00001ACA DD 7E F1         [19] 4632 	ld	a, -15 (ix)
    00001ACD DD 77 FC         [19] 4633 	ld	-4 (ix), a
    00001AD0 DD 7E F2         [19] 4634 	ld	a, -14 (ix)
    00001AD3 DD 77 FD         [19] 4635 	ld	-3 (ix), a
                                   4636 ;E:\Dropbox\FAUSTO\SVILUPPI\MSX\CODE\C\MSXgl\projects\soccerlgSCC/soccerlg_s9_b3.c:857: if (!isTeam1 && role == PLAYER_ROLE_RIGHT_HALFFIELDER) {
    00001AD6 DD 7E F9         [19] 4637 	ld	a, -7 (ix)
    00001AD9 B7               [ 4] 4638 	or	a, a
    00001ADA 20 0F            [12] 4639 	jr	NZ, 00108$
    00001ADC DD 7E F8         [19] 4640 	ld	a, -8 (ix)
    00001ADF D6 04            [ 7] 4641 	sub	a, #0x04
    00001AE1 20 08            [12] 4642 	jr	NZ, 00108$
                                   4643 ;E:\Dropbox\FAUSTO\SVILUPPI\MSX\CODE\C\MSXgl\projects\soccerlgSCC/soccerlg_s9_b3.c:858: tx = FIELD_POS_X_RIGHT - 116; 
    00001AE3 DD 36 FA 52      [19] 4644 	ld	-6 (ix), #0x52
    00001AE7 DD 36 FB 00      [19] 4645 	ld	-5 (ix), #0
    00001AEB                       4646 00108$:
                                   4647 ;E:\Dropbox\FAUSTO\SVILUPPI\MSX\CODE\C\MSXgl\projects\soccerlgSCC/soccerlg_s9_b3.c:862: if ((role == PLAYER_ROLE_LEFT_HALFFIELDER || role == PLAYER_ROLE_RIGHT_HALFFIELDER) &&
    00001AEB DD 7E F8         [19] 4648 	ld	a, -8 (ix)
    00001AEE D6 03            [ 7] 4649 	sub	a, #0x03
    00001AF0 3E 01            [ 7] 4650 	ld	a, #0x01
    00001AF2 28 01            [12] 4651 	jr	Z, 00198$
    00001AF4 AF               [ 4] 4652 	xor	a, a
    00001AF5                       4653 00198$:
    00001AF5 DD 77 FE         [19] 4654 	ld	-2 (ix), a
    00001AF8 B7               [ 4] 4655 	or	a, a
    00001AF9 20 07            [12] 4656 	jr	NZ, 00116$
    00001AFB DD 7E F8         [19] 4657 	ld	a, -8 (ix)
    00001AFE D6 04            [ 7] 4658 	sub	a, #0x04
    00001B00 20 3A            [12] 4659 	jr	NZ, 00114$
    00001B02                       4660 00116$:
                                   4661 ;E:\Dropbox\FAUSTO\SVILUPPI\MSX\CODE\C\MSXgl\projects\soccerlgSCC/soccerlg_s9_b3.c:863: g_RestartKickTeamId == g_Players[playerId].TeamId) 
    00001B02 3Ar00r00         [13] 4662 	ld	a, (_g_RestartKickTeamId+0)
    00001B05 DD 96 F3         [19] 4663 	sub	a, -13 (ix)
    00001B08 20 32            [12] 4664 	jr	NZ, 00114$
                                   4665 ;E:\Dropbox\FAUSTO\SVILUPPI\MSX\CODE\C\MSXgl\projects\soccerlgSCC/soccerlg_s9_b3.c:865: ty = isTeam1 ? FIELD_POS_Y_CENTER : (FIELD_POS_Y_CENTER - 10);
    00001B0A DD 7E F9         [19] 4666 	ld	a, -7 (ix)
    00001B0D B7               [ 4] 4667 	or	a, a
    00001B0E 28 0B            [12] 4668 	jr	Z, 00125$
    00001B10 DD 36 FC F3      [19] 4669 	ld	-4 (ix), #0xf3
    00001B14 DD 36 FD 00      [19] 4670 	ld	-3 (ix), #0
    00001B18 C3r23r1B         [10] 4671 	jp	00126$
    00001B1B                       4672 00125$:
    00001B1B DD 36 FC E9      [19] 4673 	ld	-4 (ix), #0xe9
    00001B1F DD 36 FD 00      [19] 4674 	ld	-3 (ix), #0
    00001B23                       4675 00126$:
                                   4676 ;E:\Dropbox\FAUSTO\SVILUPPI\MSX\CODE\C\MSXgl\projects\soccerlgSCC/soccerlg_s9_b3.c:866: if (role == PLAYER_ROLE_LEFT_HALFFIELDER) tx = FIELD_POS_X_CENTER - 7;
    00001B23 DD 7E FE         [19] 4677 	ld	a, -2 (ix)
    00001B26 B7               [ 4] 4678 	or	a, a
    00001B27 28 0B            [12] 4679 	jr	Z, 00111$
    00001B29 DD 36 FA 71      [19] 4680 	ld	-6 (ix), #0x71
    00001B2D DD 36 FB 00      [19] 4681 	ld	-5 (ix), #0
    00001B31 C3r3Cr1B         [10] 4682 	jp	00114$
    00001B34                       4683 00111$:
                                   4684 ;E:\Dropbox\FAUSTO\SVILUPPI\MSX\CODE\C\MSXgl\projects\soccerlgSCC/soccerlg_s9_b3.c:867: else tx = FIELD_POS_X_CENTER + 7;
    00001B34 DD 36 FA 7F      [19] 4685 	ld	-6 (ix), #0x7f
    00001B38 DD 36 FB 00      [19] 4686 	ld	-5 (ix), #0
    00001B3C                       4687 00114$:
                                   4688 ;E:\Dropbox\FAUSTO\SVILUPPI\MSX\CODE\C\MSXgl\projects\soccerlgSCC/soccerlg_s9_b3.c:870: g_Players[playerId].TargetX = tx;
    00001B3C DD 6E F4         [19] 4689 	ld	l, -12 (ix)
    00001B3F DD 66 F5         [19] 4690 	ld	h, -11 (ix)
    00001B42 DD 7E FA         [19] 4691 	ld	a, -6 (ix)
    00001B45 77               [ 7] 4692 	ld	(hl), a
    00001B46 23               [ 6] 4693 	inc	hl
    00001B47 DD 7E FB         [19] 4694 	ld	a, -5 (ix)
    00001B4A 77               [ 7] 4695 	ld	(hl), a
                                   4696 ;E:\Dropbox\FAUSTO\SVILUPPI\MSX\CODE\C\MSXgl\projects\soccerlgSCC/soccerlg_s9_b3.c:871: g_Players[playerId].TargetY = ty;
    00001B4B DD 6E F6         [19] 4697 	ld	l, -10 (ix)
    00001B4E DD 66 F7         [19] 4698 	ld	h, -9 (ix)
    00001B51 DD 7E FC         [19] 4699 	ld	a, -4 (ix)
    00001B54 77               [ 7] 4700 	ld	(hl), a
    00001B55 23               [ 6] 4701 	inc	hl
    00001B56 DD 7E FD         [19] 4702 	ld	a, -3 (ix)
    00001B59 77               [ 7] 4703 	ld	(hl), a
                                   4704 ;E:\Dropbox\FAUSTO\SVILUPPI\MSX\CODE\C\MSXgl\projects\soccerlgSCC/soccerlg_s9_b3.c:875: }
    00001B5A                       4705 00121$:
                                   4706 ;E:\Dropbox\FAUSTO\SVILUPPI\MSX\CODE\C\MSXgl\projects\soccerlgSCC/soccerlg_s9_b3.c:876: }
    00001B5A DD F9            [10] 4707 	ld	sp, ix
    00001B5C DD E1            [14] 4708 	pop	ix
    00001B5E C9               [10] 4709 	ret
    00001B5F                       4710 _SetPlayerTarget_k_KO_X_196608_1336:
    00001B5F 78                    4711 	.db #0x78	; 120	'x'
    00001B60 28                    4712 	.db #0x28	; 40
    00001B61 C6                    4713 	.db #0xc6	; 198
    00001B62 8C                    4714 	.db #0x8c	; 140
    00001B63 62                    4715 	.db #0x62	; 98	'b'
    00001B64 28                    4716 	.db #0x28	; 40
    00001B65 C6                    4717 	.db #0xc6	; 198
    00001B66                       4718 _SetPlayerTarget_k_KO_Y_T1_196608_1336:
    00001B66 A8 01                 4719 	.dw #0x01a8
    00001B68 76 01                 4720 	.dw #0x0176
    00001B6A 76 01                 4721 	.dw #0x0176
    00001B6C 44 01                 4722 	.dw #0x0144
    00001B6E 44 01                 4723 	.dw #0x0144
    00001B70 1C 01                 4724 	.dw #0x011c
    00001B72 1C 01                 4725 	.dw #0x011c
    00001B74                       4726 _SetPlayerTarget_k_KO_Y_T2_196608_1336:
    00001B74 32 00                 4727 	.dw #0x0032
    00001B76 82 00                 4728 	.dw #0x0082
    00001B78 82 00                 4729 	.dw #0x0082
    00001B7A B4 00                 4730 	.dw #0x00b4
    00001B7C B4 00                 4731 	.dw #0x00b4
    00001B7E DC 00                 4732 	.dw #0x00dc
    00001B80 DC 00                 4733 	.dw #0x00dc
                                   4734 ;E:\Dropbox\FAUSTO\SVILUPPI\MSX\CODE\C\MSXgl\projects\soccerlgSCC/soccerlg_s9_b3.c:878: void ShowField(){
                                   4735 ;	---------------------------------
                                   4736 ; Function ShowField
                                   4737 ; ---------------------------------
    00001B82                       4738 _ShowField::
    00001B82 DD E5            [15] 4739 	push	ix
    00001B84 DD 21 00 00      [14] 4740 	ld	ix,#0
    00001B88 DD 39            [15] 4741 	add	ix,sp
    00001B8A F5               [11] 4742 	push	af
    00001B8B F5               [11] 4743 	push	af
                                   4744 ;E:\Dropbox\FAUSTO\SVILUPPI\MSX\CODE\C\MSXgl\projects\soccerlgSCC/soccerlg_s9_b3.c:880: u16 tileId=0;
    00001B8C 01 00 00         [10] 4745 	ld	bc, #0x0000
                                   4746 ;E:\Dropbox\FAUSTO\SVILUPPI\MSX\CODE\C\MSXgl\projects\soccerlgSCC/soccerlg_s9_b3.c:882: for (u8 y=0;y<64;y++){
    00001B8F DD 36 FE 00      [19] 4747 	ld	-2 (ix), #0x00
    00001B93                       4748 00116$:
    00001B93 DD 7E FE         [19] 4749 	ld	a, -2 (ix)
    00001B96 D6 40            [ 7] 4750 	sub	a, #0x40
    00001B98 30 48            [12] 4751 	jr	NC, 00102$
                                   4752 ;E:\Dropbox\FAUSTO\SVILUPPI\MSX\CODE\C\MSXgl\projects\soccerlgSCC/soccerlg_s9_b3.c:883: for (u8 x=0;x<32;x++){
    00001B9A DD 36 FF 00      [19] 4753 	ld	-1 (ix), #0x00
    00001B9E                       4754 00113$:
    00001B9E DD 7E FF         [19] 4755 	ld	a, -1 (ix)
    00001BA1 D6 20            [ 7] 4756 	sub	a, #0x20
    00001BA3 30 37            [12] 4757 	jr	NC, 00139$
                                   4758 ;E:\Dropbox\FAUSTO\SVILUPPI\MSX\CODE\C\MSXgl\projects\soccerlgSCC/soccerlg_s9_b3.c:884: V9_Poke16(V9_CellAddrP1B(x,y), tileId++);
    00001BA5 33               [ 6] 4759 	inc	sp
    00001BA6 33               [ 6] 4760 	inc	sp
    00001BA7 C5               [11] 4761 	push	bc
    00001BA8 03               [ 6] 4762 	inc	bc
                                   4763 ;E:/Dropbox/FAUSTO/SVILUPPI/MSX/CODE/C/MSXgl/engine/src/v9990.h:1437: inline u32 V9_CellAddrP1B(u8 x, u8 y) { return V9_P1_PNT_B + (((64 * y) + x) * 2); }
    00001BA9 DD 6E FE         [19] 4764 	ld	l, -2 (ix)
                                   4765 ;	spillPairReg hl
                                   4766 ;	spillPairReg hl
    00001BAC 26 00            [ 7] 4767 	ld	h, #0x00
                                   4768 ;	spillPairReg hl
                                   4769 ;	spillPairReg hl
    00001BAE 29               [11] 4770 	add	hl, hl
    00001BAF 29               [11] 4771 	add	hl, hl
    00001BB0 29               [11] 4772 	add	hl, hl
    00001BB1 29               [11] 4773 	add	hl, hl
    00001BB2 29               [11] 4774 	add	hl, hl
    00001BB3 29               [11] 4775 	add	hl, hl
    00001BB4 DD 5E FF         [19] 4776 	ld	e, -1 (ix)
    00001BB7 16 00            [ 7] 4777 	ld	d, #0x00
    00001BB9 19               [11] 4778 	add	hl, de
    00001BBA 29               [11] 4779 	add	hl, hl
    00001BBB 7C               [ 4] 4780 	ld	a, h
    00001BBC 07               [ 4] 4781 	rlca
    00001BBD 9F               [ 4] 4782 	sbc	a, a
    00001BBE 5F               [ 4] 4783 	ld	e, a
    00001BBF 57               [ 4] 4784 	ld	d, a
    00001BC0 7C               [ 4] 4785 	ld	a, h
    00001BC1 C6 E0            [ 7] 4786 	add	a, #0xe0
    00001BC3 67               [ 4] 4787 	ld	h, a
                                   4788 ;	spillPairReg hl
                                   4789 ;	spillPairReg hl
    00001BC4 7B               [ 4] 4790 	ld	a, e
    00001BC5 CE 07            [ 7] 4791 	adc	a, #0x07
    00001BC7 5F               [ 4] 4792 	ld	e, a
    00001BC8 30 01            [12] 4793 	jr	NC, 00184$
    00001BCA 14               [ 4] 4794 	inc	d
    00001BCB                       4795 00184$:
                                   4796 ;E:/Dropbox/FAUSTO/SVILUPPI/MSX/CODE/C/MSXgl/engine/src/v9990.h:396: inline void V9_Poke16(u32 addr, u16 val) { V9_SetWriteAddress(addr); V9_Poke16_CurrentAddr(val); }
    00001BCB C5               [11] 4797 	push	bc
    00001BCC EB               [ 4] 4798 	ex	de, hl
    00001BCD CDr00r00         [17] 4799 	call	_V9_SetWriteAddress
    00001BD0 C1               [10] 4800 	pop	bc
    00001BD1 E1               [10] 4801 	pop	hl
    00001BD2 E5               [11] 4802 	push	hl
    00001BD3 CDr00r00         [17] 4803 	call	_V9_Poke16_CurrentAddr
                                   4804 ;E:\Dropbox\FAUSTO\SVILUPPI\MSX\CODE\C\MSXgl\projects\soccerlgSCC/soccerlg_s9_b3.c:883: for (u8 x=0;x<32;x++){
    00001BD6 DD 34 FF         [23] 4805 	inc	-1 (ix)
    00001BD9 C3r9Er1B         [10] 4806 	jp	00113$
    00001BDC                       4807 00139$:
                                   4808 ;E:\Dropbox\FAUSTO\SVILUPPI\MSX\CODE\C\MSXgl\projects\soccerlgSCC/soccerlg_s9_b3.c:882: for (u8 y=0;y<64;y++){
    00001BDC DD 34 FE         [23] 4809 	inc	-2 (ix)
    00001BDF C3r93r1B         [10] 4810 	jp	00116$
    00001BE2                       4811 00102$:
                                   4812 ;E:\Dropbox\FAUSTO\SVILUPPI\MSX\CODE\C\MSXgl\projects\soccerlgSCC/soccerlg_s9_b3.c:888: for (u8 y=0;y<64;y++){
    00001BE2 0E 00            [ 7] 4813 	ld	c, #0x00
    00001BE4                       4814 00122$:
    00001BE4 79               [ 4] 4815 	ld	a, c
    00001BE5 D6 40            [ 7] 4816 	sub	a, #0x40
    00001BE7 30 39            [12] 4817 	jr	NC, 00104$
                                   4818 ;E:\Dropbox\FAUSTO\SVILUPPI\MSX\CODE\C\MSXgl\projects\soccerlgSCC/soccerlg_s9_b3.c:889: for (u8 x=0;x<32;x++){
    00001BE9 06 00            [ 7] 4819 	ld	b, #0x00
    00001BEB                       4820 00119$:
    00001BEB 78               [ 4] 4821 	ld	a, b
    00001BEC D6 20            [ 7] 4822 	sub	a, #0x20
    00001BEE 30 2E            [12] 4823 	jr	NC, 00123$
                                   4824 ;E:/Dropbox/FAUSTO/SVILUPPI/MSX/CODE/C/MSXgl/engine/src/v9990.h:1426: inline u32 V9_CellAddrP1A(u8 x, u8 y) { return V9_P1_PNT_A + (((64 * y) + x) * 2); }
    00001BF0 69               [ 4] 4825 	ld	l, c
                                   4826 ;	spillPairReg hl
                                   4827 ;	spillPairReg hl
    00001BF1 26 00            [ 7] 4828 	ld	h, #0x00
                                   4829 ;	spillPairReg hl
                                   4830 ;	spillPairReg hl
    00001BF3 29               [11] 4831 	add	hl, hl
    00001BF4 29               [11] 4832 	add	hl, hl
    00001BF5 29               [11] 4833 	add	hl, hl
    00001BF6 29               [11] 4834 	add	hl, hl
    00001BF7 29               [11] 4835 	add	hl, hl
    00001BF8 29               [11] 4836 	add	hl, hl
    00001BF9 58               [ 4] 4837 	ld	e, b
    00001BFA 16 00            [ 7] 4838 	ld	d, #0x00
    00001BFC 19               [11] 4839 	add	hl, de
    00001BFD 29               [11] 4840 	add	hl, hl
    00001BFE 7C               [ 4] 4841 	ld	a, h
    00001BFF 07               [ 4] 4842 	rlca
    00001C00 9F               [ 4] 4843 	sbc	a, a
    00001C01 5F               [ 4] 4844 	ld	e, a
    00001C02 57               [ 4] 4845 	ld	d, a
    00001C03 7C               [ 4] 4846 	ld	a, h
    00001C04 C6 C0            [ 7] 4847 	add	a, #0xc0
    00001C06 67               [ 4] 4848 	ld	h, a
                                   4849 ;	spillPairReg hl
                                   4850 ;	spillPairReg hl
    00001C07 7B               [ 4] 4851 	ld	a, e
    00001C08 CE 07            [ 7] 4852 	adc	a, #0x07
    00001C0A 5F               [ 4] 4853 	ld	e, a
    00001C0B 30 01            [12] 4854 	jr	NC, 00185$
    00001C0D 14               [ 4] 4855 	inc	d
    00001C0E                       4856 00185$:
                                   4857 ;E:/Dropbox/FAUSTO/SVILUPPI/MSX/CODE/C/MSXgl/engine/src/v9990.h:396: inline void V9_Poke16(u32 addr, u16 val) { V9_SetWriteAddress(addr); V9_Poke16_CurrentAddr(val); }
    00001C0E C5               [11] 4858 	push	bc
    00001C0F EB               [ 4] 4859 	ex	de, hl
    00001C10 CDr00r00         [17] 4860 	call	_V9_SetWriteAddress
    00001C13 C1               [10] 4861 	pop	bc
    00001C14 21 00 00         [10] 4862 	ld	hl, #0x0000
    00001C17 CDr00r00         [17] 4863 	call	_V9_Poke16_CurrentAddr
                                   4864 ;E:\Dropbox\FAUSTO\SVILUPPI\MSX\CODE\C\MSXgl\projects\soccerlgSCC/soccerlg_s9_b3.c:889: for (u8 x=0;x<32;x++){
    00001C1A 04               [ 4] 4865 	inc	b
    00001C1B C3rEBr1B         [10] 4866 	jp	00119$
    00001C1E                       4867 00123$:
                                   4868 ;E:\Dropbox\FAUSTO\SVILUPPI\MSX\CODE\C\MSXgl\projects\soccerlgSCC/soccerlg_s9_b3.c:888: for (u8 y=0;y<64;y++){
    00001C1E 0C               [ 4] 4869 	inc	c
    00001C1F C3rE4r1B         [10] 4870 	jp	00122$
    00001C22                       4871 00104$:
                                   4872 ;E:\Dropbox\FAUSTO\SVILUPPI\MSX\CODE\C\MSXgl\projects\soccerlgSCC/soccerlg_s9_b3.c:893: for (u8 x=0;x<64;x++){
    00001C22 0E 00            [ 7] 4873 	ld	c, #0x00
    00001C24                       4874 00125$:
    00001C24 79               [ 4] 4875 	ld	a, c
    00001C25 D6 40            [ 7] 4876 	sub	a, #0x40
    00001C27 30 24            [12] 4877 	jr	NC, 00127$
                                   4878 ;E:/Dropbox/FAUSTO/SVILUPPI/MSX/CODE/C/MSXgl/engine/src/v9990.h:1426: inline u32 V9_CellAddrP1A(u8 x, u8 y) { return V9_P1_PNT_A + (((64 * y) + x) * 2); }
    00001C29 69               [ 4] 4879 	ld	l, c
                                   4880 ;	spillPairReg hl
                                   4881 ;	spillPairReg hl
    00001C2A 26 00            [ 7] 4882 	ld	h, #0x00
                                   4883 ;	spillPairReg hl
                                   4884 ;	spillPairReg hl
    00001C2C 29               [11] 4885 	add	hl, hl
    00001C2D 7C               [ 4] 4886 	ld	a, h
    00001C2E 07               [ 4] 4887 	rlca
    00001C2F 9F               [ 4] 4888 	sbc	a, a
    00001C30 5F               [ 4] 4889 	ld	e, a
    00001C31 57               [ 4] 4890 	ld	d, a
    00001C32 7C               [ 4] 4891 	ld	a, h
    00001C33 C6 C0            [ 7] 4892 	add	a, #0xc0
    00001C35 67               [ 4] 4893 	ld	h, a
                                   4894 ;	spillPairReg hl
                                   4895 ;	spillPairReg hl
    00001C36 7B               [ 4] 4896 	ld	a, e
    00001C37 CE 07            [ 7] 4897 	adc	a, #0x07
    00001C39 5F               [ 4] 4898 	ld	e, a
    00001C3A 30 01            [12] 4899 	jr	NC, 00186$
    00001C3C 14               [ 4] 4900 	inc	d
    00001C3D                       4901 00186$:
                                   4902 ;E:/Dropbox/FAUSTO/SVILUPPI/MSX/CODE/C/MSXgl/engine/src/v9990.h:396: inline void V9_Poke16(u32 addr, u16 val) { V9_SetWriteAddress(addr); V9_Poke16_CurrentAddr(val); }
    00001C3D C5               [11] 4903 	push	bc
    00001C3E EB               [ 4] 4904 	ex	de, hl
    00001C3F CDr00r00         [17] 4905 	call	_V9_SetWriteAddress
    00001C42 C1               [10] 4906 	pop	bc
    00001C43 21 20 00         [10] 4907 	ld	hl, #0x0020
    00001C46 CDr00r00         [17] 4908 	call	_V9_Poke16_CurrentAddr
                                   4909 ;E:\Dropbox\FAUSTO\SVILUPPI\MSX\CODE\C\MSXgl\projects\soccerlgSCC/soccerlg_s9_b3.c:893: for (u8 x=0;x<64;x++){
    00001C49 0C               [ 4] 4910 	inc	c
    00001C4A C3r24r1C         [10] 4911 	jp	00125$
    00001C4D                       4912 00127$:
                                   4913 ;E:\Dropbox\FAUSTO\SVILUPPI\MSX\CODE\C\MSXgl\projects\soccerlgSCC/soccerlg_s9_b3.c:896: }
    00001C4D DD F9            [10] 4914 	ld	sp, ix
    00001C4F DD E1            [14] 4915 	pop	ix
    00001C51 C9               [10] 4916 	ret
                                   4917 	.area _SEG9
                                   4918 	.area _INITIALIZER
                                   4919 	.area _CABS (ABS)
