                                      1 ;--------------------------------------------------------
                                      2 ; File Created by SDCC : free open source ANSI-C Compiler
                                      3 ; Version 4.2.0 #13081 (MINGW64)
                                      4 ;--------------------------------------------------------
                                      5 	.module soccerlg_s10_b3
                                      6 	.optsdcc -mz80
                                      7 	
                                      8 ;--------------------------------------------------------
                                      9 ; Public variables in this module
                                     10 ;--------------------------------------------------------
                                     11 	.globl _TickReferee
                                     12 	.globl _GetOffsideLineY
                                     13 	.globl _PerformShot
                                     14 	.globl _PerformPass
                                     15 	.globl _IsOffside
                                     16 	.globl _PutBallOnPlayerFeet
                                     17 	.globl _GetClosestPlayerToBall
                                     18 	.globl _Math_Abs32
                                     19 	.globl _GetTeamStats
                                     20 	.globl _CallFnc_U16_P1
                                     21 	.globl _CallFnc_U8_P2
                                     22 	.globl _CallFnc_BOOL_P1
                                     23 	.globl _CallFnc_VOID_16_P2
                                     24 	.globl _CallFnc_VOID_P1
                                     25 	.globl _g_SLTSL
                                     26 	.globl _g_GRPACY
                                     27 	.globl _g_GRPACX
                                     28 	.globl _g_LOGOPR
                                     29 	.globl _g_CMASK
                                     30 	.globl _g_CLOC
                                     31 	.globl _g_FNKSTR
                                     32 	.globl _g_ATRBYT
                                     33 	.globl _g_BDRCLR
                                     34 	.globl _g_BAKCLR
                                     35 	.globl _g_FORCLR
                                     36 	.globl _g_CSRX
                                     37 	.globl _g_CSRY
                                     38 	.globl _g_CLIKSW
                                     39 	.globl _g_MLTPAT
                                     40 	.globl _g_MLTATR
                                     41 	.globl _g_MLTCGP
                                     42 	.globl _g_MLTCOL
                                     43 	.globl _g_MLTNAM
                                     44 	.globl _g_GRPPAT
                                     45 	.globl _g_GRPATR
                                     46 	.globl _g_GRPCGP
                                     47 	.globl _g_GRPCOL
                                     48 	.globl _g_GRPNAM
                                     49 	.globl _g_T32PAT
                                     50 	.globl _g_T32ATR
                                     51 	.globl _g_T32CGP
                                     52 	.globl _g_T32COL
                                     53 	.globl _g_T32NAM
                                     54 	.globl _g_TXTPAT
                                     55 	.globl _g_TXTATR
                                     56 	.globl _g_TXTCGP
                                     57 	.globl _g_TXTCOL
                                     58 	.globl _g_TXTNAM
                                     59 	.globl _g_CLMLST
                                     60 	.globl _g_CRTCNT
                                     61 	.globl _g_LINLEN
                                     62 	.globl _g_LINL32
                                     63 	.globl _g_LINL40
                                     64 	.globl _g_BDOS
                                     65 	.globl _g_MASTER
                                     66 	.globl _g_RAMAD3
                                     67 	.globl _g_RAMAD2
                                     68 	.globl _g_RAMAD1
                                     69 	.globl _g_RAMAD0
                                     70 	.globl _g_BREAKV
                                     71 	.globl _g_DISKVE
                                     72 	.globl _g_KANJTABLE
                                     73 	.globl _g_STRSRC
                                     74 	.globl _g_SUBRID
                                     75 	.globl _g_CHAR_16
                                     76 	.globl _g_MSXMID
                                     77 	.globl _g_MSXVER
                                     78 	.globl _g_ROMVersion
                                     79 	.globl _g_BASRVN
                                     80 	.globl _g_VDP_DW
                                     81 	.globl _g_VDP_DR
                                     82 	.globl _g_CGTABL
                                     83 	.globl _g_SVFFFD
                                     84 	.globl _g_RG27SAV
                                     85 	.globl _g_RG26SAV
                                     86 	.globl _g_RG25SAV
                                     87 	.globl _g_SVFFF8
                                     88 	.globl _g_MINROM
                                     89 	.globl _g_RG23SAV
                                     90 	.globl _g_RG22SAV
                                     91 	.globl _g_RG21SAV
                                     92 	.globl _g_RG20SAV
                                     93 	.globl _g_RG19SAV
                                     94 	.globl _g_RG18SAV
                                     95 	.globl _g_RG17SAV
                                     96 	.globl _g_RG16SAV
                                     97 	.globl _g_RG15SAV
                                     98 	.globl _g_RG14SAV
                                     99 	.globl _g_RG13SAV
                                    100 	.globl _g_RG12SAV
                                    101 	.globl _g_RG11SAV
                                    102 	.globl _g_RG10SAV
                                    103 	.globl _g_RG09SAV
                                    104 	.globl _g_RG08SAV
                                    105 	.globl _g_PROCNM
                                    106 	.globl _g_SLTWRK
                                    107 	.globl _g_SLTATR
                                    108 	.globl _g_SLTTBL
                                    109 	.globl _g_EXPTBL
                                    110 	.globl _g_MNROM
                                    111 	.globl _g_DRWANG
                                    112 	.globl _g_DRWSCL
                                    113 	.globl _g_DRWFLG
                                    114 	.globl _g_GYPOS
                                    115 	.globl _g_GXPOS
                                    116 	.globl _g_BRDATR
                                    117 	.globl _g_CASPRV
                                    118 	.globl _g_OLDSCR
                                    119 	.globl _g_SCRMOD
                                    120 	.globl _g_FLBMEM
                                    121 	.globl _g_KANAMD
                                    122 	.globl _g_KANAST
                                    123 	.globl _g_CAPST
                                    124 	.globl _g_CSTYLE
                                    125 	.globl _g_CSRSW
                                    126 	.globl _g_INSFLG
                                    127 	.globl _g_ESCCNT
                                    128 	.globl _g_GRPHED
                                    129 	.globl _g_WINWID
                                    130 	.globl _g_LOWLIM
                                    131 	.globl _g_INTCNT
                                    132 	.globl _g_INTVAL
                                    133 	.globl _g_JIFFY
                                    134 	.globl _g_PADX
                                    135 	.globl _g_PADY
                                    136 	.globl _g_INTFLG
                                    137 	.globl _g_RTYCNT
                                    138 	.globl _g_TRPTBL
                                    139 	.globl _g_HIMEM
                                    140 	.globl _g_BOTTOM
                                    141 	.globl _g_PATWRK
                                    142 	.globl _g_LINWRK
                                    143 	.globl _g_KEYBUF
                                    144 	.globl _g_NEWKEY
                                    145 	.globl _g_OLDKEY
                                    146 	.globl _g_CLIKFL
                                    147 	.globl _g_ONGSBF
                                    148 	.globl _g_FNKFLG
                                    149 	.globl _g_FNKSWI
                                    150 	.globl _g_CODSAV
                                    151 	.globl _g_FSTPOS
                                    152 	.globl _g_LINTTB
                                    153 	.globl _g_BASROM
                                    154 	.globl _g_ENSTOP
                                    155 	.globl _g_VCBC
                                    156 	.globl _g_VCBB
                                    157 	.globl _g_VCBA
                                    158 	.globl _g_PLYCNT
                                    159 	.globl _g_MUSICF
                                    160 	.globl _g_QUEUEN
                                    161 	.globl _g_MCLPTR
                                    162 	.globl _g_MCLLEN
                                    163 	.globl _g_SAVVOL
                                    164 	.globl _g_VOICEN
                                    165 	.globl _g_SAVSP
                                    166 	.globl _g_PRSCNT
                                    167 	.globl _g_LSTMOD
                                    168 	.globl _g_LSTCOM
                                    169 	.globl _g_COMMSK
                                    170 	.globl _g_ESTBLS
                                    171 	.globl _g_FLAGS
                                    172 	.globl _g_ERRORS
                                    173 	.globl _g_DATCNT
                                    174 	.globl _g_DEVNUM
                                    175 	.globl _g_OLDINT
                                    176 	.globl _g_OLDSTT
                                    177 	.globl _g_MEXBIh
                                    178 	.globl _g_RSIQLN
                                    179 	.globl _g_RSFCB
                                    180 	.globl _g_TOCNT
                                    181 	.globl _g_RSTMP
                                    182 	.globl _g_YSAVE
                                    183 	.globl _g_XSAVE
                                    184 	.globl _g_NORUSE
                                    185 	.globl _g_MODE
                                    186 	.globl _g_ROMA
                                    187 	.globl _g_CHRCNT
                                    188 	.globl _g_EXBRSA
                                    189 	.globl _g_AVCSAV
                                    190 	.globl _g_ACPAGE
                                    191 	.globl _g_DPPAGE
                                    192 	.globl _g_RS2IQ
                                    193 	.globl _g_VOICCQ
                                    194 	.globl _g_VOICBQ
                                    195 	.globl _g_VOICAQ
                                    196 	.globl _g_QUEBAK
                                    197 	.globl _g_QUETAB
                                    198 	.globl _g_ASPCT2
                                    199 	.globl _g_ASPCT1
                                    200 	.globl _g_HEADER
                                    201 	.globl _g_HIGH
                                    202 	.globl _g_LOW
                                    203 	.globl _g_CS240
                                    204 	.globl _g_CS120
                                    205 	.globl _g_GETPNT
                                    206 	.globl _g_PUTPNT
                                    207 	.globl _g_REPCNT
                                    208 	.globl _g_SCNCNT
                                    209 	.globl _g_FRCNEW
                                    210 	.globl _g_QUEUES
                                    211 	.globl _g_MINUPD
                                    212 	.globl _g_MAXUPD
                                    213 	.globl _g_TRGFLG
                                    214 	.globl _g_STATFL
                                    215 	.globl _g_RG7SAV
                                    216 	.globl _g_RG6SAV
                                    217 	.globl _g_RG5SAV
                                    218 	.globl _g_RG4SAV
                                    219 	.globl _g_RG3SAV
                                    220 	.globl _g_RG2SAV
                                    221 	.globl _g_RG1SAV
                                    222 	.globl _g_RG0SAV
                                    223 	.globl _g_CNSDFG
                                    224 	.globl _g_USRTAB
                                    225 	.globl _g_CLPRIM
                                    226 	.globl _g_WRPRIM
                                    227 	.globl _g_RDPRIM
                                    228 	.globl _TickAI
                                    229 ;--------------------------------------------------------
                                    230 ; special function registers
                                    231 ;--------------------------------------------------------
                         000000A8   232 _g_PortPrimarySlot	=	0x00a8
                         000000A9   233 _g_PortReadKeyboard	=	0x00a9
                         000000AA   234 _g_PortAccessKeyboard	=	0x00aa
                         000000AB   235 _g_PortControl	=	0x00ab
                         00000098   236 _g_VDP_DataPort	=	0x0098
                         00000099   237 _g_VDP_RegPort	=	0x0099
                         00000099   238 _g_VDP_AddrPort	=	0x0099
                         00000099   239 _g_VDP_StatPort	=	0x0099
                         000000A0   240 _g_PSG_RegPort	=	0x00a0
                         000000A1   241 _g_PSG_DataPort	=	0x00a1
                         000000A2   242 _g_PSG_StatPort	=	0x00a2
                         00000010   243 _g_PSG_Ext_RegPort	=	0x0010
                         00000011   244 _g_PSG_Ext_DataPort	=	0x0011
                         00000012   245 _g_PSG_Ext_StatPort	=	0x0012
                         0000007C   246 _g_MSXMusic_IndexPort	=	0x007c
                         0000007D   247 _g_MSXMusic_DataPort	=	0x007d
                         000000C0   248 _g_MSXAudio_IndexPort	=	0x00c0
                         000000C1   249 _g_MSXAudio_DataPort	=	0x00c1
                         000000C2   250 _g_MSXAudio_IndexPort2	=	0x00c2
                         000000C3   251 _g_MSXAudio_DataPort2	=	0x00c3
                         000000B4   252 _g_RTC_AddrPort	=	0x00b4
                         000000B5   253 _g_RTC_DataPort	=	0x00b5
                         00000060   254 _g_V9_VRAMPort	=	0x0060
                         00000061   255 _g_V9_PalettePort	=	0x0061
                         00000062   256 _g_V9_CmdDataPort	=	0x0062
                         00000063   257 _g_V9_RegDataPort	=	0x0063
                         00000064   258 _g_V9_RegSelectPort	=	0x0064
                         00000065   259 _g_V9_SatusPort	=	0x0065
                         00000066   260 _g_V9_IntFlagPort	=	0x0066
                         00000067   261 _g_V9_SysCtrlPort	=	0x0067
                         00000068   262 _g_V9_KanjiAddrLPort	=	0x0068
                         00000069   263 _g_V9_KanjiAddrHPort	=	0x0069
                         00000069   264 _g_V9_KanjiDataPort	=	0x0069
                         0000006A   265 _g_V9_Kanji2AddrLPort	=	0x006a
                         0000006B   266 _g_V9_Kanji2AddrHPort	=	0x006b
                         0000006B   267 _g_V9_Kanji2DataPort	=	0x006b
                         0000006F   268 _g_V9_OutputCtrPort	=	0x006f
                                    269 ;--------------------------------------------------------
                                    270 ; ram data
                                    271 ;--------------------------------------------------------
                                    272 	.area _DATA
                         0000F3AE   273 _g_LINL40	=	0xf3ae
                         0000F3AF   274 _g_LINL32	=	0xf3af
                         0000F3B0   275 _g_LINLEN	=	0xf3b0
                         0000F3B1   276 _g_CRTCNT	=	0xf3b1
                         0000F3B2   277 _g_CLMLST	=	0xf3b2
                         0000F3B3   278 _g_TXTNAM	=	0xf3b3
                         0000F3B5   279 _g_TXTCOL	=	0xf3b5
                         0000F3B7   280 _g_TXTCGP	=	0xf3b7
                         0000F3B9   281 _g_TXTATR	=	0xf3b9
                         0000F3BB   282 _g_TXTPAT	=	0xf3bb
                         0000F3BD   283 _g_T32NAM	=	0xf3bd
                         0000F3BF   284 _g_T32COL	=	0xf3bf
                         0000F3C1   285 _g_T32CGP	=	0xf3c1
                         0000F3C3   286 _g_T32ATR	=	0xf3c3
                         0000F3C5   287 _g_T32PAT	=	0xf3c5
                         0000F3C7   288 _g_GRPNAM	=	0xf3c7
                         0000F3C9   289 _g_GRPCOL	=	0xf3c9
                         0000F3CB   290 _g_GRPCGP	=	0xf3cb
                         0000F3CD   291 _g_GRPATR	=	0xf3cd
                         0000F3CF   292 _g_GRPPAT	=	0xf3cf
                         0000F3D1   293 _g_MLTNAM	=	0xf3d1
                         0000F3D3   294 _g_MLTCOL	=	0xf3d3
                         0000F3D5   295 _g_MLTCGP	=	0xf3d5
                         0000F3D7   296 _g_MLTATR	=	0xf3d7
                         0000F3D9   297 _g_MLTPAT	=	0xf3d9
                         0000F3DB   298 _g_CLIKSW	=	0xf3db
                         0000F3DC   299 _g_CSRY	=	0xf3dc
                         0000F3DD   300 _g_CSRX	=	0xf3dd
                         0000F3E9   301 _g_FORCLR	=	0xf3e9
                         0000F3EA   302 _g_BAKCLR	=	0xf3ea
                         0000F3EB   303 _g_BDRCLR	=	0xf3eb
                         0000F3F2   304 _g_ATRBYT	=	0xf3f2
                         0000F87F   305 _g_FNKSTR	=	0xf87f
                         0000F92A   306 _g_CLOC	=	0xf92a
                         0000F92C   307 _g_CMASK	=	0xf92c
                         0000FB02   308 _g_LOGOPR	=	0xfb02
                         0000FCB7   309 _g_GRPACX	=	0xfcb7
                         0000FCB9   310 _g_GRPACY	=	0xfcb9
                         0000FFFF   311 _g_SLTSL	=	0xffff
                                    312 ;--------------------------------------------------------
                                    313 ; ram data
                                    314 ;--------------------------------------------------------
                                    315 	.area _INITIALIZED
                                    316 ;--------------------------------------------------------
                                    317 ; absolute external ram data
                                    318 ;--------------------------------------------------------
                                    319 	.area _DABS (ABS)
                                    320 ;--------------------------------------------------------
                                    321 ; global & static initialisations
                                    322 ;--------------------------------------------------------
                                    323 	.area _HOME
                                    324 	.area _GSINIT
                                    325 	.area _GSFINAL
                                    326 	.area _GSINIT
                                    327 ;--------------------------------------------------------
                                    328 ; Home
                                    329 ;--------------------------------------------------------
                                    330 	.area _HOME
                                    331 	.area _HOME
                                    332 ;--------------------------------------------------------
                                    333 ; code
                                    334 ;--------------------------------------------------------
                                    335 	.area _SEG10
                                    336 ;E:\Dropbox\FAUSTO\SVILUPPI\MSX\CODE\C\MSXgl\projects\soccerlgSCC/soccerlg_s10_b3.c:23: void TickAI(u8 playerId){
                                    337 ;	---------------------------------
                                    338 ; Function TickAI
                                    339 ; ---------------------------------
    00000000                        340 _TickAI::
    00000000 DD E5            [15]  341 	push	ix
    00000002 DD 21 00 00      [14]  342 	ld	ix,#0
    00000006 DD 39            [15]  343 	add	ix,sp
    00000008 21 DB FF         [10]  344 	ld	hl, #-37
    0000000B 39               [11]  345 	add	hl, sp
    0000000C F9               [ 6]  346 	ld	sp, hl
    0000000D DD 77 FF         [19]  347 	ld	-1 (ix), a
                                    348 ;E:\Dropbox\FAUSTO\SVILUPPI\MSX\CODE\C\MSXgl\projects\soccerlgSCC/soccerlg_s10_b3.c:24: if(g_MatchStatus==MATCH_IN_ACTION || g_MatchStatus == MATCH_BALL_ON_GOALKEEPER){
    00000010 3Ar00r00         [13]  349 	ld	a,(_g_MatchStatus+0)
    00000013 FE 0C            [ 7]  350 	cp	a,#0x0c
    00000015 28 05            [12]  351 	jr	Z, 00655$
    00000017 D6 0D            [ 7]  352 	sub	a, #0x0d
    00000019 C2r5Er1D         [10]  353 	jp	NZ,00670$
    0000001C                        354 00655$:
                                    355 ;E:\Dropbox\FAUSTO\SVILUPPI\MSX\CODE\C\MSXgl\projects\soccerlgSCC/soccerlg_s10_b3.c:27: if (playerId == REFEREE) {
    0000001C DD 7E FF         [19]  356 	ld	a, -1 (ix)
    0000001F D6 0E            [ 7]  357 	sub	a, #0x0e
    00000021 20 10            [12]  358 	jr	NZ, 00102$
                                    359 ;E:\Dropbox\FAUSTO\SVILUPPI\MSX\CODE\C\MSXgl\projects\soccerlgSCC/soccerlg_s10_b3.c:28: CallFnc_VOID_P1(14, TickReferee, playerId);
    00000023 DD 7E FF         [19]  360 	ld	a, -1 (ix)
    00000026 F5               [11]  361 	push	af
    00000027 33               [ 6]  362 	inc	sp
    00000028 11r00r00         [10]  363 	ld	de, #_TickReferee
    0000002B 3E 0E            [ 7]  364 	ld	a, #0x0e
    0000002D CDr00r00         [17]  365 	call	_CallFnc_VOID_P1
                                    366 ;E:\Dropbox\FAUSTO\SVILUPPI\MSX\CODE\C\MSXgl\projects\soccerlgSCC/soccerlg_s10_b3.c:29: return;
    00000030 C3r5Er1D         [10]  367 	jp	00670$
    00000033                        368 00102$:
                                    369 ;E:\Dropbox\FAUSTO\SVILUPPI\MSX\CODE\C\MSXgl\projects\soccerlgSCC/soccerlg_s10_b3.c:31: u8 playerTeamId = g_Players[playerId].TeamId;
    00000033 DD 4E FF         [19]  370 	ld	c, -1 (ix)
    00000036 06 00            [ 7]  371 	ld	b, #0x00
    00000038 69               [ 4]  372 	ld	l, c
    00000039 60               [ 4]  373 	ld	h, b
    0000003A 29               [11]  374 	add	hl, hl
    0000003B 29               [11]  375 	add	hl, hl
    0000003C 09               [11]  376 	add	hl, bc
    0000003D 29               [11]  377 	add	hl, hl
    0000003E 29               [11]  378 	add	hl, hl
    0000003F 09               [11]  379 	add	hl, bc
    00000040 11r00r00         [10]  380 	ld	de, #_g_Players
    00000043 19               [11]  381 	add	hl, de
    00000044 E3               [19]  382 	ex	(sp), hl
    00000045 C1               [10]  383 	pop	bc
    00000046 C5               [11]  384 	push	bc
    00000047 21 09 00         [10]  385 	ld	hl, #9
    0000004A 09               [11]  386 	add	hl, bc
    0000004B 7E               [ 7]  387 	ld	a, (hl)
    0000004C DD 77 DD         [19]  388 	ld	-35 (ix), a
                                    389 ;E:\Dropbox\FAUSTO\SVILUPPI\MSX\CODE\C\MSXgl\projects\soccerlgSCC/soccerlg_s10_b3.c:32: bool ballPossessionByPlayerTeam = false;
    0000004F 0E 00            [ 7]  390 	ld	c, #0x00
                                    391 ;E:\Dropbox\FAUSTO\SVILUPPI\MSX\CODE\C\MSXgl\projects\soccerlgSCC/soccerlg_s10_b3.c:33: u8 countryId = (playerTeamId == TEAM_1) ? g_Team1PaletteId : g_Team2PaletteId;
    00000051 DD 7E DD         [19]  392 	ld	a, -35 (ix)
    00000054 3D               [ 4]  393 	dec	a
    00000055 3E 01            [ 7]  394 	ld	a, #0x01
    00000057 28 01            [12]  395 	jr	Z, 02120$
    00000059 AF               [ 4]  396 	xor	a, a
    0000005A                        397 02120$:
    0000005A DD 77 DE         [19]  398 	ld	-34 (ix), a
    0000005D B7               [ 4]  399 	or	a, a
    0000005E 28 06            [12]  400 	jr	Z, 00672$
    00000060 3Ar00r00         [13]  401 	ld	a, (_g_Team1PaletteId+0)
    00000063 C3r69r00         [10]  402 	jp	00673$
    00000066                        403 00672$:
    00000066 3Ar00r00         [13]  404 	ld	a, (_g_Team2PaletteId+0)
    00000069                        405 00673$:
    00000069 47               [ 4]  406 	ld	b, a
                                    407 ;E:\Dropbox\FAUSTO\SVILUPPI\MSX\CODE\C\MSXgl\projects\soccerlgSCC/soccerlg_s10_b3.c:34: const TeamStats* stats = GetTeamStats(countryId);
    0000006A C5               [11]  408 	push	bc
    0000006B 78               [ 4]  409 	ld	a, b
    0000006C CDr00r00         [17]  410 	call	_GetTeamStats
    0000006F C1               [10]  411 	pop	bc
    00000070 DD 73 DF         [19]  412 	ld	-33 (ix), e
    00000073 DD 72 E0         [19]  413 	ld	-32 (ix), d
                                    414 ;E:\Dropbox\FAUSTO\SVILUPPI\MSX\CODE\C\MSXgl\projects\soccerlgSCC/soccerlg_s10_b3.c:36: if (g_MatchStatus == MATCH_BALL_ON_GOALKEEPER) {
    00000076 3Ar00r00         [13]  415 	ld	a, (_g_MatchStatus+0)
    00000079 D6 0D            [ 7]  416 	sub	a, #0x0d
    0000007B 20 25            [12]  417 	jr	NZ, 00115$
                                    418 ;E:\Dropbox\FAUSTO\SVILUPPI\MSX\CODE\C\MSXgl\projects\soccerlgSCC/soccerlg_s10_b3.c:39: if (g_Ball.PossessionPlayerId != NO_VALUE) {
    0000007D 3Ar06r00         [13]  419 	ld	a, (#(_g_Ball + 6) + 0)
    00000080 FE FF            [ 7]  420 	cp	a, #0xff
    00000082 28 4E            [12]  421 	jr	Z, 00116$
                                    422 ;E:\Dropbox\FAUSTO\SVILUPPI\MSX\CODE\C\MSXgl\projects\soccerlgSCC/soccerlg_s10_b3.c:40: if (g_Players[g_Ball.PossessionPlayerId].TeamId == playerTeamId) ballPossessionByPlayerTeam = true;
    00000084 5F               [ 4]  423 	ld	e, a
    00000085 16 00            [ 7]  424 	ld	d, #0x00
    00000087 6B               [ 4]  425 	ld	l, e
    00000088 62               [ 4]  426 	ld	h, d
    00000089 29               [11]  427 	add	hl, hl
    0000008A 29               [11]  428 	add	hl, hl
    0000008B 19               [11]  429 	add	hl, de
    0000008C 29               [11]  430 	add	hl, hl
    0000008D 29               [11]  431 	add	hl, hl
    0000008E 19               [11]  432 	add	hl, de
    0000008F 11r00r00         [10]  433 	ld	de, #_g_Players
    00000092 19               [11]  434 	add	hl, de
    00000093 11 09 00         [10]  435 	ld	de, #0x0009
    00000096 19               [11]  436 	add	hl, de
    00000097 DD 7E DD         [19]  437 	ld	a,-35 (ix)
    0000009A 96               [ 7]  438 	sub	a,(hl)
    0000009B 20 35            [12]  439 	jr	NZ, 00116$
    0000009D 0E 01            [ 7]  440 	ld	c, #0x01
    0000009F C3rD2r00         [10]  441 	jp	00116$
    000000A2                        442 00115$:
                                    443 ;E:\Dropbox\FAUSTO\SVILUPPI\MSX\CODE\C\MSXgl\projects\soccerlgSCC/soccerlg_s10_b3.c:44: if (g_Ball.PossessionPlayerId != NO_VALUE) {
    000000A2 3Ar06r00         [13]  444 	ld	a, (#_g_Ball + 6)
    000000A5 FE FF            [ 7]  445 	cp	a, #0xff
    000000A7 28 1E            [12]  446 	jr	Z, 00112$
                                    447 ;E:\Dropbox\FAUSTO\SVILUPPI\MSX\CODE\C\MSXgl\projects\soccerlgSCC/soccerlg_s10_b3.c:45: if (g_Players[g_Ball.PossessionPlayerId].TeamId == playerTeamId) {
    000000A9 5F               [ 4]  448 	ld	e, a
    000000AA 16 00            [ 7]  449 	ld	d, #0x00
    000000AC 6B               [ 4]  450 	ld	l, e
    000000AD 62               [ 4]  451 	ld	h, d
    000000AE 29               [11]  452 	add	hl, hl
    000000AF 29               [11]  453 	add	hl, hl
    000000B0 19               [11]  454 	add	hl, de
    000000B1 29               [11]  455 	add	hl, hl
    000000B2 29               [11]  456 	add	hl, hl
    000000B3 19               [11]  457 	add	hl, de
    000000B4 11r00r00         [10]  458 	ld	de, #_g_Players
    000000B7 19               [11]  459 	add	hl, de
    000000B8 11 09 00         [10]  460 	ld	de, #0x0009
    000000BB 19               [11]  461 	add	hl, de
    000000BC DD 7E DD         [19]  462 	ld	a,-35 (ix)
    000000BF 96               [ 7]  463 	sub	a,(hl)
    000000C0 20 10            [12]  464 	jr	NZ, 00116$
                                    465 ;E:\Dropbox\FAUSTO\SVILUPPI\MSX\CODE\C\MSXgl\projects\soccerlgSCC/soccerlg_s10_b3.c:46: ballPossessionByPlayerTeam = true;
    000000C2 0E 01            [ 7]  466 	ld	c, #0x01
    000000C4 C3rD2r00         [10]  467 	jp	00116$
    000000C7                        468 00112$:
                                    469 ;E:\Dropbox\FAUSTO\SVILUPPI\MSX\CODE\C\MSXgl\projects\soccerlgSCC/soccerlg_s10_b3.c:50: if (g_Ball.LastTouchTeamId == playerTeamId) {
    000000C7 21r0Er00         [10]  470 	ld	hl, #_g_Ball + 14
    000000CA DD 7E DD         [19]  471 	ld	a,-35 (ix)
    000000CD 96               [ 7]  472 	sub	a,(hl)
    000000CE 20 02            [12]  473 	jr	NZ, 00116$
                                    474 ;E:\Dropbox\FAUSTO\SVILUPPI\MSX\CODE\C\MSXgl\projects\soccerlgSCC/soccerlg_s10_b3.c:51: ballPossessionByPlayerTeam = true;
    000000D0 0E 01            [ 7]  475 	ld	c, #0x01
    000000D2                        476 00116$:
                                    477 ;E:\Dropbox\FAUSTO\SVILUPPI\MSX\CODE\C\MSXgl\projects\soccerlgSCC/soccerlg_s10_b3.c:58: if (ballPossessionByPlayerTeam) {
    000000D2 79               [ 4]  478 	ld	a, c
    000000D3 B7               [ 4]  479 	or	a, a
    000000D4 CAr2Fr11         [10]  480 	jp	Z, 00428$
                                    481 ;E:\Dropbox\FAUSTO\SVILUPPI\MSX\CODE\C\MSXgl\projects\soccerlgSCC/soccerlg_s10_b3.c:61: if (g_Ball.PossessionPlayerId == playerId) {
    000000D7 3Ar06r00         [13]  482 	ld	a, (#_g_Ball + 6)
    000000DA DD 77 FE         [19]  483 	ld	-2 (ix), a
    000000DD DD 7E FF         [19]  484 	ld	a, -1 (ix)
    000000E0 DD 96 FE         [19]  485 	sub	a, -2 (ix)
    000000E3 C2r89r0A         [10]  486 	jp	NZ,00307$
                                    487 ;E:\Dropbox\FAUSTO\SVILUPPI\MSX\CODE\C\MSXgl\projects\soccerlgSCC/soccerlg_s10_b3.c:64: if (g_Players[playerId].Role == PLAYER_ROLE_GOALKEEPER) return;
    000000E6 C1               [10]  488 	pop	bc
    000000E7 C5               [11]  489 	push	bc
    000000E8 21 0D 00         [10]  490 	ld	hl, #13
    000000EB 09               [11]  491 	add	hl, bc
    000000EC 7E               [ 7]  492 	ld	a, (hl)
    000000ED DD 77 E1         [19]  493 	ld	-31 (ix), a
    000000F0 B7               [ 4]  494 	or	a, a
    000000F1 CAr5Er1D         [10]  495 	jp	Z,00670$
                                    496 ;E:\Dropbox\FAUSTO\SVILUPPI\MSX\CODE\C\MSXgl\projects\soccerlgSCC/soccerlg_s10_b3.c:70: if (playerTeamId == TEAM_1) { 
    000000F4 DD 7E DE         [19]  497 	ld	a, -34 (ix)
    000000F7 B7               [ 4]  498 	or	a, a
    000000F8 28 0B            [12]  499 	jr	Z, 00120$
                                    500 ;E:\Dropbox\FAUSTO\SVILUPPI\MSX\CODE\C\MSXgl\projects\soccerlgSCC/soccerlg_s10_b3.c:71: targetY_Goal = goalTopY - 20; 
    000000FA DD 36 E2 37      [19]  501 	ld	-30 (ix), #0x37
    000000FE DD 36 E3 00      [19]  502 	ld	-29 (ix), #0
    00000102 C3r0Dr01         [10]  503 	jp	00121$
    00000105                        504 00120$:
                                    505 ;E:\Dropbox\FAUSTO\SVILUPPI\MSX\CODE\C\MSXgl\projects\soccerlgSCC/soccerlg_s10_b3.c:73: targetY_Goal = goalBottomY + 20;
    00000105 DD 36 E2 A9      [19]  506 	ld	-30 (ix), #0xa9
    00000109 DD 36 E3 01      [19]  507 	ld	-29 (ix), #0x01
    0000010D                        508 00121$:
                                    509 ;E:\Dropbox\FAUSTO\SVILUPPI\MSX\CODE\C\MSXgl\projects\soccerlgSCC/soccerlg_s10_b3.c:77: targetX_Goal = g_Players[playerId].X;
    0000010D DD 7E DB         [19]  510 	ld	a, -37 (ix)
    00000110 C6 02            [ 7]  511 	add	a, #0x02
    00000112 DD 77 E4         [19]  512 	ld	-28 (ix), a
    00000115 DD 7E DC         [19]  513 	ld	a, -36 (ix)
    00000118 CE 00            [ 7]  514 	adc	a, #0x00
    0000011A DD 77 E5         [19]  515 	ld	-27 (ix), a
    0000011D DD 6E E4         [19]  516 	ld	l, -28 (ix)
    00000120 DD 66 E5         [19]  517 	ld	h, -27 (ix)
    00000123 7E               [ 7]  518 	ld	a, (hl)
    00000124 DD 77 E6         [19]  519 	ld	-26 (ix), a
    00000127 23               [ 6]  520 	inc	hl
    00000128 7E               [ 7]  521 	ld	a, (hl)
    00000129 DD 77 E7         [19]  522 	ld	-25 (ix), a
    0000012C DD 7E E6         [19]  523 	ld	a, -26 (ix)
    0000012F DD 77 E8         [19]  524 	ld	-24 (ix), a
    00000132 DD 7E E7         [19]  525 	ld	a, -25 (ix)
    00000135 DD 77 E9         [19]  526 	ld	-23 (ix), a
                                    527 ;E:\Dropbox\FAUSTO\SVILUPPI\MSX\CODE\C\MSXgl\projects\soccerlgSCC/soccerlg_s10_b3.c:78: if (targetX_Goal > 100 && targetX_Goal < 156) {
    00000138 DD 5E E8         [19]  528 	ld	e, -24 (ix)
    0000013B DD 4E E9         [19]  529 	ld	c, -23 (ix)
    0000013E 3E 64            [ 7]  530 	ld	a, #0x64
    00000140 BB               [ 4]  531 	cp	a, e
    00000141 3E 00            [ 7]  532 	ld	a, #0x00
    00000143 99               [ 4]  533 	sbc	a, c
    00000144 30 21            [12]  534 	jr	NC, 00126$
    00000146 7B               [ 4]  535 	ld	a, e
    00000147 D6 9C            [ 7]  536 	sub	a, #0x9c
    00000149 79               [ 4]  537 	ld	a, c
    0000014A DE 00            [ 7]  538 	sbc	a, #0x00
    0000014C 30 19            [12]  539 	jr	NC, 00126$
                                    540 ;E:\Dropbox\FAUSTO\SVILUPPI\MSX\CODE\C\MSXgl\projects\soccerlgSCC/soccerlg_s10_b3.c:79: if ((g_Players[playerId].Role % 2) != 0) targetX_Goal = 60; // Go Left
    0000014E DD CB E1 46      [20]  541 	bit	0, -31 (ix)
    00000152 28 0B            [12]  542 	jr	Z, 00123$
    00000154 DD 36 E8 3C      [19]  543 	ld	-24 (ix), #0x3c
    00000158 DD 36 E9 00      [19]  544 	ld	-23 (ix), #0
    0000015C C3r67r01         [10]  545 	jp	00126$
    0000015F                        546 00123$:
                                    547 ;E:\Dropbox\FAUSTO\SVILUPPI\MSX\CODE\C\MSXgl\projects\soccerlgSCC/soccerlg_s10_b3.c:80: else targetX_Goal = 190; // Go Right
    0000015F DD 36 E8 BE      [19]  548 	ld	-24 (ix), #0xbe
    00000163 DD 36 E9 00      [19]  549 	ld	-23 (ix), #0
    00000167                        550 00126$:
                                    551 ;E:\Dropbox\FAUSTO\SVILUPPI\MSX\CODE\C\MSXgl\projects\soccerlgSCC/soccerlg_s10_b3.c:83: if (targetX_Goal < FIELD_BOUND_X_LEFT + 20) targetX_Goal = FIELD_BOUND_X_LEFT + 20;
    00000167 DD 7E E8         [19]  552 	ld	a, -24 (ix)
    0000016A D6 1E            [ 7]  553 	sub	a, #0x1e
    0000016C DD 7E E9         [19]  554 	ld	a, -23 (ix)
    0000016F DE 00            [ 7]  555 	sbc	a, #0x00
    00000171 30 08            [12]  556 	jr	NC, 00129$
    00000173 DD 36 E8 1E      [19]  557 	ld	-24 (ix), #0x1e
    00000177 DD 36 E9 00      [19]  558 	ld	-23 (ix), #0
    0000017B                        559 00129$:
                                    560 ;E:\Dropbox\FAUSTO\SVILUPPI\MSX\CODE\C\MSXgl\projects\soccerlgSCC/soccerlg_s10_b3.c:84: if (targetX_Goal > FIELD_BOUND_X_RIGHT - 20) targetX_Goal = FIELD_BOUND_X_RIGHT - 20;
    0000017B 3E D8            [ 7]  561 	ld	a, #0xd8
    0000017D DD BE E8         [19]  562 	cp	a, -24 (ix)
    00000180 3E 00            [ 7]  563 	ld	a, #0x00
    00000182 DD 9E E9         [19]  564 	sbc	a, -23 (ix)
    00000185 30 08            [12]  565 	jr	NC, 00131$
    00000187 DD 36 E8 D8      [19]  566 	ld	-24 (ix), #0xd8
    0000018B DD 36 E9 00      [19]  567 	ld	-23 (ix), #0
    0000018F                        568 00131$:
                                    569 ;E:\Dropbox\FAUSTO\SVILUPPI\MSX\CODE\C\MSXgl\projects\soccerlgSCC/soccerlg_s10_b3.c:88: bool obstacleRight = false;
    0000018F DD 36 EA 00      [19]  570 	ld	-22 (ix), #0x00
                                    571 ;E:\Dropbox\FAUSTO\SVILUPPI\MSX\CODE\C\MSXgl\projects\soccerlgSCC/soccerlg_s10_b3.c:89: bool obstacleLeft = false;
    00000193 DD 36 EB 00      [19]  572 	ld	-21 (ix), #0x00
                                    573 ;E:\Dropbox\FAUSTO\SVILUPPI\MSX\CODE\C\MSXgl\projects\soccerlgSCC/soccerlg_s10_b3.c:90: bool obstacleFront = false;
    00000197 DD 36 EC 00      [19]  574 	ld	-20 (ix), #0x00
                                    575 ;E:\Dropbox\FAUSTO\SVILUPPI\MSX\CODE\C\MSXgl\projects\soccerlgSCC/soccerlg_s10_b3.c:91: bool obstacleFrontNonGK = false;
    0000019B DD 36 ED 00      [19]  576 	ld	-19 (ix), #0x00
                                    577 ;E:\Dropbox\FAUSTO\SVILUPPI\MSX\CODE\C\MSXgl\projects\soccerlgSCC/soccerlg_s10_b3.c:92: bool dangerousOpponent = false;
    0000019F DD 36 EE 00      [19]  578 	ld	-18 (ix), #0x00
                                    579 ;E:\Dropbox\FAUSTO\SVILUPPI\MSX\CODE\C\MSXgl\projects\soccerlgSCC/soccerlg_s10_b3.c:95: for(i=0; i<14; i++) { 
    000001A3 E1               [10]  580 	pop	hl
    000001A4 E5               [11]  581 	push	hl
    000001A5 7E               [ 7]  582 	ld	a, (hl)
    000001A6 DD 77 EF         [19]  583 	ld	-17 (ix), a
    000001A9 23               [ 6]  584 	inc	hl
    000001AA 7E               [ 7]  585 	ld	a, (hl)
    000001AB DD 77 F0         [19]  586 	ld	-16 (ix), a
    000001AE 01 00 00         [10]  587 	ld	bc, #0x0000
    000001B1                        588 00658$:
                                    589 ;E:\Dropbox\FAUSTO\SVILUPPI\MSX\CODE\C\MSXgl\projects\soccerlgSCC/soccerlg_s10_b3.c:96: if (g_Players[i].TeamId == playerTeamId) continue;
    000001B1 69               [ 4]  590 	ld	l, c
    000001B2 60               [ 4]  591 	ld	h, b
    000001B3 29               [11]  592 	add	hl, hl
    000001B4 29               [11]  593 	add	hl, hl
    000001B5 09               [11]  594 	add	hl, bc
    000001B6 29               [11]  595 	add	hl, hl
    000001B7 29               [11]  596 	add	hl, hl
    000001B8 09               [11]  597 	add	hl, bc
    000001B9 11r00r00         [10]  598 	ld	de, #_g_Players
    000001BC 19               [11]  599 	add	hl, de
    000001BD DD 75 F1         [19]  600 	ld	-15 (ix), l
    000001C0 DD 74 F2         [19]  601 	ld	-14 (ix), h
    000001C3 EB               [ 4]  602 	ex	de,hl
    000001C4 21 09 00         [10]  603 	ld	hl, #9
    000001C7 19               [11]  604 	add	hl, de
    000001C8 5E               [ 7]  605 	ld	e, (hl)
    000001C9 DD 7E DD         [19]  606 	ld	a, -35 (ix)
    000001CC 93               [ 4]  607 	sub	a, e
    000001CD CArB7r03         [10]  608 	jp	Z,00172$
                                    609 ;E:\Dropbox\FAUSTO\SVILUPPI\MSX\CODE\C\MSXgl\projects\soccerlgSCC/soccerlg_s10_b3.c:97: if (g_Players[i].Status == PLAYER_STATUS_NONE) continue;
    000001D0 DD 5E F1         [19]  610 	ld	e, -15 (ix)
    000001D3 DD 56 F2         [19]  611 	ld	d, -14 (ix)
    000001D6 21 12 00         [10]  612 	ld	hl, #18
    000001D9 19               [11]  613 	add	hl, de
    000001DA 5E               [ 7]  614 	ld	e, (hl)
    000001DB 23               [ 6]  615 	inc	hl
    000001DC 7E               [ 7]  616 	ld	a, (hl)
    000001DD B3               [ 4]  617 	or	a, e
    000001DE CArB7r03         [10]  618 	jp	Z, 00172$
                                    619 ;E:\Dropbox\FAUSTO\SVILUPPI\MSX\CODE\C\MSXgl\projects\soccerlgSCC/soccerlg_s10_b3.c:98: if (i == playerId) continue;
    000001E1 DD 6E FF         [19]  620 	ld	l, -1 (ix)
                                    621 ;	spillPairReg hl
                                    622 ;	spillPairReg hl
    000001E4 26 00            [ 7]  623 	ld	h, #0x00
                                    624 ;	spillPairReg hl
                                    625 ;	spillPairReg hl
    000001E6 BF               [ 4]  626 	cp	a, a
    000001E7 ED 42            [15]  627 	sbc	hl, bc
    000001E9 CArB7r03         [10]  628 	jp	Z,00172$
                                    629 ;E:\Dropbox\FAUSTO\SVILUPPI\MSX\CODE\C\MSXgl\projects\soccerlgSCC/soccerlg_s10_b3.c:100: i16 relX = (i16)g_Players[i].X - (i16)g_Players[playerId].X;
    000001EC DD 6E F1         [19]  630 	ld	l, -15 (ix)
                                    631 ;	spillPairReg hl
                                    632 ;	spillPairReg hl
    000001EF DD 66 F2         [19]  633 	ld	h, -14 (ix)
                                    634 ;	spillPairReg hl
                                    635 ;	spillPairReg hl
    000001F2 23               [ 6]  636 	inc	hl
    000001F3 23               [ 6]  637 	inc	hl
    000001F4 5E               [ 7]  638 	ld	e, (hl)
    000001F5 23               [ 6]  639 	inc	hl
    000001F6 56               [ 7]  640 	ld	d, (hl)
    000001F7 EB               [ 4]  641 	ex	de, hl
    000001F8 DD 5E E6         [19]  642 	ld	e, -26 (ix)
    000001FB DD 56 E7         [19]  643 	ld	d, -25 (ix)
    000001FE BF               [ 4]  644 	cp	a, a
    000001FF ED 52            [15]  645 	sbc	hl, de
    00000201 DD 75 F3         [19]  646 	ld	-13 (ix), l
    00000204 DD 74 F4         [19]  647 	ld	-12 (ix), h
                                    648 ;E:\Dropbox\FAUSTO\SVILUPPI\MSX\CODE\C\MSXgl\projects\soccerlgSCC/soccerlg_s10_b3.c:101: i16 relY = (i16)g_Players[i].Y - (i16)g_Players[playerId].Y;
    00000207 DD 6E F1         [19]  649 	ld	l, -15 (ix)
    0000020A DD 66 F2         [19]  650 	ld	h, -14 (ix)
    0000020D 5E               [ 7]  651 	ld	e, (hl)
    0000020E 23               [ 6]  652 	inc	hl
    0000020F 56               [ 7]  653 	ld	d, (hl)
    00000210 EB               [ 4]  654 	ex	de, hl
    00000211 DD 5E EF         [19]  655 	ld	e, -17 (ix)
    00000214 DD 56 F0         [19]  656 	ld	d, -16 (ix)
    00000217 BF               [ 4]  657 	cp	a, a
    00000218 ED 52            [15]  658 	sbc	hl, de
    0000021A DD 75 F5         [19]  659 	ld	-11 (ix), l
    0000021D DD 74 F6         [19]  660 	ld	-10 (ix), h
                                    661 ;E:\Dropbox\FAUSTO\SVILUPPI\MSX\CODE\C\MSXgl\projects\soccerlgSCC/soccerlg_s10_b3.c:107: bool isFront = false;
    00000220 1E 00            [ 7]  662 	ld	e, #0x00
                                    663 ;E:\Dropbox\FAUSTO\SVILUPPI\MSX\CODE\C\MSXgl\projects\soccerlgSCC/soccerlg_s10_b3.c:108: bool isBehind = false;
    00000222 DD 36 FE 00      [19]  664 	ld	-2 (ix), #0x00
                                    665 ;E:\Dropbox\FAUSTO\SVILUPPI\MSX\CODE\C\MSXgl\projects\soccerlgSCC/soccerlg_s10_b3.c:111: if (relY < 0 && relY > -obstacleDetDist) isFront = true;
    00000226 DD 7E F5         [19]  666 	ld	a, -11 (ix)
    00000229 DD 77 F7         [19]  667 	ld	-9 (ix), a
    0000022C DD 7E F6         [19]  668 	ld	a, -10 (ix)
    0000022F DD 77 F8         [19]  669 	ld	-8 (ix), a
                                    670 ;E:\Dropbox\FAUSTO\SVILUPPI\MSX\CODE\C\MSXgl\projects\soccerlgSCC/soccerlg_s10_b3.c:110: if (playerTeamId == TEAM_1) { // Moving UP (Y decreases)
    00000232 DD 7E DE         [19]  671 	ld	a, -34 (ix)
    00000235 B7               [ 4]  672 	or	a, a
    00000236 28 29            [12]  673 	jr	Z, 00149$
                                    674 ;E:\Dropbox\FAUSTO\SVILUPPI\MSX\CODE\C\MSXgl\projects\soccerlgSCC/soccerlg_s10_b3.c:111: if (relY < 0 && relY > -obstacleDetDist) isFront = true;
    00000238 DD 7E F8         [19]  675 	ld	a, -8 (ix)
    0000023B 07               [ 4]  676 	rlca
    0000023C E6 01            [ 7]  677 	and	a,#0x01
    0000023E 57               [ 4]  678 	ld	d, a
    0000023F B7               [ 4]  679 	or	a, a
    00000240 28 14            [12]  680 	jr	Z, 00139$
    00000242 3E E0            [ 7]  681 	ld	a, #0xe0
    00000244 DD BE F7         [19]  682 	cp	a, -9 (ix)
    00000247 3E FF            [ 7]  683 	ld	a, #0xff
    00000249 DD 9E F8         [19]  684 	sbc	a, -8 (ix)
    0000024C E2r51r02         [10]  685 	jp	PO, 02136$
    0000024F EE 80            [ 7]  686 	xor	a, #0x80
    00000251                        687 02136$:
    00000251 F2r56r02         [10]  688 	jp	P, 00139$
    00000254 1E 01            [ 7]  689 	ld	e, #0x01
    00000256                        690 00139$:
                                    691 ;E:\Dropbox\FAUSTO\SVILUPPI\MSX\CODE\C\MSXgl\projects\soccerlgSCC/soccerlg_s10_b3.c:112: if (relY >= 0) isBehind = true;
    00000256 CB 42            [ 8]  692 	bit	0, d
    00000258 20 33            [12]  693 	jr	NZ, 00150$
    0000025A DD 36 FE 01      [19]  694 	ld	-2 (ix), #0x01
    0000025E C3r8Dr02         [10]  695 	jp	00150$
    00000261                        696 00149$:
                                    697 ;E:\Dropbox\FAUSTO\SVILUPPI\MSX\CODE\C\MSXgl\projects\soccerlgSCC/soccerlg_s10_b3.c:114: if (relY > 0 && relY < obstacleDetDist) isFront = true;
    00000261 AF               [ 4]  698 	xor	a, a
    00000262 DD BE F7         [19]  699 	cp	a, -9 (ix)
    00000265 DD 9E F8         [19]  700 	sbc	a, -8 (ix)
    00000268 E2r6Dr02         [10]  701 	jp	PO, 02137$
    0000026B EE 80            [ 7]  702 	xor	a, #0x80
    0000026D                        703 02137$:
    0000026D 07               [ 4]  704 	rlca
    0000026E E6 01            [ 7]  705 	and	a,#0x01
    00000270 57               [ 4]  706 	ld	d, a
    00000271 B7               [ 4]  707 	or	a, a
    00000272 28 11            [12]  708 	jr	Z, 00144$
    00000274 DD 7E F5         [19]  709 	ld	a, -11 (ix)
    00000277 D6 20            [ 7]  710 	sub	a, #0x20
    00000279 DD 7E F6         [19]  711 	ld	a, -10 (ix)
    0000027C 17               [ 4]  712 	rla
    0000027D 3F               [ 4]  713 	ccf
    0000027E 1F               [ 4]  714 	rra
    0000027F DE 80            [ 7]  715 	sbc	a, #0x80
    00000281 30 02            [12]  716 	jr	NC, 00144$
    00000283 1E 01            [ 7]  717 	ld	e, #0x01
    00000285                        718 00144$:
                                    719 ;E:\Dropbox\FAUSTO\SVILUPPI\MSX\CODE\C\MSXgl\projects\soccerlgSCC/soccerlg_s10_b3.c:115: if (relY <= 0) isBehind = true;
    00000285 CB 42            [ 8]  720 	bit	0, d
    00000287 20 04            [12]  721 	jr	NZ, 00150$
    00000289 DD 36 FE 01      [19]  722 	ld	-2 (ix), #0x01
    0000028D                        723 00150$:
                                    724 ;E:\Dropbox\FAUSTO\SVILUPPI\MSX\CODE\C\MSXgl\projects\soccerlgSCC/soccerlg_s10_b3.c:120: u8 safeDist = isBehind ? 8 : 12; 
    0000028D DD 7E FE         [19]  725 	ld	a, -2 (ix)
    00000290 B7               [ 4]  726 	or	a, a
    00000291 28 0B            [12]  727 	jr	Z, 00674$
    00000293 DD 36 FD 08      [19]  728 	ld	-3 (ix), #0x08
    00000297 DD 36 FE 00      [19]  729 	ld	-2 (ix), #0
    0000029B C3rA6r02         [10]  730 	jp	00675$
    0000029E                        731 00674$:
    0000029E DD 36 FD 0C      [19]  732 	ld	-3 (ix), #0x0c
    000002A2 DD 36 FE 00      [19]  733 	ld	-2 (ix), #0
    000002A6                        734 00675$:
    000002A6 DD 56 FD         [19]  735 	ld	d, -3 (ix)
                                    736 ;E:\Dropbox\FAUSTO\SVILUPPI\MSX\CODE\C\MSXgl\projects\soccerlgSCC/soccerlg_s10_b3.c:121: if (relX > -safeDist && relX < safeDist && relY > -safeDist && relY < safeDist) {
    000002A9 7A               [ 4]  737 	ld	a, d
    000002AA 2E 00            [ 7]  738 	ld	l, #0x00
                                    739 ;	spillPairReg hl
                                    740 ;	spillPairReg hl
    000002AC ED 44            [ 8]  741 	neg
    000002AE DD 77 F9         [19]  742 	ld	-7 (ix), a
    000002B1 9F               [ 4]  743 	sbc	a, a
    000002B2 95               [ 4]  744 	sub	a, l
    000002B3 DD 77 FA         [19]  745 	ld	-6 (ix), a
    000002B6 DD 7E F3         [19]  746 	ld	a, -13 (ix)
    000002B9 DD 77 FB         [19]  747 	ld	-5 (ix), a
    000002BC DD 7E F4         [19]  748 	ld	a, -12 (ix)
    000002BF DD 77 FC         [19]  749 	ld	-4 (ix), a
    000002C2 DD 7E F9         [19]  750 	ld	a, -7 (ix)
    000002C5 DD 96 FB         [19]  751 	sub	a, -5 (ix)
    000002C8 DD 7E FA         [19]  752 	ld	a, -6 (ix)
    000002CB DD 9E FC         [19]  753 	sbc	a, -4 (ix)
    000002CE E2rD3r02         [10]  754 	jp	PO, 02138$
    000002D1 EE 80            [ 7]  755 	xor	a, #0x80
    000002D3                        756 02138$:
    000002D3 F2r1Dr03         [10]  757 	jp	P, 00152$
    000002D6 DD 72 FD         [19]  758 	ld	-3 (ix), d
    000002D9 DD 36 FE 00      [19]  759 	ld	-2 (ix), #0x00
    000002DD DD 7E F3         [19]  760 	ld	a, -13 (ix)
    000002E0 DD 96 FD         [19]  761 	sub	a, -3 (ix)
    000002E3 DD 7E F4         [19]  762 	ld	a, -12 (ix)
    000002E6 DD 9E FE         [19]  763 	sbc	a, -2 (ix)
    000002E9 E2rEEr02         [10]  764 	jp	PO, 02139$
    000002EC EE 80            [ 7]  765 	xor	a, #0x80
    000002EE                        766 02139$:
    000002EE F2r1Dr03         [10]  767 	jp	P, 00152$
    000002F1 DD 7E F9         [19]  768 	ld	a, -7 (ix)
    000002F4 DD 96 F7         [19]  769 	sub	a, -9 (ix)
    000002F7 DD 7E FA         [19]  770 	ld	a, -6 (ix)
    000002FA DD 9E F8         [19]  771 	sbc	a, -8 (ix)
    000002FD E2r02r03         [10]  772 	jp	PO, 02140$
    00000300 EE 80            [ 7]  773 	xor	a, #0x80
    00000302                        774 02140$:
    00000302 F2r1Dr03         [10]  775 	jp	P, 00152$
    00000305 DD 7E F5         [19]  776 	ld	a, -11 (ix)
    00000308 DD 96 FD         [19]  777 	sub	a, -3 (ix)
    0000030B DD 7E F6         [19]  778 	ld	a, -10 (ix)
    0000030E DD 9E FE         [19]  779 	sbc	a, -2 (ix)
    00000311 E2r16r03         [10]  780 	jp	PO, 02141$
    00000314 EE 80            [ 7]  781 	xor	a, #0x80
    00000316                        782 02141$:
    00000316 F2r1Dr03         [10]  783 	jp	P, 00152$
                                    784 ;E:\Dropbox\FAUSTO\SVILUPPI\MSX\CODE\C\MSXgl\projects\soccerlgSCC/soccerlg_s10_b3.c:122: dangerousOpponent = true;
    00000319 DD 36 EE 01      [19]  785 	ld	-18 (ix), #0x01
    0000031D                        786 00152$:
                                    787 ;E:\Dropbox\FAUSTO\SVILUPPI\MSX\CODE\C\MSXgl\projects\soccerlgSCC/soccerlg_s10_b3.c:126: if (isFront && relX > -10 && relX < 10) {
    0000031D 7B               [ 4]  788 	ld	a, e
    0000031E B7               [ 4]  789 	or	a, a
    0000031F 28 39            [12]  790 	jr	Z, 00159$
    00000321 3E F6            [ 7]  791 	ld	a, #0xf6
    00000323 DD BE F3         [19]  792 	cp	a, -13 (ix)
    00000326 3E FF            [ 7]  793 	ld	a, #0xff
    00000328 DD 9E F4         [19]  794 	sbc	a, -12 (ix)
    0000032B E2r30r03         [10]  795 	jp	PO, 02142$
    0000032E EE 80            [ 7]  796 	xor	a, #0x80
    00000330                        797 02142$:
    00000330 F2r5Ar03         [10]  798 	jp	P, 00159$
    00000333 DD 7E FB         [19]  799 	ld	a, -5 (ix)
    00000336 D6 0A            [ 7]  800 	sub	a, #0x0a
    00000338 DD 7E FC         [19]  801 	ld	a, -4 (ix)
    0000033B 17               [ 4]  802 	rla
    0000033C 3F               [ 4]  803 	ccf
    0000033D 1F               [ 4]  804 	rra
    0000033E DE 80            [ 7]  805 	sbc	a, #0x80
    00000340 30 18            [12]  806 	jr	NC, 00159$
                                    807 ;E:\Dropbox\FAUSTO\SVILUPPI\MSX\CODE\C\MSXgl\projects\soccerlgSCC/soccerlg_s10_b3.c:127: obstacleFront = true;
    00000342 DD 36 EC 01      [19]  808 	ld	-20 (ix), #0x01
                                    809 ;E:\Dropbox\FAUSTO\SVILUPPI\MSX\CODE\C\MSXgl\projects\soccerlgSCC/soccerlg_s10_b3.c:128: if (g_Players[i].Role != PLAYER_ROLE_GOALKEEPER) obstacleFrontNonGK = true;
    00000346 DD 6E F1         [19]  810 	ld	l, -15 (ix)
                                    811 ;	spillPairReg hl
                                    812 ;	spillPairReg hl
    00000349 DD 66 F2         [19]  813 	ld	h, -14 (ix)
                                    814 ;	spillPairReg hl
                                    815 ;	spillPairReg hl
    0000034C C5               [11]  816 	push	bc
    0000034D 01 0D 00         [10]  817 	ld	bc, #0x000d
    00000350 09               [11]  818 	add	hl, bc
    00000351 C1               [10]  819 	pop	bc
    00000352 7E               [ 7]  820 	ld	a, (hl)
    00000353 B7               [ 4]  821 	or	a, a
    00000354 28 04            [12]  822 	jr	Z, 00159$
    00000356 DD 36 ED 01      [19]  823 	ld	-19 (ix), #0x01
    0000035A                        824 00159$:
                                    825 ;E:\Dropbox\FAUSTO\SVILUPPI\MSX\CODE\C\MSXgl\projects\soccerlgSCC/soccerlg_s10_b3.c:131: if (isFront || (relY < 18 && relY > -18)) { 
    0000035A 7B               [ 4]  826 	ld	a, e
    0000035B B7               [ 4]  827 	or	a, a
    0000035C 20 21            [12]  828 	jr	NZ, 00168$
    0000035E DD 7E F7         [19]  829 	ld	a, -9 (ix)
    00000361 D6 12            [ 7]  830 	sub	a, #0x12
    00000363 DD 7E F8         [19]  831 	ld	a, -8 (ix)
    00000366 17               [ 4]  832 	rla
    00000367 3F               [ 4]  833 	ccf
    00000368 1F               [ 4]  834 	rra
    00000369 DE 80            [ 7]  835 	sbc	a, #0x80
    0000036B 30 4A            [12]  836 	jr	NC, 00172$
    0000036D 3E EE            [ 7]  837 	ld	a, #0xee
    0000036F DD BE F5         [19]  838 	cp	a, -11 (ix)
    00000372 3E FF            [ 7]  839 	ld	a, #0xff
    00000374 DD 9E F6         [19]  840 	sbc	a, -10 (ix)
    00000377 E2r7Cr03         [10]  841 	jp	PO, 02143$
    0000037A EE 80            [ 7]  842 	xor	a, #0x80
    0000037C                        843 02143$:
    0000037C F2rB7r03         [10]  844 	jp	P, 00172$
    0000037F                        845 00168$:
                                    846 ;E:\Dropbox\FAUSTO\SVILUPPI\MSX\CODE\C\MSXgl\projects\soccerlgSCC/soccerlg_s10_b3.c:132: if (relX >= 0 && relX < 24) obstacleRight = true; // Obstacle is to my right
    0000037F DD 7E FC         [19]  847 	ld	a, -4 (ix)
    00000382 07               [ 4]  848 	rlca
    00000383 E6 01            [ 7]  849 	and	a,#0x01
    00000385 5F               [ 4]  850 	ld	e, a
    00000386 CB 43            [ 8]  851 	bit	0, e
    00000388 20 13            [12]  852 	jr	NZ, 00163$
    0000038A DD 7E FB         [19]  853 	ld	a, -5 (ix)
    0000038D D6 18            [ 7]  854 	sub	a, #0x18
    0000038F DD 7E FC         [19]  855 	ld	a, -4 (ix)
    00000392 17               [ 4]  856 	rla
    00000393 3F               [ 4]  857 	ccf
    00000394 1F               [ 4]  858 	rra
    00000395 DE 80            [ 7]  859 	sbc	a, #0x80
    00000397 30 04            [12]  860 	jr	NC, 00163$
    00000399 DD 36 EA 01      [19]  861 	ld	-22 (ix), #0x01
    0000039D                        862 00163$:
                                    863 ;E:\Dropbox\FAUSTO\SVILUPPI\MSX\CODE\C\MSXgl\projects\soccerlgSCC/soccerlg_s10_b3.c:133: if (relX < 0 && relX > -24) obstacleLeft = true; // Obstacle is to my left
    0000039D 7B               [ 4]  864 	ld	a, e
    0000039E B7               [ 4]  865 	or	a, a
    0000039F 28 16            [12]  866 	jr	Z, 00172$
    000003A1 3E E8            [ 7]  867 	ld	a, #0xe8
    000003A3 DD BE F3         [19]  868 	cp	a, -13 (ix)
    000003A6 3E FF            [ 7]  869 	ld	a, #0xff
    000003A8 DD 9E F4         [19]  870 	sbc	a, -12 (ix)
    000003AB E2rB0r03         [10]  871 	jp	PO, 02144$
    000003AE EE 80            [ 7]  872 	xor	a, #0x80
    000003B0                        873 02144$:
    000003B0 F2rB7r03         [10]  874 	jp	P, 00172$
    000003B3 DD 36 EB 01      [19]  875 	ld	-21 (ix), #0x01
    000003B7                        876 00172$:
                                    877 ;E:\Dropbox\FAUSTO\SVILUPPI\MSX\CODE\C\MSXgl\projects\soccerlgSCC/soccerlg_s10_b3.c:95: for(i=0; i<14; i++) { 
    000003B7 03               [ 6]  878 	inc	bc
    000003B8 79               [ 4]  879 	ld	a, c
    000003B9 D6 0E            [ 7]  880 	sub	a, #0x0e
    000003BB 78               [ 4]  881 	ld	a, b
    000003BC 17               [ 4]  882 	rla
    000003BD 3F               [ 4]  883 	ccf
    000003BE 1F               [ 4]  884 	rra
    000003BF DE 80            [ 7]  885 	sbc	a, #0x80
    000003C1 DArB1r01         [10]  886 	jp	C, 00658$
                                    887 ;E:\Dropbox\FAUSTO\SVILUPPI\MSX\CODE\C\MSXgl\projects\soccerlgSCC/soccerlg_s10_b3.c:142: bool isHumanControlled = false;
    000003C4 DD 36 FD 00      [19]  888 	ld	-3 (ix), #0x00
                                    889 ;E:\Dropbox\FAUSTO\SVILUPPI\MSX\CODE\C\MSXgl\projects\soccerlgSCC/soccerlg_s10_b3.c:143: if ((playerTeamId == TEAM_1 && g_Team1ActivePlayer == playerId) || 
    000003C8 DD 7E DE         [19]  890 	ld	a, -34 (ix)
    000003CB B7               [ 4]  891 	or	a, a
    000003CC 28 08            [12]  892 	jr	Z, 00186$
    000003CE 3Ar00r00         [13]  893 	ld	a, (_g_Team1ActivePlayer+0)
    000003D1 DD 96 FF         [19]  894 	sub	a, -1 (ix)
    000003D4 28 15            [12]  895 	jr	Z, 00181$
    000003D6                        896 00186$:
                                    897 ;E:\Dropbox\FAUSTO\SVILUPPI\MSX\CODE\C\MSXgl\projects\soccerlgSCC/soccerlg_s10_b3.c:144: (playerTeamId == TEAM_2 && g_GameWith2Players && g_Team2ActivePlayer == playerId)) {
    000003D6 DD 7E DD         [19]  898 	ld	a, -35 (ix)
    000003D9 D6 02            [ 7]  899 	sub	a, #0x02
    000003DB 20 12            [12]  900 	jr	NZ, 00182$
    000003DD 3Ar00r00         [13]  901 	ld	a, (_g_GameWith2Players+0)
    000003E0 B7               [ 4]  902 	or	a, a
    000003E1 28 0C            [12]  903 	jr	Z, 00182$
    000003E3 3Ar00r00         [13]  904 	ld	a, (_g_Team2ActivePlayer+0)
    000003E6 DD 96 FF         [19]  905 	sub	a, -1 (ix)
    000003E9 20 04            [12]  906 	jr	NZ, 00182$
    000003EB                        907 00181$:
                                    908 ;E:\Dropbox\FAUSTO\SVILUPPI\MSX\CODE\C\MSXgl\projects\soccerlgSCC/soccerlg_s10_b3.c:145: isHumanControlled = true;
    000003EB DD 36 FD 01      [19]  909 	ld	-3 (ix), #0x01
    000003EF                        910 00182$:
                                    911 ;E:\Dropbox\FAUSTO\SVILUPPI\MSX\CODE\C\MSXgl\projects\soccerlgSCC/soccerlg_s10_b3.c:148: if (!isHumanControlled) {
    000003EF DD 7E FD         [19]  912 	ld	a, -3 (ix)
    000003F2 B7               [ 4]  913 	or	a, a
    000003F3 C2rE8r05         [10]  914 	jp	NZ, 00231$
                                    915 ;E:\Dropbox\FAUSTO\SVILUPPI\MSX\CODE\C\MSXgl\projects\soccerlgSCC/soccerlg_s10_b3.c:150: bool inRealShootingRange = false;
    000003F6 DD 36 FA 00      [19]  916 	ld	-6 (ix), #0x00
                                    917 ;E:\Dropbox\FAUSTO\SVILUPPI\MSX\CODE\C\MSXgl\projects\soccerlgSCC/soccerlg_s10_b3.c:151: bool inDangerousZone = false;
    000003FA DD 36 FE 00      [19]  918 	ld	-2 (ix), #0x00
                                    919 ;E:\Dropbox\FAUSTO\SVILUPPI\MSX\CODE\C\MSXgl\projects\soccerlgSCC/soccerlg_s10_b3.c:154: if (playerTeamId == TEAM_1) {
    000003FE DD 7E DE         [19]  920 	ld	a, -34 (ix)
    00000401 B7               [ 4]  921 	or	a, a
    00000402 28 37            [12]  922 	jr	Z, 00196$
                                    923 ;E:\Dropbox\FAUSTO\SVILUPPI\MSX\CODE\C\MSXgl\projects\soccerlgSCC/soccerlg_s10_b3.c:158: if (g_Players[playerId].Y < (FIELD_BOUND_Y_TOP + 90)) inRealShootingRange = true;
    00000404 DD 7E EF         [19]  924 	ld	a, -17 (ix)
    00000407 DD 77 FB         [19]  925 	ld	-5 (ix), a
    0000040A DD 7E F0         [19]  926 	ld	a, -16 (ix)
    0000040D DD 77 FC         [19]  927 	ld	-4 (ix), a
    00000410 DD 7E EF         [19]  928 	ld	a, -17 (ix)
    00000413 D6 8C            [ 7]  929 	sub	a, #0x8c
    00000415 DD 7E F0         [19]  930 	ld	a, -16 (ix)
    00000418 DE 00            [ 7]  931 	sbc	a, #0x00
    0000041A 30 04            [12]  932 	jr	NC, 00188$
    0000041C DD 36 FA 01      [19]  933 	ld	-6 (ix), #0x01
    00000420                        934 00188$:
                                    935 ;E:\Dropbox\FAUSTO\SVILUPPI\MSX\CODE\C\MSXgl\projects\soccerlgSCC/soccerlg_s10_b3.c:161: if (g_Players[playerId].Y < (FIELD_BOUND_Y_TOP + 60)) inDangerousZone = true; 
    00000420 DD 7E FB         [19]  936 	ld	a, -5 (ix)
    00000423 D6 6E            [ 7]  937 	sub	a, #0x6e
    00000425 DD 7E FC         [19]  938 	ld	a, -4 (ix)
    00000428 DE 00            [ 7]  939 	sbc	a, #0x00
    0000042A 30 04            [12]  940 	jr	NC, 00190$
    0000042C DD 36 FE 01      [19]  941 	ld	-2 (ix), #0x01
    00000430                        942 00190$:
                                    943 ;E:\Dropbox\FAUSTO\SVILUPPI\MSX\CODE\C\MSXgl\projects\soccerlgSCC/soccerlg_s10_b3.c:162: goalTargetY = FIELD_BOUND_Y_TOP - 40; 
    00000430 DD 36 FB 0A      [19]  944 	ld	-5 (ix), #0x0a
    00000434 DD 36 FC 00      [19]  945 	ld	-4 (ix), #0
    00000438 C3r6Fr04         [10]  946 	jp	00197$
    0000043B                        947 00196$:
                                    948 ;E:\Dropbox\FAUSTO\SVILUPPI\MSX\CODE\C\MSXgl\projects\soccerlgSCC/soccerlg_s10_b3.c:166: if (g_Players[playerId].Y > (FIELD_BOUND_Y_BOTTOM - 90)) inRealShootingRange = true;
    0000043B DD 7E EF         [19]  949 	ld	a, -17 (ix)
    0000043E DD 77 FB         [19]  950 	ld	-5 (ix), a
    00000441 DD 7E F0         [19]  951 	ld	a, -16 (ix)
    00000444 DD 77 FC         [19]  952 	ld	-4 (ix), a
    00000447 3E 59            [ 7]  953 	ld	a, #0x59
    00000449 DD BE FB         [19]  954 	cp	a, -5 (ix)
    0000044C 3E 01            [ 7]  955 	ld	a, #0x01
    0000044E DD 9E FC         [19]  956 	sbc	a, -4 (ix)
    00000451 30 04            [12]  957 	jr	NC, 00192$
    00000453 DD 36 FA 01      [19]  958 	ld	-6 (ix), #0x01
    00000457                        959 00192$:
                                    960 ;E:\Dropbox\FAUSTO\SVILUPPI\MSX\CODE\C\MSXgl\projects\soccerlgSCC/soccerlg_s10_b3.c:169: if (g_Players[playerId].Y > (FIELD_BOUND_Y_BOTTOM - 60)) inDangerousZone = true;
    00000457 3E 77            [ 7]  961 	ld	a, #0x77
    00000459 DD BE FB         [19]  962 	cp	a, -5 (ix)
    0000045C 3E 01            [ 7]  963 	ld	a, #0x01
    0000045E DD 9E FC         [19]  964 	sbc	a, -4 (ix)
    00000461 30 04            [12]  965 	jr	NC, 00194$
    00000463 DD 36 FE 01      [19]  966 	ld	-2 (ix), #0x01
    00000467                        967 00194$:
                                    968 ;E:\Dropbox\FAUSTO\SVILUPPI\MSX\CODE\C\MSXgl\projects\soccerlgSCC/soccerlg_s10_b3.c:170: goalTargetY = FIELD_BOUND_Y_BOTTOM + 40; 
    00000467 DD 36 FB DB      [19]  969 	ld	-5 (ix), #0xdb
    0000046B DD 36 FC 01      [19]  970 	ld	-4 (ix), #0x01
    0000046F                        971 00197$:
                                    972 ;E:\Dropbox\FAUSTO\SVILUPPI\MSX\CODE\C\MSXgl\projects\soccerlgSCC/soccerlg_s10_b3.c:174: if (g_Players[playerId].Role == PLAYER_ROLE_GOALKEEPER) {
    0000046F DD 7E E1         [19]  973 	ld	a, -31 (ix)
    00000472 B7               [ 4]  974 	or	a, a
    00000473 20 08            [12]  975 	jr	NZ, 00199$
                                    976 ;E:\Dropbox\FAUSTO\SVILUPPI\MSX\CODE\C\MSXgl\projects\soccerlgSCC/soccerlg_s10_b3.c:175: inRealShootingRange = false;
    00000475 DD 36 FA 00      [19]  977 	ld	-6 (ix), #0x00
                                    978 ;E:\Dropbox\FAUSTO\SVILUPPI\MSX\CODE\C\MSXgl\projects\soccerlgSCC/soccerlg_s10_b3.c:176: inDangerousZone = false;
    00000479 DD 36 FE 00      [19]  979 	ld	-2 (ix), #0x00
    0000047D                        980 00199$:
                                    981 ;E:\Dropbox\FAUSTO\SVILUPPI\MSX\CODE\C\MSXgl\projects\soccerlgSCC/soccerlg_s10_b3.c:179: if (inRealShootingRange) {
    0000047D DD 7E FA         [19]  982 	ld	a, -6 (ix)
    00000480 B7               [ 4]  983 	or	a, a
    00000481 CArE8r05         [10]  984 	jp	Z, 00231$
                                    985 ;E:\Dropbox\FAUSTO\SVILUPPI\MSX\CODE\C\MSXgl\projects\soccerlgSCC/soccerlg_s10_b3.c:188: bool clearShot = !obstacleFrontNonGK;
    00000484 DD 7E ED         [19]  986 	ld	a, -19 (ix)
    00000487 D6 01            [ 7]  987 	sub	a,#0x01
    00000489 3E 00            [ 7]  988 	ld	a, #0x00
    0000048B 17               [ 4]  989 	rla
    0000048C DD 77 FA         [19]  990 	ld	-6 (ix), a
                                    991 ;E:\Dropbox\FAUSTO\SVILUPPI\MSX\CODE\C\MSXgl\projects\soccerlgSCC/soccerlg_s10_b3.c:191: if (inDangerousZone) clearShot = true;
    0000048F DD 7E FE         [19]  992 	ld	a, -2 (ix)
    00000492 B7               [ 4]  993 	or	a, a
    00000493 28 04            [12]  994 	jr	Z, 00201$
    00000495 DD 36 FA 01      [19]  995 	ld	-6 (ix), #0x01
    00000499                        996 00201$:
                                    997 ;E:\Dropbox\FAUSTO\SVILUPPI\MSX\CODE\C\MSXgl\projects\soccerlgSCC/soccerlg_s10_b3.c:194: if (playerTeamId == TEAM_1) {
    00000499 DD 7E DE         [19]  998 	ld	a, -34 (ix)
    0000049C B7               [ 4]  999 	or	a, a
    0000049D 28 2B            [12] 1000 	jr	Z, 00213$
                                   1001 ;E:\Dropbox\FAUSTO\SVILUPPI\MSX\CODE\C\MSXgl\projects\soccerlgSCC/soccerlg_s10_b3.c:195: if (g_Players[playerId].Y < (FIELD_BOUND_Y_TOP + 20)) {
    0000049F DD 7E EF         [19] 1002 	ld	a, -17 (ix)
    000004A2 D6 46            [ 7] 1003 	sub	a, #0x46
    000004A4 DD 7E F0         [19] 1004 	ld	a, -16 (ix)
    000004A7 DE 00            [ 7] 1005 	sbc	a, #0x00
    000004A9 30 53            [12] 1006 	jr	NC, 00214$
                                   1007 ;E:\Dropbox\FAUSTO\SVILUPPI\MSX\CODE\C\MSXgl\projects\soccerlgSCC/soccerlg_s10_b3.c:196: if (g_Players[playerId].X < (GOAL_X_MIN - 5) || g_Players[playerId].X > (GOAL_X_MAX + 5)) clearShot = false;
    000004AB DD 7E E6         [19] 1008 	ld	a, -26 (ix)
    000004AE D6 5B            [ 7] 1009 	sub	a, #0x5b
    000004B0 DD 7E E7         [19] 1010 	ld	a, -25 (ix)
    000004B3 DE 00            [ 7] 1011 	sbc	a, #0x00
    000004B5 38 0C            [12] 1012 	jr	C, 00202$
    000004B7 3E 95            [ 7] 1013 	ld	a, #0x95
    000004B9 DD BE E6         [19] 1014 	cp	a, -26 (ix)
    000004BC 3E 00            [ 7] 1015 	ld	a, #0x00
    000004BE DD 9E E7         [19] 1016 	sbc	a, -25 (ix)
    000004C1 30 3B            [12] 1017 	jr	NC, 00214$
    000004C3                       1018 00202$:
    000004C3 DD 36 FA 00      [19] 1019 	ld	-6 (ix), #0x00
    000004C7 C3rFEr04         [10] 1020 	jp	00214$
    000004CA                       1021 00213$:
                                   1022 ;E:\Dropbox\FAUSTO\SVILUPPI\MSX\CODE\C\MSXgl\projects\soccerlgSCC/soccerlg_s10_b3.c:199: if (g_Players[playerId].Y > (FIELD_BOUND_Y_BOTTOM - 20)) {
    000004CA DD 7E EF         [19] 1023 	ld	a, -17 (ix)
    000004CD DD 77 F8         [19] 1024 	ld	-8 (ix), a
    000004D0 DD 7E F0         [19] 1025 	ld	a, -16 (ix)
    000004D3 DD 77 F9         [19] 1026 	ld	-7 (ix), a
    000004D6 3E 9F            [ 7] 1027 	ld	a, #0x9f
    000004D8 DD BE F8         [19] 1028 	cp	a, -8 (ix)
    000004DB 3E 01            [ 7] 1029 	ld	a, #0x01
    000004DD DD 9E F9         [19] 1030 	sbc	a, -7 (ix)
    000004E0 30 1C            [12] 1031 	jr	NC, 00214$
                                   1032 ;E:\Dropbox\FAUSTO\SVILUPPI\MSX\CODE\C\MSXgl\projects\soccerlgSCC/soccerlg_s10_b3.c:200: if (g_Players[playerId].X < (GOAL_X_MIN - 5) || g_Players[playerId].X > (GOAL_X_MAX + 5)) clearShot = false;
    000004E2 DD 7E E6         [19] 1033 	ld	a, -26 (ix)
    000004E5 D6 5B            [ 7] 1034 	sub	a, #0x5b
    000004E7 DD 7E E7         [19] 1035 	ld	a, -25 (ix)
    000004EA DE 00            [ 7] 1036 	sbc	a, #0x00
    000004EC 38 0C            [12] 1037 	jr	C, 00207$
    000004EE 3E 95            [ 7] 1038 	ld	a, #0x95
    000004F0 DD BE E6         [19] 1039 	cp	a, -26 (ix)
    000004F3 3E 00            [ 7] 1040 	ld	a, #0x00
    000004F5 DD 9E E7         [19] 1041 	sbc	a, -25 (ix)
    000004F8 30 04            [12] 1042 	jr	NC, 00214$
    000004FA                       1043 00207$:
    000004FA DD 36 FA 00      [19] 1044 	ld	-6 (ix), #0x00
    000004FE                       1045 00214$:
                                   1046 ;E:\Dropbox\FAUSTO\SVILUPPI\MSX\CODE\C\MSXgl\projects\soccerlgSCC/soccerlg_s10_b3.c:206: if (clearShot) {
    000004FE DD 7E FA         [19] 1047 	ld	a, -6 (ix)
    00000501 B7               [ 4] 1048 	or	a, a
    00000502 CArE8r05         [10] 1049 	jp	Z, 00231$
                                   1050 ;E:\Dropbox\FAUSTO\SVILUPPI\MSX\CODE\C\MSXgl\projects\soccerlgSCC/soccerlg_s10_b3.c:208: if ((g_FrameCounter % 10) > stats->ShotFreq) return;
    00000505 3Ar00r00         [13] 1051 	ld	a, (_g_FrameCounter+0)
    00000508 DD 77 F7         [19] 1052 	ld	-9 (ix), a
    0000050B DD 36 F8 00      [19] 1053 	ld	-8 (ix), #0x00
    0000050F 11 0A 00         [10] 1054 	ld	de, #0x000a
    00000512 DD 6E F7         [19] 1055 	ld	l, -9 (ix)
                                   1056 ;	spillPairReg hl
                                   1057 ;	spillPairReg hl
    00000515 DD 66 F8         [19] 1058 	ld	h, -8 (ix)
                                   1059 ;	spillPairReg hl
                                   1060 ;	spillPairReg hl
    00000518 CDr00r00         [17] 1061 	call	__modsint
    0000051B DD 73 F9         [19] 1062 	ld	-7 (ix), e
    0000051E DD 72 FA         [19] 1063 	ld	-6 (ix), d
    00000521 DD 7E DF         [19] 1064 	ld	a, -33 (ix)
    00000524 DD 77 FD         [19] 1065 	ld	-3 (ix), a
    00000527 DD 7E E0         [19] 1066 	ld	a, -32 (ix)
    0000052A DD 77 FE         [19] 1067 	ld	-2 (ix), a
    0000052D DD 6E FD         [19] 1068 	ld	l, -3 (ix)
    00000530 DD 66 FE         [19] 1069 	ld	h, -2 (ix)
    00000533 23               [ 6] 1070 	inc	hl
    00000534 23               [ 6] 1071 	inc	hl
    00000535 7E               [ 7] 1072 	ld	a, (hl)
    00000536 DD 77 FE         [19] 1073 	ld	-2 (ix), a
    00000539 DD 77 FD         [19] 1074 	ld	-3 (ix), a
    0000053C DD 36 FE 00      [19] 1075 	ld	-2 (ix), #0x00
    00000540 DD 7E FD         [19] 1076 	ld	a, -3 (ix)
    00000543 DD 96 F9         [19] 1077 	sub	a, -7 (ix)
    00000546 DD 7E FE         [19] 1078 	ld	a, -2 (ix)
    00000549 DD 9E FA         [19] 1079 	sbc	a, -6 (ix)
    0000054C E2r51r05         [10] 1080 	jp	PO, 02150$
    0000054F EE 80            [ 7] 1081 	xor	a, #0x80
    00000551                       1082 02150$:
    00000551 F2r57r05         [10] 1083 	jp	P, 00216$
    00000554 C3r5Er1D         [10] 1084 	jp	00670$
    00000557                       1085 00216$:
                                   1086 ;E:\Dropbox\FAUSTO\SVILUPPI\MSX\CODE\C\MSXgl\projects\soccerlgSCC/soccerlg_s10_b3.c:210: u16 shotX = 86 + ((g_FrameCounter + playerId * 13) % 68);
    00000557 DD 7E FF         [19] 1087 	ld	a, -1 (ix)
    0000055A DD 77 FD         [19] 1088 	ld	-3 (ix), a
    0000055D DD 36 FE 00      [19] 1089 	ld	-2 (ix), #0x00
    00000561 4F               [ 4] 1090 	ld	c, a
    00000562 06 00            [ 7] 1091 	ld	b, #0x00
    00000564 69               [ 4] 1092 	ld	l, c
    00000565 60               [ 4] 1093 	ld	h, b
    00000566 29               [11] 1094 	add	hl, hl
    00000567 09               [11] 1095 	add	hl, bc
    00000568 29               [11] 1096 	add	hl, hl
    00000569 29               [11] 1097 	add	hl, hl
    0000056A 09               [11] 1098 	add	hl, bc
    0000056B DD 75 F9         [19] 1099 	ld	-7 (ix), l
    0000056E DD 74 FA         [19] 1100 	ld	-6 (ix), h
    00000571 DD 7E F9         [19] 1101 	ld	a, -7 (ix)
    00000574 DD 86 F7         [19] 1102 	add	a, -9 (ix)
    00000577 DD 77 FD         [19] 1103 	ld	-3 (ix), a
    0000057A DD 7E FA         [19] 1104 	ld	a, -6 (ix)
    0000057D DD 8E F8         [19] 1105 	adc	a, -8 (ix)
    00000580 DD 77 FE         [19] 1106 	ld	-2 (ix), a
    00000583 11 44 00         [10] 1107 	ld	de, #0x0044
    00000586 DD 6E FD         [19] 1108 	ld	l, -3 (ix)
                                   1109 ;	spillPairReg hl
                                   1110 ;	spillPairReg hl
    00000589 DD 66 FE         [19] 1111 	ld	h, -2 (ix)
                                   1112 ;	spillPairReg hl
                                   1113 ;	spillPairReg hl
    0000058C CDr00r00         [17] 1114 	call	__modsint
    0000058F DD 73 F9         [19] 1115 	ld	-7 (ix), e
    00000592 DD 72 FA         [19] 1116 	ld	-6 (ix), d
    00000595 DD 7E F9         [19] 1117 	ld	a, -7 (ix)
    00000598 C6 56            [ 7] 1118 	add	a, #0x56
    0000059A DD 77 FD         [19] 1119 	ld	-3 (ix), a
    0000059D DD 7E FA         [19] 1120 	ld	a, -6 (ix)
    000005A0 CE 00            [ 7] 1121 	adc	a, #0x00
    000005A2 DD 77 FE         [19] 1122 	ld	-2 (ix), a
                                   1123 ;E:\Dropbox\FAUSTO\SVILUPPI\MSX\CODE\C\MSXgl\projects\soccerlgSCC/soccerlg_s10_b3.c:213: if (stats->Speed >= 6) {
    000005A5 DD 6E DF         [19] 1124 	ld	l, -33 (ix)
    000005A8 DD 66 E0         [19] 1125 	ld	h, -32 (ix)
    000005AB 7E               [ 7] 1126 	ld	a, (hl)
    000005AC D6 06            [ 7] 1127 	sub	a, #0x06
    000005AE 38 1F            [12] 1128 	jr	C, 00223$
                                   1129 ;E:\Dropbox\FAUSTO\SVILUPPI\MSX\CODE\C\MSXgl\projects\soccerlgSCC/soccerlg_s10_b3.c:215: if ((g_FrameCounter & 3) != 0) {
    000005B0 3Ar00r00         [13] 1130 	ld	a, (_g_FrameCounter+0)
    000005B3 4F               [ 4] 1131 	ld	c, a
    000005B4 E6 03            [ 7] 1132 	and	a, #0x03
    000005B6 28 17            [12] 1133 	jr	Z, 00223$
                                   1134 ;E:\Dropbox\FAUSTO\SVILUPPI\MSX\CODE\C\MSXgl\projects\soccerlgSCC/soccerlg_s10_b3.c:216: if ((g_FrameCounter & 4) == 0) shotX = GOAL_X_MIN + 3;
    000005B8 CB 51            [ 8] 1135 	bit	2, c
    000005BA 20 0B            [12] 1136 	jr	NZ, 00218$
    000005BC DD 36 FD 63      [19] 1137 	ld	-3 (ix), #0x63
    000005C0 DD 36 FE 00      [19] 1138 	ld	-2 (ix), #0
    000005C4 C3rCFr05         [10] 1139 	jp	00223$
    000005C7                       1140 00218$:
                                   1141 ;E:\Dropbox\FAUSTO\SVILUPPI\MSX\CODE\C\MSXgl\projects\soccerlgSCC/soccerlg_s10_b3.c:217: else shotX = GOAL_X_MAX - 3;
    000005C7 DD 36 FD 8D      [19] 1142 	ld	-3 (ix), #0x8d
    000005CB DD 36 FE 00      [19] 1143 	ld	-2 (ix), #0
    000005CF                       1144 00223$:
                                   1145 ;E:\Dropbox\FAUSTO\SVILUPPI\MSX\CODE\C\MSXgl\projects\soccerlgSCC/soccerlg_s10_b3.c:221: CallFnc_VOID_16_P2(8,PerformShot,shotX, goalTargetY);
    000005CF DD 6E FB         [19] 1146 	ld	l, -5 (ix)
                                   1147 ;	spillPairReg hl
                                   1148 ;	spillPairReg hl
    000005D2 DD 66 FC         [19] 1149 	ld	h, -4 (ix)
                                   1150 ;	spillPairReg hl
                                   1151 ;	spillPairReg hl
    000005D5 E5               [11] 1152 	push	hl
    000005D6 DD 6E FD         [19] 1153 	ld	l, -3 (ix)
                                   1154 ;	spillPairReg hl
                                   1155 ;	spillPairReg hl
    000005D9 DD 66 FE         [19] 1156 	ld	h, -2 (ix)
                                   1157 ;	spillPairReg hl
                                   1158 ;	spillPairReg hl
    000005DC E5               [11] 1159 	push	hl
    000005DD 11r00r00         [10] 1160 	ld	de, #_PerformShot
    000005E0 3E 08            [ 7] 1161 	ld	a, #0x08
    000005E2 CDr00r00         [17] 1162 	call	_CallFnc_VOID_16_P2
                                   1163 ;E:\Dropbox\FAUSTO\SVILUPPI\MSX\CODE\C\MSXgl\projects\soccerlgSCC/soccerlg_s10_b3.c:222: return;
    000005E5 C3r5Er1D         [10] 1164 	jp	00670$
    000005E8                       1165 00231$:
                                   1166 ;E:\Dropbox\FAUSTO\SVILUPPI\MSX\CODE\C\MSXgl\projects\soccerlgSCC/soccerlg_s10_b3.c:228: bool shouldPass = false;
    000005E8 DD 36 FB 00      [19] 1167 	ld	-5 (ix), #0x00
                                   1168 ;E:\Dropbox\FAUSTO\SVILUPPI\MSX\CODE\C\MSXgl\projects\soccerlgSCC/soccerlg_s10_b3.c:229: bool isPanicPass = false;
    000005EC DD 36 FE 00      [19] 1169 	ld	-2 (ix), #0x00
                                   1170 ;E:\Dropbox\FAUSTO\SVILUPPI\MSX\CODE\C\MSXgl\projects\soccerlgSCC/soccerlg_s10_b3.c:235: bool checkPassing = false;
    000005F0 DD 36 FC 00      [19] 1171 	ld	-4 (ix), #0x00
                                   1172 ;E:\Dropbox\FAUSTO\SVILUPPI\MSX\CODE\C\MSXgl\projects\soccerlgSCC/soccerlg_s10_b3.c:237: if (dangerousOpponent) {
    000005F4 DD 7E EE         [19] 1173 	ld	a, -18 (ix)
    000005F7 B7               [ 4] 1174 	or	a, a
    000005F8 28 0B            [12] 1175 	jr	Z, 00244$
                                   1176 ;E:\Dropbox\FAUSTO\SVILUPPI\MSX\CODE\C\MSXgl\projects\soccerlgSCC/soccerlg_s10_b3.c:239: shouldPass = true;
    000005FA DD 36 FB 01      [19] 1177 	ld	-5 (ix), #0x01
                                   1178 ;E:\Dropbox\FAUSTO\SVILUPPI\MSX\CODE\C\MSXgl\projects\soccerlgSCC/soccerlg_s10_b3.c:240: isPanicPass = true;
    000005FE DD 36 FE 01      [19] 1179 	ld	-2 (ix), #0x01
    00000602 C3rC6r06         [10] 1180 	jp	00245$
    00000605                       1181 00244$:
                                   1182 ;E:\Dropbox\FAUSTO\SVILUPPI\MSX\CODE\C\MSXgl\projects\soccerlgSCC/soccerlg_s10_b3.c:242: else if (obstacleFront) {
    00000605 DD 7E EC         [19] 1183 	ld	a, -20 (ix)
    00000608 B7               [ 4] 1184 	or	a, a
    00000609 28 67            [12] 1185 	jr	Z, 00241$
                                   1186 ;E:\Dropbox\FAUSTO\SVILUPPI\MSX\CODE\C\MSXgl\projects\soccerlgSCC/soccerlg_s10_b3.c:245: bool canGoRight = (g_Players[playerId].X < FIELD_BOUND_X_RIGHT - 20) && !obstacleRight;
    0000060B DD 7E E6         [19] 1187 	ld	a, -26 (ix)
    0000060E D6 D8            [ 7] 1188 	sub	a, #0xd8
    00000610 DD 7E E7         [19] 1189 	ld	a, -25 (ix)
    00000613 DE 00            [ 7] 1190 	sbc	a, #0x00
    00000615 30 06            [12] 1191 	jr	NC, 00676$
    00000617 DD 7E EA         [19] 1192 	ld	a, -22 (ix)
    0000061A B7               [ 4] 1193 	or	a, a
    0000061B 28 07            [12] 1194 	jr	Z, 00677$
    0000061D                       1195 00676$:
    0000061D DD 36 FB 00      [19] 1196 	ld	-5 (ix), #0x00
    00000621 C3r28r06         [10] 1197 	jp	00678$
    00000624                       1198 00677$:
    00000624 DD 36 FB 01      [19] 1199 	ld	-5 (ix), #0x01
    00000628                       1200 00678$:
                                   1201 ;E:\Dropbox\FAUSTO\SVILUPPI\MSX\CODE\C\MSXgl\projects\soccerlgSCC/soccerlg_s10_b3.c:246: bool canGoLeft = (g_Players[playerId].X > FIELD_BOUND_X_LEFT + 20) && !obstacleLeft;
    00000628 3E 1E            [ 7] 1202 	ld	a, #0x1e
    0000062A DD BE E6         [19] 1203 	cp	a, -26 (ix)
    0000062D 3E 00            [ 7] 1204 	ld	a, #0x00
    0000062F DD 9E E7         [19] 1205 	sbc	a, -25 (ix)
    00000632 30 06            [12] 1206 	jr	NC, 00679$
    00000634 DD 7E EB         [19] 1207 	ld	a, -21 (ix)
    00000637 B7               [ 4] 1208 	or	a, a
    00000638 28 07            [12] 1209 	jr	Z, 00680$
    0000063A                       1210 00679$:
    0000063A DD 36 FA 00      [19] 1211 	ld	-6 (ix), #0x00
    0000063E C3r45r06         [10] 1212 	jp	00681$
    00000641                       1213 00680$:
    00000641 DD 36 FA 01      [19] 1214 	ld	-6 (ix), #0x01
    00000645                       1215 00681$:
    00000645 DD 4E FA         [19] 1216 	ld	c, -6 (ix)
                                   1217 ;E:\Dropbox\FAUSTO\SVILUPPI\MSX\CODE\C\MSXgl\projects\soccerlgSCC/soccerlg_s10_b3.c:248: if (canGoRight || canGoLeft) {
    00000648 DD 7E FB         [19] 1218 	ld	a, -5 (ix)
    0000064B B7               [ 4] 1219 	or	a,a
    0000064C 20 03            [12] 1220 	jr	NZ, 00234$
    0000064E B1               [ 4] 1221 	or	a,c
    0000064F 28 16            [12] 1222 	jr	Z, 00235$
    00000651                       1223 00234$:
                                   1224 ;E:\Dropbox\FAUSTO\SVILUPPI\MSX\CODE\C\MSXgl\projects\soccerlgSCC/soccerlg_s10_b3.c:250: shouldPass = false;
    00000651 DD 36 FB 00      [19] 1225 	ld	-5 (ix), #0x00
                                   1226 ;E:\Dropbox\FAUSTO\SVILUPPI\MSX\CODE\C\MSXgl\projects\soccerlgSCC/soccerlg_s10_b3.c:252: if (stats->Speed >= 6) {
    00000655 DD 6E DF         [19] 1227 	ld	l, -33 (ix)
    00000658 DD 66 E0         [19] 1228 	ld	h, -32 (ix)
    0000065B 7E               [ 7] 1229 	ld	a, (hl)
    0000065C D6 06            [ 7] 1230 	sub	a, #0x06
    0000065E 38 66            [12] 1231 	jr	C, 00245$
                                   1232 ;E:\Dropbox\FAUSTO\SVILUPPI\MSX\CODE\C\MSXgl\projects\soccerlgSCC/soccerlg_s10_b3.c:253: shouldPass = true;
    00000660 DD 36 FB 01      [19] 1233 	ld	-5 (ix), #0x01
    00000664 C3rC6r06         [10] 1234 	jp	00245$
    00000667                       1235 00235$:
                                   1236 ;E:\Dropbox\FAUSTO\SVILUPPI\MSX\CODE\C\MSXgl\projects\soccerlgSCC/soccerlg_s10_b3.c:257: shouldPass = true;
    00000667 DD 36 FB 01      [19] 1237 	ld	-5 (ix), #0x01
                                   1238 ;E:\Dropbox\FAUSTO\SVILUPPI\MSX\CODE\C\MSXgl\projects\soccerlgSCC/soccerlg_s10_b3.c:258: isPanicPass = true;
    0000066B DD 36 FE 01      [19] 1239 	ld	-2 (ix), #0x01
    0000066F C3rC6r06         [10] 1240 	jp	00245$
    00000672                       1241 00241$:
                                   1242 ;E:\Dropbox\FAUSTO\SVILUPPI\MSX\CODE\C\MSXgl\projects\soccerlgSCC/soccerlg_s10_b3.c:264: if ((g_FrameCounter % 10) < stats->PassFreq) checkPassing = true;
    00000672 3Ar00r00         [13] 1243 	ld	a, (_g_FrameCounter+0)
    00000675 DD 77 F9         [19] 1244 	ld	-7 (ix), a
    00000678 DD 36 FA 00      [19] 1245 	ld	-6 (ix), #0x00
    0000067C 11 0A 00         [10] 1246 	ld	de, #0x000a
    0000067F DD 6E F9         [19] 1247 	ld	l, -7 (ix)
                                   1248 ;	spillPairReg hl
                                   1249 ;	spillPairReg hl
    00000682 DD 66 FA         [19] 1250 	ld	h, -6 (ix)
                                   1251 ;	spillPairReg hl
                                   1252 ;	spillPairReg hl
    00000685 CDr00r00         [17] 1253 	call	__modsint
    00000688 DD 73 F7         [19] 1254 	ld	-9 (ix), e
    0000068B DD 72 F8         [19] 1255 	ld	-8 (ix), d
    0000068E DD 7E DF         [19] 1256 	ld	a, -33 (ix)
    00000691 DD 77 F9         [19] 1257 	ld	-7 (ix), a
    00000694 DD 7E E0         [19] 1258 	ld	a, -32 (ix)
    00000697 DD 77 FA         [19] 1259 	ld	-6 (ix), a
    0000069A DD 6E F9         [19] 1260 	ld	l, -7 (ix)
    0000069D DD 66 FA         [19] 1261 	ld	h, -6 (ix)
    000006A0 23               [ 6] 1262 	inc	hl
    000006A1 23               [ 6] 1263 	inc	hl
    000006A2 23               [ 6] 1264 	inc	hl
    000006A3 7E               [ 7] 1265 	ld	a, (hl)
    000006A4 DD 77 FA         [19] 1266 	ld	-6 (ix), a
    000006A7 DD 77 F9         [19] 1267 	ld	-7 (ix), a
    000006AA DD 36 FA 00      [19] 1268 	ld	-6 (ix), #0x00
    000006AE DD 7E F7         [19] 1269 	ld	a, -9 (ix)
    000006B1 DD 96 F9         [19] 1270 	sub	a, -7 (ix)
    000006B4 DD 7E F8         [19] 1271 	ld	a, -8 (ix)
    000006B7 DD 9E FA         [19] 1272 	sbc	a, -6 (ix)
    000006BA E2rBFr06         [10] 1273 	jp	PO, 02154$
    000006BD EE 80            [ 7] 1274 	xor	a, #0x80
    000006BF                       1275 02154$:
    000006BF F2rC6r06         [10] 1276 	jp	P, 00245$
    000006C2 DD 36 FC 01      [19] 1277 	ld	-4 (ix), #0x01
    000006C6                       1278 00245$:
                                   1279 ;E:\Dropbox\FAUSTO\SVILUPPI\MSX\CODE\C\MSXgl\projects\soccerlgSCC/soccerlg_s10_b3.c:267: if (checkPassing) {
    000006C6 DD 7E FC         [19] 1280 	ld	a, -4 (ix)
    000006C9 B7               [ 4] 1281 	or	a, a
    000006CA 28 08            [12] 1282 	jr	Z, 00247$
                                   1283 ;E:\Dropbox\FAUSTO\SVILUPPI\MSX\CODE\C\MSXgl\projects\soccerlgSCC/soccerlg_s10_b3.c:270: shouldPass = true; 
    000006CC DD 36 FB 01      [19] 1284 	ld	-5 (ix), #0x01
                                   1285 ;E:\Dropbox\FAUSTO\SVILUPPI\MSX\CODE\C\MSXgl\projects\soccerlgSCC/soccerlg_s10_b3.c:271: isPanicPass = false;
    000006D0 DD 36 FE 00      [19] 1286 	ld	-2 (ix), #0x00
    000006D4                       1287 00247$:
                                   1288 ;E:\Dropbox\FAUSTO\SVILUPPI\MSX\CODE\C\MSXgl\projects\soccerlgSCC/soccerlg_s10_b3.c:274: if (shouldPass) {
    000006D4 DD 7E FB         [19] 1289 	ld	a, -5 (ix)
    000006D7 B7               [ 4] 1290 	or	a, a
    000006D8 CAr99r09         [10] 1291 	jp	Z, 00294$
                                   1292 ;E:\Dropbox\FAUSTO\SVILUPPI\MSX\CODE\C\MSXgl\projects\soccerlgSCC/soccerlg_s10_b3.c:275: if (!isHumanControlled) {
    000006DB DD 7E FD         [19] 1293 	ld	a, -3 (ix)
    000006DE B7               [ 4] 1294 	or	a, a
    000006DF C2r99r09         [10] 1295 	jp	NZ, 00294$
                                   1296 ;E:\Dropbox\FAUSTO\SVILUPPI\MSX\CODE\C\MSXgl\projects\soccerlgSCC/soccerlg_s10_b3.c:276: u8 bestT = NO_VALUE;
    000006E2 DD 36 F7 FF      [19] 1297 	ld	-9 (ix), #0xff
                                   1298 ;E:\Dropbox\FAUSTO\SVILUPPI\MSX\CODE\C\MSXgl\projects\soccerlgSCC/soccerlg_s10_b3.c:277: i16 bestScore = -30000;
    000006E6 DD 36 F8 D0      [19] 1299 	ld	-8 (ix), #0xd0
    000006EA DD 36 F9 8A      [19] 1300 	ld	-7 (ix), #0x8a
                                   1301 ;E:\Dropbox\FAUSTO\SVILUPPI\MSX\CODE\C\MSXgl\projects\soccerlgSCC/soccerlg_s10_b3.c:279: for(t=0; t<14; t++) {
    000006EE DD 7E DF         [19] 1302 	ld	a, -33 (ix)
    000006F1 C6 03            [ 7] 1303 	add	a, #0x03
    000006F3 DD 77 FA         [19] 1304 	ld	-6 (ix), a
    000006F6 DD 7E E0         [19] 1305 	ld	a, -32 (ix)
    000006F9 CE 00            [ 7] 1306 	adc	a, #0x00
    000006FB DD 77 FB         [19] 1307 	ld	-5 (ix), a
    000006FE AF               [ 4] 1308 	xor	a, a
    000006FF DD 77 FC         [19] 1309 	ld	-4 (ix), a
    00000702 DD 77 FD         [19] 1310 	ld	-3 (ix), a
    00000705                       1311 00659$:
                                   1312 ;E:\Dropbox\FAUSTO\SVILUPPI\MSX\CODE\C\MSXgl\projects\soccerlgSCC/soccerlg_s10_b3.c:280: if(g_Players[t].TeamId != playerTeamId) continue;
    00000705 DD 4E FC         [19] 1313 	ld	c, -4 (ix)
    00000708 DD 46 FD         [19] 1314 	ld	b, -3 (ix)
    0000070B 69               [ 4] 1315 	ld	l, c
    0000070C 60               [ 4] 1316 	ld	h, b
    0000070D 29               [11] 1317 	add	hl, hl
    0000070E 29               [11] 1318 	add	hl, hl
    0000070F 09               [11] 1319 	add	hl, bc
    00000710 29               [11] 1320 	add	hl, hl
    00000711 29               [11] 1321 	add	hl, hl
    00000712 09               [11] 1322 	add	hl, bc
    00000713 EB               [ 4] 1323 	ex	de, hl
    00000714 21r00r00         [10] 1324 	ld	hl, #_g_Players
    00000717 19               [11] 1325 	add	hl, de
    00000718 DD 75 F5         [19] 1326 	ld	-11 (ix), l
    0000071B DD 74 F6         [19] 1327 	ld	-10 (ix), h
    0000071E 01 09 00         [10] 1328 	ld	bc,#9
    00000721 09               [11] 1329 	add	hl,bc
    00000722 DD 7E DD         [19] 1330 	ld	a,-35 (ix)
    00000725 96               [ 7] 1331 	sub	a,(hl)
    00000726 C2r1Cr09         [10] 1332 	jp	NZ,00283$
                                   1333 ;E:\Dropbox\FAUSTO\SVILUPPI\MSX\CODE\C\MSXgl\projects\soccerlgSCC/soccerlg_s10_b3.c:281: if(t == playerId) continue;
    00000729 DD 4E FF         [19] 1334 	ld	c, -1 (ix)
    0000072C 06 00            [ 7] 1335 	ld	b, #0x00
    0000072E DD 6E FC         [19] 1336 	ld	l, -4 (ix)
    00000731 DD 66 FD         [19] 1337 	ld	h, -3 (ix)
    00000734 BF               [ 4] 1338 	cp	a, a
    00000735 ED 42            [15] 1339 	sbc	hl, bc
    00000737 CAr1Cr09         [10] 1340 	jp	Z,00283$
                                   1341 ;E:\Dropbox\FAUSTO\SVILUPPI\MSX\CODE\C\MSXgl\projects\soccerlgSCC/soccerlg_s10_b3.c:283: if (stats->PassFreq < 8) {
    0000073A DD 6E FA         [19] 1342 	ld	l, -6 (ix)
    0000073D DD 66 FB         [19] 1343 	ld	h, -5 (ix)
    00000740 7E               [ 7] 1344 	ld	a, (hl)
    00000741 D6 08            [ 7] 1345 	sub	a, #0x08
    00000743 30 10            [12] 1346 	jr	NC, 00255$
                                   1347 ;E:\Dropbox\FAUSTO\SVILUPPI\MSX\CODE\C\MSXgl\projects\soccerlgSCC/soccerlg_s10_b3.c:284: if(g_Players[t].Status == PLAYER_STATUS_NONE) continue;
    00000745 DD 4E F5         [19] 1348 	ld	c, -11 (ix)
    00000748 DD 46 F6         [19] 1349 	ld	b, -10 (ix)
    0000074B 21 12 00         [10] 1350 	ld	hl, #18
    0000074E 09               [11] 1351 	add	hl, bc
    0000074F 7E               [ 7] 1352 	ld	a, (hl)
    00000750 23               [ 6] 1353 	inc	hl
    00000751 B6               [ 7] 1354 	or	a, (hl)
    00000752 CAr1Cr09         [10] 1355 	jp	Z, 00283$
    00000755                       1356 00255$:
                                   1357 ;E:\Dropbox\FAUSTO\SVILUPPI\MSX\CODE\C\MSXgl\projects\soccerlgSCC/soccerlg_s10_b3.c:286: if(g_Players[t].Role == PLAYER_ROLE_GOALKEEPER) continue;
    00000755 DD 4E F5         [19] 1358 	ld	c, -11 (ix)
    00000758 DD 46 F6         [19] 1359 	ld	b, -10 (ix)
    0000075B 21 0D 00         [10] 1360 	ld	hl, #13
    0000075E 09               [11] 1361 	add	hl, bc
    0000075F 7E               [ 7] 1362 	ld	a, (hl)
    00000760 B7               [ 4] 1363 	or	a, a
    00000761 CAr1Cr09         [10] 1364 	jp	Z, 00283$
                                   1365 ;E:\Dropbox\FAUSTO\SVILUPPI\MSX\CODE\C\MSXgl\projects\soccerlgSCC/soccerlg_s10_b3.c:289: bool isOffside=CallFnc_BOOL_P1(5,IsOffside,t);
    00000764 DD 7E FC         [19] 1366 	ld	a, -4 (ix)
    00000767 DD 77 F0         [19] 1367 	ld	-16 (ix), a
    0000076A F5               [11] 1368 	push	af
    0000076B 33               [ 6] 1369 	inc	sp
    0000076C 11r00r00         [10] 1370 	ld	de, #_IsOffside
    0000076F 3E 05            [ 7] 1371 	ld	a, #0x05
    00000771 CDr00r00         [17] 1372 	call	_CallFnc_BOOL_P1
                                   1373 ;E:\Dropbox\FAUSTO\SVILUPPI\MSX\CODE\C\MSXgl\projects\soccerlgSCC/soccerlg_s10_b3.c:290: if (isOffside) continue;
    00000774 B7               [ 4] 1374 	or	a, a
    00000775 C2r1Cr09         [10] 1375 	jp	NZ, 00283$
                                   1376 ;E:\Dropbox\FAUSTO\SVILUPPI\MSX\CODE\C\MSXgl\projects\soccerlgSCC/soccerlg_s10_b3.c:292: i16 dx = (i16)g_Players[t].X - (i16)g_Players[playerId].X;
    00000778 DD 6E F5         [19] 1377 	ld	l, -11 (ix)
                                   1378 ;	spillPairReg hl
                                   1379 ;	spillPairReg hl
    0000077B DD 66 F6         [19] 1380 	ld	h, -10 (ix)
                                   1381 ;	spillPairReg hl
                                   1382 ;	spillPairReg hl
    0000077E 23               [ 6] 1383 	inc	hl
    0000077F 23               [ 6] 1384 	inc	hl
    00000780 4E               [ 7] 1385 	ld	c, (hl)
    00000781 23               [ 6] 1386 	inc	hl
    00000782 46               [ 7] 1387 	ld	b, (hl)
    00000783 DD 6E E4         [19] 1388 	ld	l, -28 (ix)
    00000786 DD 66 E5         [19] 1389 	ld	h, -27 (ix)
    00000789 5E               [ 7] 1390 	ld	e, (hl)
    0000078A 23               [ 6] 1391 	inc	hl
    0000078B 56               [ 7] 1392 	ld	d, (hl)
    0000078C 79               [ 4] 1393 	ld	a, c
    0000078D 93               [ 4] 1394 	sub	a, e
    0000078E 4F               [ 4] 1395 	ld	c, a
    0000078F 78               [ 4] 1396 	ld	a, b
    00000790 9A               [ 4] 1397 	sbc	a, d
    00000791 DD 71 EE         [19] 1398 	ld	-18 (ix), c
    00000794 DD 77 EF         [19] 1399 	ld	-17 (ix), a
                                   1400 ;E:\Dropbox\FAUSTO\SVILUPPI\MSX\CODE\C\MSXgl\projects\soccerlgSCC/soccerlg_s10_b3.c:293: i16 dy = (i16)g_Players[t].Y - (i16)g_Players[playerId].Y;
    00000797 DD 6E F5         [19] 1401 	ld	l, -11 (ix)
    0000079A DD 66 F6         [19] 1402 	ld	h, -10 (ix)
    0000079D 7E               [ 7] 1403 	ld	a, (hl)
    0000079E DD 77 F1         [19] 1404 	ld	-15 (ix), a
    000007A1 23               [ 6] 1405 	inc	hl
    000007A2 7E               [ 7] 1406 	ld	a, (hl)
    000007A3 DD 77 F2         [19] 1407 	ld	-14 (ix), a
    000007A6 DD 4E F1         [19] 1408 	ld	c, -15 (ix)
    000007A9 DD 46 F2         [19] 1409 	ld	b, -14 (ix)
    000007AC E1               [10] 1410 	pop	hl
    000007AD E5               [11] 1411 	push	hl
    000007AE 5E               [ 7] 1412 	ld	e, (hl)
    000007AF 23               [ 6] 1413 	inc	hl
    000007B0 56               [ 7] 1414 	ld	d, (hl)
    000007B1 79               [ 4] 1415 	ld	a, c
    000007B2 93               [ 4] 1416 	sub	a, e
    000007B3 DD 77 F5         [19] 1417 	ld	-11 (ix), a
    000007B6 78               [ 4] 1418 	ld	a, b
    000007B7 9A               [ 4] 1419 	sbc	a, d
    000007B8 DD 77 F6         [19] 1420 	ld	-10 (ix), a
    000007BB DD 7E F5         [19] 1421 	ld	a, -11 (ix)
    000007BE DD 77 F3         [19] 1422 	ld	-13 (ix), a
    000007C1 DD 7E F6         [19] 1423 	ld	a, -10 (ix)
    000007C4 DD 77 F4         [19] 1424 	ld	-12 (ix), a
                                   1425 ;E:\Dropbox\FAUSTO\SVILUPPI\MSX\CODE\C\MSXgl\projects\soccerlgSCC/soccerlg_s10_b3.c:294: u16 adx = (dx < 0) ? -dx : dx;
    000007C7 DD 7E EE         [19] 1426 	ld	a, -18 (ix)
    000007CA DD 77 F5         [19] 1427 	ld	-11 (ix), a
    000007CD DD 7E EF         [19] 1428 	ld	a, -17 (ix)
    000007D0 DD 77 F6         [19] 1429 	ld	-10 (ix), a
    000007D3 DD CB F6 7E      [20] 1430 	bit	7, -10 (ix)
    000007D7 28 11            [12] 1431 	jr	Z, 00682$
    000007D9 AF               [ 4] 1432 	xor	a, a
    000007DA DD 96 EE         [19] 1433 	sub	a, -18 (ix)
    000007DD DD 77 F5         [19] 1434 	ld	-11 (ix), a
    000007E0 9F               [ 4] 1435 	sbc	a, a
    000007E1 DD 96 EF         [19] 1436 	sub	a, -17 (ix)
    000007E4 DD 77 F6         [19] 1437 	ld	-10 (ix), a
    000007E7 C3rF6r07         [10] 1438 	jp	00683$
    000007EA                       1439 00682$:
    000007EA DD 7E EE         [19] 1440 	ld	a, -18 (ix)
    000007ED DD 77 F5         [19] 1441 	ld	-11 (ix), a
    000007F0 DD 7E EF         [19] 1442 	ld	a, -17 (ix)
    000007F3 DD 77 F6         [19] 1443 	ld	-10 (ix), a
    000007F6                       1444 00683$:
                                   1445 ;E:\Dropbox\FAUSTO\SVILUPPI\MSX\CODE\C\MSXgl\projects\soccerlgSCC/soccerlg_s10_b3.c:295: u16 ady = (dy < 0) ? -dy : dy;
    000007F6 DD 46 F4         [19] 1446 	ld	b, -12 (ix)
    000007F9 CB 78            [ 8] 1447 	bit	7, b
    000007FB 28 11            [12] 1448 	jr	Z, 00684$
    000007FD AF               [ 4] 1449 	xor	a, a
    000007FE DD 96 F3         [19] 1450 	sub	a, -13 (ix)
    00000801 DD 77 EE         [19] 1451 	ld	-18 (ix), a
    00000804 9F               [ 4] 1452 	sbc	a, a
    00000805 DD 96 F4         [19] 1453 	sub	a, -12 (ix)
    00000808 DD 77 EF         [19] 1454 	ld	-17 (ix), a
    0000080B C3r1Ar08         [10] 1455 	jp	00685$
    0000080E                       1456 00684$:
    0000080E DD 7E F3         [19] 1457 	ld	a, -13 (ix)
    00000811 DD 77 EE         [19] 1458 	ld	-18 (ix), a
    00000814 DD 7E F4         [19] 1459 	ld	a, -12 (ix)
    00000817 DD 77 EF         [19] 1460 	ld	-17 (ix), a
    0000081A                       1461 00685$:
    0000081A DD 4E EE         [19] 1462 	ld	c, -18 (ix)
    0000081D DD 46 EF         [19] 1463 	ld	b, -17 (ix)
                                   1464 ;E:\Dropbox\FAUSTO\SVILUPPI\MSX\CODE\C\MSXgl\projects\soccerlgSCC/soccerlg_s10_b3.c:296: if (adx < 40 && ady < 40) continue; // Minimum pass distance
    00000820 DD 7E F5         [19] 1465 	ld	a, -11 (ix)
    00000823 D6 28            [ 7] 1466 	sub	a, #0x28
    00000825 DD 7E F6         [19] 1467 	ld	a, -10 (ix)
    00000828 DE 00            [ 7] 1468 	sbc	a, #0x00
    0000082A 30 09            [12] 1469 	jr	NC, 00261$
    0000082C 79               [ 4] 1470 	ld	a, c
    0000082D D6 28            [ 7] 1471 	sub	a, #0x28
    0000082F 78               [ 4] 1472 	ld	a, b
    00000830 DE 00            [ 7] 1473 	sbc	a, #0x00
    00000832 DAr1Cr09         [10] 1474 	jp	C, 00283$
    00000835                       1475 00261$:
                                   1476 ;E:\Dropbox\FAUSTO\SVILUPPI\MSX\CODE\C\MSXgl\projects\soccerlgSCC/soccerlg_s10_b3.c:299: if (g_Players[t].Y < g_FieldCurrentYPosition - 40 || 
    00000835 3Ar00r00         [13] 1477 	ld	a, (_g_FieldCurrentYPosition+0)
    00000838 C6 D8            [ 7] 1478 	add	a, #0xd8
    0000083A 5F               [ 4] 1479 	ld	e, a
    0000083B 3Ar01r00         [13] 1480 	ld	a, (_g_FieldCurrentYPosition+1)
    0000083E CE FF            [ 7] 1481 	adc	a, #0xff
    00000840 57               [ 4] 1482 	ld	d, a
    00000841 DD 4E F1         [19] 1483 	ld	c, -15 (ix)
    00000844 DD 46 F2         [19] 1484 	ld	b, -14 (ix)
    00000847 79               [ 4] 1485 	ld	a, c
    00000848 93               [ 4] 1486 	sub	a, e
    00000849 78               [ 4] 1487 	ld	a, b
    0000084A 9A               [ 4] 1488 	sbc	a, d
    0000084B DAr1Cr09         [10] 1489 	jp	C, 00283$
                                   1490 ;E:\Dropbox\FAUSTO\SVILUPPI\MSX\CODE\C\MSXgl\projects\soccerlgSCC/soccerlg_s10_b3.c:300: g_Players[t].Y > (g_FieldCurrentYPosition + 252)) continue;
    0000084E 2Ar00r00         [16] 1491 	ld	hl, (_g_FieldCurrentYPosition)
    00000851 11 FC 00         [10] 1492 	ld	de, #0x00fc
    00000854 19               [11] 1493 	add	hl, de
    00000855 AF               [ 4] 1494 	xor	a, a
    00000856 ED 42            [15] 1495 	sbc	hl, bc
    00000858 DAr1Cr09         [10] 1496 	jp	C, 00283$
                                   1497 ;E:\Dropbox\FAUSTO\SVILUPPI\MSX\CODE\C\MSXgl\projects\soccerlgSCC/soccerlg_s10_b3.c:302: i16 advanceScore = (playerTeamId == TEAM_1) ? -dy : dy;
    0000085B DD 7E DE         [19] 1498 	ld	a, -34 (ix)
    0000085E B7               [ 4] 1499 	or	a, a
    0000085F 28 0C            [12] 1500 	jr	Z, 00686$
    00000861 AF               [ 4] 1501 	xor	a, a
    00000862 DD 96 F3         [19] 1502 	sub	a, -13 (ix)
    00000865 4F               [ 4] 1503 	ld	c, a
    00000866 9F               [ 4] 1504 	sbc	a, a
    00000867 DD 96 F4         [19] 1505 	sub	a, -12 (ix)
    0000086A C3r73r08         [10] 1506 	jp	00687$
    0000086D                       1507 00686$:
    0000086D DD 4E F3         [19] 1508 	ld	c, -13 (ix)
    00000870 DD 7E F4         [19] 1509 	ld	a, -12 (ix)
    00000873                       1510 00687$:
    00000873 47               [ 4] 1511 	ld	b, a
                                   1512 ;E:\Dropbox\FAUSTO\SVILUPPI\MSX\CODE\C\MSXgl\projects\soccerlgSCC/soccerlg_s10_b3.c:305: if (!isPanicPass) {
    00000874 DD 7E FE         [19] 1513 	ld	a, -2 (ix)
    00000877 B7               [ 4] 1514 	or	a, a
    00000878 20 51            [12] 1515 	jr	NZ, 00276$
                                   1516 ;E:\Dropbox\FAUSTO\SVILUPPI\MSX\CODE\C\MSXgl\projects\soccerlgSCC/soccerlg_s10_b3.c:306: bool highSkill = (stats->PassFreq >= 8);
    0000087A DD 6E FA         [19] 1517 	ld	l, -6 (ix)
    0000087D DD 66 FB         [19] 1518 	ld	h, -5 (ix)
    00000880 7E               [ 7] 1519 	ld	a, (hl)
    00000881 D6 08            [ 7] 1520 	sub	a, #0x08
    00000883 3E 00            [ 7] 1521 	ld	a, #0x00
    00000885 17               [ 4] 1522 	rla
    00000886 EE 01            [ 7] 1523 	xor	a, #0x01
    00000888 5F               [ 4] 1524 	ld	e, a
                                   1525 ;E:\Dropbox\FAUSTO\SVILUPPI\MSX\CODE\C\MSXgl\projects\soccerlgSCC/soccerlg_s10_b3.c:307: bool allowSwitch = (highSkill && adx > 60); // Strong teams switch play (easier width)
    00000889 B7               [ 4] 1526 	or	a, a
    0000088A 28 0C            [12] 1527 	jr	Z, 00688$
    0000088C 3E 3C            [ 7] 1528 	ld	a, #0x3c
    0000088E DD BE F5         [19] 1529 	cp	a, -11 (ix)
    00000891 3E 00            [ 7] 1530 	ld	a, #0x00
    00000893 DD 9E F6         [19] 1531 	sbc	a, -10 (ix)
    00000896 38 04            [12] 1532 	jr	C, 00689$
    00000898                       1533 00688$:
    00000898 AF               [ 4] 1534 	xor	a, a
    00000899 C3r9Er08         [10] 1535 	jp	00690$
    0000089C                       1536 00689$:
    0000089C 3E 01            [ 7] 1537 	ld	a, #0x01
    0000089E                       1538 00690$:
                                   1539 ;E:\Dropbox\FAUSTO\SVILUPPI\MSX\CODE\C\MSXgl\projects\soccerlgSCC/soccerlg_s10_b3.c:308: if (allowSwitch) {
    0000089E B7               [ 4] 1540 	or	a, a
    0000089F 28 0E            [12] 1541 	jr	Z, 00271$
                                   1542 ;E:\Dropbox\FAUSTO\SVILUPPI\MSX\CODE\C\MSXgl\projects\soccerlgSCC/soccerlg_s10_b3.c:309: if (advanceScore < -10) continue; // Allow flat/slight back for wide balls
    000008A1 79               [ 4] 1543 	ld	a, c
    000008A2 D6 F6            [ 7] 1544 	sub	a, #0xf6
    000008A4 78               [ 4] 1545 	ld	a, b
    000008A5 17               [ 4] 1546 	rla
    000008A6 3F               [ 4] 1547 	ccf
    000008A7 1F               [ 4] 1548 	rra
    000008A8 DE 7F            [ 7] 1549 	sbc	a, #0x7f
    000008AA 30 2C            [12] 1550 	jr	NC, 00277$
    000008AC C3r1Cr09         [10] 1551 	jp	00283$
    000008AF                       1552 00271$:
                                   1553 ;E:\Dropbox\FAUSTO\SVILUPPI\MSX\CODE\C\MSXgl\projects\soccerlgSCC/soccerlg_s10_b3.c:311: i16 minAdv = highSkill ? 20 : 40;
    000008AF 7B               [ 4] 1554 	ld	a, e
    000008B0 B7               [ 4] 1555 	or	a, a
    000008B1 28 06            [12] 1556 	jr	Z, 00691$
    000008B3 11 14 00         [10] 1557 	ld	de, #0x0014
    000008B6 C3rBCr08         [10] 1558 	jp	00692$
    000008B9                       1559 00691$:
    000008B9 11 28 00         [10] 1560 	ld	de, #0x0028
    000008BC                       1561 00692$:
                                   1562 ;E:\Dropbox\FAUSTO\SVILUPPI\MSX\CODE\C\MSXgl\projects\soccerlgSCC/soccerlg_s10_b3.c:312: if (advanceScore < minAdv) continue; // Must gain ground
    000008BC 79               [ 4] 1563 	ld	a, c
    000008BD 93               [ 4] 1564 	sub	a, e
    000008BE 78               [ 4] 1565 	ld	a, b
    000008BF 9A               [ 4] 1566 	sbc	a, d
    000008C0 E2rC5r08         [10] 1567 	jp	PO, 02158$
    000008C3 EE 80            [ 7] 1568 	xor	a, #0x80
    000008C5                       1569 02158$:
    000008C5 FAr1Cr09         [10] 1570 	jp	M, 00283$
    000008C8 C3rD8r08         [10] 1571 	jp	00277$
    000008CB                       1572 00276$:
                                   1573 ;E:\Dropbox\FAUSTO\SVILUPPI\MSX\CODE\C\MSXgl\projects\soccerlgSCC/soccerlg_s10_b3.c:316: if (advanceScore < -150) continue;
    000008CB 59               [ 4] 1574 	ld	e, c
    000008CC 50               [ 4] 1575 	ld	d, b
    000008CD 7B               [ 4] 1576 	ld	a, e
    000008CE D6 6A            [ 7] 1577 	sub	a, #0x6a
    000008D0 7A               [ 4] 1578 	ld	a, d
    000008D1 17               [ 4] 1579 	rla
    000008D2 3F               [ 4] 1580 	ccf
    000008D3 1F               [ 4] 1581 	rra
    000008D4 DE 7F            [ 7] 1582 	sbc	a, #0x7f
    000008D6 38 44            [12] 1583 	jr	C, 00283$
    000008D8                       1584 00277$:
                                   1585 ;E:\Dropbox\FAUSTO\SVILUPPI\MSX\CODE\C\MSXgl\projects\soccerlgSCC/soccerlg_s10_b3.c:320: if (stats->PassFreq >= 8) {
    000008D8 DD 6E FA         [19] 1586 	ld	l, -6 (ix)
    000008DB DD 66 FB         [19] 1587 	ld	h, -5 (ix)
    000008DE 6E               [ 7] 1588 	ld	l, (hl)
                                   1589 ;	spillPairReg hl
                                   1590 ;E:\Dropbox\FAUSTO\SVILUPPI\MSX\CODE\C\MSXgl\projects\soccerlgSCC/soccerlg_s10_b3.c:321: score = advanceScore + (adx/4); // Reward width (Switch play)
    000008DF DD 5E F5         [19] 1591 	ld	e, -11 (ix)
    000008E2 DD 56 F6         [19] 1592 	ld	d, -10 (ix)
    000008E5 CB 3A            [ 8] 1593 	srl	d
    000008E7 CB 1B            [ 8] 1594 	rr	e
    000008E9 CB 3A            [ 8] 1595 	srl	d
    000008EB CB 1B            [ 8] 1596 	rr	e
                                   1597 ;E:\Dropbox\FAUSTO\SVILUPPI\MSX\CODE\C\MSXgl\projects\soccerlgSCC/soccerlg_s10_b3.c:320: if (stats->PassFreq >= 8) {
    000008ED 7D               [ 4] 1598 	ld	a, l
    000008EE D6 08            [ 7] 1599 	sub	a, #0x08
    000008F0 38 08            [12] 1600 	jr	C, 00279$
                                   1601 ;E:\Dropbox\FAUSTO\SVILUPPI\MSX\CODE\C\MSXgl\projects\soccerlgSCC/soccerlg_s10_b3.c:321: score = advanceScore + (adx/4); // Reward width (Switch play)
    000008F2 69               [ 4] 1602 	ld	l, c
    000008F3 60               [ 4] 1603 	ld	h, b
    000008F4 19               [11] 1604 	add	hl, de
    000008F5 4D               [ 4] 1605 	ld	c, l
    000008F6 44               [ 4] 1606 	ld	b, h
    000008F7 C3r00r09         [10] 1607 	jp	00280$
    000008FA                       1608 00279$:
                                   1609 ;E:\Dropbox\FAUSTO\SVILUPPI\MSX\CODE\C\MSXgl\projects\soccerlgSCC/soccerlg_s10_b3.c:323: score = advanceScore - (adx/4); // Penalize width (Direct play)
    000008FA 79               [ 4] 1610 	ld	a, c
    000008FB 93               [ 4] 1611 	sub	a, e
    000008FC 4F               [ 4] 1612 	ld	c, a
    000008FD 78               [ 4] 1613 	ld	a, b
    000008FE 9A               [ 4] 1614 	sbc	a, d
    000008FF 47               [ 4] 1615 	ld	b, a
    00000900                       1616 00280$:
                                   1617 ;E:\Dropbox\FAUSTO\SVILUPPI\MSX\CODE\C\MSXgl\projects\soccerlgSCC/soccerlg_s10_b3.c:326: if (score > bestScore) {
    00000900 DD 7E F8         [19] 1618 	ld	a, -8 (ix)
    00000903 91               [ 4] 1619 	sub	a, c
    00000904 DD 7E F9         [19] 1620 	ld	a, -7 (ix)
    00000907 98               [ 4] 1621 	sbc	a, b
    00000908 E2r0Dr09         [10] 1622 	jp	PO, 02159$
    0000090B EE 80            [ 7] 1623 	xor	a, #0x80
    0000090D                       1624 02159$:
    0000090D F2r1Cr09         [10] 1625 	jp	P, 00283$
                                   1626 ;E:\Dropbox\FAUSTO\SVILUPPI\MSX\CODE\C\MSXgl\projects\soccerlgSCC/soccerlg_s10_b3.c:327: bestScore = score;
    00000910 DD 71 F8         [19] 1627 	ld	-8 (ix), c
    00000913 DD 70 F9         [19] 1628 	ld	-7 (ix), b
                                   1629 ;E:\Dropbox\FAUSTO\SVILUPPI\MSX\CODE\C\MSXgl\projects\soccerlgSCC/soccerlg_s10_b3.c:328: bestT = t;
    00000916 DD 7E F0         [19] 1630 	ld	a, -16 (ix)
    00000919 DD 77 F7         [19] 1631 	ld	-9 (ix), a
    0000091C                       1632 00283$:
                                   1633 ;E:\Dropbox\FAUSTO\SVILUPPI\MSX\CODE\C\MSXgl\projects\soccerlgSCC/soccerlg_s10_b3.c:279: for(t=0; t<14; t++) {
    0000091C DD 34 FC         [23] 1634 	inc	-4 (ix)
    0000091F 20 03            [12] 1635 	jr	NZ, 02160$
    00000921 DD 34 FD         [23] 1636 	inc	-3 (ix)
    00000924                       1637 02160$:
    00000924 DD 7E FC         [19] 1638 	ld	a, -4 (ix)
    00000927 D6 0E            [ 7] 1639 	sub	a, #0x0e
    00000929 DD 7E FD         [19] 1640 	ld	a, -3 (ix)
    0000092C 17               [ 4] 1641 	rla
    0000092D 3F               [ 4] 1642 	ccf
    0000092E 1F               [ 4] 1643 	rra
    0000092F DE 80            [ 7] 1644 	sbc	a, #0x80
    00000931 DAr05r07         [10] 1645 	jp	C, 00659$
                                   1646 ;E:\Dropbox\FAUSTO\SVILUPPI\MSX\CODE\C\MSXgl\projects\soccerlgSCC/soccerlg_s10_b3.c:333: if (bestT != NO_VALUE) {
    00000934 DD 7E F7         [19] 1647 	ld	a, -9 (ix)
    00000937 3C               [ 4] 1648 	inc	a
    00000938 28 5F            [12] 1649 	jr	Z, 00294$
                                   1650 ;E:\Dropbox\FAUSTO\SVILUPPI\MSX\CODE\C\MSXgl\projects\soccerlgSCC/soccerlg_s10_b3.c:336: i16 threshold = isPanicPass ? -80 : 10;
    0000093A DD 7E FE         [19] 1651 	ld	a, -2 (ix)
    0000093D B7               [ 4] 1652 	or	a, a
    0000093E 28 06            [12] 1653 	jr	Z, 00693$
    00000940 11 B0 FF         [10] 1654 	ld	de, #0xffb0
    00000943 C3r49r09         [10] 1655 	jp	00694$
    00000946                       1656 00693$:
    00000946 11 0A 00         [10] 1657 	ld	de, #0x000a
    00000949                       1658 00694$:
                                   1659 ;E:\Dropbox\FAUSTO\SVILUPPI\MSX\CODE\C\MSXgl\projects\soccerlgSCC/soccerlg_s10_b3.c:338: if (bestScore > threshold) {
    00000949 7B               [ 4] 1660 	ld	a, e
    0000094A DD 96 F8         [19] 1661 	sub	a, -8 (ix)
    0000094D 7A               [ 4] 1662 	ld	a, d
    0000094E DD 9E F9         [19] 1663 	sbc	a, -7 (ix)
    00000951 E2r56r09         [10] 1664 	jp	PO, 02162$
    00000954 EE 80            [ 7] 1665 	xor	a, #0x80
    00000956                       1666 02162$:
    00000956 F2r99r09         [10] 1667 	jp	P, 00294$
                                   1668 ;E:\Dropbox\FAUSTO\SVILUPPI\MSX\CODE\C\MSXgl\projects\soccerlgSCC/soccerlg_s10_b3.c:339: u8 waitTime = (stats->PassFreq >= 8) ? 8 : 15; // Faster release for skill teams
    00000959 DD 6E FA         [19] 1669 	ld	l, -6 (ix)
    0000095C DD 66 FB         [19] 1670 	ld	h, -5 (ix)
    0000095F 7E               [ 7] 1671 	ld	a, (hl)
    00000960 D6 08            [ 7] 1672 	sub	a, #0x08
    00000962 38 0B            [12] 1673 	jr	C, 00695$
    00000964 DD 36 FA 08      [19] 1674 	ld	-6 (ix), #0x08
    00000968 DD 36 FB 00      [19] 1675 	ld	-5 (ix), #0
    0000096C C3r77r09         [10] 1676 	jp	00696$
    0000096F                       1677 00695$:
    0000096F DD 36 FA 0F      [19] 1678 	ld	-6 (ix), #0x0f
    00000973 DD 36 FB 00      [19] 1679 	ld	-5 (ix), #0
    00000977                       1680 00696$:
    00000977 DD 7E FA         [19] 1681 	ld	a, -6 (ix)
    0000097A DD 77 FD         [19] 1682 	ld	-3 (ix), a
                                   1683 ;E:\Dropbox\FAUSTO\SVILUPPI\MSX\CODE\C\MSXgl\projects\soccerlgSCC/soccerlg_s10_b3.c:340: if (g_Ball.PossessionTimer < waitTime) return; 
    0000097D 3Ar1Cr00         [13] 1684 	ld	a, (#_g_Ball + 28)
    00000980 DD 77 FE         [19] 1685 	ld	-2 (ix), a
    00000983 DD 96 FD         [19] 1686 	sub	a, -3 (ix)
    00000986 DAr5Er1D         [10] 1687 	jp	C,00670$
                                   1688 ;E:\Dropbox\FAUSTO\SVILUPPI\MSX\CODE\C\MSXgl\projects\soccerlgSCC/soccerlg_s10_b3.c:341: CallFnc_VOID_P1(5,PerformPass,bestT);
    00000989 DD 7E F7         [19] 1689 	ld	a, -9 (ix)
    0000098C F5               [11] 1690 	push	af
    0000098D 33               [ 6] 1691 	inc	sp
    0000098E 11r00r00         [10] 1692 	ld	de, #_PerformPass
    00000991 3E 05            [ 7] 1693 	ld	a, #0x05
    00000993 CDr00r00         [17] 1694 	call	_CallFnc_VOID_P1
                                   1695 ;E:\Dropbox\FAUSTO\SVILUPPI\MSX\CODE\C\MSXgl\projects\soccerlgSCC/soccerlg_s10_b3.c:342: return; // End tick
    00000996 C3r5Er1D         [10] 1696 	jp	00670$
    00000999                       1697 00294$:
                                   1698 ;E:\Dropbox\FAUSTO\SVILUPPI\MSX\CODE\C\MSXgl\projects\soccerlgSCC/soccerlg_s10_b3.c:348: u16 finalTargetX = targetX_Goal;
    00000999 DD 7E E8         [19] 1699 	ld	a, -24 (ix)
    0000099C DD 77 FD         [19] 1700 	ld	-3 (ix), a
    0000099F DD 7E E9         [19] 1701 	ld	a, -23 (ix)
    000009A2 DD 77 FE         [19] 1702 	ld	-2 (ix), a
                                   1703 ;E:\Dropbox\FAUSTO\SVILUPPI\MSX\CODE\C\MSXgl\projects\soccerlgSCC/soccerlg_s10_b3.c:349: u16 finalTargetY = targetY_Goal;
    000009A5 DD 7E E2         [19] 1704 	ld	a, -30 (ix)
    000009A8 DD 77 FB         [19] 1705 	ld	-5 (ix), a
    000009AB DD 7E E3         [19] 1706 	ld	a, -29 (ix)
    000009AE DD 77 FC         [19] 1707 	ld	-4 (ix), a
                                   1708 ;E:\Dropbox\FAUSTO\SVILUPPI\MSX\CODE\C\MSXgl\projects\soccerlgSCC/soccerlg_s10_b3.c:351: if (obstacleFront) {
    000009B1 DD 7E EC         [19] 1709 	ld	a, -20 (ix)
    000009B4 B7               [ 4] 1710 	or	a, a
    000009B5 CAr48r0A         [10] 1711 	jp	Z, 00305$
                                   1712 ;E:\Dropbox\FAUSTO\SVILUPPI\MSX\CODE\C\MSXgl\projects\soccerlgSCC/soccerlg_s10_b3.c:352: if (!obstacleRight) {
    000009B8 DD 7E EA         [19] 1713 	ld	a, -22 (ix)
    000009BB B7               [ 4] 1714 	or	a, a
    000009BC 20 44            [12] 1715 	jr	NZ, 00302$
                                   1716 ;E:\Dropbox\FAUSTO\SVILUPPI\MSX\CODE\C\MSXgl\projects\soccerlgSCC/soccerlg_s10_b3.c:353: finalTargetX = g_Players[playerId].X + 24;
    000009BE DD 6E E4         [19] 1717 	ld	l, -28 (ix)
    000009C1 DD 66 E5         [19] 1718 	ld	h, -27 (ix)
    000009C4 7E               [ 7] 1719 	ld	a, (hl)
    000009C5 DD 77 FD         [19] 1720 	ld	-3 (ix), a
    000009C8 23               [ 6] 1721 	inc	hl
    000009C9 7E               [ 7] 1722 	ld	a, (hl)
    000009CA DD 77 FE         [19] 1723 	ld	-2 (ix), a
    000009CD DD 7E FD         [19] 1724 	ld	a, -3 (ix)
    000009D0 DD 77 F9         [19] 1725 	ld	-7 (ix), a
    000009D3 DD 7E FE         [19] 1726 	ld	a, -2 (ix)
    000009D6 DD 77 FA         [19] 1727 	ld	-6 (ix), a
    000009D9 DD 7E F9         [19] 1728 	ld	a, -7 (ix)
    000009DC C6 18            [ 7] 1729 	add	a, #0x18
    000009DE DD 77 FD         [19] 1730 	ld	-3 (ix), a
    000009E1 DD 7E FA         [19] 1731 	ld	a, -6 (ix)
    000009E4 CE 00            [ 7] 1732 	adc	a, #0x00
    000009E6 DD 77 FE         [19] 1733 	ld	-2 (ix), a
                                   1734 ;E:\Dropbox\FAUSTO\SVILUPPI\MSX\CODE\C\MSXgl\projects\soccerlgSCC/soccerlg_s10_b3.c:354: if (finalTargetX > FIELD_BOUND_X_RIGHT) finalTargetX = FIELD_BOUND_X_RIGHT;
    000009E9 DD 4E FD         [19] 1735 	ld	c, -3 (ix)
    000009EC DD 46 FE         [19] 1736 	ld	b, -2 (ix)
    000009EF 3E EC            [ 7] 1737 	ld	a, #0xec
    000009F1 B9               [ 4] 1738 	cp	a, c
    000009F2 3E 00            [ 7] 1739 	ld	a, #0x00
    000009F4 98               [ 4] 1740 	sbc	a, b
    000009F5 30 51            [12] 1741 	jr	NC, 00305$
    000009F7 DD 36 FD EC      [19] 1742 	ld	-3 (ix), #0xec
    000009FB DD 36 FE 00      [19] 1743 	ld	-2 (ix), #0
    000009FF C3r48r0A         [10] 1744 	jp	00305$
    00000A02                       1745 00302$:
                                   1746 ;E:\Dropbox\FAUSTO\SVILUPPI\MSX\CODE\C\MSXgl\projects\soccerlgSCC/soccerlg_s10_b3.c:355: } else if (!obstacleLeft) {
    00000A02 DD 7E EB         [19] 1747 	ld	a, -21 (ix)
    00000A05 B7               [ 4] 1748 	or	a, a
    00000A06 20 40            [12] 1749 	jr	NZ, 00305$
                                   1750 ;E:\Dropbox\FAUSTO\SVILUPPI\MSX\CODE\C\MSXgl\projects\soccerlgSCC/soccerlg_s10_b3.c:356: finalTargetX = g_Players[playerId].X - 24; 
    00000A08 DD 6E E4         [19] 1751 	ld	l, -28 (ix)
    00000A0B DD 66 E5         [19] 1752 	ld	h, -27 (ix)
    00000A0E 7E               [ 7] 1753 	ld	a, (hl)
    00000A0F DD 77 FD         [19] 1754 	ld	-3 (ix), a
    00000A12 23               [ 6] 1755 	inc	hl
    00000A13 7E               [ 7] 1756 	ld	a, (hl)
    00000A14 DD 77 FE         [19] 1757 	ld	-2 (ix), a
    00000A17 DD 7E FD         [19] 1758 	ld	a, -3 (ix)
    00000A1A DD 77 F9         [19] 1759 	ld	-7 (ix), a
    00000A1D DD 7E FE         [19] 1760 	ld	a, -2 (ix)
    00000A20 DD 77 FA         [19] 1761 	ld	-6 (ix), a
    00000A23 DD 7E F9         [19] 1762 	ld	a, -7 (ix)
    00000A26 C6 E8            [ 7] 1763 	add	a, #0xe8
    00000A28 DD 77 FD         [19] 1764 	ld	-3 (ix), a
    00000A2B DD 7E FA         [19] 1765 	ld	a, -6 (ix)
    00000A2E CE FF            [ 7] 1766 	adc	a, #0xff
    00000A30 DD 77 FE         [19] 1767 	ld	-2 (ix), a
                                   1768 ;E:\Dropbox\FAUSTO\SVILUPPI\MSX\CODE\C\MSXgl\projects\soccerlgSCC/soccerlg_s10_b3.c:357: if (finalTargetX < FIELD_BOUND_X_LEFT) finalTargetX = FIELD_BOUND_X_LEFT;
    00000A33 DD 7E FD         [19] 1769 	ld	a, -3 (ix)
    00000A36 DD 46 FE         [19] 1770 	ld	b, -2 (ix)
    00000A39 D6 0A            [ 7] 1771 	sub	a, #0x0a
    00000A3B 78               [ 4] 1772 	ld	a, b
    00000A3C DE 00            [ 7] 1773 	sbc	a, #0x00
    00000A3E 30 08            [12] 1774 	jr	NC, 00305$
    00000A40 DD 36 FD 0A      [19] 1775 	ld	-3 (ix), #0x0a
    00000A44 DD 36 FE 00      [19] 1776 	ld	-2 (ix), #0
    00000A48                       1777 00305$:
                                   1778 ;E:\Dropbox\FAUSTO\SVILUPPI\MSX\CODE\C\MSXgl\projects\soccerlgSCC/soccerlg_s10_b3.c:360: g_Players[playerId].TargetY = finalTargetY;
    00000A48 DD 7E DB         [19] 1779 	ld	a, -37 (ix)
    00000A4B C6 0E            [ 7] 1780 	add	a, #0x0e
    00000A4D DD 77 F9         [19] 1781 	ld	-7 (ix), a
    00000A50 DD 7E DC         [19] 1782 	ld	a, -36 (ix)
    00000A53 CE 00            [ 7] 1783 	adc	a, #0x00
    00000A55 DD 77 FA         [19] 1784 	ld	-6 (ix), a
    00000A58 DD 6E F9         [19] 1785 	ld	l, -7 (ix)
    00000A5B DD 66 FA         [19] 1786 	ld	h, -6 (ix)
    00000A5E DD 7E FB         [19] 1787 	ld	a, -5 (ix)
    00000A61 77               [ 7] 1788 	ld	(hl), a
    00000A62 23               [ 6] 1789 	inc	hl
    00000A63 DD 7E FC         [19] 1790 	ld	a, -4 (ix)
    00000A66 77               [ 7] 1791 	ld	(hl), a
                                   1792 ;E:\Dropbox\FAUSTO\SVILUPPI\MSX\CODE\C\MSXgl\projects\soccerlgSCC/soccerlg_s10_b3.c:361: g_Players[playerId].TargetX = finalTargetX;
    00000A67 DD 7E DB         [19] 1793 	ld	a, -37 (ix)
    00000A6A C6 10            [ 7] 1794 	add	a, #0x10
    00000A6C DD 77 FB         [19] 1795 	ld	-5 (ix), a
    00000A6F DD 7E DC         [19] 1796 	ld	a, -36 (ix)
    00000A72 CE 00            [ 7] 1797 	adc	a, #0x00
    00000A74 DD 77 FC         [19] 1798 	ld	-4 (ix), a
    00000A77 DD 6E FB         [19] 1799 	ld	l, -5 (ix)
    00000A7A DD 66 FC         [19] 1800 	ld	h, -4 (ix)
    00000A7D DD 7E FD         [19] 1801 	ld	a, -3 (ix)
    00000A80 77               [ 7] 1802 	ld	(hl), a
    00000A81 23               [ 6] 1803 	inc	hl
    00000A82 DD 7E FE         [19] 1804 	ld	a, -2 (ix)
    00000A85 77               [ 7] 1805 	ld	(hl), a
                                   1806 ;E:\Dropbox\FAUSTO\SVILUPPI\MSX\CODE\C\MSXgl\projects\soccerlgSCC/soccerlg_s10_b3.c:362: return; // IMPORTANT: Ball Carrier handled. Stop.
    00000A86 C3r5Er1D         [10] 1807 	jp	00670$
    00000A89                       1808 00307$:
                                   1809 ;E:\Dropbox\FAUSTO\SVILUPPI\MSX\CODE\C\MSXgl\projects\soccerlgSCC/soccerlg_s10_b3.c:368: if (g_Ball.PossessionPlayerId == NO_VALUE) {
    00000A89 DD 7E FE         [19] 1810 	ld	a, -2 (ix)
    00000A8C 3C               [ 4] 1811 	inc	a
    00000A8D 20 42            [12] 1812 	jr	NZ, 00311$
                                   1813 ;E:\Dropbox\FAUSTO\SVILUPPI\MSX\CODE\C\MSXgl\projects\soccerlgSCC/soccerlg_s10_b3.c:370: u8 closestId=CallFnc_U8_P2(4,GetClosestPlayerToBall,playerTeamId,NO_VALUE);
    00000A8F 26 FF            [ 7] 1814 	ld	h, #0xff
    00000A91 DD 6E DD         [19] 1815 	ld	l, -35 (ix)
    00000A94 E5               [11] 1816 	push	hl
    00000A95 11r00r00         [10] 1817 	ld	de, #_GetClosestPlayerToBall
    00000A98 3E 04            [ 7] 1818 	ld	a, #0x04
    00000A9A CDr00r00         [17] 1819 	call	_CallFnc_U8_P2
    00000A9D 4F               [ 4] 1820 	ld	c, a
                                   1821 ;E:\Dropbox\FAUSTO\SVILUPPI\MSX\CODE\C\MSXgl\projects\soccerlgSCC/soccerlg_s10_b3.c:371: if (closestId == playerId) {
    00000A9E DD 7E FF         [19] 1822 	ld	a, -1 (ix)
    00000AA1 91               [ 4] 1823 	sub	a, c
    00000AA2 20 2D            [12] 1824 	jr	NZ, 00311$
                                   1825 ;E:\Dropbox\FAUSTO\SVILUPPI\MSX\CODE\C\MSXgl\projects\soccerlgSCC/soccerlg_s10_b3.c:372: g_Players[playerId].TargetX = g_Ball.X;
    00000AA4 DD 7E DB         [19] 1826 	ld	a, -37 (ix)
    00000AA7 C6 10            [ 7] 1827 	add	a, #0x10
    00000AA9 4F               [ 4] 1828 	ld	c, a
    00000AAA DD 7E DC         [19] 1829 	ld	a, -36 (ix)
    00000AAD CE 00            [ 7] 1830 	adc	a, #0x00
    00000AAF 47               [ 4] 1831 	ld	b, a
    00000AB0 ED 5Br02r00      [20] 1832 	ld	de, (#_g_Ball + 2)
    00000AB4 7B               [ 4] 1833 	ld	a, e
    00000AB5 02               [ 7] 1834 	ld	(bc), a
    00000AB6 03               [ 6] 1835 	inc	bc
    00000AB7 7A               [ 4] 1836 	ld	a, d
    00000AB8 02               [ 7] 1837 	ld	(bc), a
                                   1838 ;E:\Dropbox\FAUSTO\SVILUPPI\MSX\CODE\C\MSXgl\projects\soccerlgSCC/soccerlg_s10_b3.c:373: g_Players[playerId].TargetY = g_Ball.Y;
    00000AB9 DD 7E DB         [19] 1839 	ld	a, -37 (ix)
    00000ABC C6 0E            [ 7] 1840 	add	a, #0x0e
    00000ABE 4F               [ 4] 1841 	ld	c, a
    00000ABF DD 7E DC         [19] 1842 	ld	a, -36 (ix)
    00000AC2 CE 00            [ 7] 1843 	adc	a, #0x00
    00000AC4 47               [ 4] 1844 	ld	b, a
    00000AC5 ED 5Br00r00      [20] 1845 	ld	de, (#_g_Ball + 0)
    00000AC9 7B               [ 4] 1846 	ld	a, e
    00000ACA 02               [ 7] 1847 	ld	(bc), a
    00000ACB 03               [ 6] 1848 	inc	bc
    00000ACC 7A               [ 4] 1849 	ld	a, d
    00000ACD 02               [ 7] 1850 	ld	(bc), a
                                   1851 ;E:\Dropbox\FAUSTO\SVILUPPI\MSX\CODE\C\MSXgl\projects\soccerlgSCC/soccerlg_s10_b3.c:374: return;
    00000ACE C3r5Er1D         [10] 1852 	jp	00670$
    00000AD1                       1853 00311$:
                                   1854 ;E:\Dropbox\FAUSTO\SVILUPPI\MSX\CODE\C\MSXgl\projects\soccerlgSCC/soccerlg_s10_b3.c:64: if (g_Players[playerId].Role == PLAYER_ROLE_GOALKEEPER) return;
    00000AD1 DD 7E DB         [19] 1855 	ld	a, -37 (ix)
    00000AD4 C6 0D            [ 7] 1856 	add	a, #0x0d
    00000AD6 DD 77 F7         [19] 1857 	ld	-9 (ix), a
    00000AD9 DD 7E DC         [19] 1858 	ld	a, -36 (ix)
    00000ADC CE 00            [ 7] 1859 	adc	a, #0x00
    00000ADE DD 77 F8         [19] 1860 	ld	-8 (ix), a
                                   1861 ;E:\Dropbox\FAUSTO\SVILUPPI\MSX\CODE\C\MSXgl\projects\soccerlgSCC/soccerlg_s10_b3.c:407: if (g_Players[playerId].Role == PLAYER_ROLE_LEFT_STRIKER || 
    00000AE1 DD 6E F7         [19] 1862 	ld	l, -9 (ix)
    00000AE4 DD 66 F8         [19] 1863 	ld	h, -8 (ix)
    00000AE7 7E               [ 7] 1864 	ld	a, (hl)
    00000AE8 DD 77 FE         [19] 1865 	ld	-2 (ix), a
                                   1866 ;E:\Dropbox\FAUSTO\SVILUPPI\MSX\CODE\C\MSXgl\projects\soccerlgSCC/soccerlg_s10_b3.c:381: if (g_MatchStatus == MATCH_BALL_ON_GOALKEEPER) {
    00000AEB 3Ar00r00         [13] 1867 	ld	a, (_g_MatchStatus+0)
    00000AEE D6 0D            [ 7] 1868 	sub	a, #0x0d
    00000AF0 C2rD3r0B         [10] 1869 	jp	NZ,00345$
                                   1870 ;E:\Dropbox\FAUSTO\SVILUPPI\MSX\CODE\C\MSXgl\projects\soccerlgSCC/soccerlg_s10_b3.c:360: g_Players[playerId].TargetY = finalTargetY;
    00000AF3 DD 7E DB         [19] 1871 	ld	a, -37 (ix)
    00000AF6 C6 0E            [ 7] 1872 	add	a, #0x0e
    00000AF8 4F               [ 4] 1873 	ld	c, a
    00000AF9 DD 7E DC         [19] 1874 	ld	a, -36 (ix)
    00000AFC CE 00            [ 7] 1875 	adc	a, #0x00
    00000AFE 47               [ 4] 1876 	ld	b, a
                                   1877 ;E:\Dropbox\FAUSTO\SVILUPPI\MSX\CODE\C\MSXgl\projects\soccerlgSCC/soccerlg_s10_b3.c:384: if (g_Players[playerId].Role >= PLAYER_ROLE_LEFT_STRIKER) g_Players[playerId].TargetY = 160;
    00000AFF DD 7E FE         [19] 1878 	ld	a, -2 (ix)
    00000B02 D6 05            [ 7] 1879 	sub	a, #0x05
    00000B04 3E 00            [ 7] 1880 	ld	a, #0x00
    00000B06 17               [ 4] 1881 	rla
    00000B07 DD 77 FD         [19] 1882 	ld	-3 (ix), a
                                   1883 ;E:\Dropbox\FAUSTO\SVILUPPI\MSX\CODE\C\MSXgl\projects\soccerlgSCC/soccerlg_s10_b3.c:383: if (playerTeamId == TEAM_1) { // Moving UP
    00000B0A DD 7E DE         [19] 1884 	ld	a, -34 (ix)
    00000B0D B7               [ 4] 1885 	or	a, a
    00000B0E 28 29            [12] 1886 	jr	Z, 00325$
                                   1887 ;E:\Dropbox\FAUSTO\SVILUPPI\MSX\CODE\C\MSXgl\projects\soccerlgSCC/soccerlg_s10_b3.c:384: if (g_Players[playerId].Role >= PLAYER_ROLE_LEFT_STRIKER) g_Players[playerId].TargetY = 160;
    00000B10 DD CB FD 46      [20] 1888 	bit	0, -3 (ix)
    00000B14 20 09            [12] 1889 	jr	NZ, 00316$
    00000B16 3E A0            [ 7] 1890 	ld	a, #0xa0
    00000B18 02               [ 7] 1891 	ld	(bc), a
    00000B19 03               [ 6] 1892 	inc	bc
    00000B1A AF               [ 4] 1893 	xor	a, a
    00000B1B 02               [ 7] 1894 	ld	(bc), a
    00000B1C C3r5Fr0B         [10] 1895 	jp	00326$
    00000B1F                       1896 00316$:
                                   1897 ;E:\Dropbox\FAUSTO\SVILUPPI\MSX\CODE\C\MSXgl\projects\soccerlgSCC/soccerlg_s10_b3.c:385: else if (g_Players[playerId].Role >= PLAYER_ROLE_LEFT_HALFFIELDER) g_Players[playerId].TargetY = 240;
    00000B1F DD 7E FE         [19] 1898 	ld	a, -2 (ix)
    00000B22 D6 03            [ 7] 1899 	sub	a, #0x03
    00000B24 38 09            [12] 1900 	jr	C, 00313$
    00000B26 3E F0            [ 7] 1901 	ld	a, #0xf0
    00000B28 02               [ 7] 1902 	ld	(bc), a
    00000B29 03               [ 6] 1903 	inc	bc
    00000B2A AF               [ 4] 1904 	xor	a, a
    00000B2B 02               [ 7] 1905 	ld	(bc), a
    00000B2C C3r5Fr0B         [10] 1906 	jp	00326$
    00000B2F                       1907 00313$:
                                   1908 ;E:\Dropbox\FAUSTO\SVILUPPI\MSX\CODE\C\MSXgl\projects\soccerlgSCC/soccerlg_s10_b3.c:386: else g_Players[playerId].TargetY = 350;
    00000B2F 3E 5E            [ 7] 1909 	ld	a, #0x5e
    00000B31 02               [ 7] 1910 	ld	(bc), a
    00000B32 03               [ 6] 1911 	inc	bc
    00000B33 3E 01            [ 7] 1912 	ld	a, #0x01
    00000B35 02               [ 7] 1913 	ld	(bc), a
    00000B36 C3r5Fr0B         [10] 1914 	jp	00326$
    00000B39                       1915 00325$:
                                   1916 ;E:\Dropbox\FAUSTO\SVILUPPI\MSX\CODE\C\MSXgl\projects\soccerlgSCC/soccerlg_s10_b3.c:388: if (g_Players[playerId].Role >= PLAYER_ROLE_LEFT_STRIKER) g_Players[playerId].TargetY = 320;
    00000B39 DD CB FD 46      [20] 1917 	bit	0, -3 (ix)
    00000B3D 20 0A            [12] 1918 	jr	NZ, 00322$
    00000B3F 3E 40            [ 7] 1919 	ld	a, #0x40
    00000B41 02               [ 7] 1920 	ld	(bc), a
    00000B42 03               [ 6] 1921 	inc	bc
    00000B43 3E 01            [ 7] 1922 	ld	a, #0x01
    00000B45 02               [ 7] 1923 	ld	(bc), a
    00000B46 C3r5Fr0B         [10] 1924 	jp	00326$
    00000B49                       1925 00322$:
                                   1926 ;E:\Dropbox\FAUSTO\SVILUPPI\MSX\CODE\C\MSXgl\projects\soccerlgSCC/soccerlg_s10_b3.c:389: else if (g_Players[playerId].Role >= PLAYER_ROLE_LEFT_HALFFIELDER) g_Players[playerId].TargetY = 240;
    00000B49 DD 7E FE         [19] 1927 	ld	a, -2 (ix)
    00000B4C D6 03            [ 7] 1928 	sub	a, #0x03
    00000B4E 38 09            [12] 1929 	jr	C, 00319$
    00000B50 3E F0            [ 7] 1930 	ld	a, #0xf0
    00000B52 02               [ 7] 1931 	ld	(bc), a
    00000B53 03               [ 6] 1932 	inc	bc
    00000B54 AF               [ 4] 1933 	xor	a, a
    00000B55 02               [ 7] 1934 	ld	(bc), a
    00000B56 C3r5Fr0B         [10] 1935 	jp	00326$
    00000B59                       1936 00319$:
                                   1937 ;E:\Dropbox\FAUSTO\SVILUPPI\MSX\CODE\C\MSXgl\projects\soccerlgSCC/soccerlg_s10_b3.c:390: else g_Players[playerId].TargetY = 130;
    00000B59 3E 82            [ 7] 1938 	ld	a, #0x82
    00000B5B 02               [ 7] 1939 	ld	(bc), a
    00000B5C 03               [ 6] 1940 	inc	bc
    00000B5D AF               [ 4] 1941 	xor	a, a
    00000B5E 02               [ 7] 1942 	ld	(bc), a
    00000B5F                       1943 00326$:
                                   1944 ;E:\Dropbox\FAUSTO\SVILUPPI\MSX\CODE\C\MSXgl\projects\soccerlgSCC/soccerlg_s10_b3.c:394: if (g_Players[playerId].Role == PLAYER_ROLE_LEFT_STRIKER) g_Players[playerId].TargetX = 64;
    00000B5F DD 6E F7         [19] 1945 	ld	l, -9 (ix)
    00000B62 DD 66 F8         [19] 1946 	ld	h, -8 (ix)
    00000B65 7E               [ 7] 1947 	ld	a, (hl)
    00000B66 FE 05            [ 7] 1948 	cp	a, #0x05
    00000B68 20 0E            [12] 1949 	jr	NZ, 00342$
    00000B6A E1               [10] 1950 	pop	hl
    00000B6B E5               [11] 1951 	push	hl
    00000B6C 11 10 00         [10] 1952 	ld	de, #0x0010
    00000B6F 19               [11] 1953 	add	hl, de
    00000B70 36 40            [10] 1954 	ld	(hl), #0x40
    00000B72 23               [ 6] 1955 	inc	hl
    00000B73 36 00            [10] 1956 	ld	(hl), #0x00
    00000B75 C3r5Er1D         [10] 1957 	jp	00670$
    00000B78                       1958 00342$:
                                   1959 ;E:\Dropbox\FAUSTO\SVILUPPI\MSX\CODE\C\MSXgl\projects\soccerlgSCC/soccerlg_s10_b3.c:395: else if (g_Players[playerId].Role == PLAYER_ROLE_RIGHT_STRIKER) g_Players[playerId].TargetX = 192;
    00000B78 FE 06            [ 7] 1960 	cp	a, #0x06
    00000B7A 20 0E            [12] 1961 	jr	NZ, 00339$
    00000B7C E1               [10] 1962 	pop	hl
    00000B7D E5               [11] 1963 	push	hl
    00000B7E 11 10 00         [10] 1964 	ld	de, #0x0010
    00000B81 19               [11] 1965 	add	hl, de
    00000B82 36 C0            [10] 1966 	ld	(hl), #0xc0
    00000B84 23               [ 6] 1967 	inc	hl
    00000B85 36 00            [10] 1968 	ld	(hl), #0x00
    00000B87 C3r5Er1D         [10] 1969 	jp	00670$
    00000B8A                       1970 00339$:
                                   1971 ;E:\Dropbox\FAUSTO\SVILUPPI\MSX\CODE\C\MSXgl\projects\soccerlgSCC/soccerlg_s10_b3.c:396: else if (g_Players[playerId].Role == PLAYER_ROLE_LEFT_HALFFIELDER) g_Players[playerId].TargetX = 48;
    00000B8A FE 03            [ 7] 1972 	cp	a, #0x03
    00000B8C 20 0E            [12] 1973 	jr	NZ, 00336$
    00000B8E E1               [10] 1974 	pop	hl
    00000B8F E5               [11] 1975 	push	hl
    00000B90 11 10 00         [10] 1976 	ld	de, #0x0010
    00000B93 19               [11] 1977 	add	hl, de
    00000B94 36 30            [10] 1978 	ld	(hl), #0x30
    00000B96 23               [ 6] 1979 	inc	hl
    00000B97 36 00            [10] 1980 	ld	(hl), #0x00
    00000B99 C3r5Er1D         [10] 1981 	jp	00670$
    00000B9C                       1982 00336$:
                                   1983 ;E:\Dropbox\FAUSTO\SVILUPPI\MSX\CODE\C\MSXgl\projects\soccerlgSCC/soccerlg_s10_b3.c:397: else if (g_Players[playerId].Role == PLAYER_ROLE_RIGHT_HALFFIELDER) g_Players[playerId].TargetX = 208;
    00000B9C FE 04            [ 7] 1984 	cp	a, #0x04
    00000B9E 20 0E            [12] 1985 	jr	NZ, 00333$
    00000BA0 E1               [10] 1986 	pop	hl
    00000BA1 E5               [11] 1987 	push	hl
    00000BA2 11 10 00         [10] 1988 	ld	de, #0x0010
    00000BA5 19               [11] 1989 	add	hl, de
    00000BA6 36 D0            [10] 1990 	ld	(hl), #0xd0
    00000BA8 23               [ 6] 1991 	inc	hl
    00000BA9 36 00            [10] 1992 	ld	(hl), #0x00
    00000BAB C3r5Er1D         [10] 1993 	jp	00670$
    00000BAE                       1994 00333$:
                                   1995 ;E:\Dropbox\FAUSTO\SVILUPPI\MSX\CODE\C\MSXgl\projects\soccerlgSCC/soccerlg_s10_b3.c:398: else if (g_Players[playerId].Role == PLAYER_ROLE_LEFT_DEFENDER) g_Players[playerId].TargetX = 80;
    00000BAE FE 01            [ 7] 1996 	cp	a, #0x01
    00000BB0 20 0E            [12] 1997 	jr	NZ, 00330$
    00000BB2 E1               [10] 1998 	pop	hl
    00000BB3 E5               [11] 1999 	push	hl
    00000BB4 11 10 00         [10] 2000 	ld	de, #0x0010
    00000BB7 19               [11] 2001 	add	hl, de
    00000BB8 36 50            [10] 2002 	ld	(hl), #0x50
    00000BBA 23               [ 6] 2003 	inc	hl
    00000BBB 36 00            [10] 2004 	ld	(hl), #0x00
    00000BBD C3r5Er1D         [10] 2005 	jp	00670$
    00000BC0                       2006 00330$:
                                   2007 ;E:\Dropbox\FAUSTO\SVILUPPI\MSX\CODE\C\MSXgl\projects\soccerlgSCC/soccerlg_s10_b3.c:399: else if (g_Players[playerId].Role == PLAYER_ROLE_RIGHT_DEFENDER) g_Players[playerId].TargetX = 176;
    00000BC0 D6 02            [ 7] 2008 	sub	a, #0x02
    00000BC2 C2r5Er1D         [10] 2009 	jp	NZ,00670$
    00000BC5 E1               [10] 2010 	pop	hl
    00000BC6 E5               [11] 2011 	push	hl
    00000BC7 11 10 00         [10] 2012 	ld	de, #0x0010
    00000BCA 19               [11] 2013 	add	hl, de
    00000BCB 36 B0            [10] 2014 	ld	(hl), #0xb0
    00000BCD 23               [ 6] 2015 	inc	hl
    00000BCE 36 00            [10] 2016 	ld	(hl), #0x00
                                   2017 ;E:\Dropbox\FAUSTO\SVILUPPI\MSX\CODE\C\MSXgl\projects\soccerlgSCC/soccerlg_s10_b3.c:401: return;
    00000BD0 C3r5Er1D         [10] 2018 	jp	00670$
    00000BD3                       2019 00345$:
                                   2020 ;E:\Dropbox\FAUSTO\SVILUPPI\MSX\CODE\C\MSXgl\projects\soccerlgSCC/soccerlg_s10_b3.c:407: if (g_Players[playerId].Role == PLAYER_ROLE_LEFT_STRIKER || 
    00000BD3 DD 7E FE         [19] 2021 	ld	a, -2 (ix)
    00000BD6 D6 05            [ 7] 2022 	sub	a, #0x05
    00000BD8 28 07            [12] 2023 	jr	Z, 00395$
                                   2024 ;E:\Dropbox\FAUSTO\SVILUPPI\MSX\CODE\C\MSXgl\projects\soccerlgSCC/soccerlg_s10_b3.c:408: g_Players[playerId].Role == PLAYER_ROLE_RIGHT_STRIKER) {
    00000BDA DD 7E FE         [19] 2025 	ld	a, -2 (ix)
    00000BDD D6 06            [ 7] 2026 	sub	a, #0x06
    00000BDF 20 3B            [12] 2027 	jr	NZ, 00396$
    00000BE1                       2028 00395$:
                                   2029 ;E:\Dropbox\FAUSTO\SVILUPPI\MSX\CODE\C\MSXgl\projects\soccerlgSCC/soccerlg_s10_b3.c:360: g_Players[playerId].TargetY = finalTargetY;
    00000BE1 E1               [10] 2030 	pop	hl
    00000BE2 E5               [11] 2031 	push	hl
    00000BE3 11 0E 00         [10] 2032 	ld	de, #0x000e
    00000BE6 19               [11] 2033 	add	hl, de
                                   2034 ;E:\Dropbox\FAUSTO\SVILUPPI\MSX\CODE\C\MSXgl\projects\soccerlgSCC/soccerlg_s10_b3.c:411: if (playerTeamId == TEAM_1) g_Players[playerId].TargetY = GK_BOX_Y_TOP_MAX - 10;
    00000BE7 DD 7E DE         [19] 2035 	ld	a, -34 (ix)
    00000BEA B7               [ 4] 2036 	or	a, a
    00000BEB 28 08            [12] 2037 	jr	Z, 00347$
    00000BED 36 41            [10] 2038 	ld	(hl), #0x41
    00000BEF 23               [ 6] 2039 	inc	hl
    00000BF0 36 00            [10] 2040 	ld	(hl), #0x00
    00000BF2 C3rFAr0B         [10] 2041 	jp	00348$
    00000BF5                       2042 00347$:
                                   2043 ;E:\Dropbox\FAUSTO\SVILUPPI\MSX\CODE\C\MSXgl\projects\soccerlgSCC/soccerlg_s10_b3.c:412: else g_Players[playerId].TargetY = GK_BOX_Y_BOTTOM_MIN + 10;
    00000BF5 36 9F            [10] 2044 	ld	(hl), #0x9f
    00000BF7 23               [ 6] 2045 	inc	hl
    00000BF8 36 01            [10] 2046 	ld	(hl), #0x01
    00000BFA                       2047 00348$:
                                   2048 ;E:\Dropbox\FAUSTO\SVILUPPI\MSX\CODE\C\MSXgl\projects\soccerlgSCC/soccerlg_s10_b3.c:414: if (g_Players[playerId].Role == PLAYER_ROLE_LEFT_STRIKER) g_Players[playerId].TargetX = 64;
    00000BFA DD 6E F7         [19] 2049 	ld	l, -9 (ix)
    00000BFD DD 66 F8         [19] 2050 	ld	h, -8 (ix)
    00000C00 4E               [ 7] 2051 	ld	c, (hl)
                                   2052 ;E:\Dropbox\FAUSTO\SVILUPPI\MSX\CODE\C\MSXgl\projects\soccerlgSCC/soccerlg_s10_b3.c:361: g_Players[playerId].TargetX = finalTargetX;
    00000C01 E1               [10] 2053 	pop	hl
    00000C02 E5               [11] 2054 	push	hl
    00000C03 11 10 00         [10] 2055 	ld	de, #0x0010
    00000C06 19               [11] 2056 	add	hl, de
                                   2057 ;E:\Dropbox\FAUSTO\SVILUPPI\MSX\CODE\C\MSXgl\projects\soccerlgSCC/soccerlg_s10_b3.c:414: if (g_Players[playerId].Role == PLAYER_ROLE_LEFT_STRIKER) g_Players[playerId].TargetX = 64;
    00000C07 79               [ 4] 2058 	ld	a, c
    00000C08 D6 05            [ 7] 2059 	sub	a, #0x05
    00000C0A 20 08            [12] 2060 	jr	NZ, 00350$
    00000C0C 36 40            [10] 2061 	ld	(hl), #0x40
    00000C0E 23               [ 6] 2062 	inc	hl
    00000C0F 36 00            [10] 2063 	ld	(hl), #0x00
    00000C11 C3r4Er0E         [10] 2064 	jp	00873$
    00000C14                       2065 00350$:
                                   2066 ;E:\Dropbox\FAUSTO\SVILUPPI\MSX\CODE\C\MSXgl\projects\soccerlgSCC/soccerlg_s10_b3.c:415: else g_Players[playerId].TargetX = 192;
    00000C14 36 C0            [10] 2067 	ld	(hl), #0xc0
    00000C16 23               [ 6] 2068 	inc	hl
    00000C17 36 00            [10] 2069 	ld	(hl), #0x00
    00000C19 C3r4Er0E         [10] 2070 	jp	00873$
    00000C1C                       2071 00396$:
                                   2072 ;E:\Dropbox\FAUSTO\SVILUPPI\MSX\CODE\C\MSXgl\projects\soccerlgSCC/soccerlg_s10_b3.c:417: } else if (g_Players[playerId].Role == PLAYER_ROLE_LEFT_HALFFIELDER || 
    00000C1C DD 7E FE         [19] 2073 	ld	a, -2 (ix)
    00000C1F D6 03            [ 7] 2074 	sub	a, #0x03
    00000C21 28 08            [12] 2075 	jr	Z, 00391$
                                   2076 ;E:\Dropbox\FAUSTO\SVILUPPI\MSX\CODE\C\MSXgl\projects\soccerlgSCC/soccerlg_s10_b3.c:418: g_Players[playerId].Role == PLAYER_ROLE_RIGHT_HALFFIELDER) {
    00000C23 DD 7E FE         [19] 2077 	ld	a, -2 (ix)
    00000C26 D6 04            [ 7] 2078 	sub	a, #0x04
    00000C28 C2rCCr0C         [10] 2079 	jp	NZ,00392$
    00000C2B                       2080 00391$:
                                   2081 ;E:\Dropbox\FAUSTO\SVILUPPI\MSX\CODE\C\MSXgl\projects\soccerlgSCC/soccerlg_s10_b3.c:360: g_Players[playerId].TargetY = finalTargetY;
    00000C2B DD 7E DB         [19] 2082 	ld	a, -37 (ix)
    00000C2E C6 0E            [ 7] 2083 	add	a, #0x0e
    00000C30 DD 77 FB         [19] 2084 	ld	-5 (ix), a
    00000C33 DD 7E DC         [19] 2085 	ld	a, -36 (ix)
    00000C36 CE 00            [ 7] 2086 	adc	a, #0x00
    00000C38 DD 77 FC         [19] 2087 	ld	-4 (ix), a
                                   2088 ;E:\Dropbox\FAUSTO\SVILUPPI\MSX\CODE\C\MSXgl\projects\soccerlgSCC/soccerlg_s10_b3.c:373: g_Players[playerId].TargetY = g_Ball.Y;
    00000C3B 2Ar00r00         [16] 2089 	ld	hl, (#_g_Ball + 0)
                                   2090 ;E:\Dropbox\FAUSTO\SVILUPPI\MSX\CODE\C\MSXgl\projects\soccerlgSCC/soccerlg_s10_b3.c:425: g_Players[playerId].TargetY = g_Ball.Y - 40;
    00000C3E DD 75 F9         [19] 2091 	ld	-7 (ix), l
    00000C41 DD 74 FA         [19] 2092 	ld	-6 (ix), h
                                   2093 ;E:\Dropbox\FAUSTO\SVILUPPI\MSX\CODE\C\MSXgl\projects\soccerlgSCC/soccerlg_s10_b3.c:422: if (playerTeamId == TEAM_1) {
    00000C44 DD 7E DE         [19] 2094 	ld	a, -34 (ix)
    00000C47 B7               [ 4] 2095 	or	a, a
    00000C48 28 39            [12] 2096 	jr	Z, 00357$
                                   2097 ;E:\Dropbox\FAUSTO\SVILUPPI\MSX\CODE\C\MSXgl\projects\soccerlgSCC/soccerlg_s10_b3.c:425: g_Players[playerId].TargetY = g_Ball.Y - 40;
    00000C4A DD 7E F9         [19] 2098 	ld	a, -7 (ix)
    00000C4D C6 D8            [ 7] 2099 	add	a, #0xd8
    00000C4F DD 77 FD         [19] 2100 	ld	-3 (ix), a
    00000C52 DD 7E FA         [19] 2101 	ld	a, -6 (ix)
    00000C55 CE FF            [ 7] 2102 	adc	a, #0xff
    00000C57 DD 77 FE         [19] 2103 	ld	-2 (ix), a
    00000C5A DD 6E FB         [19] 2104 	ld	l, -5 (ix)
    00000C5D DD 66 FC         [19] 2105 	ld	h, -4 (ix)
    00000C60 DD 7E FD         [19] 2106 	ld	a, -3 (ix)
    00000C63 77               [ 7] 2107 	ld	(hl), a
    00000C64 23               [ 6] 2108 	inc	hl
    00000C65 DD 7E FE         [19] 2109 	ld	a, -2 (ix)
    00000C68 77               [ 7] 2110 	ld	(hl), a
                                   2111 ;E:\Dropbox\FAUSTO\SVILUPPI\MSX\CODE\C\MSXgl\projects\soccerlgSCC/soccerlg_s10_b3.c:426: if (g_Players[playerId].TargetY < limitY) g_Players[playerId].TargetY = limitY;
    00000C69 DD 7E FD         [19] 2112 	ld	a, -3 (ix)
    00000C6C D6 6A            [ 7] 2113 	sub	a, #0x6a
    00000C6E DD 7E FE         [19] 2114 	ld	a, -2 (ix)
    00000C71 DE 00            [ 7] 2115 	sbc	a, #0x00
    00000C73 30 35            [12] 2116 	jr	NC, 00358$
    00000C75 DD 6E FB         [19] 2117 	ld	l, -5 (ix)
    00000C78 DD 66 FC         [19] 2118 	ld	h, -4 (ix)
    00000C7B 36 6A            [10] 2119 	ld	(hl), #0x6a
    00000C7D 23               [ 6] 2120 	inc	hl
    00000C7E 36 00            [10] 2121 	ld	(hl), #0x00
    00000C80 C3rAAr0C         [10] 2122 	jp	00358$
    00000C83                       2123 00357$:
                                   2124 ;E:\Dropbox\FAUSTO\SVILUPPI\MSX\CODE\C\MSXgl\projects\soccerlgSCC/soccerlg_s10_b3.c:430: g_Players[playerId].TargetY = g_Ball.Y + 40;
    00000C83 DD 6E F9         [19] 2125 	ld	l, -7 (ix)
    00000C86 DD 66 FA         [19] 2126 	ld	h, -6 (ix)
    00000C89 11 28 00         [10] 2127 	ld	de, #0x0028
    00000C8C 19               [11] 2128 	add	hl, de
    00000C8D EB               [ 4] 2129 	ex	de, hl
    00000C8E DD 6E FB         [19] 2130 	ld	l, -5 (ix)
    00000C91 DD 66 FC         [19] 2131 	ld	h, -4 (ix)
    00000C94 73               [ 7] 2132 	ld	(hl), e
    00000C95 23               [ 6] 2133 	inc	hl
    00000C96 72               [ 7] 2134 	ld	(hl), d
                                   2135 ;E:\Dropbox\FAUSTO\SVILUPPI\MSX\CODE\C\MSXgl\projects\soccerlgSCC/soccerlg_s10_b3.c:431: if (g_Players[playerId].TargetY > limitY) g_Players[playerId].TargetY = limitY;
    00000C97 3E 3E            [ 7] 2136 	ld	a, #0x3e
    00000C99 BB               [ 4] 2137 	cp	a, e
    00000C9A 3E 01            [ 7] 2138 	ld	a, #0x01
    00000C9C 9A               [ 4] 2139 	sbc	a, d
    00000C9D 30 0B            [12] 2140 	jr	NC, 00358$
    00000C9F DD 6E FB         [19] 2141 	ld	l, -5 (ix)
    00000CA2 DD 66 FC         [19] 2142 	ld	h, -4 (ix)
    00000CA5 36 3E            [10] 2143 	ld	(hl), #0x3e
    00000CA7 23               [ 6] 2144 	inc	hl
    00000CA8 36 01            [10] 2145 	ld	(hl), #0x01
    00000CAA                       2146 00358$:
                                   2147 ;E:\Dropbox\FAUSTO\SVILUPPI\MSX\CODE\C\MSXgl\projects\soccerlgSCC/soccerlg_s10_b3.c:434: if (g_Players[playerId].Role == PLAYER_ROLE_LEFT_HALFFIELDER) g_Players[playerId].TargetX = 48;
    00000CAA DD 6E F7         [19] 2148 	ld	l, -9 (ix)
    00000CAD DD 66 F8         [19] 2149 	ld	h, -8 (ix)
    00000CB0 4E               [ 7] 2150 	ld	c, (hl)
                                   2151 ;E:\Dropbox\FAUSTO\SVILUPPI\MSX\CODE\C\MSXgl\projects\soccerlgSCC/soccerlg_s10_b3.c:361: g_Players[playerId].TargetX = finalTargetX;
    00000CB1 E1               [10] 2152 	pop	hl
    00000CB2 E5               [11] 2153 	push	hl
    00000CB3 11 10 00         [10] 2154 	ld	de, #0x0010
    00000CB6 19               [11] 2155 	add	hl, de
                                   2156 ;E:\Dropbox\FAUSTO\SVILUPPI\MSX\CODE\C\MSXgl\projects\soccerlgSCC/soccerlg_s10_b3.c:434: if (g_Players[playerId].Role == PLAYER_ROLE_LEFT_HALFFIELDER) g_Players[playerId].TargetX = 48;
    00000CB7 79               [ 4] 2157 	ld	a, c
    00000CB8 D6 03            [ 7] 2158 	sub	a, #0x03
    00000CBA 20 08            [12] 2159 	jr	NZ, 00360$
    00000CBC 36 30            [10] 2160 	ld	(hl), #0x30
    00000CBE 23               [ 6] 2161 	inc	hl
    00000CBF 36 00            [10] 2162 	ld	(hl), #0x00
    00000CC1 C3r4Er0E         [10] 2163 	jp	00873$
    00000CC4                       2164 00360$:
                                   2165 ;E:\Dropbox\FAUSTO\SVILUPPI\MSX\CODE\C\MSXgl\projects\soccerlgSCC/soccerlg_s10_b3.c:435: else g_Players[playerId].TargetX = 208;
    00000CC4 36 D0            [10] 2166 	ld	(hl), #0xd0
    00000CC6 23               [ 6] 2167 	inc	hl
    00000CC7 36 00            [10] 2168 	ld	(hl), #0x00
    00000CC9 C3r4Er0E         [10] 2169 	jp	00873$
    00000CCC                       2170 00392$:
                                   2171 ;E:\Dropbox\FAUSTO\SVILUPPI\MSX\CODE\C\MSXgl\projects\soccerlgSCC/soccerlg_s10_b3.c:437: } else if (g_Players[playerId].Role == PLAYER_ROLE_LEFT_DEFENDER || 
    00000CCC DD 7E FE         [19] 2172 	ld	a, -2 (ix)
    00000CCF 3D               [ 4] 2173 	dec	a
    00000CD0 28 08            [12] 2174 	jr	Z, 00387$
                                   2175 ;E:\Dropbox\FAUSTO\SVILUPPI\MSX\CODE\C\MSXgl\projects\soccerlgSCC/soccerlg_s10_b3.c:438: g_Players[playerId].Role == PLAYER_ROLE_RIGHT_DEFENDER) {
    00000CD2 DD 7E FE         [19] 2176 	ld	a, -2 (ix)
    00000CD5 D6 02            [ 7] 2177 	sub	a, #0x02
    00000CD7 C2r0Br0E         [10] 2178 	jp	NZ,00388$
    00000CDA                       2179 00387$:
                                   2180 ;E:\Dropbox\FAUSTO\SVILUPPI\MSX\CODE\C\MSXgl\projects\soccerlgSCC/soccerlg_s10_b3.c:360: g_Players[playerId].TargetY = finalTargetY;
    00000CDA DD 7E DB         [19] 2181 	ld	a, -37 (ix)
    00000CDD C6 0E            [ 7] 2182 	add	a, #0x0e
    00000CDF DD 77 F9         [19] 2183 	ld	-7 (ix), a
    00000CE2 DD 7E DC         [19] 2184 	ld	a, -36 (ix)
    00000CE5 CE 00            [ 7] 2185 	adc	a, #0x00
    00000CE7 DD 77 FA         [19] 2186 	ld	-6 (ix), a
                                   2187 ;E:\Dropbox\FAUSTO\SVILUPPI\MSX\CODE\C\MSXgl\projects\soccerlgSCC/soccerlg_s10_b3.c:373: g_Players[playerId].TargetY = g_Ball.Y;
    00000CEA 2Ar00r00         [16] 2188 	ld	hl, (#_g_Ball + 0)
                                   2189 ;E:\Dropbox\FAUSTO\SVILUPPI\MSX\CODE\C\MSXgl\projects\soccerlgSCC/soccerlg_s10_b3.c:425: g_Players[playerId].TargetY = g_Ball.Y - 40;
    00000CED DD 75 FB         [19] 2190 	ld	-5 (ix), l
    00000CF0 DD 74 FC         [19] 2191 	ld	-4 (ix), h
                                   2192 ;E:\Dropbox\FAUSTO\SVILUPPI\MSX\CODE\C\MSXgl\projects\soccerlgSCC/soccerlg_s10_b3.c:441: if (playerTeamId == TEAM_1) { // Attacking UP
    00000CF3 DD 7E DE         [19] 2193 	ld	a, -34 (ix)
    00000CF6 B7               [ 4] 2194 	or	a, a
    00000CF7 28 5B            [12] 2195 	jr	Z, 00377$
                                   2196 ;E:\Dropbox\FAUSTO\SVILUPPI\MSX\CODE\C\MSXgl\projects\soccerlgSCC/soccerlg_s10_b3.c:442: g_Players[playerId].TargetY = g_Ball.Y + 30;
    00000CF9 DD 7E FB         [19] 2197 	ld	a, -5 (ix)
    00000CFC C6 1E            [ 7] 2198 	add	a, #0x1e
    00000CFE DD 77 FD         [19] 2199 	ld	-3 (ix), a
    00000D01 DD 7E FC         [19] 2200 	ld	a, -4 (ix)
    00000D04 CE 00            [ 7] 2201 	adc	a, #0x00
    00000D06 DD 77 FE         [19] 2202 	ld	-2 (ix), a
    00000D09 DD 6E F9         [19] 2203 	ld	l, -7 (ix)
    00000D0C DD 66 FA         [19] 2204 	ld	h, -6 (ix)
    00000D0F DD 7E FD         [19] 2205 	ld	a, -3 (ix)
    00000D12 77               [ 7] 2206 	ld	(hl), a
    00000D13 23               [ 6] 2207 	inc	hl
    00000D14 DD 7E FE         [19] 2208 	ld	a, -2 (ix)
    00000D17 77               [ 7] 2209 	ld	(hl), a
                                   2210 ;E:\Dropbox\FAUSTO\SVILUPPI\MSX\CODE\C\MSXgl\projects\soccerlgSCC/soccerlg_s10_b3.c:444: if (g_Players[playerId].Role == PLAYER_ROLE_LEFT_DEFENDER) {
    00000D18 DD 6E F7         [19] 2211 	ld	l, -9 (ix)
    00000D1B DD 66 F8         [19] 2212 	ld	h, -8 (ix)
    00000D1E 7E               [ 7] 2213 	ld	a, (hl)
                                   2214 ;E:\Dropbox\FAUSTO\SVILUPPI\MSX\CODE\C\MSXgl\projects\soccerlgSCC/soccerlg_s10_b3.c:446: if (g_Players[playerId].TargetY < 318) g_Players[playerId].TargetY = 318;
    00000D1F DD 4E FD         [19] 2215 	ld	c, -3 (ix)
    00000D22 DD 46 FE         [19] 2216 	ld	b, -2 (ix)
                                   2217 ;E:\Dropbox\FAUSTO\SVILUPPI\MSX\CODE\C\MSXgl\projects\soccerlgSCC/soccerlg_s10_b3.c:444: if (g_Players[playerId].Role == PLAYER_ROLE_LEFT_DEFENDER) {
    00000D25 3D               [ 4] 2218 	dec	a
    00000D26 20 16            [12] 2219 	jr	NZ, 00367$
                                   2220 ;E:\Dropbox\FAUSTO\SVILUPPI\MSX\CODE\C\MSXgl\projects\soccerlgSCC/soccerlg_s10_b3.c:446: if (g_Players[playerId].TargetY < 318) g_Players[playerId].TargetY = 318;
    00000D28 79               [ 4] 2221 	ld	a, c
    00000D29 D6 3E            [ 7] 2222 	sub	a, #0x3e
    00000D2B 78               [ 4] 2223 	ld	a, b
    00000D2C DE 01            [ 7] 2224 	sbc	a, #0x01
    00000D2E 30 76            [12] 2225 	jr	NC, 00378$
    00000D30 DD 6E F9         [19] 2226 	ld	l, -7 (ix)
    00000D33 DD 66 FA         [19] 2227 	ld	h, -6 (ix)
    00000D36 36 3E            [10] 2228 	ld	(hl), #0x3e
    00000D38 23               [ 6] 2229 	inc	hl
    00000D39 36 01            [10] 2230 	ld	(hl), #0x01
    00000D3B C3rA6r0D         [10] 2231 	jp	00378$
    00000D3E                       2232 00367$:
                                   2233 ;E:\Dropbox\FAUSTO\SVILUPPI\MSX\CODE\C\MSXgl\projects\soccerlgSCC/soccerlg_s10_b3.c:449: if (g_Players[playerId].TargetY < 190) g_Players[playerId].TargetY = 190;
    00000D3E 79               [ 4] 2234 	ld	a, c
    00000D3F D6 BE            [ 7] 2235 	sub	a, #0xbe
    00000D41 78               [ 4] 2236 	ld	a, b
    00000D42 DE 00            [ 7] 2237 	sbc	a, #0x00
    00000D44 30 60            [12] 2238 	jr	NC, 00378$
    00000D46 DD 6E F9         [19] 2239 	ld	l, -7 (ix)
    00000D49 DD 66 FA         [19] 2240 	ld	h, -6 (ix)
    00000D4C 36 BE            [10] 2241 	ld	(hl), #0xbe
    00000D4E 23               [ 6] 2242 	inc	hl
    00000D4F 36 00            [10] 2243 	ld	(hl), #0x00
    00000D51 C3rA6r0D         [10] 2244 	jp	00378$
    00000D54                       2245 00377$:
                                   2246 ;E:\Dropbox\FAUSTO\SVILUPPI\MSX\CODE\C\MSXgl\projects\soccerlgSCC/soccerlg_s10_b3.c:453: g_Players[playerId].TargetY = g_Ball.Y - 30;
    00000D54 DD 7E FB         [19] 2247 	ld	a, -5 (ix)
    00000D57 C6 E2            [ 7] 2248 	add	a, #0xe2
    00000D59 DD 77 FD         [19] 2249 	ld	-3 (ix), a
    00000D5C DD 7E FC         [19] 2250 	ld	a, -4 (ix)
    00000D5F CE FF            [ 7] 2251 	adc	a, #0xff
    00000D61 DD 77 FE         [19] 2252 	ld	-2 (ix), a
    00000D64 DD 4E FD         [19] 2253 	ld	c, -3 (ix)
    00000D67 DD 46 FE         [19] 2254 	ld	b, -2 (ix)
    00000D6A DD 6E F9         [19] 2255 	ld	l, -7 (ix)
    00000D6D DD 66 FA         [19] 2256 	ld	h, -6 (ix)
    00000D70 71               [ 7] 2257 	ld	(hl), c
    00000D71 23               [ 6] 2258 	inc	hl
    00000D72 70               [ 7] 2259 	ld	(hl), b
                                   2260 ;E:\Dropbox\FAUSTO\SVILUPPI\MSX\CODE\C\MSXgl\projects\soccerlgSCC/soccerlg_s10_b3.c:455: if (g_Players[playerId].Role == PLAYER_ROLE_LEFT_DEFENDER) {
    00000D73 DD 6E F7         [19] 2261 	ld	l, -9 (ix)
    00000D76 DD 66 F8         [19] 2262 	ld	h, -8 (ix)
    00000D79 7E               [ 7] 2263 	ld	a, (hl)
                                   2264 ;E:\Dropbox\FAUSTO\SVILUPPI\MSX\CODE\C\MSXgl\projects\soccerlgSCC/soccerlg_s10_b3.c:446: if (g_Players[playerId].TargetY < 318) g_Players[playerId].TargetY = 318;
                                   2265 ;E:\Dropbox\FAUSTO\SVILUPPI\MSX\CODE\C\MSXgl\projects\soccerlgSCC/soccerlg_s10_b3.c:455: if (g_Players[playerId].Role == PLAYER_ROLE_LEFT_DEFENDER) {
    00000D7A 3D               [ 4] 2266 	dec	a
    00000D7B 20 16            [12] 2267 	jr	NZ, 00374$
                                   2268 ;E:\Dropbox\FAUSTO\SVILUPPI\MSX\CODE\C\MSXgl\projects\soccerlgSCC/soccerlg_s10_b3.c:457: if (g_Players[playerId].TargetY > 106) g_Players[playerId].TargetY = 106;
    00000D7D 3E 6A            [ 7] 2269 	ld	a, #0x6a
    00000D7F B9               [ 4] 2270 	cp	a, c
    00000D80 3E 00            [ 7] 2271 	ld	a, #0x00
    00000D82 98               [ 4] 2272 	sbc	a, b
    00000D83 30 21            [12] 2273 	jr	NC, 00378$
    00000D85 DD 6E F9         [19] 2274 	ld	l, -7 (ix)
    00000D88 DD 66 FA         [19] 2275 	ld	h, -6 (ix)
    00000D8B 36 6A            [10] 2276 	ld	(hl), #0x6a
    00000D8D 23               [ 6] 2277 	inc	hl
    00000D8E 36 00            [10] 2278 	ld	(hl), #0x00
    00000D90 C3rA6r0D         [10] 2279 	jp	00378$
    00000D93                       2280 00374$:
                                   2281 ;E:\Dropbox\FAUSTO\SVILUPPI\MSX\CODE\C\MSXgl\projects\soccerlgSCC/soccerlg_s10_b3.c:460: if (g_Players[playerId].TargetY > 234) g_Players[playerId].TargetY = 234;
    00000D93 3E EA            [ 7] 2282 	ld	a, #0xea
    00000D95 B9               [ 4] 2283 	cp	a, c
    00000D96 3E 00            [ 7] 2284 	ld	a, #0x00
    00000D98 98               [ 4] 2285 	sbc	a, b
    00000D99 30 0B            [12] 2286 	jr	NC, 00378$
    00000D9B DD 6E F9         [19] 2287 	ld	l, -7 (ix)
    00000D9E DD 66 FA         [19] 2288 	ld	h, -6 (ix)
    00000DA1 36 EA            [10] 2289 	ld	(hl), #0xea
    00000DA3 23               [ 6] 2290 	inc	hl
    00000DA4 36 00            [10] 2291 	ld	(hl), #0x00
    00000DA6                       2292 00378$:
                                   2293 ;E:\Dropbox\FAUSTO\SVILUPPI\MSX\CODE\C\MSXgl\projects\soccerlgSCC/soccerlg_s10_b3.c:466: if (g_Players[playerId].Role == PLAYER_ROLE_LEFT_DEFENDER) defTargetX = 80;
    00000DA6 DD 6E F7         [19] 2294 	ld	l, -9 (ix)
    00000DA9 DD 66 F8         [19] 2295 	ld	h, -8 (ix)
    00000DAC 7E               [ 7] 2296 	ld	a, (hl)
    00000DAD 3D               [ 4] 2297 	dec	a
    00000DAE 20 0B            [12] 2298 	jr	NZ, 00380$
    00000DB0 DD 36 F9 50      [19] 2299 	ld	-7 (ix), #0x50
    00000DB4 DD 36 FA 00      [19] 2300 	ld	-6 (ix), #0
    00000DB8 C3rC3r0D         [10] 2301 	jp	00381$
    00000DBB                       2302 00380$:
                                   2303 ;E:\Dropbox\FAUSTO\SVILUPPI\MSX\CODE\C\MSXgl\projects\soccerlgSCC/soccerlg_s10_b3.c:467: else defTargetX = 176;
    00000DBB DD 36 F9 B0      [19] 2304 	ld	-7 (ix), #0xb0
    00000DBF DD 36 FA 00      [19] 2305 	ld	-6 (ix), #0
    00000DC3                       2306 00381$:
                                   2307 ;E:\Dropbox\FAUSTO\SVILUPPI\MSX\CODE\C\MSXgl\projects\soccerlgSCC/soccerlg_s10_b3.c:470: defTargetX = (defTargetX + g_Ball.X) / 2;
    00000DC3 21r02r00         [10] 2308 	ld	hl, #_g_Ball + 2
    00000DC6 7E               [ 7] 2309 	ld	a, (hl)
    00000DC7 DD 77 FB         [19] 2310 	ld	-5 (ix), a
    00000DCA 23               [ 6] 2311 	inc	hl
    00000DCB 7E               [ 7] 2312 	ld	a, (hl)
    00000DCC DD 77 FC         [19] 2313 	ld	-4 (ix), a
    00000DCF DD 7E FB         [19] 2314 	ld	a, -5 (ix)
    00000DD2 DD 86 F9         [19] 2315 	add	a, -7 (ix)
    00000DD5 DD 77 FD         [19] 2316 	ld	-3 (ix), a
    00000DD8 DD 7E FC         [19] 2317 	ld	a, -4 (ix)
    00000DDB DD 8E FA         [19] 2318 	adc	a, -6 (ix)
    00000DDE DD 77 FE         [19] 2319 	ld	-2 (ix), a
    00000DE1 DD CB FE 3E      [23] 2320 	srl	-2 (ix)
    00000DE5 DD CB FD 1E      [23] 2321 	rr	-3 (ix)
                                   2322 ;E:\Dropbox\FAUSTO\SVILUPPI\MSX\CODE\C\MSXgl\projects\soccerlgSCC/soccerlg_s10_b3.c:471: g_Players[playerId].TargetX = defTargetX;
    00000DE9 DD 7E DB         [19] 2323 	ld	a, -37 (ix)
    00000DEC C6 10            [ 7] 2324 	add	a, #0x10
    00000DEE DD 77 FB         [19] 2325 	ld	-5 (ix), a
    00000DF1 DD 7E DC         [19] 2326 	ld	a, -36 (ix)
    00000DF4 CE 00            [ 7] 2327 	adc	a, #0x00
    00000DF6 DD 77 FC         [19] 2328 	ld	-4 (ix), a
    00000DF9 DD 6E FB         [19] 2329 	ld	l, -5 (ix)
    00000DFC DD 66 FC         [19] 2330 	ld	h, -4 (ix)
    00000DFF DD 7E FD         [19] 2331 	ld	a, -3 (ix)
    00000E02 77               [ 7] 2332 	ld	(hl), a
    00000E03 23               [ 6] 2333 	inc	hl
    00000E04 DD 7E FE         [19] 2334 	ld	a, -2 (ix)
    00000E07 77               [ 7] 2335 	ld	(hl), a
    00000E08 C3r4Er0E         [10] 2336 	jp	00873$
    00000E0B                       2337 00388$:
                                   2338 ;E:\Dropbox\FAUSTO\SVILUPPI\MSX\CODE\C\MSXgl\projects\soccerlgSCC/soccerlg_s10_b3.c:473: } else if (g_Players[playerId].Role == PLAYER_ROLE_GOALKEEPER) {
    00000E0B DD 7E FE         [19] 2339 	ld	a, -2 (ix)
    00000E0E B7               [ 4] 2340 	or	a, a
    00000E0F 20 3D            [12] 2341 	jr	NZ, 00873$
                                   2342 ;E:\Dropbox\FAUSTO\SVILUPPI\MSX\CODE\C\MSXgl\projects\soccerlgSCC/soccerlg_s10_b3.c:474: g_Players[playerId].TargetX = FIELD_POS_X_CENTER;
    00000E11 E1               [10] 2343 	pop	hl
    00000E12 E5               [11] 2344 	push	hl
    00000E13 11 10 00         [10] 2345 	ld	de, #0x0010
    00000E16 19               [11] 2346 	add	hl, de
    00000E17 36 78            [10] 2347 	ld	(hl), #0x78
    00000E19 23               [ 6] 2348 	inc	hl
    00000E1A 36 00            [10] 2349 	ld	(hl), #0x00
                                   2350 ;E:\Dropbox\FAUSTO\SVILUPPI\MSX\CODE\C\MSXgl\projects\soccerlgSCC/soccerlg_s10_b3.c:360: g_Players[playerId].TargetY = finalTargetY;
    00000E1C DD 7E DB         [19] 2351 	ld	a, -37 (ix)
    00000E1F C6 0E            [ 7] 2352 	add	a, #0x0e
    00000E21 DD 77 FD         [19] 2353 	ld	-3 (ix), a
    00000E24 DD 7E DC         [19] 2354 	ld	a, -36 (ix)
    00000E27 CE 00            [ 7] 2355 	adc	a, #0x00
    00000E29 DD 77 FE         [19] 2356 	ld	-2 (ix), a
                                   2357 ;E:\Dropbox\FAUSTO\SVILUPPI\MSX\CODE\C\MSXgl\projects\soccerlgSCC/soccerlg_s10_b3.c:475: if (playerTeamId == TEAM_1) g_Players[playerId].TargetY = GK_BOX_Y_BOTTOM_MIN + 20;
    00000E2C DD 7E DE         [19] 2358 	ld	a, -34 (ix)
    00000E2F B7               [ 4] 2359 	or	a, a
    00000E30 28 0E            [12] 2360 	jr	Z, 00383$
    00000E32 DD 6E FD         [19] 2361 	ld	l, -3 (ix)
    00000E35 DD 66 FE         [19] 2362 	ld	h, -2 (ix)
    00000E38 36 A9            [10] 2363 	ld	(hl), #0xa9
    00000E3A 23               [ 6] 2364 	inc	hl
    00000E3B 36 01            [10] 2365 	ld	(hl), #0x01
    00000E3D C3r5Er1D         [10] 2366 	jp	00670$
    00000E40                       2367 00383$:
                                   2368 ;E:\Dropbox\FAUSTO\SVILUPPI\MSX\CODE\C\MSXgl\projects\soccerlgSCC/soccerlg_s10_b3.c:476: else g_Players[playerId].TargetY = GK_BOX_Y_TOP_MAX - 20;
    00000E40 DD 6E FD         [19] 2369 	ld	l, -3 (ix)
    00000E43 DD 66 FE         [19] 2370 	ld	h, -2 (ix)
    00000E46 36 37            [10] 2371 	ld	(hl), #0x37
    00000E48 23               [ 6] 2372 	inc	hl
    00000E49 36 00            [10] 2373 	ld	(hl), #0x00
                                   2374 ;E:\Dropbox\FAUSTO\SVILUPPI\MSX\CODE\C\MSXgl\projects\soccerlgSCC/soccerlg_s10_b3.c:477: return; // GK Done
    00000E4B C3r5Er1D         [10] 2375 	jp	00670$
                                   2376 ;E:\Dropbox\FAUSTO\SVILUPPI\MSX\CODE\C\MSXgl\projects\soccerlgSCC/soccerlg_s10_b3.c:481: for(u8 i=0; i<14; i++) {
    00000E4E                       2377 00873$:
    00000E4E DD 36 FE 00      [19] 2378 	ld	-2 (ix), #0x00
    00000E52                       2379 00661$:
    00000E52 DD 7E FE         [19] 2380 	ld	a, -2 (ix)
    00000E55 D6 0E            [ 7] 2381 	sub	a, #0x0e
    00000E57 D2r76r10         [10] 2382 	jp	NC, 00419$
                                   2383 ;E:\Dropbox\FAUSTO\SVILUPPI\MSX\CODE\C\MSXgl\projects\soccerlgSCC/soccerlg_s10_b3.c:482: if (i == playerId) continue;
    00000E5A DD 7E FF         [19] 2384 	ld	a, -1 (ix)
    00000E5D DD 96 FE         [19] 2385 	sub	a, -2 (ix)
    00000E60 CAr70r10         [10] 2386 	jp	Z,00418$
                                   2387 ;E:\Dropbox\FAUSTO\SVILUPPI\MSX\CODE\C\MSXgl\projects\soccerlgSCC/soccerlg_s10_b3.c:483: if (g_Players[i].Status == PLAYER_STATUS_NONE) continue;
    00000E63 DD 4E FE         [19] 2388 	ld	c, -2 (ix)
    00000E66 06 00            [ 7] 2389 	ld	b, #0x00
    00000E68 69               [ 4] 2390 	ld	l, c
    00000E69 60               [ 4] 2391 	ld	h, b
    00000E6A 29               [11] 2392 	add	hl, hl
    00000E6B 29               [11] 2393 	add	hl, hl
    00000E6C 09               [11] 2394 	add	hl, bc
    00000E6D 29               [11] 2395 	add	hl, hl
    00000E6E 29               [11] 2396 	add	hl, hl
    00000E6F 09               [11] 2397 	add	hl, bc
    00000E70 DD 75 FA         [19] 2398 	ld	-6 (ix), l
    00000E73 DD 74 FB         [19] 2399 	ld	-5 (ix), h
    00000E76 DD 7E FA         [19] 2400 	ld	a, -6 (ix)
    00000E79 C6r00            [ 7] 2401 	add	a, #<(_g_Players)
    00000E7B DD 77 FC         [19] 2402 	ld	-4 (ix), a
    00000E7E DD 7E FB         [19] 2403 	ld	a, -5 (ix)
    00000E81 CEs00            [ 7] 2404 	adc	a, #>(_g_Players)
    00000E83 DD 77 FD         [19] 2405 	ld	-3 (ix), a
    00000E86 DD 7E FC         [19] 2406 	ld	a, -4 (ix)
    00000E89 DD 77 FA         [19] 2407 	ld	-6 (ix), a
    00000E8C DD 7E FD         [19] 2408 	ld	a, -3 (ix)
    00000E8F DD 77 FB         [19] 2409 	ld	-5 (ix), a
    00000E92 DD 6E FA         [19] 2410 	ld	l, -6 (ix)
    00000E95 DD 66 FB         [19] 2411 	ld	h, -5 (ix)
    00000E98 11 12 00         [10] 2412 	ld	de, #0x0012
    00000E9B 19               [11] 2413 	add	hl, de
    00000E9C 7E               [ 7] 2414 	ld	a, (hl)
    00000E9D DD 77 FA         [19] 2415 	ld	-6 (ix), a
    00000EA0 23               [ 6] 2416 	inc	hl
    00000EA1 7E               [ 7] 2417 	ld	a, (hl)
    00000EA2 DD 77 FB         [19] 2418 	ld	-5 (ix), a
    00000EA5 DD B6 FA         [19] 2419 	or	a, -6 (ix)
    00000EA8 CAr70r10         [10] 2420 	jp	Z, 00418$
                                   2421 ;E:\Dropbox\FAUSTO\SVILUPPI\MSX\CODE\C\MSXgl\projects\soccerlgSCC/soccerlg_s10_b3.c:484: if (g_Players[i].TeamId != playerTeamId) continue;
    00000EAB DD 4E FC         [19] 2422 	ld	c, -4 (ix)
    00000EAE DD 46 FD         [19] 2423 	ld	b, -3 (ix)
    00000EB1 21 09 00         [10] 2424 	ld	hl, #9
    00000EB4 09               [11] 2425 	add	hl, bc
    00000EB5 DD 7E DD         [19] 2426 	ld	a,-35 (ix)
    00000EB8 96               [ 7] 2427 	sub	a,(hl)
    00000EB9 C2r70r10         [10] 2428 	jp	NZ,00418$
                                   2429 ;E:\Dropbox\FAUSTO\SVILUPPI\MSX\CODE\C\MSXgl\projects\soccerlgSCC/soccerlg_s10_b3.c:485: if (g_Players[i].Role == PLAYER_ROLE_GOALKEEPER) continue;
    00000EBC DD 4E FC         [19] 2430 	ld	c, -4 (ix)
    00000EBF DD 46 FD         [19] 2431 	ld	b, -3 (ix)
    00000EC2 21 0D 00         [10] 2432 	ld	hl, #13
    00000EC5 09               [11] 2433 	add	hl, bc
    00000EC6 7E               [ 7] 2434 	ld	a, (hl)
    00000EC7 B7               [ 4] 2435 	or	a, a
    00000EC8 CAr70r10         [10] 2436 	jp	Z, 00418$
                                   2437 ;E:\Dropbox\FAUSTO\SVILUPPI\MSX\CODE\C\MSXgl\projects\soccerlgSCC/soccerlg_s10_b3.c:487: i16 dx = (i16)g_Players[playerId].TargetX - (i16)g_Players[i].X;
    00000ECB DD 7E DB         [19] 2438 	ld	a, -37 (ix)
    00000ECE C6 10            [ 7] 2439 	add	a, #0x10
    00000ED0 DD 77 F0         [19] 2440 	ld	-16 (ix), a
    00000ED3 DD 7E DC         [19] 2441 	ld	a, -36 (ix)
    00000ED6 CE 00            [ 7] 2442 	adc	a, #0x00
    00000ED8 DD 77 F1         [19] 2443 	ld	-15 (ix), a
    00000EDB DD 6E F0         [19] 2444 	ld	l, -16 (ix)
    00000EDE DD 66 F1         [19] 2445 	ld	h, -15 (ix)
    00000EE1 7E               [ 7] 2446 	ld	a, (hl)
    00000EE2 DD 77 F2         [19] 2447 	ld	-14 (ix), a
    00000EE5 23               [ 6] 2448 	inc	hl
    00000EE6 7E               [ 7] 2449 	ld	a, (hl)
    00000EE7 DD 77 F3         [19] 2450 	ld	-13 (ix), a
    00000EEA DD 7E F2         [19] 2451 	ld	a, -14 (ix)
    00000EED DD 77 F6         [19] 2452 	ld	-10 (ix), a
    00000EF0 DD 7E F3         [19] 2453 	ld	a, -13 (ix)
    00000EF3 DD 77 F7         [19] 2454 	ld	-9 (ix), a
    00000EF6 DD 7E FC         [19] 2455 	ld	a, -4 (ix)
    00000EF9 DD 77 FA         [19] 2456 	ld	-6 (ix), a
    00000EFC DD 7E FD         [19] 2457 	ld	a, -3 (ix)
    00000EFF DD 77 FB         [19] 2458 	ld	-5 (ix), a
    00000F02 DD 6E FA         [19] 2459 	ld	l, -6 (ix)
    00000F05 DD 66 FB         [19] 2460 	ld	h, -5 (ix)
    00000F08 23               [ 6] 2461 	inc	hl
    00000F09 23               [ 6] 2462 	inc	hl
    00000F0A 7E               [ 7] 2463 	ld	a, (hl)
    00000F0B DD 77 FA         [19] 2464 	ld	-6 (ix), a
    00000F0E 23               [ 6] 2465 	inc	hl
    00000F0F 7E               [ 7] 2466 	ld	a, (hl)
    00000F10 DD 77 FB         [19] 2467 	ld	-5 (ix), a
    00000F13 DD 7E FA         [19] 2468 	ld	a, -6 (ix)
    00000F16 DD 77 F8         [19] 2469 	ld	-8 (ix), a
    00000F19 DD 7E FB         [19] 2470 	ld	a, -5 (ix)
    00000F1C DD 77 F9         [19] 2471 	ld	-7 (ix), a
    00000F1F DD 7E F6         [19] 2472 	ld	a, -10 (ix)
    00000F22 DD 96 F8         [19] 2473 	sub	a, -8 (ix)
    00000F25 DD 77 FA         [19] 2474 	ld	-6 (ix), a
    00000F28 DD 7E F7         [19] 2475 	ld	a, -9 (ix)
    00000F2B DD 9E F9         [19] 2476 	sbc	a, -7 (ix)
    00000F2E DD 77 FB         [19] 2477 	ld	-5 (ix), a
    00000F31 DD 7E FA         [19] 2478 	ld	a, -6 (ix)
    00000F34 DD 77 F4         [19] 2479 	ld	-12 (ix), a
    00000F37 DD 7E FB         [19] 2480 	ld	a, -5 (ix)
    00000F3A DD 77 F5         [19] 2481 	ld	-11 (ix), a
                                   2482 ;E:\Dropbox\FAUSTO\SVILUPPI\MSX\CODE\C\MSXgl\projects\soccerlgSCC/soccerlg_s10_b3.c:488: i16 dy = (i16)g_Players[playerId].TargetY - (i16)g_Players[i].Y;
    00000F3D DD 7E DB         [19] 2483 	ld	a, -37 (ix)
    00000F40 C6 0E            [ 7] 2484 	add	a, #0x0e
    00000F42 DD 77 F6         [19] 2485 	ld	-10 (ix), a
    00000F45 DD 7E DC         [19] 2486 	ld	a, -36 (ix)
    00000F48 CE 00            [ 7] 2487 	adc	a, #0x00
    00000F4A DD 77 F7         [19] 2488 	ld	-9 (ix), a
    00000F4D DD 6E F6         [19] 2489 	ld	l, -10 (ix)
    00000F50 DD 66 F7         [19] 2490 	ld	h, -9 (ix)
    00000F53 7E               [ 7] 2491 	ld	a, (hl)
    00000F54 DD 77 FA         [19] 2492 	ld	-6 (ix), a
    00000F57 23               [ 6] 2493 	inc	hl
    00000F58 7E               [ 7] 2494 	ld	a, (hl)
    00000F59 DD 77 FB         [19] 2495 	ld	-5 (ix), a
    00000F5C DD 7E FA         [19] 2496 	ld	a, -6 (ix)
    00000F5F DD 77 F8         [19] 2497 	ld	-8 (ix), a
    00000F62 DD 7E FB         [19] 2498 	ld	a, -5 (ix)
    00000F65 DD 77 F9         [19] 2499 	ld	-7 (ix), a
    00000F68 DD 6E FC         [19] 2500 	ld	l, -4 (ix)
    00000F6B DD 66 FD         [19] 2501 	ld	h, -3 (ix)
    00000F6E 7E               [ 7] 2502 	ld	a, (hl)
    00000F6F DD 77 FC         [19] 2503 	ld	-4 (ix), a
    00000F72 23               [ 6] 2504 	inc	hl
    00000F73 7E               [ 7] 2505 	ld	a, (hl)
    00000F74 DD 77 FD         [19] 2506 	ld	-3 (ix), a
    00000F77 DD 7E FC         [19] 2507 	ld	a, -4 (ix)
    00000F7A DD 77 FA         [19] 2508 	ld	-6 (ix), a
    00000F7D DD 7E FD         [19] 2509 	ld	a, -3 (ix)
    00000F80 DD 77 FB         [19] 2510 	ld	-5 (ix), a
    00000F83 DD 7E F8         [19] 2511 	ld	a, -8 (ix)
    00000F86 DD 96 FA         [19] 2512 	sub	a, -6 (ix)
    00000F89 DD 77 FC         [19] 2513 	ld	-4 (ix), a
    00000F8C DD 7E F9         [19] 2514 	ld	a, -7 (ix)
    00000F8F DD 9E FB         [19] 2515 	sbc	a, -5 (ix)
    00000F92 DD 77 FD         [19] 2516 	ld	-3 (ix), a
    00000F95 DD 5E FC         [19] 2517 	ld	e, -4 (ix)
    00000F98 DD 56 FD         [19] 2518 	ld	d, -3 (ix)
                                   2519 ;E:\Dropbox\FAUSTO\SVILUPPI\MSX\CODE\C\MSXgl\projects\soccerlgSCC/soccerlg_s10_b3.c:489: if (dx > -75 && dx < 75 && dy > -75 && dy < 75) {
    00000F9B 3E B5            [ 7] 2520 	ld	a, #0xb5
    00000F9D DD BE F4         [19] 2521 	cp	a, -12 (ix)
    00000FA0 3E FF            [ 7] 2522 	ld	a, #0xff
    00000FA2 DD 9E F5         [19] 2523 	sbc	a, -11 (ix)
    00000FA5 E2rAAr0F         [10] 2524 	jp	PO, 02203$
    00000FA8 EE 80            [ 7] 2525 	xor	a, #0x80
    00000FAA                       2526 02203$:
    00000FAA F2r70r10         [10] 2527 	jp	P, 00418$
    00000FAD DD 7E F4         [19] 2528 	ld	a, -12 (ix)
    00000FB0 DD 46 F5         [19] 2529 	ld	b, -11 (ix)
    00000FB3 D6 4B            [ 7] 2530 	sub	a, #0x4b
    00000FB5 78               [ 4] 2531 	ld	a, b
    00000FB6 17               [ 4] 2532 	rla
    00000FB7 3F               [ 4] 2533 	ccf
    00000FB8 1F               [ 4] 2534 	rra
    00000FB9 DE 80            [ 7] 2535 	sbc	a, #0x80
    00000FBB D2r70r10         [10] 2536 	jp	NC, 00418$
    00000FBE 3E B5            [ 7] 2537 	ld	a, #0xb5
    00000FC0 BB               [ 4] 2538 	cp	a, e
    00000FC1 3E FF            [ 7] 2539 	ld	a, #0xff
    00000FC3 9A               [ 4] 2540 	sbc	a, d
    00000FC4 E2rC9r0F         [10] 2541 	jp	PO, 02204$
    00000FC7 EE 80            [ 7] 2542 	xor	a, #0x80
    00000FC9                       2543 02204$:
    00000FC9 F2r70r10         [10] 2544 	jp	P, 00418$
    00000FCC DD 73 FA         [19] 2545 	ld	-6 (ix), e
    00000FCF DD 72 FB         [19] 2546 	ld	-5 (ix), d
    00000FD2 DD 7E FA         [19] 2547 	ld	a, -6 (ix)
    00000FD5 D6 4B            [ 7] 2548 	sub	a, #0x4b
    00000FD7 DD 7E FB         [19] 2549 	ld	a, -5 (ix)
    00000FDA 17               [ 4] 2550 	rla
    00000FDB 3F               [ 4] 2551 	ccf
    00000FDC 1F               [ 4] 2552 	rra
    00000FDD DE 80            [ 7] 2553 	sbc	a, #0x80
    00000FDF D2r70r10         [10] 2554 	jp	NC, 00418$
                                   2555 ;E:\Dropbox\FAUSTO\SVILUPPI\MSX\CODE\C\MSXgl\projects\soccerlgSCC/soccerlg_s10_b3.c:490: if (dx >= 0) g_Players[playerId].TargetX += 12; else g_Players[playerId].TargetX -= 12;
    00000FE2 DD 7E F2         [19] 2556 	ld	a, -14 (ix)
    00000FE5 DD 77 FC         [19] 2557 	ld	-4 (ix), a
    00000FE8 DD 7E F3         [19] 2558 	ld	a, -13 (ix)
    00000FEB DD 77 FD         [19] 2559 	ld	-3 (ix), a
    00000FEE CB 78            [ 8] 2560 	bit	7, b
    00000FF0 20 2E            [12] 2561 	jr	NZ, 00408$
    00000FF2 DD 7E FC         [19] 2562 	ld	a, -4 (ix)
    00000FF5 C6 0C            [ 7] 2563 	add	a, #0x0c
    00000FF7 DD 77 F8         [19] 2564 	ld	-8 (ix), a
    00000FFA DD 7E FD         [19] 2565 	ld	a, -3 (ix)
    00000FFD CE 00            [ 7] 2566 	adc	a, #0x00
    00000FFF DD 77 F9         [19] 2567 	ld	-7 (ix), a
    00001002 DD 7E F8         [19] 2568 	ld	a, -8 (ix)
    00001005 DD 77 FC         [19] 2569 	ld	-4 (ix), a
    00001008 DD 7E F9         [19] 2570 	ld	a, -7 (ix)
    0000100B DD 77 FD         [19] 2571 	ld	-3 (ix), a
    0000100E DD 6E F0         [19] 2572 	ld	l, -16 (ix)
    00001011 DD 66 F1         [19] 2573 	ld	h, -15 (ix)
    00001014 DD 7E FC         [19] 2574 	ld	a, -4 (ix)
    00001017 77               [ 7] 2575 	ld	(hl), a
    00001018 23               [ 6] 2576 	inc	hl
    00001019 DD 7E FD         [19] 2577 	ld	a, -3 (ix)
    0000101C 77               [ 7] 2578 	ld	(hl), a
    0000101D C3r3Fr10         [10] 2579 	jp	00409$
    00001020                       2580 00408$:
    00001020 DD 7E FC         [19] 2581 	ld	a, -4 (ix)
    00001023 C6 F4            [ 7] 2582 	add	a, #0xf4
    00001025 DD 77 F8         [19] 2583 	ld	-8 (ix), a
    00001028 DD 7E FD         [19] 2584 	ld	a, -3 (ix)
    0000102B CE FF            [ 7] 2585 	adc	a, #0xff
    0000102D DD 77 F9         [19] 2586 	ld	-7 (ix), a
    00001030 DD 4E F8         [19] 2587 	ld	c, -8 (ix)
    00001033 DD 46 F9         [19] 2588 	ld	b, -7 (ix)
    00001036 DD 6E F0         [19] 2589 	ld	l, -16 (ix)
    00001039 DD 66 F1         [19] 2590 	ld	h, -15 (ix)
    0000103C 71               [ 7] 2591 	ld	(hl), c
    0000103D 23               [ 6] 2592 	inc	hl
    0000103E 70               [ 7] 2593 	ld	(hl), b
    0000103F                       2594 00409$:
                                   2595 ;E:\Dropbox\FAUSTO\SVILUPPI\MSX\CODE\C\MSXgl\projects\soccerlgSCC/soccerlg_s10_b3.c:488: i16 dy = (i16)g_Players[playerId].TargetY - (i16)g_Players[i].Y;
    0000103F DD 6E F6         [19] 2596 	ld	l, -10 (ix)
    00001042 DD 66 F7         [19] 2597 	ld	h, -9 (ix)
    00001045 4E               [ 7] 2598 	ld	c, (hl)
    00001046 23               [ 6] 2599 	inc	hl
    00001047 46               [ 7] 2600 	ld	b, (hl)
                                   2601 ;E:\Dropbox\FAUSTO\SVILUPPI\MSX\CODE\C\MSXgl\projects\soccerlgSCC/soccerlg_s10_b3.c:491: if (dy >= 0) g_Players[playerId].TargetY += 12; else g_Players[playerId].TargetY -= 12;
    00001048 DD CB FB 7E      [20] 2602 	bit	7, -5 (ix)
    0000104C 20 11            [12] 2603 	jr	NZ, 00411$
    0000104E 21 0C 00         [10] 2604 	ld	hl, #0x000c
    00001051 09               [11] 2605 	add	hl, bc
    00001052 EB               [ 4] 2606 	ex	de, hl
    00001053 DD 6E F6         [19] 2607 	ld	l, -10 (ix)
    00001056 DD 66 F7         [19] 2608 	ld	h, -9 (ix)
    00001059 73               [ 7] 2609 	ld	(hl), e
    0000105A 23               [ 6] 2610 	inc	hl
    0000105B 72               [ 7] 2611 	ld	(hl), d
    0000105C C3r70r10         [10] 2612 	jp	00418$
    0000105F                       2613 00411$:
    0000105F 79               [ 4] 2614 	ld	a, c
    00001060 C6 F4            [ 7] 2615 	add	a, #0xf4
    00001062 4F               [ 4] 2616 	ld	c, a
    00001063 78               [ 4] 2617 	ld	a, b
    00001064 CE FF            [ 7] 2618 	adc	a, #0xff
    00001066 47               [ 4] 2619 	ld	b, a
    00001067 DD 6E F6         [19] 2620 	ld	l, -10 (ix)
    0000106A DD 66 F7         [19] 2621 	ld	h, -9 (ix)
    0000106D 71               [ 7] 2622 	ld	(hl), c
    0000106E 23               [ 6] 2623 	inc	hl
    0000106F 70               [ 7] 2624 	ld	(hl), b
    00001070                       2625 00418$:
                                   2626 ;E:\Dropbox\FAUSTO\SVILUPPI\MSX\CODE\C\MSXgl\projects\soccerlgSCC/soccerlg_s10_b3.c:481: for(u8 i=0; i<14; i++) {
    00001070 DD 34 FE         [23] 2627 	inc	-2 (ix)
    00001073 C3r52r0E         [10] 2628 	jp	00661$
    00001076                       2629 00419$:
                                   2630 ;E:\Dropbox\FAUSTO\SVILUPPI\MSX\CODE\C\MSXgl\projects\soccerlgSCC/soccerlg_s10_b3.c:496: u16 offsideY = CallFnc_U16_P1(11,GetOffsideLineY,playerTeamId);
    00001076 DD 7E DD         [19] 2631 	ld	a, -35 (ix)
    00001079 F5               [11] 2632 	push	af
    0000107A 33               [ 6] 2633 	inc	sp
    0000107B 11r00r00         [10] 2634 	ld	de, #_GetOffsideLineY
    0000107E 3E 0B            [ 7] 2635 	ld	a, #0x0b
    00001080 CDr00r00         [17] 2636 	call	_CallFnc_U16_P1
    00001083 DD 73 FB         [19] 2637 	ld	-5 (ix), e
    00001086 DD 72 FC         [19] 2638 	ld	-4 (ix), d
                                   2639 ;E:\Dropbox\FAUSTO\SVILUPPI\MSX\CODE\C\MSXgl\projects\soccerlgSCC/soccerlg_s10_b3.c:360: g_Players[playerId].TargetY = finalTargetY;
    00001089 DD 7E DB         [19] 2640 	ld	a, -37 (ix)
    0000108C C6 0E            [ 7] 2641 	add	a, #0x0e
    0000108E DD 77 FD         [19] 2642 	ld	-3 (ix), a
    00001091 DD 7E DC         [19] 2643 	ld	a, -36 (ix)
    00001094 CE 00            [ 7] 2644 	adc	a, #0x00
    00001096 DD 77 FE         [19] 2645 	ld	-2 (ix), a
                                   2646 ;E:\Dropbox\FAUSTO\SVILUPPI\MSX\CODE\C\MSXgl\projects\soccerlgSCC/soccerlg_s10_b3.c:373: g_Players[playerId].TargetY = g_Ball.Y;
    00001099 21r00r00         [10] 2647 	ld	hl, #_g_Ball
    0000109C 7E               [ 7] 2648 	ld	a, (hl)
    0000109D DD 77 F7         [19] 2649 	ld	-9 (ix), a
    000010A0 23               [ 6] 2650 	inc	hl
    000010A1 7E               [ 7] 2651 	ld	a, (hl)
    000010A2 DD 77 F8         [19] 2652 	ld	-8 (ix), a
                                   2653 ;E:\Dropbox\FAUSTO\SVILUPPI\MSX\CODE\C\MSXgl\projects\soccerlgSCC/soccerlg_s10_b3.c:446: if (g_Players[playerId].TargetY < 318) g_Players[playerId].TargetY = 318;
    000010A5 DD 6E FD         [19] 2654 	ld	l, -3 (ix)
    000010A8 DD 66 FE         [19] 2655 	ld	h, -2 (ix)
    000010AB 4E               [ 7] 2656 	ld	c, (hl)
    000010AC 23               [ 6] 2657 	inc	hl
    000010AD 7E               [ 7] 2658 	ld	a, (hl)
    000010AE DD 71 F9         [19] 2659 	ld	-7 (ix), c
    000010B1 DD 77 FA         [19] 2660 	ld	-6 (ix), a
                                   2661 ;E:\Dropbox\FAUSTO\SVILUPPI\MSX\CODE\C\MSXgl\projects\soccerlgSCC/soccerlg_s10_b3.c:499: if (playerTeamId == TEAM_1) { // Attacking UP (TargetY decreases)
    000010B4 DD 7E DE         [19] 2662 	ld	a, -34 (ix)
    000010B7 B7               [ 4] 2663 	or	a, a
    000010B8 28 39            [12] 2664 	jr	Z, 00425$
                                   2665 ;E:\Dropbox\FAUSTO\SVILUPPI\MSX\CODE\C\MSXgl\projects\soccerlgSCC/soccerlg_s10_b3.c:503: effectiveLimit = (g_Ball.Y < offsideY) ? g_Ball.Y : offsideY;
    000010BA DD 7E F7         [19] 2666 	ld	a, -9 (ix)
    000010BD DD 96 FB         [19] 2667 	sub	a, -5 (ix)
    000010C0 DD 7E F8         [19] 2668 	ld	a, -8 (ix)
    000010C3 DD 9E FC         [19] 2669 	sbc	a, -4 (ix)
    000010C6 30 09            [12] 2670 	jr	NC, 00697$
    000010C8 DD 5E F7         [19] 2671 	ld	e, -9 (ix)
    000010CB DD 56 F8         [19] 2672 	ld	d, -8 (ix)
    000010CE C3rD7r10         [10] 2673 	jp	00698$
    000010D1                       2674 00697$:
    000010D1 DD 5E FB         [19] 2675 	ld	e, -5 (ix)
    000010D4 DD 56 FC         [19] 2676 	ld	d, -4 (ix)
    000010D7                       2677 00698$:
                                   2678 ;E:\Dropbox\FAUSTO\SVILUPPI\MSX\CODE\C\MSXgl\projects\soccerlgSCC/soccerlg_s10_b3.c:505: if (g_Players[playerId].TargetY < (effectiveLimit + 30)) { 
    000010D7 21 1E 00         [10] 2679 	ld	hl, #0x001e
    000010DA 19               [11] 2680 	add	hl, de
    000010DB EB               [ 4] 2681 	ex	de, hl
    000010DC DD 7E F9         [19] 2682 	ld	a, -7 (ix)
    000010DF 93               [ 4] 2683 	sub	a, e
    000010E0 DD 7E FA         [19] 2684 	ld	a, -6 (ix)
    000010E3 9A               [ 4] 2685 	sbc	a, d
    000010E4 D2r5Er1D         [10] 2686 	jp	NC,00670$
                                   2687 ;E:\Dropbox\FAUSTO\SVILUPPI\MSX\CODE\C\MSXgl\projects\soccerlgSCC/soccerlg_s10_b3.c:506: g_Players[playerId].TargetY = effectiveLimit + 30;
    000010E7 DD 6E FD         [19] 2688 	ld	l, -3 (ix)
    000010EA DD 66 FE         [19] 2689 	ld	h, -2 (ix)
    000010ED 73               [ 7] 2690 	ld	(hl), e
    000010EE 23               [ 6] 2691 	inc	hl
    000010EF 72               [ 7] 2692 	ld	(hl), d
    000010F0 C3r5Er1D         [10] 2693 	jp	00670$
    000010F3                       2694 00425$:
                                   2695 ;E:\Dropbox\FAUSTO\SVILUPPI\MSX\CODE\C\MSXgl\projects\soccerlgSCC/soccerlg_s10_b3.c:510: effectiveLimit = (g_Ball.Y > offsideY) ? g_Ball.Y : offsideY;
    000010F3 DD 7E FB         [19] 2696 	ld	a, -5 (ix)
    000010F6 DD 96 F7         [19] 2697 	sub	a, -9 (ix)
    000010F9 DD 7E FC         [19] 2698 	ld	a, -4 (ix)
    000010FC DD 9E F8         [19] 2699 	sbc	a, -8 (ix)
    000010FF 30 09            [12] 2700 	jr	NC, 00699$
    00001101 DD 5E F7         [19] 2701 	ld	e, -9 (ix)
    00001104 DD 56 F8         [19] 2702 	ld	d, -8 (ix)
    00001107 C3r10r11         [10] 2703 	jp	00700$
    0000110A                       2704 00699$:
    0000110A DD 5E FB         [19] 2705 	ld	e, -5 (ix)
    0000110D DD 56 FC         [19] 2706 	ld	d, -4 (ix)
    00001110                       2707 00700$:
                                   2708 ;E:\Dropbox\FAUSTO\SVILUPPI\MSX\CODE\C\MSXgl\projects\soccerlgSCC/soccerlg_s10_b3.c:512: if (g_Players[playerId].TargetY > (effectiveLimit - 30)) {
    00001110 7B               [ 4] 2709 	ld	a, e
    00001111 C6 E2            [ 7] 2710 	add	a, #0xe2
    00001113 4F               [ 4] 2711 	ld	c, a
    00001114 7A               [ 4] 2712 	ld	a, d
    00001115 CE FF            [ 7] 2713 	adc	a, #0xff
    00001117 47               [ 4] 2714 	ld	b, a
    00001118 79               [ 4] 2715 	ld	a, c
    00001119 DD 96 F9         [19] 2716 	sub	a, -7 (ix)
    0000111C 78               [ 4] 2717 	ld	a, b
    0000111D DD 9E FA         [19] 2718 	sbc	a, -6 (ix)
    00001120 D2r5Er1D         [10] 2719 	jp	NC,00670$
                                   2720 ;E:\Dropbox\FAUSTO\SVILUPPI\MSX\CODE\C\MSXgl\projects\soccerlgSCC/soccerlg_s10_b3.c:513: g_Players[playerId].TargetY = effectiveLimit - 30;
    00001123 DD 6E FD         [19] 2721 	ld	l, -3 (ix)
    00001126 DD 66 FE         [19] 2722 	ld	h, -2 (ix)
    00001129 71               [ 7] 2723 	ld	(hl), c
    0000112A 23               [ 6] 2724 	inc	hl
    0000112B 70               [ 7] 2725 	ld	(hl), b
                                   2726 ;E:\Dropbox\FAUSTO\SVILUPPI\MSX\CODE\C\MSXgl\projects\soccerlgSCC/soccerlg_s10_b3.c:518: return; 
    0000112C C3r5Er1D         [10] 2727 	jp	00670$
    0000112F                       2728 00428$:
                                   2729 ;E:\Dropbox\FAUSTO\SVILUPPI\MSX\CODE\C\MSXgl\projects\soccerlgSCC/soccerlg_s10_b3.c:527: if (g_Players[playerId].Role == PLAYER_ROLE_GOALKEEPER) {
    0000112F DD 7E DB         [19] 2730 	ld	a, -37 (ix)
    00001132 C6 0D            [ 7] 2731 	add	a, #0x0d
    00001134 DD 77 F5         [19] 2732 	ld	-11 (ix), a
    00001137 DD 7E DC         [19] 2733 	ld	a, -36 (ix)
    0000113A CE 00            [ 7] 2734 	adc	a, #0x00
    0000113C DD 77 F6         [19] 2735 	ld	-10 (ix), a
    0000113F DD 6E F5         [19] 2736 	ld	l, -11 (ix)
    00001142 DD 66 F6         [19] 2737 	ld	h, -10 (ix)
    00001145 7E               [ 7] 2738 	ld	a, (hl)
    00001146 B7               [ 4] 2739 	or	a, a
    00001147 C2rB2r12         [10] 2740 	jp	NZ, 00453$
                                   2741 ;E:\Dropbox\FAUSTO\SVILUPPI\MSX\CODE\C\MSXgl\projects\soccerlgSCC/soccerlg_s10_b3.c:529: if (g_Ball.ShotActive) return;
    0000114A 3Ar1Br00         [13] 2742 	ld	a, (#_g_Ball + 27)
    0000114D B7               [ 4] 2743 	or	a, a
    0000114E C2r5Er1D         [10] 2744 	jp	NZ,00670$
                                   2745 ;E:\Dropbox\FAUSTO\SVILUPPI\MSX\CODE\C\MSXgl\projects\soccerlgSCC/soccerlg_s10_b3.c:536: if (playerTeamId == TEAM_1) { 
    00001151 DD 7E DE         [19] 2746 	ld	a, -34 (ix)
    00001154 B7               [ 4] 2747 	or	a, a
    00001155 28 16            [12] 2748 	jr	Z, 00432$
                                   2749 ;E:\Dropbox\FAUSTO\SVILUPPI\MSX\CODE\C\MSXgl\projects\soccerlgSCC/soccerlg_s10_b3.c:537: gkTargetY = FIELD_POS_Y_TEAM1_GOALKEEPER;
    00001157 01 A8 01         [10] 2750 	ld	bc, #0x01a8
                                   2751 ;E:\Dropbox\FAUSTO\SVILUPPI\MSX\CODE\C\MSXgl\projects\soccerlgSCC/soccerlg_s10_b3.c:538: boxYMin = GK_BOX_Y_BOTTOM_MIN; boxYMax = GK_BOX_Y_BOTTOM_MAX;
    0000115A DD 36 FB 95      [19] 2752 	ld	-5 (ix), #0x95
    0000115E DD 36 FC 01      [19] 2753 	ld	-4 (ix), #0x01
    00001162 DD 36 FD B3      [19] 2754 	ld	-3 (ix), #0xb3
    00001166 DD 36 FE 01      [19] 2755 	ld	-2 (ix), #0x01
    0000116A C3r80r11         [10] 2756 	jp	00433$
    0000116D                       2757 00432$:
                                   2758 ;E:\Dropbox\FAUSTO\SVILUPPI\MSX\CODE\C\MSXgl\projects\soccerlgSCC/soccerlg_s10_b3.c:540: gkTargetY = FIELD_POS_Y_TEAM2_GOALKEEPER;
    0000116D 01 32 00         [10] 2759 	ld	bc, #0x0032
                                   2760 ;E:\Dropbox\FAUSTO\SVILUPPI\MSX\CODE\C\MSXgl\projects\soccerlgSCC/soccerlg_s10_b3.c:541: boxYMin = GK_BOX_Y_TOP_MIN; boxYMax = GK_BOX_Y_TOP_MAX;
    00001170 DD 36 FB 23      [19] 2761 	ld	-5 (ix), #0x23
    00001174 DD 36 FC 00      [19] 2762 	ld	-4 (ix), #0
    00001178 DD 36 FD 4B      [19] 2763 	ld	-3 (ix), #0x4b
    0000117C DD 36 FE 00      [19] 2764 	ld	-2 (ix), #0
    00001180                       2765 00433$:
                                   2766 ;E:\Dropbox\FAUSTO\SVILUPPI\MSX\CODE\C\MSXgl\projects\soccerlgSCC/soccerlg_s10_b3.c:543: u8 closestId =CallFnc_U8_P2(4,GetClosestPlayerToBall,playerTeamId,NO_VALUE);
    00001180 C5               [11] 2767 	push	bc
    00001181 26 FF            [ 7] 2768 	ld	h, #0xff
    00001183 DD 6E DD         [19] 2769 	ld	l, -35 (ix)
    00001186 E5               [11] 2770 	push	hl
    00001187 11r00r00         [10] 2771 	ld	de, #_GetClosestPlayerToBall
    0000118A 3E 04            [ 7] 2772 	ld	a, #0x04
    0000118C CDr00r00         [17] 2773 	call	_CallFnc_U8_P2
    0000118F C1               [10] 2774 	pop	bc
    00001190 DD 77 F5         [19] 2775 	ld	-11 (ix), a
                                   2776 ;E:\Dropbox\FAUSTO\SVILUPPI\MSX\CODE\C\MSXgl\projects\soccerlgSCC/soccerlg_s10_b3.c:544: bool ballInBox = (g_Ball.X > (boxXMin-5) && g_Ball.X < (boxXMax+5) && 
    00001193 21r02r00         [10] 2777 	ld	hl, #_g_Ball + 2
    00001196 7E               [ 7] 2778 	ld	a, (hl)
    00001197 DD 77 F6         [19] 2779 	ld	-10 (ix), a
    0000119A 23               [ 6] 2780 	inc	hl
    0000119B 7E               [ 7] 2781 	ld	a, (hl)
    0000119C DD 77 F7         [19] 2782 	ld	-9 (ix), a
    0000119F DD 7E F6         [19] 2783 	ld	a, -10 (ix)
    000011A2 DD 77 F8         [19] 2784 	ld	-8 (ix), a
    000011A5 DD 7E F7         [19] 2785 	ld	a, -9 (ix)
    000011A8 DD 77 F9         [19] 2786 	ld	-7 (ix), a
    000011AB 3E 4B            [ 7] 2787 	ld	a, #0x4b
    000011AD DD BE F8         [19] 2788 	cp	a, -8 (ix)
    000011B0 3E 00            [ 7] 2789 	ld	a, #0x00
    000011B2 DD 9E F9         [19] 2790 	sbc	a, -7 (ix)
    000011B5 30 32            [12] 2791 	jr	NC, 00701$
    000011B7 DD 7E F8         [19] 2792 	ld	a, -8 (ix)
    000011BA D6 A5            [ 7] 2793 	sub	a, #0xa5
    000011BC DD 7E F9         [19] 2794 	ld	a, -7 (ix)
    000011BF DE 00            [ 7] 2795 	sbc	a, #0x00
    000011C1 30 26            [12] 2796 	jr	NC, 00701$
    000011C3 2Ar00r00         [16] 2797 	ld	hl, (#_g_Ball + 0)
    000011C6 DD 7E FB         [19] 2798 	ld	a, -5 (ix)
    000011C9 DD 56 FC         [19] 2799 	ld	d, -4 (ix)
    000011CC C6 FB            [ 7] 2800 	add	a, #0xfb
    000011CE 5F               [ 4] 2801 	ld	e, a
    000011CF 7A               [ 4] 2802 	ld	a, d
    000011D0 CE FF            [ 7] 2803 	adc	a, #0xff
    000011D2 57               [ 4] 2804 	ld	d, a
    000011D3 7B               [ 4] 2805 	ld	a, e
    000011D4 95               [ 4] 2806 	sub	a, l
    000011D5 7A               [ 4] 2807 	ld	a, d
    000011D6 9C               [ 4] 2808 	sbc	a, h
    000011D7 30 10            [12] 2809 	jr	NC, 00701$
    000011D9 DD 5E FD         [19] 2810 	ld	e, -3 (ix)
    000011DC DD 56 FE         [19] 2811 	ld	d, -2 (ix)
    000011DF 13               [ 6] 2812 	inc	de
    000011E0 13               [ 6] 2813 	inc	de
    000011E1 13               [ 6] 2814 	inc	de
    000011E2 13               [ 6] 2815 	inc	de
    000011E3 13               [ 6] 2816 	inc	de
    000011E4 AF               [ 4] 2817 	xor	a, a
    000011E5 ED 52            [15] 2818 	sbc	hl, de
    000011E7 38 07            [12] 2819 	jr	C, 00702$
    000011E9                       2820 00701$:
    000011E9 DD 36 FA 00      [19] 2821 	ld	-6 (ix), #0x00
    000011ED C3rF4r11         [10] 2822 	jp	00703$
    000011F0                       2823 00702$:
    000011F0 DD 36 FA 01      [19] 2824 	ld	-6 (ix), #0x01
    000011F4                       2825 00703$:
                                   2826 ;E:\Dropbox\FAUSTO\SVILUPPI\MSX\CODE\C\MSXgl\projects\soccerlgSCC/soccerlg_s10_b3.c:547: if (ballInBox && closestId == playerId) {
    000011F4 DD 7E FA         [19] 2827 	ld	a, -6 (ix)
    000011F7 B7               [ 4] 2828 	or	a, a
    000011F8 28 1B            [12] 2829 	jr	Z, 00441$
    000011FA DD 7E FF         [19] 2830 	ld	a, -1 (ix)
    000011FD DD 96 F5         [19] 2831 	sub	a, -11 (ix)
    00001200 20 13            [12] 2832 	jr	NZ, 00441$
                                   2833 ;E:\Dropbox\FAUSTO\SVILUPPI\MSX\CODE\C\MSXgl\projects\soccerlgSCC/soccerlg_s10_b3.c:548: gkTargetX = g_Ball.X;
    00001202 DD 7E F6         [19] 2834 	ld	a, -10 (ix)
    00001205 DD 6E F7         [19] 2835 	ld	l, -9 (ix)
                                   2836 ;	spillPairReg hl
                                   2837 ;	spillPairReg hl
    00001208 DD 77 F9         [19] 2838 	ld	-7 (ix), a
    0000120B DD 75 FA         [19] 2839 	ld	-6 (ix), l
                                   2840 ;E:\Dropbox\FAUSTO\SVILUPPI\MSX\CODE\C\MSXgl\projects\soccerlgSCC/soccerlg_s10_b3.c:549: gkTargetY = g_Ball.Y;
    0000120E ED 4Br00r00      [20] 2841 	ld	bc, (#_g_Ball + 0)
    00001212 C3r4Fr12         [10] 2842 	jp	00442$
    00001215                       2843 00441$:
                                   2844 ;E:\Dropbox\FAUSTO\SVILUPPI\MSX\CODE\C\MSXgl\projects\soccerlgSCC/soccerlg_s10_b3.c:551: if (g_Ball.X > gkTargetX + 24) gkTargetX += 16;
    00001215 3E 90            [ 7] 2845 	ld	a, #0x90
    00001217 DD BE F8         [19] 2846 	cp	a, -8 (ix)
    0000121A 3E 00            [ 7] 2847 	ld	a, #0x00
    0000121C DD 9E F9         [19] 2848 	sbc	a, -7 (ix)
    0000121F 30 0B            [12] 2849 	jr	NC, 00438$
    00001221 DD 36 F9 88      [19] 2850 	ld	-7 (ix), #0x88
    00001225 DD 36 FA 00      [19] 2851 	ld	-6 (ix), #0
    00001229 C3r4Fr12         [10] 2852 	jp	00442$
    0000122C                       2853 00438$:
                                   2854 ;E:\Dropbox\FAUSTO\SVILUPPI\MSX\CODE\C\MSXgl\projects\soccerlgSCC/soccerlg_s10_b3.c:552: else if (g_Ball.X < gkTargetX - 24) gkTargetX -= 16;
    0000122C DD 7E F8         [19] 2855 	ld	a, -8 (ix)
    0000122F D6 60            [ 7] 2856 	sub	a, #0x60
    00001231 DD 7E F9         [19] 2857 	ld	a, -7 (ix)
    00001234 DE 00            [ 7] 2858 	sbc	a, #0x00
    00001236 30 0B            [12] 2859 	jr	NC, 00435$
    00001238 DD 36 F9 68      [19] 2860 	ld	-7 (ix), #0x68
    0000123C DD 36 FA 00      [19] 2861 	ld	-6 (ix), #0
    00001240 C3r4Fr12         [10] 2862 	jp	00442$
    00001243                       2863 00435$:
                                   2864 ;E:\Dropbox\FAUSTO\SVILUPPI\MSX\CODE\C\MSXgl\projects\soccerlgSCC/soccerlg_s10_b3.c:553: else gkTargetX = g_Ball.X; 
    00001243 DD 7E F6         [19] 2865 	ld	a, -10 (ix)
    00001246 DD 5E F7         [19] 2866 	ld	e, -9 (ix)
    00001249 DD 77 F9         [19] 2867 	ld	-7 (ix), a
    0000124C DD 73 FA         [19] 2868 	ld	-6 (ix), e
    0000124F                       2869 00442$:
                                   2870 ;E:\Dropbox\FAUSTO\SVILUPPI\MSX\CODE\C\MSXgl\projects\soccerlgSCC/soccerlg_s10_b3.c:556: if (gkTargetX < boxXMin) gkTargetX = boxXMin;
    0000124F DD 7E F9         [19] 2871 	ld	a, -7 (ix)
    00001252 D6 50            [ 7] 2872 	sub	a, #0x50
    00001254 DD 7E FA         [19] 2873 	ld	a, -6 (ix)
    00001257 DE 00            [ 7] 2874 	sbc	a, #0x00
    00001259 30 08            [12] 2875 	jr	NC, 00445$
    0000125B DD 36 F9 50      [19] 2876 	ld	-7 (ix), #0x50
    0000125F DD 36 FA 00      [19] 2877 	ld	-6 (ix), #0
    00001263                       2878 00445$:
                                   2879 ;E:\Dropbox\FAUSTO\SVILUPPI\MSX\CODE\C\MSXgl\projects\soccerlgSCC/soccerlg_s10_b3.c:557: if (gkTargetX > boxXMax) gkTargetX = boxXMax;
    00001263 3E A0            [ 7] 2880 	ld	a, #0xa0
    00001265 DD BE F9         [19] 2881 	cp	a, -7 (ix)
    00001268 3E 00            [ 7] 2882 	ld	a, #0x00
    0000126A DD 9E FA         [19] 2883 	sbc	a, -6 (ix)
    0000126D 30 08            [12] 2884 	jr	NC, 00447$
    0000126F DD 36 F9 A0      [19] 2885 	ld	-7 (ix), #0xa0
    00001273 DD 36 FA 00      [19] 2886 	ld	-6 (ix), #0
    00001277                       2887 00447$:
                                   2888 ;E:\Dropbox\FAUSTO\SVILUPPI\MSX\CODE\C\MSXgl\projects\soccerlgSCC/soccerlg_s10_b3.c:558: if (gkTargetY < boxYMin) gkTargetY = boxYMin;
    00001277 79               [ 4] 2889 	ld	a, c
    00001278 DD 96 FB         [19] 2890 	sub	a, -5 (ix)
    0000127B 78               [ 4] 2891 	ld	a, b
    0000127C DD 9E FC         [19] 2892 	sbc	a, -4 (ix)
    0000127F 30 06            [12] 2893 	jr	NC, 00449$
    00001281 DD 4E FB         [19] 2894 	ld	c, -5 (ix)
    00001284 DD 46 FC         [19] 2895 	ld	b, -4 (ix)
    00001287                       2896 00449$:
                                   2897 ;E:\Dropbox\FAUSTO\SVILUPPI\MSX\CODE\C\MSXgl\projects\soccerlgSCC/soccerlg_s10_b3.c:559: if (gkTargetY > boxYMax) gkTargetY = boxYMax;
    00001287 DD 7E FD         [19] 2898 	ld	a, -3 (ix)
    0000128A 91               [ 4] 2899 	sub	a, c
    0000128B DD 7E FE         [19] 2900 	ld	a, -2 (ix)
    0000128E 98               [ 4] 2901 	sbc	a, b
    0000128F 30 06            [12] 2902 	jr	NC, 00451$
    00001291 DD 4E FD         [19] 2903 	ld	c, -3 (ix)
    00001294 DD 46 FE         [19] 2904 	ld	b, -2 (ix)
    00001297                       2905 00451$:
                                   2906 ;E:\Dropbox\FAUSTO\SVILUPPI\MSX\CODE\C\MSXgl\projects\soccerlgSCC/soccerlg_s10_b3.c:561: g_Players[playerId].TargetX = gkTargetX;
    00001297 E1               [10] 2907 	pop	hl
    00001298 E5               [11] 2908 	push	hl
    00001299 11 10 00         [10] 2909 	ld	de, #0x0010
    0000129C 19               [11] 2910 	add	hl, de
    0000129D DD 7E F9         [19] 2911 	ld	a, -7 (ix)
    000012A0 77               [ 7] 2912 	ld	(hl), a
    000012A1 23               [ 6] 2913 	inc	hl
    000012A2 DD 7E FA         [19] 2914 	ld	a, -6 (ix)
    000012A5 77               [ 7] 2915 	ld	(hl), a
                                   2916 ;E:\Dropbox\FAUSTO\SVILUPPI\MSX\CODE\C\MSXgl\projects\soccerlgSCC/soccerlg_s10_b3.c:562: g_Players[playerId].TargetY = gkTargetY;
    000012A6 E1               [10] 2917 	pop	hl
    000012A7 E5               [11] 2918 	push	hl
    000012A8 11 0E 00         [10] 2919 	ld	de, #0x000e
    000012AB 19               [11] 2920 	add	hl, de
    000012AC 71               [ 7] 2921 	ld	(hl), c
    000012AD 23               [ 6] 2922 	inc	hl
    000012AE 70               [ 7] 2923 	ld	(hl), b
                                   2924 ;E:\Dropbox\FAUSTO\SVILUPPI\MSX\CODE\C\MSXgl\projects\soccerlgSCC/soccerlg_s10_b3.c:563: return; 
    000012AF C3r5Er1D         [10] 2925 	jp	00670$
    000012B2                       2926 00453$:
                                   2927 ;E:\Dropbox\FAUSTO\SVILUPPI\MSX\CODE\C\MSXgl\projects\soccerlgSCC/soccerlg_s10_b3.c:567: u8 playerClosesestToBallId =CallFnc_U8_P2(4,GetClosestPlayerToBall,playerTeamId,NO_VALUE); 
    000012B2 26 FF            [ 7] 2928 	ld	h, #0xff
    000012B4 DD 6E DD         [19] 2929 	ld	l, -35 (ix)
    000012B7 E5               [11] 2930 	push	hl
    000012B8 11r00r00         [10] 2931 	ld	de, #_GetClosestPlayerToBall
    000012BB 3E 04            [ 7] 2932 	ld	a, #0x04
    000012BD CDr00r00         [17] 2933 	call	_CallFnc_U8_P2
    000012C0 47               [ 4] 2934 	ld	b, a
                                   2935 ;E:\Dropbox\FAUSTO\SVILUPPI\MSX\CODE\C\MSXgl\projects\soccerlgSCC/soccerlg_s10_b3.c:568: bool amIEffectiveChaser = (playerClosesestToBallId == playerId);
    000012C1 DD 7E FF         [19] 2936 	ld	a, -1 (ix)
    000012C4 90               [ 4] 2937 	sub	a, b
    000012C5 3E 01            [ 7] 2938 	ld	a, #0x01
    000012C7 28 01            [12] 2939 	jr	Z, 02208$
    000012C9 AF               [ 4] 2940 	xor	a, a
    000012CA                       2941 02208$:
    000012CA DD 77 F7         [19] 2942 	ld	-9 (ix), a
                                   2943 ;E:\Dropbox\FAUSTO\SVILUPPI\MSX\CODE\C\MSXgl\projects\soccerlgSCC/soccerlg_s10_b3.c:24: if(g_MatchStatus==MATCH_IN_ACTION || g_MatchStatus == MATCH_BALL_ON_GOALKEEPER){
    000012CD 3Ar00r00         [13] 2944 	ld	a, (_g_MatchStatus+0)
    000012D0 D6 0D            [ 7] 2945 	sub	a, #0x0d
    000012D2 3E 01            [ 7] 2946 	ld	a, #0x01
    000012D4 28 01            [12] 2947 	jr	Z, 02210$
    000012D6 AF               [ 4] 2948 	xor	a, a
    000012D7                       2949 02210$:
                                   2950 ;E:\Dropbox\FAUSTO\SVILUPPI\MSX\CODE\C\MSXgl\projects\soccerlgSCC/soccerlg_s10_b3.c:571: if (g_MatchStatus == MATCH_BALL_ON_GOALKEEPER) amIEffectiveChaser = false;
    000012D7 DD 77 FE         [19] 2951 	ld	-2 (ix), a
    000012DA B7               [ 4] 2952 	or	a, a
    000012DB 28 04            [12] 2953 	jr	Z, 00455$
    000012DD DD 36 F7 00      [19] 2954 	ld	-9 (ix), #0x00
    000012E1                       2955 00455$:
                                   2956 ;E:\Dropbox\FAUSTO\SVILUPPI\MSX\CODE\C\MSXgl\projects\soccerlgSCC/soccerlg_s10_b3.c:575: if (!amIEffectiveChaser && stats->Aggression > 10 && g_MatchStatus != MATCH_BALL_ON_GOALKEEPER) {
    000012E1 DD 7E F7         [19] 2957 	ld	a, -9 (ix)
    000012E4 B7               [ 4] 2958 	or	a, a
    000012E5 20 63            [12] 2959 	jr	NZ, 00459$
    000012E7 DD 6E DF         [19] 2960 	ld	l, -33 (ix)
                                   2961 ;	spillPairReg hl
                                   2962 ;	spillPairReg hl
    000012EA DD 66 E0         [19] 2963 	ld	h, -32 (ix)
                                   2964 ;	spillPairReg hl
                                   2965 ;	spillPairReg hl
    000012ED 23               [ 6] 2966 	inc	hl
    000012EE 4E               [ 7] 2967 	ld	c, (hl)
    000012EF 3E 0A            [ 7] 2968 	ld	a, #0x0a
    000012F1 91               [ 4] 2969 	sub	a, c
    000012F2 30 56            [12] 2970 	jr	NC, 00459$
    000012F4 DD 4E FE         [19] 2971 	ld	c, -2 (ix)
    000012F7 CB 41            [ 8] 2972 	bit	0, c
    000012F9 20 4F            [12] 2973 	jr	NZ, 00459$
                                   2974 ;E:\Dropbox\FAUSTO\SVILUPPI\MSX\CODE\C\MSXgl\projects\soccerlgSCC/soccerlg_s10_b3.c:576: u16 dist = (u16)(Math_Abs32((i16)g_Players[playerId].X - (i16)g_Ball.X) + 
    000012FB E1               [10] 2975 	pop	hl
    000012FC E5               [11] 2976 	push	hl
    000012FD 23               [ 6] 2977 	inc	hl
    000012FE 23               [ 6] 2978 	inc	hl
    000012FF 5E               [ 7] 2979 	ld	e, (hl)
    00001300 23               [ 6] 2980 	inc	hl
    00001301 56               [ 7] 2981 	ld	d, (hl)
    00001302 2Ar02r00         [16] 2982 	ld	hl, (#_g_Ball + 2)
    00001305 7B               [ 4] 2983 	ld	a, e
    00001306 95               [ 4] 2984 	sub	a, l
    00001307 5F               [ 4] 2985 	ld	e, a
    00001308 7A               [ 4] 2986 	ld	a, d
    00001309 9C               [ 4] 2987 	sbc	a, h
    0000130A 57               [ 4] 2988 	ld	d, a
    0000130B 07               [ 4] 2989 	rlca
    0000130C ED 62            [15] 2990 	sbc	hl, hl
    0000130E C5               [11] 2991 	push	bc
    0000130F CDr00r00         [17] 2992 	call	_Math_Abs32
    00001312 DD 73 FB         [19] 2993 	ld	-5 (ix), e
    00001315 DD 72 FC         [19] 2994 	ld	-4 (ix), d
    00001318 DD 75 FD         [19] 2995 	ld	-3 (ix), l
    0000131B DD 74 FE         [19] 2996 	ld	-2 (ix), h
    0000131E C1               [10] 2997 	pop	bc
    0000131F E1               [10] 2998 	pop	hl
    00001320 E5               [11] 2999 	push	hl
    00001321 5E               [ 7] 3000 	ld	e, (hl)
    00001322 23               [ 6] 3001 	inc	hl
    00001323 56               [ 7] 3002 	ld	d, (hl)
    00001324 2Ar00r00         [16] 3003 	ld	hl, (#_g_Ball + 0)
    00001327 7B               [ 4] 3004 	ld	a, e
    00001328 95               [ 4] 3005 	sub	a, l
    00001329 5F               [ 4] 3006 	ld	e, a
    0000132A 7A               [ 4] 3007 	ld	a, d
    0000132B 9C               [ 4] 3008 	sbc	a, h
    0000132C 57               [ 4] 3009 	ld	d, a
    0000132D 07               [ 4] 3010 	rlca
    0000132E ED 62            [15] 3011 	sbc	hl, hl
    00001330 C5               [11] 3012 	push	bc
    00001331 CDr00r00         [17] 3013 	call	_Math_Abs32
    00001334 C1               [10] 3014 	pop	bc
    00001335 DD 7E FB         [19] 3015 	ld	a, -5 (ix)
    00001338 DD 4E FC         [19] 3016 	ld	c, -4 (ix)
    0000133B 6F               [ 4] 3017 	ld	l, a
    0000133C 61               [ 4] 3018 	ld	h, c
    0000133D 19               [11] 3019 	add	hl, de
                                   3020 ;E:\Dropbox\FAUSTO\SVILUPPI\MSX\CODE\C\MSXgl\projects\soccerlgSCC/soccerlg_s10_b3.c:578: if (dist < 60) amIEffectiveChaser = true;
    0000133E 11 3C 00         [10] 3021 	ld	de, #0x003c
    00001341 BF               [ 4] 3022 	cp	a, a
    00001342 ED 52            [15] 3023 	sbc	hl, de
    00001344 30 04            [12] 3024 	jr	NC, 00459$
    00001346 DD 36 F7 01      [19] 3025 	ld	-9 (ix), #0x01
    0000134A                       3026 00459$:
                                   3027 ;E:\Dropbox\FAUSTO\SVILUPPI\MSX\CODE\C\MSXgl\projects\soccerlgSCC/soccerlg_s10_b3.c:581: if (g_Players[playerClosesestToBallId].Role == PLAYER_ROLE_GOALKEEPER) {
    0000134A 58               [ 4] 3028 	ld	e, b
    0000134B 16 00            [ 7] 3029 	ld	d, #0x00
    0000134D 6B               [ 4] 3030 	ld	l, e
    0000134E 62               [ 4] 3031 	ld	h, d
    0000134F 29               [11] 3032 	add	hl, hl
    00001350 29               [11] 3033 	add	hl, hl
    00001351 19               [11] 3034 	add	hl, de
    00001352 29               [11] 3035 	add	hl, hl
    00001353 29               [11] 3036 	add	hl, hl
    00001354 19               [11] 3037 	add	hl, de
    00001355 11r00r00         [10] 3038 	ld	de, #_g_Players
    00001358 19               [11] 3039 	add	hl, de
    00001359 DD 75 F8         [19] 3040 	ld	-8 (ix), l
    0000135C DD 74 F9         [19] 3041 	ld	-7 (ix), h
    0000135F EB               [ 4] 3042 	ex	de,hl
    00001360 21 0D 00         [10] 3043 	ld	hl, #13
    00001363 19               [11] 3044 	add	hl, de
    00001364 4E               [ 7] 3045 	ld	c, (hl)
    00001365 79               [ 4] 3046 	ld	a, c
    00001366 B7               [ 4] 3047 	or	a, a
    00001367 C2rEBr13         [10] 3048 	jp	NZ, 00473$
                                   3049 ;E:\Dropbox\FAUSTO\SVILUPPI\MSX\CODE\C\MSXgl\projects\soccerlgSCC/soccerlg_s10_b3.c:582: u16 limitY = (playerTeamId == TEAM_1) ? GK_BOX_Y_BOTTOM_MIN : GK_BOX_Y_TOP_MAX;
    0000136A DD 7E DE         [19] 3050 	ld	a, -34 (ix)
    0000136D B7               [ 4] 3051 	or	a, a
    0000136E 28 06            [12] 3052 	jr	Z, 00710$
    00001370 11 95 01         [10] 3053 	ld	de, #0x0195
    00001373 C3r79r13         [10] 3054 	jp	00711$
    00001376                       3055 00710$:
    00001376 11 4B 00         [10] 3056 	ld	de, #0x004b
    00001379                       3057 00711$:
                                   3058 ;E:\Dropbox\FAUSTO\SVILUPPI\MSX\CODE\C\MSXgl\projects\soccerlgSCC/soccerlg_s10_b3.c:583: bool ballFar = false;
    00001379 DD 36 FA 00      [19] 3059 	ld	-6 (ix), #0x00
                                   3060 ;E:\Dropbox\FAUSTO\SVILUPPI\MSX\CODE\C\MSXgl\projects\soccerlgSCC/soccerlg_s10_b3.c:584: if (playerTeamId == TEAM_1 && g_Ball.Y < limitY - 10) ballFar = true;
    0000137D DD 7E DE         [19] 3061 	ld	a, -34 (ix)
    00001380 B7               [ 4] 3062 	or	a, a
    00001381 28 2B            [12] 3063 	jr	Z, 00463$
    00001383 21r00r00         [10] 3064 	ld	hl, #_g_Ball
    00001386 7E               [ 7] 3065 	ld	a, (hl)
    00001387 DD 77 FD         [19] 3066 	ld	-3 (ix), a
    0000138A 23               [ 6] 3067 	inc	hl
    0000138B 7E               [ 7] 3068 	ld	a, (hl)
    0000138C DD 77 FE         [19] 3069 	ld	-2 (ix), a
    0000138F 7B               [ 4] 3070 	ld	a, e
    00001390 4A               [ 4] 3071 	ld	c, d
    00001391 C6 F6            [ 7] 3072 	add	a, #0xf6
    00001393 DD 77 FB         [19] 3073 	ld	-5 (ix), a
    00001396 79               [ 4] 3074 	ld	a, c
    00001397 CE FF            [ 7] 3075 	adc	a, #0xff
    00001399 DD 77 FC         [19] 3076 	ld	-4 (ix), a
    0000139C DD 7E FD         [19] 3077 	ld	a, -3 (ix)
    0000139F DD 96 FB         [19] 3078 	sub	a, -5 (ix)
    000013A2 DD 7E FE         [19] 3079 	ld	a, -2 (ix)
    000013A5 DD 9E FC         [19] 3080 	sbc	a, -4 (ix)
    000013A8 30 04            [12] 3081 	jr	NC, 00463$
    000013AA DD 36 FA 01      [19] 3082 	ld	-6 (ix), #0x01
    000013AE                       3083 00463$:
                                   3084 ;E:\Dropbox\FAUSTO\SVILUPPI\MSX\CODE\C\MSXgl\projects\soccerlgSCC/soccerlg_s10_b3.c:585: if (playerTeamId == TEAM_2 && g_Ball.Y > limitY + 10) ballFar = true;
    000013AE DD 7E DD         [19] 3085 	ld	a, -35 (ix)
    000013B1 D6 02            [ 7] 3086 	sub	a, #0x02
    000013B3 20 14            [12] 3087 	jr	NZ, 00466$
    000013B5 2Ar00r00         [16] 3088 	ld	hl, (#_g_Ball + 0)
    000013B8 7B               [ 4] 3089 	ld	a, e
    000013B9 C6 0A            [ 7] 3090 	add	a, #0x0a
    000013BB 4F               [ 4] 3091 	ld	c, a
    000013BC 30 01            [12] 3092 	jr	NC, 02213$
    000013BE 14               [ 4] 3093 	inc	d
    000013BF                       3094 02213$:
    000013BF 79               [ 4] 3095 	ld	a, c
    000013C0 95               [ 4] 3096 	sub	a, l
    000013C1 7A               [ 4] 3097 	ld	a, d
    000013C2 9C               [ 4] 3098 	sbc	a, h
    000013C3 30 04            [12] 3099 	jr	NC, 00466$
    000013C5 DD 36 FA 01      [19] 3100 	ld	-6 (ix), #0x01
    000013C9                       3101 00466$:
                                   3102 ;E:\Dropbox\FAUSTO\SVILUPPI\MSX\CODE\C\MSXgl\projects\soccerlgSCC/soccerlg_s10_b3.c:587: if (ballFar) {
    000013C9 DD 7E FA         [19] 3103 	ld	a, -6 (ix)
    000013CC B7               [ 4] 3104 	or	a, a
    000013CD 28 1C            [12] 3105 	jr	Z, 00473$
                                   3106 ;E:\Dropbox\FAUSTO\SVILUPPI\MSX\CODE\C\MSXgl\projects\soccerlgSCC/soccerlg_s10_b3.c:588: u8 nextClosest =CallFnc_U8_P2(4,GetClosestPlayerToBall,playerTeamId,playerClosesestToBallId);
    000013CF C5               [11] 3107 	push	bc
    000013D0 C5               [11] 3108 	push	bc
    000013D1 33               [ 6] 3109 	inc	sp
    000013D2 DD 7E DD         [19] 3110 	ld	a, -35 (ix)
    000013D5 F5               [11] 3111 	push	af
    000013D6 33               [ 6] 3112 	inc	sp
    000013D7 11r00r00         [10] 3113 	ld	de, #_GetClosestPlayerToBall
    000013DA 3E 04            [ 7] 3114 	ld	a, #0x04
    000013DC CDr00r00         [17] 3115 	call	_CallFnc_U8_P2
    000013DF C1               [10] 3116 	pop	bc
    000013E0 4F               [ 4] 3117 	ld	c, a
                                   3118 ;E:\Dropbox\FAUSTO\SVILUPPI\MSX\CODE\C\MSXgl\projects\soccerlgSCC/soccerlg_s10_b3.c:589: if (nextClosest == playerId) amIEffectiveChaser = true;
    000013E1 DD 7E FF         [19] 3119 	ld	a, -1 (ix)
    000013E4 91               [ 4] 3120 	sub	a, c
    000013E5 20 04            [12] 3121 	jr	NZ, 00473$
    000013E7 DD 36 F7 01      [19] 3122 	ld	-9 (ix), #0x01
    000013EB                       3123 00473$:
                                   3124 ;E:\Dropbox\FAUSTO\SVILUPPI\MSX\CODE\C\MSXgl\projects\soccerlgSCC/soccerlg_s10_b3.c:593: if (amIEffectiveChaser) {
    000013EB DD 7E F7         [19] 3125 	ld	a, -9 (ix)
    000013EE B7               [ 4] 3126 	or	a, a
    000013EF CAr33r16         [10] 3127 	jp	Z, 00713$
                                   3128 ;E:\Dropbox\FAUSTO\SVILUPPI\MSX\CODE\C\MSXgl\projects\soccerlgSCC/soccerlg_s10_b3.c:596: if ((g_FrameCounter & 3) == 0) return;
    000013F2 3Ar00r00         [13] 3129 	ld	a, (_g_FrameCounter+0)
    000013F5 E6 03            [ 7] 3130 	and	a, #0x03
    000013F7 CAr5Er1D         [10] 3131 	jp	Z,00670$
    000013FA C3rFDr13         [10] 3132 	jp	00475$
    000013FD                       3133 00475$:
                                   3134 ;E:\Dropbox\FAUSTO\SVILUPPI\MSX\CODE\C\MSXgl\projects\soccerlgSCC/soccerlg_s10_b3.c:599: if (g_Ball.PossessionPlayerId == NO_VALUE) {
    000013FD 3Ar06r00         [13] 3135 	ld	a, (#_g_Ball + 6)
    00001400 DD 77 F7         [19] 3136 	ld	-9 (ix), a
    00001403 3C               [ 4] 3137 	inc	a
    00001404 3E 01            [ 7] 3138 	ld	a, #0x01
    00001406 28 01            [12] 3139 	jr	Z, 02219$
    00001408 AF               [ 4] 3140 	xor	a, a
    00001409                       3141 02219$:
    00001409 DD 77 F8         [19] 3142 	ld	-8 (ix), a
                                   3143 ;E:\Dropbox\FAUSTO\SVILUPPI\MSX\CODE\C\MSXgl\projects\soccerlgSCC/soccerlg_s10_b3.c:600: g_Players[playerId].TargetX = g_Ball.X;
    0000140C ED 4Br02r00      [20] 3144 	ld	bc, (#_g_Ball + 2)
                                   3145 ;E:\Dropbox\FAUSTO\SVILUPPI\MSX\CODE\C\MSXgl\projects\soccerlgSCC/soccerlg_s10_b3.c:599: if (g_Ball.PossessionPlayerId == NO_VALUE) {
    00001410 DD 7E F8         [19] 3146 	ld	a, -8 (ix)
    00001413 B7               [ 4] 3147 	or	a, a
    00001414 28 21            [12] 3148 	jr	Z, 00507$
                                   3149 ;E:\Dropbox\FAUSTO\SVILUPPI\MSX\CODE\C\MSXgl\projects\soccerlgSCC/soccerlg_s10_b3.c:600: g_Players[playerId].TargetX = g_Ball.X;
    00001416 E1               [10] 3150 	pop	hl
    00001417 E5               [11] 3151 	push	hl
    00001418 11 10 00         [10] 3152 	ld	de, #0x0010
    0000141B 19               [11] 3153 	add	hl, de
    0000141C 71               [ 7] 3154 	ld	(hl), c
    0000141D 23               [ 6] 3155 	inc	hl
    0000141E 70               [ 7] 3156 	ld	(hl), b
                                   3157 ;E:\Dropbox\FAUSTO\SVILUPPI\MSX\CODE\C\MSXgl\projects\soccerlgSCC/soccerlg_s10_b3.c:601: g_Players[playerId].TargetY = g_Ball.Y;
    0000141F DD 7E DB         [19] 3158 	ld	a, -37 (ix)
    00001422 C6 0E            [ 7] 3159 	add	a, #0x0e
    00001424 4F               [ 4] 3160 	ld	c, a
    00001425 DD 7E DC         [19] 3161 	ld	a, -36 (ix)
    00001428 CE 00            [ 7] 3162 	adc	a, #0x00
    0000142A 47               [ 4] 3163 	ld	b, a
    0000142B ED 5Br00r00      [20] 3164 	ld	de, (#_g_Ball + 0)
    0000142F 7B               [ 4] 3165 	ld	a, e
    00001430 02               [ 7] 3166 	ld	(bc), a
    00001431 03               [ 6] 3167 	inc	bc
    00001432 7A               [ 4] 3168 	ld	a, d
    00001433 02               [ 7] 3169 	ld	(bc), a
    00001434 C3r5Er1D         [10] 3170 	jp	00670$
    00001437                       3171 00507$:
                                   3172 ;E:\Dropbox\FAUSTO\SVILUPPI\MSX\CODE\C\MSXgl\projects\soccerlgSCC/soccerlg_s10_b3.c:607: i16 dx = (i16)g_Players[playerId].X - (i16)g_Ball.X;
    00001437 E1               [10] 3173 	pop	hl
    00001438 E5               [11] 3174 	push	hl
    00001439 23               [ 6] 3175 	inc	hl
    0000143A 23               [ 6] 3176 	inc	hl
    0000143B 5E               [ 7] 3177 	ld	e, (hl)
    0000143C 23               [ 6] 3178 	inc	hl
    0000143D 56               [ 7] 3179 	ld	d, (hl)
    0000143E 69               [ 4] 3180 	ld	l, c
                                   3181 ;	spillPairReg hl
                                   3182 ;	spillPairReg hl
    0000143F 60               [ 4] 3183 	ld	h, b
                                   3184 ;	spillPairReg hl
                                   3185 ;	spillPairReg hl
    00001440 7B               [ 4] 3186 	ld	a, e
    00001441 95               [ 4] 3187 	sub	a, l
    00001442 5F               [ 4] 3188 	ld	e, a
    00001443 7A               [ 4] 3189 	ld	a, d
    00001444 9C               [ 4] 3190 	sbc	a, h
    00001445 57               [ 4] 3191 	ld	d, a
    00001446 DD 73 F9         [19] 3192 	ld	-7 (ix), e
    00001449 DD 72 FA         [19] 3193 	ld	-6 (ix), d
                                   3194 ;E:\Dropbox\FAUSTO\SVILUPPI\MSX\CODE\C\MSXgl\projects\soccerlgSCC/soccerlg_s10_b3.c:608: i16 dy = (i16)g_Players[playerId].Y - (i16)g_Ball.Y;
    0000144C E1               [10] 3195 	pop	hl
    0000144D E5               [11] 3196 	push	hl
    0000144E 5E               [ 7] 3197 	ld	e, (hl)
    0000144F 23               [ 6] 3198 	inc	hl
    00001450 56               [ 7] 3199 	ld	d, (hl)
    00001451 21r00r00         [10] 3200 	ld	hl, #_g_Ball
    00001454 7E               [ 7] 3201 	ld	a, (hl)
    00001455 DD 77 FB         [19] 3202 	ld	-5 (ix), a
    00001458 23               [ 6] 3203 	inc	hl
    00001459 7E               [ 7] 3204 	ld	a, (hl)
    0000145A DD 77 FC         [19] 3205 	ld	-4 (ix), a
    0000145D DD 6E FB         [19] 3206 	ld	l, -5 (ix)
                                   3207 ;	spillPairReg hl
                                   3208 ;	spillPairReg hl
    00001460 DD 66 FC         [19] 3209 	ld	h, -4 (ix)
                                   3210 ;	spillPairReg hl
                                   3211 ;	spillPairReg hl
    00001463 7B               [ 4] 3212 	ld	a, e
    00001464 95               [ 4] 3213 	sub	a, l
    00001465 5F               [ 4] 3214 	ld	e, a
    00001466 7A               [ 4] 3215 	ld	a, d
    00001467 9C               [ 4] 3216 	sbc	a, h
    00001468 DD 73 FD         [19] 3217 	ld	-3 (ix), e
    0000146B DD 77 FE         [19] 3218 	ld	-2 (ix), a
                                   3219 ;E:\Dropbox\FAUSTO\SVILUPPI\MSX\CODE\C\MSXgl\projects\soccerlgSCC/soccerlg_s10_b3.c:609: i16 range = stats->Aggression;
    0000146E DD 6E DF         [19] 3220 	ld	l, -33 (ix)
                                   3221 ;	spillPairReg hl
                                   3222 ;	spillPairReg hl
    00001471 DD 66 E0         [19] 3223 	ld	h, -32 (ix)
                                   3224 ;	spillPairReg hl
                                   3225 ;	spillPairReg hl
    00001474 23               [ 6] 3226 	inc	hl
    00001475 5E               [ 7] 3227 	ld	e, (hl)
                                   3228 ;E:\Dropbox\FAUSTO\SVILUPPI\MSX\CODE\C\MSXgl\projects\soccerlgSCC/soccerlg_s10_b3.c:610: if (dx > -range && dx < range && dy > -range && dy < range) {
    00001476 AF               [ 4] 3229 	xor	a, a
    00001477 57               [ 4] 3230 	ld	d, a
    00001478 93               [ 4] 3231 	sub	a, e
    00001479 DD 77 F5         [19] 3232 	ld	-11 (ix), a
    0000147C 9F               [ 4] 3233 	sbc	a, a
    0000147D 92               [ 4] 3234 	sub	a, d
    0000147E DD 77 F6         [19] 3235 	ld	-10 (ix), a
    00001481 DD 7E F5         [19] 3236 	ld	a, -11 (ix)
    00001484 DD 96 F9         [19] 3237 	sub	a, -7 (ix)
    00001487 DD 7E F6         [19] 3238 	ld	a, -10 (ix)
    0000148A DD 9E FA         [19] 3239 	sbc	a, -6 (ix)
    0000148D E2r92r14         [10] 3240 	jp	PO, 02220$
    00001490 EE 80            [ 7] 3241 	xor	a, #0x80
    00001492                       3242 02220$:
    00001492 F2r17r15         [10] 3243 	jp	P, 00489$
    00001495 DD 7E F9         [19] 3244 	ld	a, -7 (ix)
    00001498 93               [ 4] 3245 	sub	a, e
    00001499 DD 7E FA         [19] 3246 	ld	a, -6 (ix)
    0000149C 9A               [ 4] 3247 	sbc	a, d
    0000149D E2rA2r14         [10] 3248 	jp	PO, 02221$
    000014A0 EE 80            [ 7] 3249 	xor	a, #0x80
    000014A2                       3250 02221$:
    000014A2 F2r17r15         [10] 3251 	jp	P, 00489$
    000014A5 DD 7E F5         [19] 3252 	ld	a, -11 (ix)
    000014A8 DD 96 FD         [19] 3253 	sub	a, -3 (ix)
    000014AB DD 7E F6         [19] 3254 	ld	a, -10 (ix)
    000014AE DD 9E FE         [19] 3255 	sbc	a, -2 (ix)
    000014B1 E2rB6r14         [10] 3256 	jp	PO, 02222$
    000014B4 EE 80            [ 7] 3257 	xor	a, #0x80
    000014B6                       3258 02222$:
    000014B6 F2r17r15         [10] 3259 	jp	P, 00489$
    000014B9 DD 7E FD         [19] 3260 	ld	a, -3 (ix)
    000014BC 93               [ 4] 3261 	sub	a, e
    000014BD DD 7E FE         [19] 3262 	ld	a, -2 (ix)
    000014C0 9A               [ 4] 3263 	sbc	a, d
    000014C1 E2rC6r14         [10] 3264 	jp	PO, 02223$
    000014C4 EE 80            [ 7] 3265 	xor	a, #0x80
    000014C6                       3266 02223$:
    000014C6 F2r17r15         [10] 3267 	jp	P, 00489$
                                   3268 ;E:\Dropbox\FAUSTO\SVILUPPI\MSX\CODE\C\MSXgl\projects\soccerlgSCC/soccerlg_s10_b3.c:615: bool isHumanControlled = false;
    000014C9 DD 36 FE 00      [19] 3269 	ld	-2 (ix), #0x00
                                   3270 ;E:\Dropbox\FAUSTO\SVILUPPI\MSX\CODE\C\MSXgl\projects\soccerlgSCC/soccerlg_s10_b3.c:616: if ((playerTeamId == TEAM_1 && g_Team1ActivePlayer == playerId) || 
    000014CD DD 7E DE         [19] 3271 	ld	a, -34 (ix)
    000014D0 B7               [ 4] 3272 	or	a, a
    000014D1 28 08            [12] 3273 	jr	Z, 00481$
    000014D3 3Ar00r00         [13] 3274 	ld	a, (_g_Team1ActivePlayer+0)
    000014D6 DD 96 FF         [19] 3275 	sub	a, -1 (ix)
    000014D9 28 15            [12] 3276 	jr	Z, 00476$
    000014DB                       3277 00481$:
                                   3278 ;E:\Dropbox\FAUSTO\SVILUPPI\MSX\CODE\C\MSXgl\projects\soccerlgSCC/soccerlg_s10_b3.c:617: (playerTeamId == TEAM_2 && g_GameWith2Players && g_Team2ActivePlayer == playerId)) {
    000014DB DD 7E DD         [19] 3279 	ld	a, -35 (ix)
    000014DE D6 02            [ 7] 3280 	sub	a, #0x02
    000014E0 20 12            [12] 3281 	jr	NZ, 00477$
    000014E2 3Ar00r00         [13] 3282 	ld	a, (_g_GameWith2Players+0)
    000014E5 B7               [ 4] 3283 	or	a, a
    000014E6 28 0C            [12] 3284 	jr	Z, 00477$
    000014E8 3Ar00r00         [13] 3285 	ld	a, (_g_Team2ActivePlayer+0)
    000014EB DD 96 FF         [19] 3286 	sub	a, -1 (ix)
    000014EE 20 04            [12] 3287 	jr	NZ, 00477$
    000014F0                       3288 00476$:
                                   3289 ;E:\Dropbox\FAUSTO\SVILUPPI\MSX\CODE\C\MSXgl\projects\soccerlgSCC/soccerlg_s10_b3.c:618: isHumanControlled = true;
    000014F0 DD 36 FE 01      [19] 3290 	ld	-2 (ix), #0x01
    000014F4                       3291 00477$:
                                   3292 ;E:\Dropbox\FAUSTO\SVILUPPI\MSX\CODE\C\MSXgl\projects\soccerlgSCC/soccerlg_s10_b3.c:621: if (!isHumanControlled) {
    000014F4 DD 7E FE         [19] 3293 	ld	a, -2 (ix)
    000014F7 B7               [ 4] 3294 	or	a, a
    000014F8 20 1D            [12] 3295 	jr	NZ, 00489$
                                   3296 ;E:\Dropbox\FAUSTO\SVILUPPI\MSX\CODE\C\MSXgl\projects\soccerlgSCC/soccerlg_s10_b3.c:623: if (g_Ball.StealCooldown == 0) {
    000014FA 3Ar0Fr00         [13] 3297 	ld	a, (#_g_Ball + 15)
    000014FD B7               [ 4] 3298 	or	a, a
    000014FE 20 17            [12] 3299 	jr	NZ, 00489$
                                   3300 ;E:\Dropbox\FAUSTO\SVILUPPI\MSX\CODE\C\MSXgl\projects\soccerlgSCC/soccerlg_s10_b3.c:625: if ((g_FrameCounter % 4) == 0) {
    00001500 3Ar00r00         [13] 3301 	ld	a, (_g_FrameCounter+0)
    00001503 E6 03            [ 7] 3302 	and	a, #0x03
    00001505 20 10            [12] 3303 	jr	NZ, 00489$
                                   3304 ;E:\Dropbox\FAUSTO\SVILUPPI\MSX\CODE\C\MSXgl\projects\soccerlgSCC/soccerlg_s10_b3.c:626: CallFnc_VOID_P1(4,PutBallOnPlayerFeet,playerId);
    00001507 DD 7E FF         [19] 3305 	ld	a, -1 (ix)
    0000150A F5               [11] 3306 	push	af
    0000150B 33               [ 6] 3307 	inc	sp
    0000150C 11r00r00         [10] 3308 	ld	de, #_PutBallOnPlayerFeet
    0000150F 3E 04            [ 7] 3309 	ld	a, #0x04
    00001511 CDr00r00         [17] 3310 	call	_CallFnc_VOID_P1
                                   3311 ;E:\Dropbox\FAUSTO\SVILUPPI\MSX\CODE\C\MSXgl\projects\soccerlgSCC/soccerlg_s10_b3.c:627: return;
    00001514 C3r5Er1D         [10] 3312 	jp	00670$
    00001517                       3313 00489$:
                                   3314 ;E:\Dropbox\FAUSTO\SVILUPPI\MSX\CODE\C\MSXgl\projects\soccerlgSCC/soccerlg_s10_b3.c:635: i16 targetX = g_Ball.X;
                                   3315 ;E:\Dropbox\FAUSTO\SVILUPPI\MSX\CODE\C\MSXgl\projects\soccerlgSCC/soccerlg_s10_b3.c:636: i16 targetY = g_Ball.Y;
    00001517 DD 5E FB         [19] 3316 	ld	e, -5 (ix)
    0000151A DD 56 FC         [19] 3317 	ld	d, -4 (ix)
    0000151D DD 73 FD         [19] 3318 	ld	-3 (ix), e
    00001520 DD 72 FE         [19] 3319 	ld	-2 (ix), d
                                   3320 ;E:\Dropbox\FAUSTO\SVILUPPI\MSX\CODE\C\MSXgl\projects\soccerlgSCC/soccerlg_s10_b3.c:639: u8 predDir = g_Ball.Direction;
    00001523 21r05r00         [10] 3321 	ld	hl, #_g_Ball + 5
    00001526 5E               [ 7] 3322 	ld	e, (hl)
                                   3323 ;E:\Dropbox\FAUSTO\SVILUPPI\MSX\CODE\C\MSXgl\projects\soccerlgSCC/soccerlg_s10_b3.c:640: if (g_Ball.PossessionPlayerId != NO_VALUE) predDir = g_Players[g_Ball.PossessionPlayerId].Direction;
    00001527 DD 56 F8         [19] 3324 	ld	d, -8 (ix)
    0000152A CB 42            [ 8] 3325 	bit	0, d
    0000152C 20 16            [12] 3326 	jr	NZ, 00494$
    0000152E DD 5E F7         [19] 3327 	ld	e, -9 (ix)
    00001531 16 00            [ 7] 3328 	ld	d, #0x00
    00001533 6B               [ 4] 3329 	ld	l, e
    00001534 62               [ 4] 3330 	ld	h, d
    00001535 29               [11] 3331 	add	hl, hl
    00001536 29               [11] 3332 	add	hl, hl
    00001537 19               [11] 3333 	add	hl, de
    00001538 29               [11] 3334 	add	hl, hl
    00001539 29               [11] 3335 	add	hl, hl
    0000153A 19               [11] 3336 	add	hl, de
    0000153B 11r00r00         [10] 3337 	ld	de, #_g_Players
    0000153E 19               [11] 3338 	add	hl, de
    0000153F 11 0A 00         [10] 3339 	ld	de, #0x000a
    00001542 19               [11] 3340 	add	hl, de
    00001543 5E               [ 7] 3341 	ld	e, (hl)
    00001544                       3342 00494$:
                                   3343 ;E:\Dropbox\FAUSTO\SVILUPPI\MSX\CODE\C\MSXgl\projects\soccerlgSCC/soccerlg_s10_b3.c:642: if (predDir != DIRECTION_NONE) {
    00001544 7B               [ 4] 3344 	ld	a, e
    00001545 B7               [ 4] 3345 	or	a, a
    00001546 CAr18r16         [10] 3346 	jp	Z, 00505$
                                   3347 ;E:\Dropbox\FAUSTO\SVILUPPI\MSX\CODE\C\MSXgl\projects\soccerlgSCC/soccerlg_s10_b3.c:645: switch(predDir) {
    00001549 3E 08            [ 7] 3348 	ld	a, #0x08
    0000154B 93               [ 4] 3349 	sub	a, e
    0000154C DAr18r16         [10] 3350 	jp	C, 00505$
    0000154F 16 00            [ 7] 3351 	ld	d, #0x00
    00001551 21r58r15         [10] 3352 	ld	hl, #02231$
    00001554 19               [11] 3353 	add	hl, de
    00001555 19               [11] 3354 	add	hl, de
    00001556 19               [11] 3355 	add	hl, de
    00001557 E9               [ 4] 3356 	jp	(hl)
    00001558                       3357 02231$:
    00001558 C3r18r16         [10] 3358 	jp	00505$
    0000155B C3r73r15         [10] 3359 	jp	00495$
    0000155E C3rAFr15         [10] 3360 	jp	00499$
    00001561 C3rA6r15         [10] 3361 	jp	00498$
    00001564 C3rE7r15         [10] 3362 	jp	00501$
    00001567 C3r88r15         [10] 3363 	jp	00496$
    0000156A C3r00r16         [10] 3364 	jp	00502$
    0000156D C3r9Br15         [10] 3365 	jp	00497$
    00001570 C3rCAr15         [10] 3366 	jp	00500$
                                   3367 ;E:\Dropbox\FAUSTO\SVILUPPI\MSX\CODE\C\MSXgl\projects\soccerlgSCC/soccerlg_s10_b3.c:646: case DIRECTION_UP: targetY -= lead; break;
    00001573                       3368 00495$:
    00001573 DD 7E FD         [19] 3369 	ld	a, -3 (ix)
    00001576 DD 56 FE         [19] 3370 	ld	d, -2 (ix)
    00001579 C6 E0            [ 7] 3371 	add	a, #0xe0
    0000157B 5F               [ 4] 3372 	ld	e, a
    0000157C 7A               [ 4] 3373 	ld	a, d
    0000157D CE FF            [ 7] 3374 	adc	a, #0xff
    0000157F DD 73 FD         [19] 3375 	ld	-3 (ix), e
    00001582 DD 77 FE         [19] 3376 	ld	-2 (ix), a
    00001585 C3r18r16         [10] 3377 	jp	00505$
                                   3378 ;E:\Dropbox\FAUSTO\SVILUPPI\MSX\CODE\C\MSXgl\projects\soccerlgSCC/soccerlg_s10_b3.c:647: case DIRECTION_DOWN: targetY += lead; break;
    00001588                       3379 00496$:
    00001588 DD 5E FD         [19] 3380 	ld	e, -3 (ix)
    0000158B DD 56 FE         [19] 3381 	ld	d, -2 (ix)
    0000158E 21 20 00         [10] 3382 	ld	hl, #0x0020
    00001591 19               [11] 3383 	add	hl, de
    00001592 DD 75 FD         [19] 3384 	ld	-3 (ix), l
    00001595 DD 74 FE         [19] 3385 	ld	-2 (ix), h
    00001598 C3r18r16         [10] 3386 	jp	00505$
                                   3387 ;E:\Dropbox\FAUSTO\SVILUPPI\MSX\CODE\C\MSXgl\projects\soccerlgSCC/soccerlg_s10_b3.c:648: case DIRECTION_LEFT: targetX -= lead; break;
    0000159B                       3388 00497$:
    0000159B 79               [ 4] 3389 	ld	a, c
    0000159C C6 E0            [ 7] 3390 	add	a, #0xe0
    0000159E 4F               [ 4] 3391 	ld	c, a
    0000159F 78               [ 4] 3392 	ld	a, b
    000015A0 CE FF            [ 7] 3393 	adc	a, #0xff
    000015A2 47               [ 4] 3394 	ld	b, a
    000015A3 C3r18r16         [10] 3395 	jp	00505$
                                   3396 ;E:\Dropbox\FAUSTO\SVILUPPI\MSX\CODE\C\MSXgl\projects\soccerlgSCC/soccerlg_s10_b3.c:649: case DIRECTION_RIGHT: targetX += lead; break;
    000015A6                       3397 00498$:
    000015A6 21 20 00         [10] 3398 	ld	hl, #0x0020
    000015A9 09               [11] 3399 	add	hl, bc
    000015AA 4D               [ 4] 3400 	ld	c, l
    000015AB 44               [ 4] 3401 	ld	b, h
    000015AC C3r18r16         [10] 3402 	jp	00505$
                                   3403 ;E:\Dropbox\FAUSTO\SVILUPPI\MSX\CODE\C\MSXgl\projects\soccerlgSCC/soccerlg_s10_b3.c:650: case DIRECTION_UP_RIGHT: targetY -= 24; targetX += 24; break;
    000015AF                       3404 00499$:
    000015AF DD 7E FD         [19] 3405 	ld	a, -3 (ix)
    000015B2 DD 56 FE         [19] 3406 	ld	d, -2 (ix)
    000015B5 C6 E8            [ 7] 3407 	add	a, #0xe8
    000015B7 5F               [ 4] 3408 	ld	e, a
    000015B8 7A               [ 4] 3409 	ld	a, d
    000015B9 CE FF            [ 7] 3410 	adc	a, #0xff
    000015BB DD 73 FD         [19] 3411 	ld	-3 (ix), e
    000015BE DD 77 FE         [19] 3412 	ld	-2 (ix), a
    000015C1 21 18 00         [10] 3413 	ld	hl, #0x0018
    000015C4 09               [11] 3414 	add	hl, bc
    000015C5 4D               [ 4] 3415 	ld	c, l
    000015C6 44               [ 4] 3416 	ld	b, h
    000015C7 C3r18r16         [10] 3417 	jp	00505$
                                   3418 ;E:\Dropbox\FAUSTO\SVILUPPI\MSX\CODE\C\MSXgl\projects\soccerlgSCC/soccerlg_s10_b3.c:651: case DIRECTION_UP_LEFT: targetY -= 24; targetX -= 24; break;
    000015CA                       3419 00500$:
    000015CA DD 7E FD         [19] 3420 	ld	a, -3 (ix)
    000015CD DD 56 FE         [19] 3421 	ld	d, -2 (ix)
    000015D0 C6 E8            [ 7] 3422 	add	a, #0xe8
    000015D2 5F               [ 4] 3423 	ld	e, a
    000015D3 7A               [ 4] 3424 	ld	a, d
    000015D4 CE FF            [ 7] 3425 	adc	a, #0xff
    000015D6 DD 73 FD         [19] 3426 	ld	-3 (ix), e
    000015D9 DD 77 FE         [19] 3427 	ld	-2 (ix), a
    000015DC 79               [ 4] 3428 	ld	a, c
    000015DD C6 E8            [ 7] 3429 	add	a, #0xe8
    000015DF 4F               [ 4] 3430 	ld	c, a
    000015E0 78               [ 4] 3431 	ld	a, b
    000015E1 CE FF            [ 7] 3432 	adc	a, #0xff
    000015E3 47               [ 4] 3433 	ld	b, a
    000015E4 C3r18r16         [10] 3434 	jp	00505$
                                   3435 ;E:\Dropbox\FAUSTO\SVILUPPI\MSX\CODE\C\MSXgl\projects\soccerlgSCC/soccerlg_s10_b3.c:652: case DIRECTION_DOWN_RIGHT: targetY += 24; targetX += 24; break;
    000015E7                       3436 00501$:
    000015E7 DD 5E FD         [19] 3437 	ld	e, -3 (ix)
    000015EA DD 56 FE         [19] 3438 	ld	d, -2 (ix)
    000015ED 21 18 00         [10] 3439 	ld	hl, #0x0018
    000015F0 19               [11] 3440 	add	hl, de
    000015F1 DD 75 FD         [19] 3441 	ld	-3 (ix), l
    000015F4 DD 74 FE         [19] 3442 	ld	-2 (ix), h
    000015F7 21 18 00         [10] 3443 	ld	hl, #0x0018
    000015FA 09               [11] 3444 	add	hl, bc
    000015FB 4D               [ 4] 3445 	ld	c, l
    000015FC 44               [ 4] 3446 	ld	b, h
    000015FD C3r18r16         [10] 3447 	jp	00505$
                                   3448 ;E:\Dropbox\FAUSTO\SVILUPPI\MSX\CODE\C\MSXgl\projects\soccerlgSCC/soccerlg_s10_b3.c:653: case DIRECTION_DOWN_LEFT: targetY += 24; targetX -= 24; break;
    00001600                       3449 00502$:
    00001600 DD 5E FD         [19] 3450 	ld	e, -3 (ix)
    00001603 DD 56 FE         [19] 3451 	ld	d, -2 (ix)
    00001606 21 18 00         [10] 3452 	ld	hl, #0x0018
    00001609 19               [11] 3453 	add	hl, de
    0000160A DD 75 FD         [19] 3454 	ld	-3 (ix), l
    0000160D DD 74 FE         [19] 3455 	ld	-2 (ix), h
    00001610 79               [ 4] 3456 	ld	a, c
    00001611 C6 E8            [ 7] 3457 	add	a, #0xe8
    00001613 4F               [ 4] 3458 	ld	c, a
    00001614 78               [ 4] 3459 	ld	a, b
    00001615 CE FF            [ 7] 3460 	adc	a, #0xff
    00001617 47               [ 4] 3461 	ld	b, a
                                   3462 ;E:\Dropbox\FAUSTO\SVILUPPI\MSX\CODE\C\MSXgl\projects\soccerlgSCC/soccerlg_s10_b3.c:654: }
    00001618                       3463 00505$:
                                   3464 ;E:\Dropbox\FAUSTO\SVILUPPI\MSX\CODE\C\MSXgl\projects\soccerlgSCC/soccerlg_s10_b3.c:656: g_Players[playerId].TargetX = targetX;
    00001618 E1               [10] 3465 	pop	hl
    00001619 E5               [11] 3466 	push	hl
    0000161A 11 10 00         [10] 3467 	ld	de, #0x0010
    0000161D 19               [11] 3468 	add	hl, de
    0000161E 71               [ 7] 3469 	ld	(hl), c
    0000161F 23               [ 6] 3470 	inc	hl
    00001620 70               [ 7] 3471 	ld	(hl), b
                                   3472 ;E:\Dropbox\FAUSTO\SVILUPPI\MSX\CODE\C\MSXgl\projects\soccerlgSCC/soccerlg_s10_b3.c:657: g_Players[playerId].TargetY = targetY;
    00001621 E1               [10] 3473 	pop	hl
    00001622 E5               [11] 3474 	push	hl
    00001623 11 0E 00         [10] 3475 	ld	de, #0x000e
    00001626 19               [11] 3476 	add	hl, de
    00001627 DD 7E FD         [19] 3477 	ld	a, -3 (ix)
    0000162A 77               [ 7] 3478 	ld	(hl), a
    0000162B 23               [ 6] 3479 	inc	hl
    0000162C DD 7E FE         [19] 3480 	ld	a, -2 (ix)
    0000162F 77               [ 7] 3481 	ld	(hl), a
    00001630 C3r5Er1D         [10] 3482 	jp	00670$
                                   3483 ;E:\Dropbox\FAUSTO\SVILUPPI\MSX\CODE\C\MSXgl\projects\soccerlgSCC/soccerlg_s10_b3.c:662: u16 defGoalY = (playerTeamId == TEAM_1) ? FIELD_BOUND_Y_BOTTOM : FIELD_BOUND_Y_TOP;
    00001633                       3484 00713$:
                                   3485 ;E:\Dropbox\FAUSTO\SVILUPPI\MSX\CODE\C\MSXgl\projects\soccerlgSCC/soccerlg_s10_b3.c:663: bool chaserBeaten = false;
    00001633 DD 36 FD 00      [19] 3486 	ld	-3 (ix), #0x00
                                   3487 ;E:\Dropbox\FAUSTO\SVILUPPI\MSX\CODE\C\MSXgl\projects\soccerlgSCC/soccerlg_s10_b3.c:664: bool opponentHasBall = (g_Ball.PossessionPlayerId != NO_VALUE && g_Players[g_Ball.PossessionPlayerId].TeamId != playerTeamId);
    00001637 3Ar06r00         [13] 3488 	ld	a, (#(_g_Ball + 6) + 0)
    0000163A FE FF            [ 7] 3489 	cp	a, #0xff
    0000163C 28 19            [12] 3490 	jr	Z, 00714$
    0000163E 5F               [ 4] 3491 	ld	e, a
    0000163F 16 00            [ 7] 3492 	ld	d, #0x00
    00001641 6B               [ 4] 3493 	ld	l, e
    00001642 62               [ 4] 3494 	ld	h, d
    00001643 29               [11] 3495 	add	hl, hl
    00001644 29               [11] 3496 	add	hl, hl
    00001645 19               [11] 3497 	add	hl, de
    00001646 29               [11] 3498 	add	hl, hl
    00001647 29               [11] 3499 	add	hl, hl
    00001648 19               [11] 3500 	add	hl, de
    00001649 11r00r00         [10] 3501 	ld	de, #_g_Players
    0000164C 19               [11] 3502 	add	hl, de
    0000164D 11 09 00         [10] 3503 	ld	de, #0x0009
    00001650 19               [11] 3504 	add	hl, de
    00001651 DD 7E DD         [19] 3505 	ld	a,-35 (ix)
    00001654 96               [ 7] 3506 	sub	a,(hl)
    00001655 20 05            [12] 3507 	jr	NZ, 00715$
    00001657                       3508 00714$:
    00001657 0E 00            [ 7] 3509 	ld	c, #0x00
    00001659 C3r5Er16         [10] 3510 	jp	00716$
    0000165C                       3511 00715$:
    0000165C 0E 01            [ 7] 3512 	ld	c, #0x01
    0000165E                       3513 00716$:
                                   3514 ;E:\Dropbox\FAUSTO\SVILUPPI\MSX\CODE\C\MSXgl\projects\soccerlgSCC/soccerlg_s10_b3.c:666: bool forceRetreat = (g_MatchStatus == MATCH_BALL_ON_GOALKEEPER);
    0000165E 3Ar00r00         [13] 3515 	ld	a, (_g_MatchStatus+0)
    00001661 D6 0D            [ 7] 3516 	sub	a, #0x0d
    00001663 3E 01            [ 7] 3517 	ld	a, #0x01
    00001665 28 01            [12] 3518 	jr	Z, 02236$
    00001667 AF               [ 4] 3519 	xor	a, a
    00001668                       3520 02236$:
    00001668 DD 77 FE         [19] 3521 	ld	-2 (ix), a
                                   3522 ;E:\Dropbox\FAUSTO\SVILUPPI\MSX\CODE\C\MSXgl\projects\soccerlgSCC/soccerlg_s10_b3.c:667: if (opponentHasBall && playerClosesestToBallId != NO_VALUE && !forceRetreat) {
    0000166B 79               [ 4] 3523 	ld	a, c
    0000166C B7               [ 4] 3524 	or	a, a
    0000166D 28 31            [12] 3525 	jr	Z, 00517$
    0000166F 04               [ 4] 3526 	inc	b
    00001670 28 2E            [12] 3527 	jr	Z, 00517$
    00001672 DD 7E FE         [19] 3528 	ld	a, -2 (ix)
    00001675 B7               [ 4] 3529 	or	a, a
    00001676 20 28            [12] 3530 	jr	NZ, 00517$
                                   3531 ;E:\Dropbox\FAUSTO\SVILUPPI\MSX\CODE\C\MSXgl\projects\soccerlgSCC/soccerlg_s10_b3.c:668: u16 chaserY = g_Players[playerClosesestToBallId].Y;
    00001678 DD 6E F8         [19] 3532 	ld	l, -8 (ix)
    0000167B DD 66 F9         [19] 3533 	ld	h, -7 (ix)
    0000167E 5E               [ 7] 3534 	ld	e, (hl)
    0000167F 23               [ 6] 3535 	inc	hl
    00001680 56               [ 7] 3536 	ld	d, (hl)
                                   3537 ;E:\Dropbox\FAUSTO\SVILUPPI\MSX\CODE\C\MSXgl\projects\soccerlgSCC/soccerlg_s10_b3.c:669: if (playerTeamId == TEAM_1) { if (g_Ball.Y > chaserY) chaserBeaten = true; } 
    00001681 2Ar00r00         [16] 3538 	ld	hl, (#_g_Ball + 0)
    00001684 DD 7E DE         [19] 3539 	ld	a, -34 (ix)
    00001687 B7               [ 4] 3540 	or	a, a
    00001688 28 0D            [12] 3541 	jr	Z, 00514$
    0000168A 7B               [ 4] 3542 	ld	a, e
    0000168B 95               [ 4] 3543 	sub	a, l
    0000168C 7A               [ 4] 3544 	ld	a, d
    0000168D 9C               [ 4] 3545 	sbc	a, h
    0000168E 30 10            [12] 3546 	jr	NC, 00517$
    00001690 DD 36 FD 01      [19] 3547 	ld	-3 (ix), #0x01
    00001694 C3rA0r16         [10] 3548 	jp	00517$
    00001697                       3549 00514$:
                                   3550 ;E:\Dropbox\FAUSTO\SVILUPPI\MSX\CODE\C\MSXgl\projects\soccerlgSCC/soccerlg_s10_b3.c:670: else { if (g_Ball.Y < chaserY) chaserBeaten = true; }
    00001697 AF               [ 4] 3551 	xor	a, a
    00001698 ED 52            [15] 3552 	sbc	hl, de
    0000169A 30 04            [12] 3553 	jr	NC, 00517$
    0000169C DD 36 FD 01      [19] 3554 	ld	-3 (ix), #0x01
    000016A0                       3555 00517$:
                                   3556 ;E:\Dropbox\FAUSTO\SVILUPPI\MSX\CODE\C\MSXgl\projects\soccerlgSCC/soccerlg_s10_b3.c:673: if (opponentHasBall && chaserBeaten && !forceRetreat) {
    000016A0 79               [ 4] 3557 	ld	a, c
    000016A1 B7               [ 4] 3558 	or	a, a
    000016A2 28 50            [12] 3559 	jr	Z, 00584$
    000016A4 DD 7E FD         [19] 3560 	ld	a, -3 (ix)
    000016A7 B7               [ 4] 3561 	or	a, a
    000016A8 28 4A            [12] 3562 	jr	Z, 00584$
    000016AA DD 7E FE         [19] 3563 	ld	a, -2 (ix)
    000016AD B7               [ 4] 3564 	or	a, a
    000016AE 20 44            [12] 3565 	jr	NZ, 00584$
                                   3566 ;E:\Dropbox\FAUSTO\SVILUPPI\MSX\CODE\C\MSXgl\projects\soccerlgSCC/soccerlg_s10_b3.c:674: g_Players[playerId].TargetX = g_Ball.X;
    000016B0 DD 7E DB         [19] 3567 	ld	a, -37 (ix)
    000016B3 C6 10            [ 7] 3568 	add	a, #0x10
    000016B5 4F               [ 4] 3569 	ld	c, a
    000016B6 DD 7E DC         [19] 3570 	ld	a, -36 (ix)
    000016B9 CE 00            [ 7] 3571 	adc	a, #0x00
    000016BB 47               [ 4] 3572 	ld	b, a
    000016BC ED 5Br02r00      [20] 3573 	ld	de, (#_g_Ball + 2)
    000016C0 7B               [ 4] 3574 	ld	a, e
    000016C1 02               [ 7] 3575 	ld	(bc), a
    000016C2 03               [ 6] 3576 	inc	bc
    000016C3 7A               [ 4] 3577 	ld	a, d
    000016C4 02               [ 7] 3578 	ld	(bc), a
                                   3579 ;E:\Dropbox\FAUSTO\SVILUPPI\MSX\CODE\C\MSXgl\projects\soccerlgSCC/soccerlg_s10_b3.c:360: g_Players[playerId].TargetY = finalTargetY;
    000016C5 DD 7E DB         [19] 3580 	ld	a, -37 (ix)
    000016C8 C6 0E            [ 7] 3581 	add	a, #0x0e
    000016CA 4F               [ 4] 3582 	ld	c, a
    000016CB DD 7E DC         [19] 3583 	ld	a, -36 (ix)
    000016CE CE 00            [ 7] 3584 	adc	a, #0x00
    000016D0 47               [ 4] 3585 	ld	b, a
                                   3586 ;E:\Dropbox\FAUSTO\SVILUPPI\MSX\CODE\C\MSXgl\projects\soccerlgSCC/soccerlg_s10_b3.c:669: if (playerTeamId == TEAM_1) { if (g_Ball.Y > chaserY) chaserBeaten = true; } 
    000016D1 2Ar00r00         [16] 3587 	ld	hl, (#_g_Ball + 0)
                                   3588 ;E:\Dropbox\FAUSTO\SVILUPPI\MSX\CODE\C\MSXgl\projects\soccerlgSCC/soccerlg_s10_b3.c:675: if (playerTeamId == TEAM_1) g_Players[playerId].TargetY = g_Ball.Y + 15;
    000016D4 DD 7E DE         [19] 3589 	ld	a, -34 (ix)
    000016D7 B7               [ 4] 3590 	or	a, a
    000016D8 28 0D            [12] 3591 	jr	Z, 00521$
    000016DA 11 0F 00         [10] 3592 	ld	de, #0x000f
    000016DD 19               [11] 3593 	add	hl, de
    000016DE EB               [ 4] 3594 	ex	de, hl
    000016DF 7B               [ 4] 3595 	ld	a, e
    000016E0 02               [ 7] 3596 	ld	(bc), a
    000016E1 03               [ 6] 3597 	inc	bc
    000016E2 7A               [ 4] 3598 	ld	a, d
    000016E3 02               [ 7] 3599 	ld	(bc), a
    000016E4 C3rABr19         [10] 3600 	jp	00585$
    000016E7                       3601 00521$:
                                   3602 ;E:\Dropbox\FAUSTO\SVILUPPI\MSX\CODE\C\MSXgl\projects\soccerlgSCC/soccerlg_s10_b3.c:676: else g_Players[playerId].TargetY = g_Ball.Y - 15;
    000016E7 11 F1 FF         [10] 3603 	ld	de, #0xfff1
    000016EA 19               [11] 3604 	add	hl, de
    000016EB EB               [ 4] 3605 	ex	de,hl
    000016EC 7B               [ 4] 3606 	ld	a, e
    000016ED 02               [ 7] 3607 	ld	(bc), a
    000016EE 03               [ 6] 3608 	inc	bc
    000016EF 7A               [ 4] 3609 	ld	a, d
    000016F0 02               [ 7] 3610 	ld	(bc), a
    000016F1 C3rABr19         [10] 3611 	jp	00585$
    000016F4                       3612 00584$:
                                   3613 ;E:\Dropbox\FAUSTO\SVILUPPI\MSX\CODE\C\MSXgl\projects\soccerlgSCC/soccerlg_s10_b3.c:527: if (g_Players[playerId].Role == PLAYER_ROLE_GOALKEEPER) {
    000016F4 DD 6E F5         [19] 3614 	ld	l, -11 (ix)
    000016F7 DD 66 F6         [19] 3615 	ld	h, -10 (ix)
    000016FA 7E               [ 7] 3616 	ld	a, (hl)
                                   3617 ;E:\Dropbox\FAUSTO\SVILUPPI\MSX\CODE\C\MSXgl\projects\soccerlgSCC/soccerlg_s10_b3.c:680: if (g_Players[playerId].Role >= PLAYER_ROLE_LEFT_STRIKER) {
    000016FB DD 77 FD         [19] 3618 	ld	-3 (ix), a
    000016FE D6 05            [ 7] 3619 	sub	a, #0x05
    00001700 3E 00            [ 7] 3620 	ld	a, #0x00
    00001702 17               [ 4] 3621 	rla
    00001703 DD 77 FE         [19] 3622 	ld	-2 (ix), a
                                   3623 ;E:\Dropbox\FAUSTO\SVILUPPI\MSX\CODE\C\MSXgl\projects\soccerlgSCC/soccerlg_s10_b3.c:679: if (playerTeamId == TEAM_1) { // Defend Bottom (High Y)
    00001706 DD 7E DE         [19] 3624 	ld	a, -34 (ix)
    00001709 B7               [ 4] 3625 	or	a, a
    0000170A CArF3r17         [10] 3626 	jp	Z, 00568$
                                   3627 ;E:\Dropbox\FAUSTO\SVILUPPI\MSX\CODE\C\MSXgl\projects\soccerlgSCC/soccerlg_s10_b3.c:680: if (g_Players[playerId].Role >= PLAYER_ROLE_LEFT_STRIKER) {
    0000170D DD CB FE 46      [20] 3628 	bit	0, -2 (ix)
    00001711 20 0E            [12] 3629 	jr	NZ, 00543$
                                   3630 ;E:\Dropbox\FAUSTO\SVILUPPI\MSX\CODE\C\MSXgl\projects\soccerlgSCC/soccerlg_s10_b3.c:682: g_Players[playerId].TargetY = FIELD_POS_Y_CENTER;
    00001713 E1               [10] 3631 	pop	hl
    00001714 E5               [11] 3632 	push	hl
    00001715 11 0E 00         [10] 3633 	ld	de, #0x000e
    00001718 19               [11] 3634 	add	hl, de
    00001719 36 F3            [10] 3635 	ld	(hl), #0xf3
    0000171B 23               [ 6] 3636 	inc	hl
    0000171C 36 00            [10] 3637 	ld	(hl), #0x00
    0000171E C3rDCr18         [10] 3638 	jp	00569$
    00001721                       3639 00543$:
                                   3640 ;E:\Dropbox\FAUSTO\SVILUPPI\MSX\CODE\C\MSXgl\projects\soccerlgSCC/soccerlg_s10_b3.c:684: else if (g_Players[playerId].Role >= PLAYER_ROLE_LEFT_HALFFIELDER) {
    00001721 DD 7E FD         [19] 3641 	ld	a, -3 (ix)
    00001724 D6 03            [ 7] 3642 	sub	a, #0x03
    00001726 38 0E            [12] 3643 	jr	C, 00540$
                                   3644 ;E:\Dropbox\FAUSTO\SVILUPPI\MSX\CODE\C\MSXgl\projects\soccerlgSCC/soccerlg_s10_b3.c:686: g_Players[playerId].TargetY = 318; 
    00001728 E1               [10] 3645 	pop	hl
    00001729 E5               [11] 3646 	push	hl
    0000172A 11 0E 00         [10] 3647 	ld	de, #0x000e
    0000172D 19               [11] 3648 	add	hl, de
    0000172E 36 3E            [10] 3649 	ld	(hl), #0x3e
    00001730 23               [ 6] 3650 	inc	hl
    00001731 36 01            [10] 3651 	ld	(hl), #0x01
    00001733 C3rDCr18         [10] 3652 	jp	00569$
    00001736                       3653 00540$:
                                   3654 ;E:\Dropbox\FAUSTO\SVILUPPI\MSX\CODE\C\MSXgl\projects\soccerlgSCC/soccerlg_s10_b3.c:691: u16 defenseLineY = 350;
    00001736 DD 36 FA 5E      [19] 3655 	ld	-6 (ix), #0x5e
    0000173A DD 36 FB 01      [19] 3656 	ld	-5 (ix), #0x01
                                   3657 ;E:\Dropbox\FAUSTO\SVILUPPI\MSX\CODE\C\MSXgl\projects\soccerlgSCC/soccerlg_s10_b3.c:696: for(u8 k=0; k<14; k++) {
    0000173E E1               [10] 3658 	pop	hl
    0000173F E5               [11] 3659 	push	hl
    00001740 4E               [ 7] 3660 	ld	c, (hl)
    00001741 23               [ 6] 3661 	inc	hl
    00001742 46               [ 7] 3662 	ld	b, (hl)
    00001743 1E 00            [ 7] 3663 	ld	e, #0x00
    00001745 DD 36 FE 00      [19] 3664 	ld	-2 (ix), #0x00
    00001749                       3665 00663$:
    00001749 DD 7E FE         [19] 3666 	ld	a, -2 (ix)
    0000174C D6 0E            [ 7] 3667 	sub	a, #0x0e
    0000174E 30 5C            [12] 3668 	jr	NC, 00531$
                                   3669 ;E:\Dropbox\FAUSTO\SVILUPPI\MSX\CODE\C\MSXgl\projects\soccerlgSCC/soccerlg_s10_b3.c:697: if (k==playerId) continue;
    00001750 DD 7E FF         [19] 3670 	ld	a, -1 (ix)
    00001753 DD 96 FE         [19] 3671 	sub	a, -2 (ix)
    00001756 28 4E            [12] 3672 	jr	Z, 00530$
                                   3673 ;E:\Dropbox\FAUSTO\SVILUPPI\MSX\CODE\C\MSXgl\projects\soccerlgSCC/soccerlg_s10_b3.c:698: if (g_Players[k].TeamId == playerTeamId && g_Players[k].Role != PLAYER_ROLE_GOALKEEPER) {
    00001758 D5               [11] 3674 	push	de
    00001759 DD 5E FE         [19] 3675 	ld	e, -2 (ix)
    0000175C 16 00            [ 7] 3676 	ld	d, #0x00
    0000175E 6B               [ 4] 3677 	ld	l, e
    0000175F 62               [ 4] 3678 	ld	h, d
    00001760 29               [11] 3679 	add	hl, hl
    00001761 29               [11] 3680 	add	hl, hl
    00001762 19               [11] 3681 	add	hl, de
    00001763 29               [11] 3682 	add	hl, hl
    00001764 29               [11] 3683 	add	hl, hl
    00001765 19               [11] 3684 	add	hl, de
    00001766 D1               [10] 3685 	pop	de
    00001767 3Er00            [ 7] 3686 	ld	a, #<(_g_Players)
    00001769 85               [ 4] 3687 	add	a, l
    0000176A DD 77 FC         [19] 3688 	ld	-4 (ix), a
    0000176D 3Es00            [ 7] 3689 	ld	a, #>(_g_Players)
    0000176F 8C               [ 4] 3690 	adc	a, h
    00001770 DD 77 FD         [19] 3691 	ld	-3 (ix), a
    00001773 DD 6E FC         [19] 3692 	ld	l, -4 (ix)
                                   3693 ;	spillPairReg hl
                                   3694 ;	spillPairReg hl
    00001776 DD 66 FD         [19] 3695 	ld	h, -3 (ix)
                                   3696 ;	spillPairReg hl
                                   3697 ;	spillPairReg hl
    00001779 C5               [11] 3698 	push	bc
    0000177A 01 09 00         [10] 3699 	ld	bc, #0x0009
    0000177D 09               [11] 3700 	add	hl, bc
    0000177E C1               [10] 3701 	pop	bc
    0000177F 56               [ 7] 3702 	ld	d, (hl)
    00001780 DD 7E DD         [19] 3703 	ld	a, -35 (ix)
    00001783 92               [ 4] 3704 	sub	a, d
    00001784 20 20            [12] 3705 	jr	NZ, 00530$
    00001786 DD 6E FC         [19] 3706 	ld	l, -4 (ix)
                                   3707 ;	spillPairReg hl
                                   3708 ;	spillPairReg hl
    00001789 DD 66 FD         [19] 3709 	ld	h, -3 (ix)
                                   3710 ;	spillPairReg hl
                                   3711 ;	spillPairReg hl
    0000178C C5               [11] 3712 	push	bc
    0000178D 01 0D 00         [10] 3713 	ld	bc, #0x000d
    00001790 09               [11] 3714 	add	hl, bc
    00001791 C1               [10] 3715 	pop	bc
    00001792 7E               [ 7] 3716 	ld	a, (hl)
    00001793 B7               [ 4] 3717 	or	a, a
    00001794 28 10            [12] 3718 	jr	Z, 00530$
                                   3719 ;E:\Dropbox\FAUSTO\SVILUPPI\MSX\CODE\C\MSXgl\projects\soccerlgSCC/soccerlg_s10_b3.c:699: if (g_Players[k].Y < g_Players[playerId].Y) teammatesAhead++;
    00001796 DD 6E FC         [19] 3720 	ld	l, -4 (ix)
    00001799 DD 66 FD         [19] 3721 	ld	h, -3 (ix)
    0000179C 7E               [ 7] 3722 	ld	a, (hl)
    0000179D 23               [ 6] 3723 	inc	hl
    0000179E 66               [ 7] 3724 	ld	h, (hl)
                                   3725 ;	spillPairReg hl
    0000179F 6F               [ 4] 3726 	ld	l, a
                                   3727 ;	spillPairReg hl
                                   3728 ;	spillPairReg hl
    000017A0 AF               [ 4] 3729 	xor	a, a
    000017A1 ED 42            [15] 3730 	sbc	hl, bc
    000017A3 30 01            [12] 3731 	jr	NC, 00530$
    000017A5 1C               [ 4] 3732 	inc	e
    000017A6                       3733 00530$:
                                   3734 ;E:\Dropbox\FAUSTO\SVILUPPI\MSX\CODE\C\MSXgl\projects\soccerlgSCC/soccerlg_s10_b3.c:696: for(u8 k=0; k<14; k++) {
    000017A6 DD 34 FE         [23] 3735 	inc	-2 (ix)
    000017A9 C3r49r17         [10] 3736 	jp	00663$
    000017AC                       3737 00531$:
                                   3738 ;E:\Dropbox\FAUSTO\SVILUPPI\MSX\CODE\C\MSXgl\projects\soccerlgSCC/soccerlg_s10_b3.c:669: if (playerTeamId == TEAM_1) { if (g_Ball.Y > chaserY) chaserBeaten = true; } 
    000017AC ED 4Br00r00      [20] 3739 	ld	bc, (#_g_Ball + 0)
                                   3740 ;E:\Dropbox\FAUSTO\SVILUPPI\MSX\CODE\C\MSXgl\projects\soccerlgSCC/soccerlg_s10_b3.c:675: if (playerTeamId == TEAM_1) g_Players[playerId].TargetY = g_Ball.Y + 15;
                                   3741 ;E:\Dropbox\FAUSTO\SVILUPPI\MSX\CODE\C\MSXgl\projects\soccerlgSCC/soccerlg_s10_b3.c:704: if (teammatesAhead < 2 || g_Ball.Y > 280) {
    000017B0 7B               [ 4] 3742 	ld	a, e
    000017B1 D6 02            [ 7] 3743 	sub	a, #0x02
    000017B3 38 08            [12] 3744 	jr	C, 00536$
    000017B5 3E 18            [ 7] 3745 	ld	a, #0x18
    000017B7 B9               [ 4] 3746 	cp	a, c
    000017B8 3E 01            [ 7] 3747 	ld	a, #0x01
    000017BA 98               [ 4] 3748 	sbc	a, b
    000017BB 30 24            [12] 3749 	jr	NC, 00537$
    000017BD                       3750 00536$:
                                   3751 ;E:\Dropbox\FAUSTO\SVILUPPI\MSX\CODE\C\MSXgl\projects\soccerlgSCC/soccerlg_s10_b3.c:706: if (g_Ball.Y > defenseLineY - 40) {
    000017BD 3E 36            [ 7] 3752 	ld	a, #0x36
    000017BF B9               [ 4] 3753 	cp	a, c
    000017C0 3E 01            [ 7] 3754 	ld	a, #0x01
    000017C2 98               [ 4] 3755 	sbc	a, b
    000017C3 30 1C            [12] 3756 	jr	NC, 00537$
                                   3757 ;E:\Dropbox\FAUSTO\SVILUPPI\MSX\CODE\C\MSXgl\projects\soccerlgSCC/soccerlg_s10_b3.c:708: defenseLineY = g_Ball.Y + 15; 
    000017C5 21 0F 00         [10] 3758 	ld	hl, #0x000f
    000017C8 09               [11] 3759 	add	hl, bc
                                   3760 ;E:\Dropbox\FAUSTO\SVILUPPI\MSX\CODE\C\MSXgl\projects\soccerlgSCC/soccerlg_s10_b3.c:709: if (defenseLineY > FIELD_BOUND_Y_BOTTOM - 10) defenseLineY = FIELD_BOUND_Y_BOTTOM - 10;
    000017C9 DD 75 FA         [19] 3761 	ld	-6 (ix), l
    000017CC DD 74 FB         [19] 3762 	ld	-5 (ix), h
    000017CF 4D               [ 4] 3763 	ld	c, l
    000017D0 44               [ 4] 3764 	ld	b, h
    000017D1 3E A9            [ 7] 3765 	ld	a, #0xa9
    000017D3 B9               [ 4] 3766 	cp	a, c
    000017D4 3E 01            [ 7] 3767 	ld	a, #0x01
    000017D6 98               [ 4] 3768 	sbc	a, b
    000017D7 30 08            [12] 3769 	jr	NC, 00537$
    000017D9 DD 36 FA A9      [19] 3770 	ld	-6 (ix), #0xa9
    000017DD DD 36 FB 01      [19] 3771 	ld	-5 (ix), #0x01
    000017E1                       3772 00537$:
                                   3773 ;E:\Dropbox\FAUSTO\SVILUPPI\MSX\CODE\C\MSXgl\projects\soccerlgSCC/soccerlg_s10_b3.c:712: g_Players[playerId].TargetY = defenseLineY; 
    000017E1 E1               [10] 3774 	pop	hl
    000017E2 E5               [11] 3775 	push	hl
    000017E3 11 0E 00         [10] 3776 	ld	de, #0x000e
    000017E6 19               [11] 3777 	add	hl, de
    000017E7 DD 7E FA         [19] 3778 	ld	a, -6 (ix)
    000017EA 77               [ 7] 3779 	ld	(hl), a
    000017EB 23               [ 6] 3780 	inc	hl
    000017EC DD 7E FB         [19] 3781 	ld	a, -5 (ix)
    000017EF 77               [ 7] 3782 	ld	(hl), a
    000017F0 C3rDCr18         [10] 3783 	jp	00569$
    000017F3                       3784 00568$:
                                   3785 ;E:\Dropbox\FAUSTO\SVILUPPI\MSX\CODE\C\MSXgl\projects\soccerlgSCC/soccerlg_s10_b3.c:716: if (g_Players[playerId].Role >= PLAYER_ROLE_LEFT_STRIKER) {
    000017F3 DD CB FE 46      [20] 3786 	bit	0, -2 (ix)
    000017F7 20 0E            [12] 3787 	jr	NZ, 00565$
                                   3788 ;E:\Dropbox\FAUSTO\SVILUPPI\MSX\CODE\C\MSXgl\projects\soccerlgSCC/soccerlg_s10_b3.c:718: g_Players[playerId].TargetY = FIELD_POS_Y_CENTER;
    000017F9 E1               [10] 3789 	pop	hl
    000017FA E5               [11] 3790 	push	hl
    000017FB 11 0E 00         [10] 3791 	ld	de, #0x000e
    000017FE 19               [11] 3792 	add	hl, de
    000017FF 36 F3            [10] 3793 	ld	(hl), #0xf3
    00001801 23               [ 6] 3794 	inc	hl
    00001802 36 00            [10] 3795 	ld	(hl), #0x00
    00001804 C3rDCr18         [10] 3796 	jp	00569$
    00001807                       3797 00565$:
                                   3798 ;E:\Dropbox\FAUSTO\SVILUPPI\MSX\CODE\C\MSXgl\projects\soccerlgSCC/soccerlg_s10_b3.c:720: else if (g_Players[playerId].Role >= PLAYER_ROLE_LEFT_HALFFIELDER) {
    00001807 DD 7E FD         [19] 3799 	ld	a, -3 (ix)
    0000180A D6 03            [ 7] 3800 	sub	a, #0x03
    0000180C 38 0E            [12] 3801 	jr	C, 00562$
                                   3802 ;E:\Dropbox\FAUSTO\SVILUPPI\MSX\CODE\C\MSXgl\projects\soccerlgSCC/soccerlg_s10_b3.c:722: g_Players[playerId].TargetY = 106;
    0000180E E1               [10] 3803 	pop	hl
    0000180F E5               [11] 3804 	push	hl
    00001810 11 0E 00         [10] 3805 	ld	de, #0x000e
    00001813 19               [11] 3806 	add	hl, de
    00001814 36 6A            [10] 3807 	ld	(hl), #0x6a
    00001816 23               [ 6] 3808 	inc	hl
    00001817 36 00            [10] 3809 	ld	(hl), #0x00
    00001819 C3rDCr18         [10] 3810 	jp	00569$
    0000181C                       3811 00562$:
                                   3812 ;E:\Dropbox\FAUSTO\SVILUPPI\MSX\CODE\C\MSXgl\projects\soccerlgSCC/soccerlg_s10_b3.c:727: u16 defenseLineY = 130;
    0000181C DD 36 FA 82      [19] 3813 	ld	-6 (ix), #0x82
    00001820 DD 36 FB 00      [19] 3814 	ld	-5 (ix), #0
                                   3815 ;E:\Dropbox\FAUSTO\SVILUPPI\MSX\CODE\C\MSXgl\projects\soccerlgSCC/soccerlg_s10_b3.c:731: for(u8 k=0; k<14; k++) {
    00001824 E1               [10] 3816 	pop	hl
    00001825 E5               [11] 3817 	push	hl
    00001826 4E               [ 7] 3818 	ld	c, (hl)
    00001827 23               [ 6] 3819 	inc	hl
    00001828 46               [ 7] 3820 	ld	b, (hl)
    00001829 1E 00            [ 7] 3821 	ld	e, #0x00
    0000182B DD 36 FE 00      [19] 3822 	ld	-2 (ix), #0x00
    0000182F                       3823 00665$:
    0000182F DD 7E FE         [19] 3824 	ld	a, -2 (ix)
    00001832 D6 0E            [ 7] 3825 	sub	a, #0x0e
    00001834 30 5D            [12] 3826 	jr	NC, 00553$
                                   3827 ;E:\Dropbox\FAUSTO\SVILUPPI\MSX\CODE\C\MSXgl\projects\soccerlgSCC/soccerlg_s10_b3.c:732: if (k==playerId) continue;
    00001836 DD 7E FF         [19] 3828 	ld	a, -1 (ix)
    00001839 DD 96 FE         [19] 3829 	sub	a, -2 (ix)
    0000183C 28 4F            [12] 3830 	jr	Z, 00552$
                                   3831 ;E:\Dropbox\FAUSTO\SVILUPPI\MSX\CODE\C\MSXgl\projects\soccerlgSCC/soccerlg_s10_b3.c:733: if (g_Players[k].TeamId == playerTeamId && g_Players[k].Role != PLAYER_ROLE_GOALKEEPER) {
    0000183E D5               [11] 3832 	push	de
    0000183F DD 5E FE         [19] 3833 	ld	e, -2 (ix)
    00001842 16 00            [ 7] 3834 	ld	d, #0x00
    00001844 6B               [ 4] 3835 	ld	l, e
    00001845 62               [ 4] 3836 	ld	h, d
    00001846 29               [11] 3837 	add	hl, hl
    00001847 29               [11] 3838 	add	hl, hl
    00001848 19               [11] 3839 	add	hl, de
    00001849 29               [11] 3840 	add	hl, hl
    0000184A 29               [11] 3841 	add	hl, hl
    0000184B 19               [11] 3842 	add	hl, de
    0000184C D1               [10] 3843 	pop	de
    0000184D 3Er00            [ 7] 3844 	ld	a, #<(_g_Players)
    0000184F 85               [ 4] 3845 	add	a, l
    00001850 DD 77 FC         [19] 3846 	ld	-4 (ix), a
    00001853 3Es00            [ 7] 3847 	ld	a, #>(_g_Players)
    00001855 8C               [ 4] 3848 	adc	a, h
    00001856 DD 77 FD         [19] 3849 	ld	-3 (ix), a
    00001859 DD 6E FC         [19] 3850 	ld	l, -4 (ix)
                                   3851 ;	spillPairReg hl
                                   3852 ;	spillPairReg hl
    0000185C DD 66 FD         [19] 3853 	ld	h, -3 (ix)
                                   3854 ;	spillPairReg hl
                                   3855 ;	spillPairReg hl
    0000185F C5               [11] 3856 	push	bc
    00001860 01 09 00         [10] 3857 	ld	bc, #0x0009
    00001863 09               [11] 3858 	add	hl, bc
    00001864 C1               [10] 3859 	pop	bc
    00001865 56               [ 7] 3860 	ld	d, (hl)
    00001866 DD 7E DD         [19] 3861 	ld	a, -35 (ix)
    00001869 92               [ 4] 3862 	sub	a, d
    0000186A 20 21            [12] 3863 	jr	NZ, 00552$
    0000186C DD 6E FC         [19] 3864 	ld	l, -4 (ix)
                                   3865 ;	spillPairReg hl
                                   3866 ;	spillPairReg hl
    0000186F DD 66 FD         [19] 3867 	ld	h, -3 (ix)
                                   3868 ;	spillPairReg hl
                                   3869 ;	spillPairReg hl
    00001872 C5               [11] 3870 	push	bc
    00001873 01 0D 00         [10] 3871 	ld	bc, #0x000d
    00001876 09               [11] 3872 	add	hl, bc
    00001877 C1               [10] 3873 	pop	bc
    00001878 7E               [ 7] 3874 	ld	a, (hl)
    00001879 B7               [ 4] 3875 	or	a, a
    0000187A 28 11            [12] 3876 	jr	Z, 00552$
                                   3877 ;E:\Dropbox\FAUSTO\SVILUPPI\MSX\CODE\C\MSXgl\projects\soccerlgSCC/soccerlg_s10_b3.c:734: if (g_Players[k].Y > g_Players[playerId].Y) teammatesAhead++;
    0000187C DD 6E FC         [19] 3878 	ld	l, -4 (ix)
    0000187F DD 66 FD         [19] 3879 	ld	h, -3 (ix)
    00001882 7E               [ 7] 3880 	ld	a, (hl)
    00001883 23               [ 6] 3881 	inc	hl
    00001884 56               [ 7] 3882 	ld	d, (hl)
    00001885 6F               [ 4] 3883 	ld	l, a
                                   3884 ;	spillPairReg hl
                                   3885 ;	spillPairReg hl
    00001886 79               [ 4] 3886 	ld	a, c
    00001887 95               [ 4] 3887 	sub	a, l
    00001888 78               [ 4] 3888 	ld	a, b
    00001889 9A               [ 4] 3889 	sbc	a, d
    0000188A 30 01            [12] 3890 	jr	NC, 00552$
    0000188C 1C               [ 4] 3891 	inc	e
    0000188D                       3892 00552$:
                                   3893 ;E:\Dropbox\FAUSTO\SVILUPPI\MSX\CODE\C\MSXgl\projects\soccerlgSCC/soccerlg_s10_b3.c:731: for(u8 k=0; k<14; k++) {
    0000188D DD 34 FE         [23] 3894 	inc	-2 (ix)
    00001890 C3r2Fr18         [10] 3895 	jp	00665$
    00001893                       3896 00553$:
                                   3897 ;E:\Dropbox\FAUSTO\SVILUPPI\MSX\CODE\C\MSXgl\projects\soccerlgSCC/soccerlg_s10_b3.c:669: if (playerTeamId == TEAM_1) { if (g_Ball.Y > chaserY) chaserBeaten = true; } 
    00001893 ED 4Br00r00      [20] 3898 	ld	bc, (#_g_Ball + 0)
                                   3899 ;E:\Dropbox\FAUSTO\SVILUPPI\MSX\CODE\C\MSXgl\projects\soccerlgSCC/soccerlg_s10_b3.c:675: if (playerTeamId == TEAM_1) g_Players[playerId].TargetY = g_Ball.Y + 15;
                                   3900 ;E:\Dropbox\FAUSTO\SVILUPPI\MSX\CODE\C\MSXgl\projects\soccerlgSCC/soccerlg_s10_b3.c:738: if (teammatesAhead < 2 || g_Ball.Y < 200) {
    00001897 7B               [ 4] 3901 	ld	a, e
    00001898 D6 02            [ 7] 3902 	sub	a, #0x02
    0000189A 38 08            [12] 3903 	jr	C, 00558$
    0000189C 79               [ 4] 3904 	ld	a, c
    0000189D D6 C8            [ 7] 3905 	sub	a, #0xc8
    0000189F 78               [ 4] 3906 	ld	a, b
    000018A0 DE 00            [ 7] 3907 	sbc	a, #0x00
    000018A2 30 29            [12] 3908 	jr	NC, 00559$
    000018A4                       3909 00558$:
                                   3910 ;E:\Dropbox\FAUSTO\SVILUPPI\MSX\CODE\C\MSXgl\projects\soccerlgSCC/soccerlg_s10_b3.c:740: if (g_Ball.Y < defenseLineY + 40) {
    000018A4 79               [ 4] 3911 	ld	a, c
    000018A5 D6 AA            [ 7] 3912 	sub	a, #0xaa
    000018A7 78               [ 4] 3913 	ld	a, b
    000018A8 DE 00            [ 7] 3914 	sbc	a, #0x00
    000018AA 30 21            [12] 3915 	jr	NC, 00559$
                                   3916 ;E:\Dropbox\FAUSTO\SVILUPPI\MSX\CODE\C\MSXgl\projects\soccerlgSCC/soccerlg_s10_b3.c:741: defenseLineY = g_Ball.Y - 15;
    000018AC 79               [ 4] 3917 	ld	a, c
    000018AD C6 F1            [ 7] 3918 	add	a, #0xf1
    000018AF 4F               [ 4] 3919 	ld	c, a
    000018B0 78               [ 4] 3920 	ld	a, b
    000018B1 CE FF            [ 7] 3921 	adc	a, #0xff
    000018B3 DD 71 FA         [19] 3922 	ld	-6 (ix), c
    000018B6 DD 77 FB         [19] 3923 	ld	-5 (ix), a
                                   3924 ;E:\Dropbox\FAUSTO\SVILUPPI\MSX\CODE\C\MSXgl\projects\soccerlgSCC/soccerlg_s10_b3.c:742: if (defenseLineY < FIELD_BOUND_Y_TOP + 10) defenseLineY = FIELD_BOUND_Y_TOP + 10;
    000018B9 DD 7E FA         [19] 3925 	ld	a, -6 (ix)
    000018BC D6 3C            [ 7] 3926 	sub	a, #0x3c
    000018BE DD 7E FB         [19] 3927 	ld	a, -5 (ix)
    000018C1 DE 00            [ 7] 3928 	sbc	a, #0x00
    000018C3 30 08            [12] 3929 	jr	NC, 00559$
    000018C5 DD 36 FA 3C      [19] 3930 	ld	-6 (ix), #0x3c
    000018C9 DD 36 FB 00      [19] 3931 	ld	-5 (ix), #0
    000018CD                       3932 00559$:
                                   3933 ;E:\Dropbox\FAUSTO\SVILUPPI\MSX\CODE\C\MSXgl\projects\soccerlgSCC/soccerlg_s10_b3.c:745: g_Players[playerId].TargetY = defenseLineY;
    000018CD E1               [10] 3934 	pop	hl
    000018CE E5               [11] 3935 	push	hl
    000018CF 11 0E 00         [10] 3936 	ld	de, #0x000e
    000018D2 19               [11] 3937 	add	hl, de
    000018D3 DD 7E FA         [19] 3938 	ld	a, -6 (ix)
    000018D6 77               [ 7] 3939 	ld	(hl), a
    000018D7 23               [ 6] 3940 	inc	hl
    000018D8 DD 7E FB         [19] 3941 	ld	a, -5 (ix)
    000018DB 77               [ 7] 3942 	ld	(hl), a
    000018DC                       3943 00569$:
                                   3944 ;E:\Dropbox\FAUSTO\SVILUPPI\MSX\CODE\C\MSXgl\projects\soccerlgSCC/soccerlg_s10_b3.c:749: if (g_Players[playerId].Role % 2 != 0) {
    000018DC DD 6E F5         [19] 3945 	ld	l, -11 (ix)
    000018DF DD 66 F6         [19] 3946 	ld	h, -10 (ix)
    000018E2 7E               [ 7] 3947 	ld	a, (hl)
    000018E3 E6 01            [ 7] 3948 	and	a, #0x01
    000018E5 4F               [ 4] 3949 	ld	c, a
    000018E6 06 00            [ 7] 3950 	ld	b, #0x00
                                   3951 ;E:\Dropbox\FAUSTO\SVILUPPI\MSX\CODE\C\MSXgl\projects\soccerlgSCC/soccerlg_s10_b3.c:361: g_Players[playerId].TargetX = finalTargetX;
    000018E8 DD 7E DB         [19] 3952 	ld	a, -37 (ix)
    000018EB C6 10            [ 7] 3953 	add	a, #0x10
    000018ED DD 77 F9         [19] 3954 	ld	-7 (ix), a
    000018F0 DD 7E DC         [19] 3955 	ld	a, -36 (ix)
    000018F3 CE 00            [ 7] 3956 	adc	a, #0x00
    000018F5 DD 77 FA         [19] 3957 	ld	-6 (ix), a
                                   3958 ;E:\Dropbox\FAUSTO\SVILUPPI\MSX\CODE\C\MSXgl\projects\soccerlgSCC/soccerlg_s10_b3.c:674: g_Players[playerId].TargetX = g_Ball.X;
                                   3959 ;E:\Dropbox\FAUSTO\SVILUPPI\MSX\CODE\C\MSXgl\projects\soccerlgSCC/soccerlg_s10_b3.c:752: u16 intendedX = g_Ball.X - 40;
    000018F8 2Ar02r00         [16] 3960 	ld	hl, (#_g_Ball + 2)
    000018FB DD 75 FB         [19] 3961 	ld	-5 (ix), l
    000018FE DD 74 FC         [19] 3962 	ld	-4 (ix), h
                                   3963 ;E:\Dropbox\FAUSTO\SVILUPPI\MSX\CODE\C\MSXgl\projects\soccerlgSCC/soccerlg_s10_b3.c:749: if (g_Players[playerId].Role % 2 != 0) {
    00001901 78               [ 4] 3964 	ld	a, b
    00001902 B1               [ 4] 3965 	or	a, c
    00001903 28 2F            [12] 3966 	jr	Z, 00577$
                                   3967 ;E:\Dropbox\FAUSTO\SVILUPPI\MSX\CODE\C\MSXgl\projects\soccerlgSCC/soccerlg_s10_b3.c:752: u16 intendedX = g_Ball.X - 40;
    00001905 DD 7E FB         [19] 3968 	ld	a, -5 (ix)
    00001908 C6 D8            [ 7] 3969 	add	a, #0xd8
    0000190A 4F               [ 4] 3970 	ld	c, a
    0000190B DD 7E FC         [19] 3971 	ld	a, -4 (ix)
    0000190E CE FF            [ 7] 3972 	adc	a, #0xff
    00001910 47               [ 4] 3973 	ld	b, a
                                   3974 ;E:\Dropbox\FAUSTO\SVILUPPI\MSX\CODE\C\MSXgl\projects\soccerlgSCC/soccerlg_s10_b3.c:753: if (g_Ball.X > FIELD_POS_X_CENTER && intendedX > FIELD_POS_X_CENTER + 20) {
    00001911 3E 78            [ 7] 3975 	ld	a, #0x78
    00001913 DD BE FB         [19] 3976 	cp	a, -5 (ix)
    00001916 3E 00            [ 7] 3977 	ld	a, #0x00
    00001918 DD 9E FC         [19] 3978 	sbc	a, -4 (ix)
    0000191B 30 0B            [12] 3979 	jr	NC, 00571$
    0000191D 3E 8C            [ 7] 3980 	ld	a, #0x8c
    0000191F B9               [ 4] 3981 	cp	a, c
    00001920 3E 00            [ 7] 3982 	ld	a, #0x00
    00001922 98               [ 4] 3983 	sbc	a, b
    00001923 30 03            [12] 3984 	jr	NC, 00571$
                                   3985 ;E:\Dropbox\FAUSTO\SVILUPPI\MSX\CODE\C\MSXgl\projects\soccerlgSCC/soccerlg_s10_b3.c:754: intendedX = FIELD_POS_X_CENTER + 20; // Stay central
    00001925 01 8C 00         [10] 3986 	ld	bc, #0x008c
    00001928                       3987 00571$:
                                   3988 ;E:\Dropbox\FAUSTO\SVILUPPI\MSX\CODE\C\MSXgl\projects\soccerlgSCC/soccerlg_s10_b3.c:756: g_Players[playerId].TargetX = intendedX; 
    00001928 DD 6E F9         [19] 3989 	ld	l, -7 (ix)
    0000192B DD 66 FA         [19] 3990 	ld	h, -6 (ix)
    0000192E 71               [ 7] 3991 	ld	(hl), c
    0000192F 23               [ 6] 3992 	inc	hl
    00001930 70               [ 7] 3993 	ld	(hl), b
    00001931 C3r73r19         [10] 3994 	jp	00578$
    00001934                       3995 00577$:
                                   3996 ;E:\Dropbox\FAUSTO\SVILUPPI\MSX\CODE\C\MSXgl\projects\soccerlgSCC/soccerlg_s10_b3.c:761: u16 intendedX = g_Ball.X + 40;
    00001934 DD 6E FB         [19] 3997 	ld	l, -5 (ix)
    00001937 DD 66 FC         [19] 3998 	ld	h, -4 (ix)
    0000193A 11 28 00         [10] 3999 	ld	de, #0x0028
    0000193D 19               [11] 4000 	add	hl, de
    0000193E DD 75 FD         [19] 4001 	ld	-3 (ix), l
    00001941 DD 74 FE         [19] 4002 	ld	-2 (ix), h
                                   4003 ;E:\Dropbox\FAUSTO\SVILUPPI\MSX\CODE\C\MSXgl\projects\soccerlgSCC/soccerlg_s10_b3.c:762: if (g_Ball.X < FIELD_POS_X_CENTER && intendedX < FIELD_POS_X_CENTER - 20) {
    00001944 DD 7E FB         [19] 4004 	ld	a, -5 (ix)
    00001947 D6 78            [ 7] 4005 	sub	a, #0x78
    00001949 DD 7E FC         [19] 4006 	ld	a, -4 (ix)
    0000194C DE 00            [ 7] 4007 	sbc	a, #0x00
    0000194E 30 14            [12] 4008 	jr	NC, 00574$
    00001950 DD 7E FD         [19] 4009 	ld	a, -3 (ix)
    00001953 D6 64            [ 7] 4010 	sub	a, #0x64
    00001955 DD 7E FE         [19] 4011 	ld	a, -2 (ix)
    00001958 DE 00            [ 7] 4012 	sbc	a, #0x00
    0000195A 30 08            [12] 4013 	jr	NC, 00574$
                                   4014 ;E:\Dropbox\FAUSTO\SVILUPPI\MSX\CODE\C\MSXgl\projects\soccerlgSCC/soccerlg_s10_b3.c:763: intendedX = FIELD_POS_X_CENTER - 20; // Stay central
    0000195C DD 36 FD 64      [19] 4015 	ld	-3 (ix), #0x64
    00001960 DD 36 FE 00      [19] 4016 	ld	-2 (ix), #0
    00001964                       4017 00574$:
                                   4018 ;E:\Dropbox\FAUSTO\SVILUPPI\MSX\CODE\C\MSXgl\projects\soccerlgSCC/soccerlg_s10_b3.c:765: g_Players[playerId].TargetX = intendedX; 
    00001964 DD 6E F9         [19] 4019 	ld	l, -7 (ix)
    00001967 DD 66 FA         [19] 4020 	ld	h, -6 (ix)
    0000196A DD 7E FD         [19] 4021 	ld	a, -3 (ix)
    0000196D 77               [ 7] 4022 	ld	(hl), a
    0000196E 23               [ 6] 4023 	inc	hl
    0000196F DD 7E FE         [19] 4024 	ld	a, -2 (ix)
    00001972 77               [ 7] 4025 	ld	(hl), a
    00001973                       4026 00578$:
                                   4027 ;E:\Dropbox\FAUSTO\SVILUPPI\MSX\CODE\C\MSXgl\projects\soccerlgSCC/soccerlg_s10_b3.c:768: if (g_Players[playerId].TargetX < FIELD_BOUND_X_LEFT + 20) g_Players[playerId].TargetX = FIELD_BOUND_X_LEFT + 20;
    00001973 DD 6E F9         [19] 4028 	ld	l, -7 (ix)
    00001976 DD 66 FA         [19] 4029 	ld	h, -6 (ix)
    00001979 4E               [ 7] 4030 	ld	c, (hl)
    0000197A 23               [ 6] 4031 	inc	hl
    0000197B 46               [ 7] 4032 	ld	b, (hl)
    0000197C 79               [ 4] 4033 	ld	a, c
    0000197D D6 1E            [ 7] 4034 	sub	a, #0x1e
    0000197F 78               [ 4] 4035 	ld	a, b
    00001980 DE 00            [ 7] 4036 	sbc	a, #0x00
    00001982 30 0B            [12] 4037 	jr	NC, 00580$
    00001984 DD 6E F9         [19] 4038 	ld	l, -7 (ix)
    00001987 DD 66 FA         [19] 4039 	ld	h, -6 (ix)
    0000198A 36 1E            [10] 4040 	ld	(hl), #0x1e
    0000198C 23               [ 6] 4041 	inc	hl
    0000198D 36 00            [10] 4042 	ld	(hl), #0x00
    0000198F                       4043 00580$:
                                   4044 ;E:\Dropbox\FAUSTO\SVILUPPI\MSX\CODE\C\MSXgl\projects\soccerlgSCC/soccerlg_s10_b3.c:769: if (g_Players[playerId].TargetX > FIELD_BOUND_X_RIGHT - 20) g_Players[playerId].TargetX = FIELD_BOUND_X_RIGHT - 20;
    0000198F DD 6E F9         [19] 4045 	ld	l, -7 (ix)
    00001992 DD 66 FA         [19] 4046 	ld	h, -6 (ix)
    00001995 4E               [ 7] 4047 	ld	c, (hl)
    00001996 23               [ 6] 4048 	inc	hl
    00001997 46               [ 7] 4049 	ld	b, (hl)
    00001998 3E D8            [ 7] 4050 	ld	a, #0xd8
    0000199A B9               [ 4] 4051 	cp	a, c
    0000199B 3E 00            [ 7] 4052 	ld	a, #0x00
    0000199D 98               [ 4] 4053 	sbc	a, b
    0000199E 30 0B            [12] 4054 	jr	NC, 00585$
    000019A0 DD 6E F9         [19] 4055 	ld	l, -7 (ix)
    000019A3 DD 66 FA         [19] 4056 	ld	h, -6 (ix)
    000019A6 36 D8            [10] 4057 	ld	(hl), #0xd8
    000019A8 23               [ 6] 4058 	inc	hl
    000019A9 36 00            [10] 4059 	ld	(hl), #0x00
    000019AB                       4060 00585$:
                                   4061 ;E:\Dropbox\FAUSTO\SVILUPPI\MSX\CODE\C\MSXgl\projects\soccerlgSCC/soccerlg_s10_b3.c:773: if (stats->Aggression >= 15 && !amIEffectiveChaser && g_MatchStatus != MATCH_BALL_ON_GOALKEEPER) {
    000019AB DD 4E DF         [19] 4062 	ld	c, -33 (ix)
    000019AE DD 46 E0         [19] 4063 	ld	b, -32 (ix)
    000019B1 03               [ 6] 4064 	inc	bc
    000019B2 0A               [ 7] 4065 	ld	a, (bc)
    000019B3 D6 0F            [ 7] 4066 	sub	a, #0x0f
    000019B5 DArA7r1B         [10] 4067 	jp	C, 00992$
    000019B8 DD 7E F7         [19] 4068 	ld	a, -9 (ix)
    000019BB B7               [ 4] 4069 	or	a, a
    000019BC C2rA7r1B         [10] 4070 	jp	NZ, 00992$
    000019BF 3Ar00r00         [13] 4071 	ld	a, (_g_MatchStatus+0)
    000019C2 D6 0D            [ 7] 4072 	sub	a, #0x0d
    000019C4 CArA7r1B         [10] 4073 	jp	Z,00992$
                                   4074 ;E:\Dropbox\FAUSTO\SVILUPPI\MSX\CODE\C\MSXgl\projects\soccerlgSCC/soccerlg_s10_b3.c:774: u8 bestMark = NO_VALUE;
    000019C7 DD 36 F2 FF      [19] 4075 	ld	-14 (ix), #0xff
                                   4076 ;E:\Dropbox\FAUSTO\SVILUPPI\MSX\CODE\C\MSXgl\projects\soccerlgSCC/soccerlg_s10_b3.c:775: u16 minD = 120; // Look for opponents within this range
    000019CB DD 36 F3 78      [19] 4077 	ld	-13 (ix), #0x78
    000019CF DD 36 F4 00      [19] 4078 	ld	-12 (ix), #0
                                   4079 ;E:\Dropbox\FAUSTO\SVILUPPI\MSX\CODE\C\MSXgl\projects\soccerlgSCC/soccerlg_s10_b3.c:777: for(u8 m=0; m<14; m++) {
    000019D3 DD 7E DB         [19] 4080 	ld	a, -37 (ix)
    000019D6 DD 77 F5         [19] 4081 	ld	-11 (ix), a
    000019D9 DD 7E DC         [19] 4082 	ld	a, -36 (ix)
    000019DC DD 77 F6         [19] 4083 	ld	-10 (ix), a
    000019DF DD 36 FE 00      [19] 4084 	ld	-2 (ix), #0x00
    000019E3                       4085 00667$:
    000019E3 DD 7E FE         [19] 4086 	ld	a, -2 (ix)
    000019E6 D6 0E            [ 7] 4087 	sub	a, #0x0e
    000019E8 D2rE6r1A         [10] 4088 	jp	NC, 00606$
                                   4089 ;E:\Dropbox\FAUSTO\SVILUPPI\MSX\CODE\C\MSXgl\projects\soccerlgSCC/soccerlg_s10_b3.c:778: if (g_Players[m].TeamId == playerTeamId) continue;
    000019EB DD 4E FE         [19] 4090 	ld	c, -2 (ix)
    000019EE 06 00            [ 7] 4091 	ld	b, #0x00
    000019F0 69               [ 4] 4092 	ld	l, c
    000019F1 60               [ 4] 4093 	ld	h, b
    000019F2 29               [11] 4094 	add	hl, hl
    000019F3 29               [11] 4095 	add	hl, hl
    000019F4 09               [11] 4096 	add	hl, bc
    000019F5 29               [11] 4097 	add	hl, hl
    000019F6 29               [11] 4098 	add	hl, hl
    000019F7 09               [11] 4099 	add	hl, bc
    000019F8 EB               [ 4] 4100 	ex	de, hl
    000019F9 21r00r00         [10] 4101 	ld	hl, #_g_Players
    000019FC 19               [11] 4102 	add	hl, de
    000019FD DD 75 F7         [19] 4103 	ld	-9 (ix), l
    00001A00 DD 74 F8         [19] 4104 	ld	-8 (ix), h
    00001A03 01 09 00         [10] 4105 	ld	bc,#9
    00001A06 09               [11] 4106 	add	hl,bc
    00001A07 DD 7E DD         [19] 4107 	ld	a,-35 (ix)
    00001A0A 96               [ 7] 4108 	sub	a,(hl)
    00001A0B CArE0r1A         [10] 4109 	jp	Z,00605$
                                   4110 ;E:\Dropbox\FAUSTO\SVILUPPI\MSX\CODE\C\MSXgl\projects\soccerlgSCC/soccerlg_s10_b3.c:779: if (m == g_Ball.PossessionPlayerId) continue; // Don't mark ball carrier (chaser handles it)
    00001A0E 21r06r00         [10] 4111 	ld	hl, #(_g_Ball + 6)
    00001A11 DD 7E FE         [19] 4112 	ld	a,-2 (ix)
    00001A14 96               [ 7] 4113 	sub	a,(hl)
    00001A15 CArE0r1A         [10] 4114 	jp	Z,00605$
                                   4115 ;E:\Dropbox\FAUSTO\SVILUPPI\MSX\CODE\C\MSXgl\projects\soccerlgSCC/soccerlg_s10_b3.c:780: if (g_Players[m].Role == PLAYER_ROLE_GOALKEEPER) continue;
    00001A18 DD 4E F7         [19] 4116 	ld	c, -9 (ix)
    00001A1B DD 46 F8         [19] 4117 	ld	b, -8 (ix)
    00001A1E 21 0D 00         [10] 4118 	ld	hl, #13
    00001A21 09               [11] 4119 	add	hl, bc
    00001A22 7E               [ 7] 4120 	ld	a, (hl)
    00001A23 B7               [ 4] 4121 	or	a, a
    00001A24 CArE0r1A         [10] 4122 	jp	Z, 00605$
                                   4123 ;E:\Dropbox\FAUSTO\SVILUPPI\MSX\CODE\C\MSXgl\projects\soccerlgSCC/soccerlg_s10_b3.c:783: bool inBox = false;
    00001A27 DD 36 F9 00      [19] 4124 	ld	-7 (ix), #0x00
                                   4125 ;E:\Dropbox\FAUSTO\SVILUPPI\MSX\CODE\C\MSXgl\projects\soccerlgSCC/soccerlg_s10_b3.c:785: if (g_Players[m].Y > PENALTY_BOX_Y_BOTTOM) inBox = true;
    00001A2B DD 6E F7         [19] 4126 	ld	l, -9 (ix)
    00001A2E DD 66 F8         [19] 4127 	ld	h, -8 (ix)
    00001A31 7E               [ 7] 4128 	ld	a, (hl)
    00001A32 DD 77 FA         [19] 4129 	ld	-6 (ix), a
    00001A35 23               [ 6] 4130 	inc	hl
    00001A36 7E               [ 7] 4131 	ld	a, (hl)
    00001A37 DD 77 FB         [19] 4132 	ld	-5 (ix), a
    00001A3A DD 7E FA         [19] 4133 	ld	a, -6 (ix)
    00001A3D DD 77 FC         [19] 4134 	ld	-4 (ix), a
    00001A40 DD 7E FB         [19] 4135 	ld	a, -5 (ix)
    00001A43 DD 77 FD         [19] 4136 	ld	-3 (ix), a
                                   4137 ;E:\Dropbox\FAUSTO\SVILUPPI\MSX\CODE\C\MSXgl\projects\soccerlgSCC/soccerlg_s10_b3.c:784: if (playerTeamId == TEAM_1) { // Defending Bottom
    00001A46 DD 7E DE         [19] 4138 	ld	a, -34 (ix)
    00001A49 B7               [ 4] 4139 	or	a, a
    00001A4A 28 13            [12] 4140 	jr	Z, 00599$
                                   4141 ;E:\Dropbox\FAUSTO\SVILUPPI\MSX\CODE\C\MSXgl\projects\soccerlgSCC/soccerlg_s10_b3.c:785: if (g_Players[m].Y > PENALTY_BOX_Y_BOTTOM) inBox = true;
    00001A4C 3E 5E            [ 7] 4142 	ld	a, #0x5e
    00001A4E DD BE FC         [19] 4143 	cp	a, -4 (ix)
    00001A51 3E 01            [ 7] 4144 	ld	a, #0x01
    00001A53 DD 9E FD         [19] 4145 	sbc	a, -3 (ix)
    00001A56 30 17            [12] 4146 	jr	NC, 00600$
    00001A58 DD 36 F9 01      [19] 4147 	ld	-7 (ix), #0x01
    00001A5C C3r6Fr1A         [10] 4148 	jp	00600$
    00001A5F                       4149 00599$:
                                   4150 ;E:\Dropbox\FAUSTO\SVILUPPI\MSX\CODE\C\MSXgl\projects\soccerlgSCC/soccerlg_s10_b3.c:787: if (g_Players[m].Y < PENALTY_BOX_Y_TOP) inBox = true;
    00001A5F DD 7E FC         [19] 4151 	ld	a, -4 (ix)
    00001A62 D6 82            [ 7] 4152 	sub	a, #0x82
    00001A64 DD 7E FD         [19] 4153 	ld	a, -3 (ix)
    00001A67 DE 00            [ 7] 4154 	sbc	a, #0x00
    00001A69 30 04            [12] 4155 	jr	NC, 00600$
    00001A6B DD 36 F9 01      [19] 4156 	ld	-7 (ix), #0x01
    00001A6F                       4157 00600$:
                                   4158 ;E:\Dropbox\FAUSTO\SVILUPPI\MSX\CODE\C\MSXgl\projects\soccerlgSCC/soccerlg_s10_b3.c:789: if (inBox) continue; 
    00001A6F DD 7E F9         [19] 4159 	ld	a, -7 (ix)
    00001A72 B7               [ 4] 4160 	or	a, a
    00001A73 20 6B            [12] 4161 	jr	NZ, 00605$
                                   4162 ;E:\Dropbox\FAUSTO\SVILUPPI\MSX\CODE\C\MSXgl\projects\soccerlgSCC/soccerlg_s10_b3.c:791: i16 mdx = (i16)g_Players[m].X - (i16)g_Players[playerId].X;
    00001A75 DD 6E F7         [19] 4163 	ld	l, -9 (ix)
                                   4164 ;	spillPairReg hl
                                   4165 ;	spillPairReg hl
    00001A78 DD 66 F8         [19] 4166 	ld	h, -8 (ix)
                                   4167 ;	spillPairReg hl
                                   4168 ;	spillPairReg hl
    00001A7B 23               [ 6] 4169 	inc	hl
    00001A7C 23               [ 6] 4170 	inc	hl
    00001A7D 4E               [ 7] 4171 	ld	c, (hl)
    00001A7E 23               [ 6] 4172 	inc	hl
    00001A7F 46               [ 7] 4173 	ld	b, (hl)
    00001A80 DD 6E F5         [19] 4174 	ld	l, -11 (ix)
    00001A83 DD 66 F6         [19] 4175 	ld	h, -10 (ix)
    00001A86 23               [ 6] 4176 	inc	hl
    00001A87 23               [ 6] 4177 	inc	hl
    00001A88 5E               [ 7] 4178 	ld	e, (hl)
    00001A89 23               [ 6] 4179 	inc	hl
    00001A8A 56               [ 7] 4180 	ld	d, (hl)
    00001A8B 79               [ 4] 4181 	ld	a, c
    00001A8C 93               [ 4] 4182 	sub	a, e
    00001A8D 5F               [ 4] 4183 	ld	e, a
    00001A8E 78               [ 4] 4184 	ld	a, b
    00001A8F 9A               [ 4] 4185 	sbc	a, d
    00001A90 57               [ 4] 4186 	ld	d, a
                                   4187 ;E:\Dropbox\FAUSTO\SVILUPPI\MSX\CODE\C\MSXgl\projects\soccerlgSCC/soccerlg_s10_b3.c:792: i16 mdy = (i16)g_Players[m].Y - (i16)g_Players[playerId].Y;
    00001A91 DD 4E FA         [19] 4188 	ld	c, -6 (ix)
    00001A94 DD 46 FB         [19] 4189 	ld	b, -5 (ix)
    00001A97 E1               [10] 4190 	pop	hl
    00001A98 E5               [11] 4191 	push	hl
    00001A99 7E               [ 7] 4192 	ld	a, (hl)
    00001A9A 23               [ 6] 4193 	inc	hl
    00001A9B 66               [ 7] 4194 	ld	h, (hl)
                                   4195 ;	spillPairReg hl
    00001A9C 6F               [ 4] 4196 	ld	l, a
                                   4197 ;	spillPairReg hl
                                   4198 ;	spillPairReg hl
    00001A9D 79               [ 4] 4199 	ld	a, c
    00001A9E 95               [ 4] 4200 	sub	a, l
    00001A9F 4F               [ 4] 4201 	ld	c, a
    00001AA0 78               [ 4] 4202 	ld	a, b
    00001AA1 9C               [ 4] 4203 	sbc	a, h
    00001AA2 47               [ 4] 4204 	ld	b, a
                                   4205 ;E:\Dropbox\FAUSTO\SVILUPPI\MSX\CODE\C\MSXgl\projects\soccerlgSCC/soccerlg_s10_b3.c:793: u16 dist = (u16)(Math_Abs32(mdx) + Math_Abs32(mdy));
    00001AA3 7A               [ 4] 4206 	ld	a, d
    00001AA4 07               [ 4] 4207 	rlca
    00001AA5 ED 62            [15] 4208 	sbc	hl, hl
    00001AA7 C5               [11] 4209 	push	bc
    00001AA8 CDr00r00         [17] 4210 	call	_Math_Abs32
    00001AAB DD 73 FA         [19] 4211 	ld	-6 (ix), e
    00001AAE DD 72 FB         [19] 4212 	ld	-5 (ix), d
    00001AB1 DD 75 FC         [19] 4213 	ld	-4 (ix), l
    00001AB4 DD 74 FD         [19] 4214 	ld	-3 (ix), h
    00001AB7 C1               [10] 4215 	pop	bc
    00001AB8 78               [ 4] 4216 	ld	a, b
    00001AB9 07               [ 4] 4217 	rlca
    00001ABA ED 62            [15] 4218 	sbc	hl, hl
    00001ABC 59               [ 4] 4219 	ld	e, c
    00001ABD 50               [ 4] 4220 	ld	d, b
    00001ABE CDr00r00         [17] 4221 	call	_Math_Abs32
    00001AC1 DD 4E FA         [19] 4222 	ld	c, -6 (ix)
    00001AC4 DD 46 FB         [19] 4223 	ld	b, -5 (ix)
    00001AC7 EB               [ 4] 4224 	ex	de, hl
    00001AC8 09               [11] 4225 	add	hl, bc
    00001AC9 EB               [ 4] 4226 	ex	de, hl
                                   4227 ;E:\Dropbox\FAUSTO\SVILUPPI\MSX\CODE\C\MSXgl\projects\soccerlgSCC/soccerlg_s10_b3.c:795: if (dist < minD) {
    00001ACA 7B               [ 4] 4228 	ld	a, e
    00001ACB DD 96 F3         [19] 4229 	sub	a, -13 (ix)
    00001ACE 7A               [ 4] 4230 	ld	a, d
    00001ACF DD 9E F4         [19] 4231 	sbc	a, -12 (ix)
    00001AD2 30 0C            [12] 4232 	jr	NC, 00605$
                                   4233 ;E:\Dropbox\FAUSTO\SVILUPPI\MSX\CODE\C\MSXgl\projects\soccerlgSCC/soccerlg_s10_b3.c:796: minD = dist;
    00001AD4 DD 73 F3         [19] 4234 	ld	-13 (ix), e
    00001AD7 DD 72 F4         [19] 4235 	ld	-12 (ix), d
                                   4236 ;E:\Dropbox\FAUSTO\SVILUPPI\MSX\CODE\C\MSXgl\projects\soccerlgSCC/soccerlg_s10_b3.c:797: bestMark = m;
    00001ADA DD 7E FE         [19] 4237 	ld	a, -2 (ix)
    00001ADD DD 77 F2         [19] 4238 	ld	-14 (ix), a
    00001AE0                       4239 00605$:
                                   4240 ;E:\Dropbox\FAUSTO\SVILUPPI\MSX\CODE\C\MSXgl\projects\soccerlgSCC/soccerlg_s10_b3.c:777: for(u8 m=0; m<14; m++) {
    00001AE0 DD 34 FE         [23] 4241 	inc	-2 (ix)
    00001AE3 C3rE3r19         [10] 4242 	jp	00667$
    00001AE6                       4243 00606$:
                                   4244 ;E:\Dropbox\FAUSTO\SVILUPPI\MSX\CODE\C\MSXgl\projects\soccerlgSCC/soccerlg_s10_b3.c:801: if (bestMark != NO_VALUE) {
    00001AE6 DD 7E F2         [19] 4245 	ld	a, -14 (ix)
    00001AE9 3C               [ 4] 4246 	inc	a
    00001AEA 28 64            [12] 4247 	jr	Z, 00619$
                                   4248 ;E:\Dropbox\FAUSTO\SVILUPPI\MSX\CODE\C\MSXgl\projects\soccerlgSCC/soccerlg_s10_b3.c:803: g_Players[playerId].TargetX = g_Players[bestMark].X;
    00001AEC DD 7E DB         [19] 4249 	ld	a, -37 (ix)
    00001AEF C6 10            [ 7] 4250 	add	a, #0x10
    00001AF1 DD 77 FD         [19] 4251 	ld	-3 (ix), a
    00001AF4 DD 7E DC         [19] 4252 	ld	a, -36 (ix)
    00001AF7 CE 00            [ 7] 4253 	adc	a, #0x00
    00001AF9 DD 77 FE         [19] 4254 	ld	-2 (ix), a
    00001AFC DD 4E F2         [19] 4255 	ld	c, -14 (ix)
    00001AFF 06 00            [ 7] 4256 	ld	b, #0x00
    00001B01 69               [ 4] 4257 	ld	l, c
    00001B02 60               [ 4] 4258 	ld	h, b
    00001B03 29               [11] 4259 	add	hl, hl
    00001B04 29               [11] 4260 	add	hl, hl
    00001B05 09               [11] 4261 	add	hl, bc
    00001B06 29               [11] 4262 	add	hl, hl
    00001B07 29               [11] 4263 	add	hl, hl
    00001B08 09               [11] 4264 	add	hl, bc
    00001B09 11r00r00         [10] 4265 	ld	de, #_g_Players
    00001B0C 19               [11] 4266 	add	hl, de
                                   4267 ;	spillPairReg hl
                                   4268 ;	spillPairReg hl
    00001B0D 5D               [ 4] 4269 	ld	e, l
    00001B0E 54               [ 4] 4270 	ld	d, h
                                   4271 ;	spillPairReg hl
                                   4272 ;	spillPairReg hl
    00001B0F 23               [ 6] 4273 	inc	hl
    00001B10 23               [ 6] 4274 	inc	hl
    00001B11 4E               [ 7] 4275 	ld	c, (hl)
    00001B12 23               [ 6] 4276 	inc	hl
    00001B13 46               [ 7] 4277 	ld	b, (hl)
    00001B14 DD 6E FD         [19] 4278 	ld	l, -3 (ix)
    00001B17 DD 66 FE         [19] 4279 	ld	h, -2 (ix)
    00001B1A 71               [ 7] 4280 	ld	(hl), c
    00001B1B 23               [ 6] 4281 	inc	hl
    00001B1C 70               [ 7] 4282 	ld	(hl), b
                                   4283 ;E:\Dropbox\FAUSTO\SVILUPPI\MSX\CODE\C\MSXgl\projects\soccerlgSCC/soccerlg_s10_b3.c:360: g_Players[playerId].TargetY = finalTargetY;
    00001B1D DD 7E DB         [19] 4284 	ld	a, -37 (ix)
    00001B20 C6 0E            [ 7] 4285 	add	a, #0x0e
    00001B22 4F               [ 4] 4286 	ld	c, a
    00001B23 DD 7E DC         [19] 4287 	ld	a, -36 (ix)
    00001B26 CE 00            [ 7] 4288 	adc	a, #0x00
    00001B28 47               [ 4] 4289 	ld	b, a
                                   4290 ;E:\Dropbox\FAUSTO\SVILUPPI\MSX\CODE\C\MSXgl\projects\soccerlgSCC/soccerlg_s10_b3.c:805: if (playerTeamId == TEAM_1) g_Players[playerId].TargetY = g_Players[bestMark].Y + 12;
    00001B29 EB               [ 4] 4291 	ex	de,hl
    00001B2A 5E               [ 7] 4292 	ld	e, (hl)
    00001B2B 23               [ 6] 4293 	inc	hl
    00001B2C 56               [ 7] 4294 	ld	d, (hl)
    00001B2D DD 7E DE         [19] 4295 	ld	a, -34 (ix)
    00001B30 B7               [ 4] 4296 	or	a, a
    00001B31 28 0D            [12] 4297 	jr	Z, 00608$
    00001B33 21 0C 00         [10] 4298 	ld	hl, #0x000c
    00001B36 19               [11] 4299 	add	hl, de
    00001B37 EB               [ 4] 4300 	ex	de, hl
    00001B38 7B               [ 4] 4301 	ld	a, e
    00001B39 02               [ 7] 4302 	ld	(bc), a
    00001B3A 03               [ 6] 4303 	inc	bc
    00001B3B 7A               [ 4] 4304 	ld	a, d
    00001B3C 02               [ 7] 4305 	ld	(bc), a
    00001B3D C3rA7r1B         [10] 4306 	jp	00992$
    00001B40                       4307 00608$:
                                   4308 ;E:\Dropbox\FAUSTO\SVILUPPI\MSX\CODE\C\MSXgl\projects\soccerlgSCC/soccerlg_s10_b3.c:806: else g_Players[playerId].TargetY = g_Players[bestMark].Y - 12;
    00001B40 7B               [ 4] 4309 	ld	a, e
    00001B41 C6 F4            [ 7] 4310 	add	a, #0xf4
    00001B43 5F               [ 4] 4311 	ld	e, a
    00001B44 7A               [ 4] 4312 	ld	a, d
    00001B45 CE FF            [ 7] 4313 	adc	a, #0xff
    00001B47 57               [ 4] 4314 	ld	d, a
    00001B48 7B               [ 4] 4315 	ld	a, e
    00001B49 02               [ 7] 4316 	ld	(bc), a
    00001B4A 03               [ 6] 4317 	inc	bc
    00001B4B 7A               [ 4] 4318 	ld	a, d
    00001B4C 02               [ 7] 4319 	ld	(bc), a
    00001B4D C3rA7r1B         [10] 4320 	jp	00992$
    00001B50                       4321 00619$:
                                   4322 ;E:\Dropbox\FAUSTO\SVILUPPI\MSX\CODE\C\MSXgl\projects\soccerlgSCC/soccerlg_s10_b3.c:809: bool deepDefense = false;
    00001B50 0E 00            [ 7] 4323 	ld	c, #0x00
                                   4324 ;E:\Dropbox\FAUSTO\SVILUPPI\MSX\CODE\C\MSXgl\projects\soccerlgSCC/soccerlg_s10_b3.c:810: if (playerTeamId == TEAM_1 && g_Ball.Y > PENALTY_BOX_Y_BOTTOM) deepDefense = true;
    00001B52 DD 7E DE         [19] 4325 	ld	a, -34 (ix)
    00001B55 B7               [ 4] 4326 	or	a, a
    00001B56 28 0D            [12] 4327 	jr	Z, 00611$
    00001B58 2Ar00r00         [16] 4328 	ld	hl, (#_g_Ball + 0)
    00001B5B 3E 5E            [ 7] 4329 	ld	a, #0x5e
    00001B5D BD               [ 4] 4330 	cp	a, l
    00001B5E 3E 01            [ 7] 4331 	ld	a, #0x01
    00001B60 9C               [ 4] 4332 	sbc	a, h
    00001B61 30 02            [12] 4333 	jr	NC, 00611$
    00001B63 0E 01            [ 7] 4334 	ld	c, #0x01
    00001B65                       4335 00611$:
                                   4336 ;E:\Dropbox\FAUSTO\SVILUPPI\MSX\CODE\C\MSXgl\projects\soccerlgSCC/soccerlg_s10_b3.c:811: if (playerTeamId == TEAM_2 && g_Ball.Y < PENALTY_BOX_Y_TOP) deepDefense = true;
    00001B65 DD 7E DD         [19] 4337 	ld	a, -35 (ix)
    00001B68 D6 02            [ 7] 4338 	sub	a, #0x02
    00001B6A 20 0D            [12] 4339 	jr	NZ, 00614$
    00001B6C 2Ar00r00         [16] 4340 	ld	hl, (#_g_Ball + 0)
    00001B6F 11 82 00         [10] 4341 	ld	de, #0x0082
    00001B72 BF               [ 4] 4342 	cp	a, a
    00001B73 ED 52            [15] 4343 	sbc	hl, de
    00001B75 30 02            [12] 4344 	jr	NC, 00614$
    00001B77 0E 01            [ 7] 4345 	ld	c, #0x01
    00001B79                       4346 00614$:
                                   4347 ;E:\Dropbox\FAUSTO\SVILUPPI\MSX\CODE\C\MSXgl\projects\soccerlgSCC/soccerlg_s10_b3.c:813: if (deepDefense) {
    00001B79 79               [ 4] 4348 	ld	a, c
    00001B7A B7               [ 4] 4349 	or	a, a
    00001B7B 28 2A            [12] 4350 	jr	Z, 00992$
                                   4351 ;E:\Dropbox\FAUSTO\SVILUPPI\MSX\CODE\C\MSXgl\projects\soccerlgSCC/soccerlg_s10_b3.c:814: g_Players[playerId].TargetX = g_Ball.X;
    00001B7D DD 7E DB         [19] 4352 	ld	a, -37 (ix)
    00001B80 C6 10            [ 7] 4353 	add	a, #0x10
    00001B82 4F               [ 4] 4354 	ld	c, a
    00001B83 DD 7E DC         [19] 4355 	ld	a, -36 (ix)
    00001B86 CE 00            [ 7] 4356 	adc	a, #0x00
    00001B88 47               [ 4] 4357 	ld	b, a
    00001B89 ED 5Br02r00      [20] 4358 	ld	de, (#_g_Ball + 2)
    00001B8D 7B               [ 4] 4359 	ld	a, e
    00001B8E 02               [ 7] 4360 	ld	(bc), a
    00001B8F 03               [ 6] 4361 	inc	bc
    00001B90 7A               [ 4] 4362 	ld	a, d
    00001B91 02               [ 7] 4363 	ld	(bc), a
                                   4364 ;E:\Dropbox\FAUSTO\SVILUPPI\MSX\CODE\C\MSXgl\projects\soccerlgSCC/soccerlg_s10_b3.c:815: g_Players[playerId].TargetY = g_Ball.Y;
    00001B92 DD 7E DB         [19] 4365 	ld	a, -37 (ix)
    00001B95 C6 0E            [ 7] 4366 	add	a, #0x0e
    00001B97 4F               [ 4] 4367 	ld	c, a
    00001B98 DD 7E DC         [19] 4368 	ld	a, -36 (ix)
    00001B9B CE 00            [ 7] 4369 	adc	a, #0x00
    00001B9D 47               [ 4] 4370 	ld	b, a
    00001B9E ED 5Br00r00      [20] 4371 	ld	de, (#_g_Ball + 0)
    00001BA2 7B               [ 4] 4372 	ld	a, e
    00001BA3 02               [ 7] 4373 	ld	(bc), a
    00001BA4 03               [ 6] 4374 	inc	bc
    00001BA5 7A               [ 4] 4375 	ld	a, d
    00001BA6 02               [ 7] 4376 	ld	(bc), a
                                   4377 ;E:\Dropbox\FAUSTO\SVILUPPI\MSX\CODE\C\MSXgl\projects\soccerlgSCC/soccerlg_s10_b3.c:821: for(u8 i=0; i<14; i++) {
    00001BA7                       4378 00992$:
    00001BA7 DD 36 FE 00      [19] 4379 	ld	-2 (ix), #0x00
    00001BAB                       4380 00669$:
    00001BAB DD 7E FE         [19] 4381 	ld	a, -2 (ix)
    00001BAE D6 0E            [ 7] 4382 	sub	a, #0x0e
    00001BB0 D2r02r1D         [10] 4383 	jp	NC, 00643$
                                   4384 ;E:\Dropbox\FAUSTO\SVILUPPI\MSX\CODE\C\MSXgl\projects\soccerlgSCC/soccerlg_s10_b3.c:822: if (i == playerId) continue;
    00001BB3 DD 7E FF         [19] 4385 	ld	a, -1 (ix)
    00001BB6 DD 96 FE         [19] 4386 	sub	a, -2 (ix)
    00001BB9 CArFCr1C         [10] 4387 	jp	Z,00642$
                                   4388 ;E:\Dropbox\FAUSTO\SVILUPPI\MSX\CODE\C\MSXgl\projects\soccerlgSCC/soccerlg_s10_b3.c:823: if (g_Players[i].TeamId != playerTeamId) continue;
    00001BBC DD 4E FE         [19] 4389 	ld	c, -2 (ix)
    00001BBF 06 00            [ 7] 4390 	ld	b, #0x00
    00001BC1 69               [ 4] 4391 	ld	l, c
    00001BC2 60               [ 4] 4392 	ld	h, b
    00001BC3 29               [11] 4393 	add	hl, hl
    00001BC4 29               [11] 4394 	add	hl, hl
    00001BC5 09               [11] 4395 	add	hl, bc
    00001BC6 29               [11] 4396 	add	hl, hl
    00001BC7 29               [11] 4397 	add	hl, hl
    00001BC8 09               [11] 4398 	add	hl, bc
    00001BC9 EB               [ 4] 4399 	ex	de, hl
    00001BCA 21r00r00         [10] 4400 	ld	hl, #_g_Players
    00001BCD 19               [11] 4401 	add	hl, de
    00001BCE EB               [ 4] 4402 	ex	de, hl
    00001BCF 4B               [ 4] 4403 	ld	c, e
    00001BD0 42               [ 4] 4404 	ld	b, d
    00001BD1 21 09 00         [10] 4405 	ld	hl, #9
    00001BD4 09               [11] 4406 	add	hl, bc
    00001BD5 DD 7E DD         [19] 4407 	ld	a,-35 (ix)
    00001BD8 96               [ 7] 4408 	sub	a,(hl)
    00001BD9 C2rFCr1C         [10] 4409 	jp	NZ,00642$
                                   4410 ;E:\Dropbox\FAUSTO\SVILUPPI\MSX\CODE\C\MSXgl\projects\soccerlgSCC/soccerlg_s10_b3.c:824: if (g_Players[i].Role == PLAYER_ROLE_GOALKEEPER) continue;
    00001BDC 4B               [ 4] 4411 	ld	c, e
    00001BDD 42               [ 4] 4412 	ld	b, d
    00001BDE 21 0D 00         [10] 4413 	ld	hl, #13
    00001BE1 09               [11] 4414 	add	hl, bc
    00001BE2 7E               [ 7] 4415 	ld	a, (hl)
    00001BE3 B7               [ 4] 4416 	or	a, a
    00001BE4 CArFCr1C         [10] 4417 	jp	Z, 00642$
                                   4418 ;E:\Dropbox\FAUSTO\SVILUPPI\MSX\CODE\C\MSXgl\projects\soccerlgSCC/soccerlg_s10_b3.c:825: i16 dx = (i16)g_Players[playerId].TargetX - (i16)g_Players[i].X;
    00001BE7 DD 7E DB         [19] 4419 	ld	a, -37 (ix)
    00001BEA C6 10            [ 7] 4420 	add	a, #0x10
    00001BEC DD 77 F4         [19] 4421 	ld	-12 (ix), a
    00001BEF DD 7E DC         [19] 4422 	ld	a, -36 (ix)
    00001BF2 CE 00            [ 7] 4423 	adc	a, #0x00
    00001BF4 DD 77 F5         [19] 4424 	ld	-11 (ix), a
    00001BF7 DD 6E F4         [19] 4425 	ld	l, -12 (ix)
    00001BFA DD 66 F5         [19] 4426 	ld	h, -11 (ix)
    00001BFD 7E               [ 7] 4427 	ld	a, (hl)
    00001BFE DD 77 FC         [19] 4428 	ld	-4 (ix), a
    00001C01 23               [ 6] 4429 	inc	hl
    00001C02 7E               [ 7] 4430 	ld	a, (hl)
    00001C03 DD 77 FD         [19] 4431 	ld	-3 (ix), a
    00001C06 DD 4E FC         [19] 4432 	ld	c, -4 (ix)
    00001C09 DD 46 FD         [19] 4433 	ld	b, -3 (ix)
    00001C0C 6B               [ 4] 4434 	ld	l, e
                                   4435 ;	spillPairReg hl
                                   4436 ;	spillPairReg hl
    00001C0D 62               [ 4] 4437 	ld	h, d
                                   4438 ;	spillPairReg hl
                                   4439 ;	spillPairReg hl
    00001C0E 23               [ 6] 4440 	inc	hl
    00001C0F 23               [ 6] 4441 	inc	hl
    00001C10 7E               [ 7] 4442 	ld	a, (hl)
    00001C11 23               [ 6] 4443 	inc	hl
    00001C12 66               [ 7] 4444 	ld	h, (hl)
                                   4445 ;	spillPairReg hl
    00001C13 6F               [ 4] 4446 	ld	l, a
                                   4447 ;	spillPairReg hl
                                   4448 ;	spillPairReg hl
    00001C14 79               [ 4] 4449 	ld	a, c
    00001C15 95               [ 4] 4450 	sub	a, l
    00001C16 4F               [ 4] 4451 	ld	c, a
    00001C17 78               [ 4] 4452 	ld	a, b
    00001C18 9C               [ 4] 4453 	sbc	a, h
    00001C19 47               [ 4] 4454 	ld	b, a
                                   4455 ;E:\Dropbox\FAUSTO\SVILUPPI\MSX\CODE\C\MSXgl\projects\soccerlgSCC/soccerlg_s10_b3.c:826: i16 dy = (i16)g_Players[playerId].TargetY - (i16)g_Players[i].Y;
    00001C1A DD 7E DB         [19] 4456 	ld	a, -37 (ix)
    00001C1D C6 0E            [ 7] 4457 	add	a, #0x0e
    00001C1F DD 77 F6         [19] 4458 	ld	-10 (ix), a
    00001C22 DD 7E DC         [19] 4459 	ld	a, -36 (ix)
    00001C25 CE 00            [ 7] 4460 	adc	a, #0x00
    00001C27 DD 77 F7         [19] 4461 	ld	-9 (ix), a
    00001C2A DD 6E F6         [19] 4462 	ld	l, -10 (ix)
    00001C2D DD 66 F7         [19] 4463 	ld	h, -9 (ix)
    00001C30 23               [ 6] 4464 	inc	hl
    00001C31 7E               [ 7] 4465 	ld	a, (hl)
    00001C32 2B               [ 6] 4466 	dec	hl
    00001C33 6E               [ 7] 4467 	ld	l, (hl)
                                   4468 ;	spillPairReg hl
    00001C34 DD 75 FA         [19] 4469 	ld	-6 (ix), l
    00001C37 DD 77 FB         [19] 4470 	ld	-5 (ix), a
    00001C3A EB               [ 4] 4471 	ex	de,hl
    00001C3B 5E               [ 7] 4472 	ld	e, (hl)
    00001C3C 23               [ 6] 4473 	inc	hl
    00001C3D 56               [ 7] 4474 	ld	d, (hl)
    00001C3E DD 7E FA         [19] 4475 	ld	a, -6 (ix)
    00001C41 93               [ 4] 4476 	sub	a, e
    00001C42 5F               [ 4] 4477 	ld	e, a
    00001C43 DD 7E FB         [19] 4478 	ld	a, -5 (ix)
    00001C46 9A               [ 4] 4479 	sbc	a, d
    00001C47 57               [ 4] 4480 	ld	d, a
                                   4481 ;E:\Dropbox\FAUSTO\SVILUPPI\MSX\CODE\C\MSXgl\projects\soccerlgSCC/soccerlg_s10_b3.c:827: if (dx > -60 && dx < 60 && dy > -60 && dy < 60) {
    00001C48 3E C4            [ 7] 4482 	ld	a, #0xc4
    00001C4A B9               [ 4] 4483 	cp	a, c
    00001C4B 3E FF            [ 7] 4484 	ld	a, #0xff
    00001C4D 98               [ 4] 4485 	sbc	a, b
    00001C4E E2r53r1C         [10] 4486 	jp	PO, 02253$
    00001C51 EE 80            [ 7] 4487 	xor	a, #0x80
    00001C53                       4488 02253$:
    00001C53 F2rFCr1C         [10] 4489 	jp	P, 00642$
    00001C56 79               [ 4] 4490 	ld	a, c
    00001C57 D6 3C            [ 7] 4491 	sub	a, #0x3c
    00001C59 78               [ 4] 4492 	ld	a, b
    00001C5A 17               [ 4] 4493 	rla
    00001C5B 3F               [ 4] 4494 	ccf
    00001C5C 1F               [ 4] 4495 	rra
    00001C5D DE 80            [ 7] 4496 	sbc	a, #0x80
    00001C5F D2rFCr1C         [10] 4497 	jp	NC, 00642$
    00001C62 3E C4            [ 7] 4498 	ld	a, #0xc4
    00001C64 BB               [ 4] 4499 	cp	a, e
    00001C65 3E FF            [ 7] 4500 	ld	a, #0xff
    00001C67 9A               [ 4] 4501 	sbc	a, d
    00001C68 E2r6Dr1C         [10] 4502 	jp	PO, 02254$
    00001C6B EE 80            [ 7] 4503 	xor	a, #0x80
    00001C6D                       4504 02254$:
    00001C6D F2rFCr1C         [10] 4505 	jp	P, 00642$
    00001C70 DD 73 F8         [19] 4506 	ld	-8 (ix), e
    00001C73 DD 72 F9         [19] 4507 	ld	-7 (ix), d
    00001C76 DD 7E F8         [19] 4508 	ld	a, -8 (ix)
    00001C79 D6 3C            [ 7] 4509 	sub	a, #0x3c
    00001C7B DD 7E F9         [19] 4510 	ld	a, -7 (ix)
    00001C7E 17               [ 4] 4511 	rla
    00001C7F 3F               [ 4] 4512 	ccf
    00001C80 1F               [ 4] 4513 	rra
    00001C81 DE 80            [ 7] 4514 	sbc	a, #0x80
    00001C83 30 77            [12] 4515 	jr	NC, 00642$
                                   4516 ;E:\Dropbox\FAUSTO\SVILUPPI\MSX\CODE\C\MSXgl\projects\soccerlgSCC/soccerlg_s10_b3.c:828: if (dx >= 0) g_Players[playerId].TargetX += 12; else g_Players[playerId].TargetX -= 12;
    00001C85 DD 7E FC         [19] 4517 	ld	a, -4 (ix)
    00001C88 DD 77 FA         [19] 4518 	ld	-6 (ix), a
    00001C8B DD 7E FD         [19] 4519 	ld	a, -3 (ix)
    00001C8E DD 77 FB         [19] 4520 	ld	-5 (ix), a
    00001C91 CB 78            [ 8] 4521 	bit	7, b
    00001C93 20 17            [12] 4522 	jr	NZ, 00632$
    00001C95 DD 6E FA         [19] 4523 	ld	l, -6 (ix)
    00001C98 DD 66 FB         [19] 4524 	ld	h, -5 (ix)
    00001C9B 11 0C 00         [10] 4525 	ld	de, #0x000c
    00001C9E 19               [11] 4526 	add	hl, de
    00001C9F EB               [ 4] 4527 	ex	de, hl
    00001CA0 DD 6E F4         [19] 4528 	ld	l, -12 (ix)
    00001CA3 DD 66 F5         [19] 4529 	ld	h, -11 (ix)
    00001CA6 73               [ 7] 4530 	ld	(hl), e
    00001CA7 23               [ 6] 4531 	inc	hl
    00001CA8 72               [ 7] 4532 	ld	(hl), d
    00001CA9 C3rCBr1C         [10] 4533 	jp	00633$
    00001CAC                       4534 00632$:
    00001CAC DD 7E FA         [19] 4535 	ld	a, -6 (ix)
    00001CAF C6 F4            [ 7] 4536 	add	a, #0xf4
    00001CB1 DD 77 FC         [19] 4537 	ld	-4 (ix), a
    00001CB4 DD 7E FB         [19] 4538 	ld	a, -5 (ix)
    00001CB7 CE FF            [ 7] 4539 	adc	a, #0xff
    00001CB9 DD 77 FD         [19] 4540 	ld	-3 (ix), a
    00001CBC DD 4E FC         [19] 4541 	ld	c, -4 (ix)
    00001CBF DD 46 FD         [19] 4542 	ld	b, -3 (ix)
    00001CC2 DD 6E F4         [19] 4543 	ld	l, -12 (ix)
    00001CC5 DD 66 F5         [19] 4544 	ld	h, -11 (ix)
    00001CC8 71               [ 7] 4545 	ld	(hl), c
    00001CC9 23               [ 6] 4546 	inc	hl
    00001CCA 70               [ 7] 4547 	ld	(hl), b
    00001CCB                       4548 00633$:
                                   4549 ;E:\Dropbox\FAUSTO\SVILUPPI\MSX\CODE\C\MSXgl\projects\soccerlgSCC/soccerlg_s10_b3.c:826: i16 dy = (i16)g_Players[playerId].TargetY - (i16)g_Players[i].Y;
    00001CCB DD 6E F6         [19] 4550 	ld	l, -10 (ix)
    00001CCE DD 66 F7         [19] 4551 	ld	h, -9 (ix)
    00001CD1 4E               [ 7] 4552 	ld	c, (hl)
    00001CD2 23               [ 6] 4553 	inc	hl
    00001CD3 46               [ 7] 4554 	ld	b, (hl)
                                   4555 ;E:\Dropbox\FAUSTO\SVILUPPI\MSX\CODE\C\MSXgl\projects\soccerlgSCC/soccerlg_s10_b3.c:829: if (dy >= 0) g_Players[playerId].TargetY += 12; else g_Players[playerId].TargetY -= 12;
    00001CD4 DD CB F9 7E      [20] 4556 	bit	7, -7 (ix)
    00001CD8 20 11            [12] 4557 	jr	NZ, 00635$
    00001CDA 21 0C 00         [10] 4558 	ld	hl, #0x000c
    00001CDD 09               [11] 4559 	add	hl, bc
    00001CDE EB               [ 4] 4560 	ex	de, hl
    00001CDF DD 6E F6         [19] 4561 	ld	l, -10 (ix)
    00001CE2 DD 66 F7         [19] 4562 	ld	h, -9 (ix)
    00001CE5 73               [ 7] 4563 	ld	(hl), e
    00001CE6 23               [ 6] 4564 	inc	hl
    00001CE7 72               [ 7] 4565 	ld	(hl), d
    00001CE8 C3rFCr1C         [10] 4566 	jp	00642$
    00001CEB                       4567 00635$:
    00001CEB 79               [ 4] 4568 	ld	a, c
    00001CEC C6 F4            [ 7] 4569 	add	a, #0xf4
    00001CEE 4F               [ 4] 4570 	ld	c, a
    00001CEF 78               [ 4] 4571 	ld	a, b
    00001CF0 CE FF            [ 7] 4572 	adc	a, #0xff
    00001CF2 47               [ 4] 4573 	ld	b, a
    00001CF3 DD 6E F6         [19] 4574 	ld	l, -10 (ix)
    00001CF6 DD 66 F7         [19] 4575 	ld	h, -9 (ix)
    00001CF9 71               [ 7] 4576 	ld	(hl), c
    00001CFA 23               [ 6] 4577 	inc	hl
    00001CFB 70               [ 7] 4578 	ld	(hl), b
    00001CFC                       4579 00642$:
                                   4580 ;E:\Dropbox\FAUSTO\SVILUPPI\MSX\CODE\C\MSXgl\projects\soccerlgSCC/soccerlg_s10_b3.c:821: for(u8 i=0; i<14; i++) {
    00001CFC DD 34 FE         [23] 4581 	inc	-2 (ix)
    00001CFF C3rABr1B         [10] 4582 	jp	00669$
    00001D02                       4583 00643$:
                                   4584 ;E:\Dropbox\FAUSTO\SVILUPPI\MSX\CODE\C\MSXgl\projects\soccerlgSCC/soccerlg_s10_b3.c:834: if (g_Players[playerId].TargetY < FIELD_BOUND_Y_TOP) g_Players[playerId].TargetY = FIELD_BOUND_Y_TOP;
    00001D02 E1               [10] 4585 	pop	hl
    00001D03 E5               [11] 4586 	push	hl
    00001D04 11 0E 00         [10] 4587 	ld	de, #0x000e
    00001D07 19               [11] 4588 	add	hl, de
    00001D08 4E               [ 7] 4589 	ld	c, (hl)
    00001D09 23               [ 6] 4590 	inc	hl
    00001D0A 46               [ 7] 4591 	ld	b, (hl)
    00001D0B 2B               [ 6] 4592 	dec	hl
    00001D0C 79               [ 4] 4593 	ld	a, c
    00001D0D D6 32            [ 7] 4594 	sub	a, #0x32
    00001D0F 78               [ 4] 4595 	ld	a, b
    00001D10 DE 00            [ 7] 4596 	sbc	a, #0x00
    00001D12 30 06            [12] 4597 	jr	NC, 00645$
    00001D14 36 32            [10] 4598 	ld	(hl), #0x32
    00001D16 23               [ 6] 4599 	inc	hl
    00001D17 36 00            [10] 4600 	ld	(hl), #0x00
    00001D19 2B               [ 6] 4601 	dec	hl
    00001D1A                       4602 00645$:
                                   4603 ;E:\Dropbox\FAUSTO\SVILUPPI\MSX\CODE\C\MSXgl\projects\soccerlgSCC/soccerlg_s10_b3.c:835: if (g_Players[playerId].TargetY > FIELD_BOUND_Y_BOTTOM) g_Players[playerId].TargetY = FIELD_BOUND_Y_BOTTOM;
    00001D1A 4E               [ 7] 4604 	ld	c, (hl)
    00001D1B 23               [ 6] 4605 	inc	hl
    00001D1C 46               [ 7] 4606 	ld	b, (hl)
    00001D1D 2B               [ 6] 4607 	dec	hl
    00001D1E 3E B3            [ 7] 4608 	ld	a, #0xb3
    00001D20 B9               [ 4] 4609 	cp	a, c
    00001D21 3E 01            [ 7] 4610 	ld	a, #0x01
    00001D23 98               [ 4] 4611 	sbc	a, b
    00001D24 30 05            [12] 4612 	jr	NC, 00647$
    00001D26 36 B3            [10] 4613 	ld	(hl), #0xb3
    00001D28 23               [ 6] 4614 	inc	hl
    00001D29 36 01            [10] 4615 	ld	(hl), #0x01
    00001D2B                       4616 00647$:
                                   4617 ;E:\Dropbox\FAUSTO\SVILUPPI\MSX\CODE\C\MSXgl\projects\soccerlgSCC/soccerlg_s10_b3.c:836: if (g_Players[playerId].TargetX < FIELD_BOUND_X_LEFT) g_Players[playerId].TargetX = FIELD_BOUND_X_LEFT;
    00001D2B DD 7E DB         [19] 4618 	ld	a, -37 (ix)
    00001D2E C6 10            [ 7] 4619 	add	a, #0x10
    00001D30 4F               [ 4] 4620 	ld	c, a
    00001D31 DD 7E DC         [19] 4621 	ld	a, -36 (ix)
    00001D34 CE 00            [ 7] 4622 	adc	a, #0x00
    00001D36 47               [ 4] 4623 	ld	b, a
    00001D37 69               [ 4] 4624 	ld	l, c
    00001D38 60               [ 4] 4625 	ld	h, b
    00001D39 5E               [ 7] 4626 	ld	e, (hl)
    00001D3A 23               [ 6] 4627 	inc	hl
    00001D3B 56               [ 7] 4628 	ld	d, (hl)
    00001D3C 7B               [ 4] 4629 	ld	a, e
    00001D3D D6 0A            [ 7] 4630 	sub	a, #0x0a
    00001D3F 7A               [ 4] 4631 	ld	a, d
    00001D40 DE 00            [ 7] 4632 	sbc	a, #0x00
    00001D42 30 07            [12] 4633 	jr	NC, 00649$
    00001D44 69               [ 4] 4634 	ld	l, c
    00001D45 60               [ 4] 4635 	ld	h, b
    00001D46 36 0A            [10] 4636 	ld	(hl), #0x0a
    00001D48 23               [ 6] 4637 	inc	hl
    00001D49 36 00            [10] 4638 	ld	(hl), #0x00
    00001D4B                       4639 00649$:
                                   4640 ;E:\Dropbox\FAUSTO\SVILUPPI\MSX\CODE\C\MSXgl\projects\soccerlgSCC/soccerlg_s10_b3.c:837: if (g_Players[playerId].TargetX > FIELD_BOUND_X_RIGHT) g_Players[playerId].TargetX = FIELD_BOUND_X_RIGHT;
    00001D4B 69               [ 4] 4641 	ld	l, c
    00001D4C 60               [ 4] 4642 	ld	h, b
    00001D4D 5E               [ 7] 4643 	ld	e, (hl)
    00001D4E 23               [ 6] 4644 	inc	hl
    00001D4F 56               [ 7] 4645 	ld	d, (hl)
    00001D50 3E EC            [ 7] 4646 	ld	a, #0xec
    00001D52 BB               [ 4] 4647 	cp	a, e
    00001D53 3E 00            [ 7] 4648 	ld	a, #0x00
    00001D55 9A               [ 4] 4649 	sbc	a, d
    00001D56 30 06            [12] 4650 	jr	NC, 00670$
    00001D58 3E EC            [ 7] 4651 	ld	a, #0xec
    00001D5A 02               [ 7] 4652 	ld	(bc), a
    00001D5B 03               [ 6] 4653 	inc	bc
    00001D5C AF               [ 4] 4654 	xor	a, a
    00001D5D 02               [ 7] 4655 	ld	(bc), a
    00001D5E                       4656 00670$:
                                   4657 ;E:\Dropbox\FAUSTO\SVILUPPI\MSX\CODE\C\MSXgl\projects\soccerlgSCC/soccerlg_s10_b3.c:840: }
    00001D5E DD F9            [10] 4658 	ld	sp, ix
    00001D60 DD E1            [14] 4659 	pop	ix
    00001D62 C9               [10] 4660 	ret
                         0000F380  4661 _g_RDPRIM	=	0xf380
                         0000F385  4662 _g_WRPRIM	=	0xf385
                         0000F38C  4663 _g_CLPRIM	=	0xf38c
                         0000F39A  4664 _g_USRTAB	=	0xf39a
                         0000F3DE  4665 _g_CNSDFG	=	0xf3de
                         0000F3DF  4666 _g_RG0SAV	=	0xf3df
                         0000F3E0  4667 _g_RG1SAV	=	0xf3e0
                         0000F3E1  4668 _g_RG2SAV	=	0xf3e1
                         0000F3E2  4669 _g_RG3SAV	=	0xf3e2
                         0000F3E3  4670 _g_RG4SAV	=	0xf3e3
                         0000F3E4  4671 _g_RG5SAV	=	0xf3e4
                         0000F3E5  4672 _g_RG6SAV	=	0xf3e5
                         0000F3E6  4673 _g_RG7SAV	=	0xf3e6
                         0000F3E7  4674 _g_STATFL	=	0xf3e7
                         0000F3E8  4675 _g_TRGFLG	=	0xf3e8
                         0000F3EC  4676 _g_MAXUPD	=	0xf3ec
                         0000F3EF  4677 _g_MINUPD	=	0xf3ef
                         0000F3F3  4678 _g_QUEUES	=	0xf3f3
                         0000F3F5  4679 _g_FRCNEW	=	0xf3f5
                         0000F3F6  4680 _g_SCNCNT	=	0xf3f6
                         0000F3F7  4681 _g_REPCNT	=	0xf3f7
                         0000F3F8  4682 _g_PUTPNT	=	0xf3f8
                         0000F3FA  4683 _g_GETPNT	=	0xf3fa
                         0000F3FC  4684 _g_CS120	=	0xf3fc
                         0000F401  4685 _g_CS240	=	0xf401
                         0000F406  4686 _g_LOW	=	0xf406
                         0000F408  4687 _g_HIGH	=	0xf408
                         0000F40A  4688 _g_HEADER	=	0xf40a
                         0000F40B  4689 _g_ASPCT1	=	0xf40b
                         0000F40D  4690 _g_ASPCT2	=	0xf40d
                         0000F959  4691 _g_QUETAB	=	0xf959
                         0000F971  4692 _g_QUEBAK	=	0xf971
                         0000F975  4693 _g_VOICAQ	=	0xf975
                         0000F9F5  4694 _g_VOICBQ	=	0xf9f5
                         0000FA75  4695 _g_VOICCQ	=	0xfa75
                         0000FAF5  4696 _g_RS2IQ	=	0xfaf5
                         0000FAF5  4697 _g_DPPAGE	=	0xfaf5
                         0000FAF6  4698 _g_ACPAGE	=	0xfaf6
                         0000FAF7  4699 _g_AVCSAV	=	0xfaf7
                         0000FAF8  4700 _g_EXBRSA	=	0xfaf8
                         0000FAF9  4701 _g_CHRCNT	=	0xfaf9
                         0000FAFA  4702 _g_ROMA	=	0xfafa
                         0000FAFC  4703 _g_MODE	=	0xfafc
                         0000FAFD  4704 _g_NORUSE	=	0xfafd
                         0000FAFE  4705 _g_XSAVE	=	0xfafe
                         0000FB00  4706 _g_YSAVE	=	0xfb00
                         0000FB03  4707 _g_RSTMP	=	0xfb03
                         0000FB03  4708 _g_TOCNT	=	0xfb03
                         0000FB04  4709 _g_RSFCB	=	0xfb04
                         0000FB06  4710 _g_RSIQLN	=	0xfb06
                         0000FB07  4711 _g_MEXBIh	=	0xfb07
                         0000FB0C  4712 _g_OLDSTT	=	0xfb0c
                         0000FB0C  4713 _g_OLDINT	=	0xfb0c
                         0000FB16  4714 _g_DEVNUM	=	0xfb16
                         0000FB17  4715 _g_DATCNT	=	0xfb17
                         0000FB1A  4716 _g_ERRORS	=	0xfb1a
                         0000FB1B  4717 _g_FLAGS	=	0xfb1b
                         0000FB1C  4718 _g_ESTBLS	=	0xfb1c
                         0000FB1D  4719 _g_COMMSK	=	0xfb1d
                         0000FB1E  4720 _g_LSTCOM	=	0xfb1e
                         0000FB1F  4721 _g_LSTMOD	=	0xfb1f
                         0000FB35  4722 _g_PRSCNT	=	0xfb35
                         0000FB36  4723 _g_SAVSP	=	0xfb36
                         0000FB38  4724 _g_VOICEN	=	0xfb38
                         0000FB39  4725 _g_SAVVOL	=	0xfb39
                         0000FB3B  4726 _g_MCLLEN	=	0xfb3b
                         0000FB3C  4727 _g_MCLPTR	=	0xfb3c
                         0000FB3E  4728 _g_QUEUEN	=	0xfb3e
                         0000FB3F  4729 _g_MUSICF	=	0xfb3f
                         0000FB40  4730 _g_PLYCNT	=	0xfb40
                         0000FB41  4731 _g_VCBA	=	0xfb41
                         0000FB66  4732 _g_VCBB	=	0xfb66
                         0000FB8B  4733 _g_VCBC	=	0xfb8b
                         0000FBB0  4734 _g_ENSTOP	=	0xfbb0
                         0000FBB1  4735 _g_BASROM	=	0xfbb1
                         0000FBB2  4736 _g_LINTTB	=	0xfbb2
                         0000FBCA  4737 _g_FSTPOS	=	0xfbca
                         0000FBCC  4738 _g_CODSAV	=	0xfbcc
                         0000FBCD  4739 _g_FNKSWI	=	0xfbcd
                         0000FBCE  4740 _g_FNKFLG	=	0xfbce
                         0000FBD8  4741 _g_ONGSBF	=	0xfbd8
                         0000FBD9  4742 _g_CLIKFL	=	0xfbd9
                         0000FBDA  4743 _g_OLDKEY	=	0xfbda
                         0000FBE5  4744 _g_NEWKEY	=	0xfbe5
                         0000FBF0  4745 _g_KEYBUF	=	0xfbf0
                         0000FC18  4746 _g_LINWRK	=	0xfc18
                         0000FC40  4747 _g_PATWRK	=	0xfc40
                         0000FC48  4748 _g_BOTTOM	=	0xfc48
                         0000FC4A  4749 _g_HIMEM	=	0xfc4a
                         0000FC4C  4750 _g_TRPTBL	=	0xfc4c
                         0000FC9A  4751 _g_RTYCNT	=	0xfc9a
                         0000FC9B  4752 _g_INTFLG	=	0xfc9b
                         0000FC9C  4753 _g_PADY	=	0xfc9c
                         0000FC9D  4754 _g_PADX	=	0xfc9d
                         0000FC9E  4755 _g_JIFFY	=	0xfc9e
                         0000FCA0  4756 _g_INTVAL	=	0xfca0
                         0000FCA2  4757 _g_INTCNT	=	0xfca2
                         0000FCA4  4758 _g_LOWLIM	=	0xfca4
                         0000FCA5  4759 _g_WINWID	=	0xfca5
                         0000FCA6  4760 _g_GRPHED	=	0xfca6
                         0000FCA7  4761 _g_ESCCNT	=	0xfca7
                         0000FCA8  4762 _g_INSFLG	=	0xfca8
                         0000FCA9  4763 _g_CSRSW	=	0xfca9
                         0000FCAA  4764 _g_CSTYLE	=	0xfcaa
                         0000FCAB  4765 _g_CAPST	=	0xfcab
                         0000FCAC  4766 _g_KANAST	=	0xfcac
                         0000FCAD  4767 _g_KANAMD	=	0xfcad
                         0000FCAE  4768 _g_FLBMEM	=	0xfcae
                         0000FCAF  4769 _g_SCRMOD	=	0xfcaf
                         0000FCB0  4770 _g_OLDSCR	=	0xfcb0
                         0000FCB1  4771 _g_CASPRV	=	0xfcb1
                         0000FCB2  4772 _g_BRDATR	=	0xfcb2
                         0000FCB3  4773 _g_GXPOS	=	0xfcb3
                         0000FCB5  4774 _g_GYPOS	=	0xfcb5
                         0000FCBB  4775 _g_DRWFLG	=	0xfcbb
                         0000FCBC  4776 _g_DRWSCL	=	0xfcbc
                         0000FCBD  4777 _g_DRWANG	=	0xfcbd
                         0000FCC1  4778 _g_MNROM	=	0xfcc1
                         0000FCC1  4779 _g_EXPTBL	=	0xfcc1
                         0000FCC5  4780 _g_SLTTBL	=	0xfcc5
                         0000FCC9  4781 _g_SLTATR	=	0xfcc9
                         0000FD09  4782 _g_SLTWRK	=	0xfd09
                         0000FD89  4783 _g_PROCNM	=	0xfd89
                         0000FFE7  4784 _g_RG08SAV	=	0xffe7
                         0000FFE8  4785 _g_RG09SAV	=	0xffe8
                         0000FFE9  4786 _g_RG10SAV	=	0xffe9
                         0000FFEA  4787 _g_RG11SAV	=	0xffea
                         0000FFEB  4788 _g_RG12SAV	=	0xffeb
                         0000FFEC  4789 _g_RG13SAV	=	0xffec
                         0000FFED  4790 _g_RG14SAV	=	0xffed
                         0000FFEE  4791 _g_RG15SAV	=	0xffee
                         0000FFEF  4792 _g_RG16SAV	=	0xffef
                         0000FFF0  4793 _g_RG17SAV	=	0xfff0
                         0000FFF1  4794 _g_RG18SAV	=	0xfff1
                         0000FFF2  4795 _g_RG19SAV	=	0xfff2
                         0000FFF3  4796 _g_RG20SAV	=	0xfff3
                         0000FFF4  4797 _g_RG21SAV	=	0xfff4
                         0000FFF5  4798 _g_RG22SAV	=	0xfff5
                         0000FFF6  4799 _g_RG23SAV	=	0xfff6
                         0000FFF7  4800 _g_MINROM	=	0xfff7
                         0000FFF8  4801 _g_SVFFF8	=	0xfff8
                         0000FFFA  4802 _g_RG25SAV	=	0xfffa
                         0000FFFB  4803 _g_RG26SAV	=	0xfffb
                         0000FFFC  4804 _g_RG27SAV	=	0xfffc
                         0000FFFD  4805 _g_SVFFFD	=	0xfffd
                         00000004  4806 _g_CGTABL	=	0x0004
                         00000006  4807 _g_VDP_DR	=	0x0006
                         00000007  4808 _g_VDP_DW	=	0x0007
                         0000002B  4809 _g_BASRVN	=	0x002b
                         0000002B  4810 _g_ROMVersion	=	0x002b
                         0000002D  4811 _g_MSXVER	=	0x002d
                         0000002E  4812 _g_MSXMID	=	0x002e
                         00000034  4813 _g_CHAR_16	=	0x0034
                         00000000  4814 _g_SUBRID	=	0x0000
                         00000002  4815 _g_STRSRC	=	0x0002
                         0000F30F  4816 _g_KANJTABLE	=	0xf30f
                         0000F323  4817 _g_DISKVE	=	0xf323
                         0000F325  4818 _g_BREAKV	=	0xf325
                         0000F341  4819 _g_RAMAD0	=	0xf341
                         0000F342  4820 _g_RAMAD1	=	0xf342
                         0000F343  4821 _g_RAMAD2	=	0xf343
                         0000F344  4822 _g_RAMAD3	=	0xf344
                         0000F348  4823 _g_MASTER	=	0xf348
                         0000F37D  4824 _g_BDOS	=	0xf37d
                                   4825 	.area _SEG10
                                   4826 	.area _INITIALIZER
                                   4827 	.area _CABS (ABS)
