                                      1 ;--------------------------------------------------------
                                      2 ; File Created by SDCC : free open source ANSI-C Compiler
                                      3 ; Version 4.2.0 #13081 (MINGW64)
                                      4 ;--------------------------------------------------------
                                      5 	.module soccerlg_s12_b3
                                      6 	.optsdcc -mz80
                                      7 	
                                      8 ;--------------------------------------------------------
                                      9 ; Public variables in this module
                                     10 ;--------------------------------------------------------
                                     11 	.globl _YSCC_Stop
                                     12 	.globl _YSCC_PlayLoop
                                     13 	.globl _YSCC_Play
                                     14 	.globl _TeamVictory
                                     15 	.globl _ShowHeaderInfo
                                     16 	.globl _PeopleMoving
                                     17 	.globl _V9990_PrintLayerAStringAtPos
                                     18 	.globl _UpdateSpritesPositions
                                     19 	.globl _IsJoystickTriggerPressed
                                     20 	.globl _GetJoystickDirection
                                     21 	.globl _PlayAyFx
                                     22 	.globl _V9990_ClearTextFromLayerA
                                     23 	.globl _PlayPCM
                                     24 	.globl _CallFnc_U8
                                     25 	.globl _CallFnc_VOID_P1
                                     26 	.globl _CallFnc_VOID
                                     27 	.globl _V9990_WaitSynch
                                     28 	.globl _V9_WriteVRAM_CurrentAddr
                                     29 	.globl _V9_SetWriteAddress
                                     30 	.globl _g_SLTSL
                                     31 	.globl _g_GRPACY
                                     32 	.globl _g_GRPACX
                                     33 	.globl _g_LOGOPR
                                     34 	.globl _g_CMASK
                                     35 	.globl _g_CLOC
                                     36 	.globl _g_FNKSTR
                                     37 	.globl _g_ATRBYT
                                     38 	.globl _g_BDRCLR
                                     39 	.globl _g_BAKCLR
                                     40 	.globl _g_FORCLR
                                     41 	.globl _g_CSRX
                                     42 	.globl _g_CSRY
                                     43 	.globl _g_CLIKSW
                                     44 	.globl _g_MLTPAT
                                     45 	.globl _g_MLTATR
                                     46 	.globl _g_MLTCGP
                                     47 	.globl _g_MLTCOL
                                     48 	.globl _g_MLTNAM
                                     49 	.globl _g_GRPPAT
                                     50 	.globl _g_GRPATR
                                     51 	.globl _g_GRPCGP
                                     52 	.globl _g_GRPCOL
                                     53 	.globl _g_GRPNAM
                                     54 	.globl _g_T32PAT
                                     55 	.globl _g_T32ATR
                                     56 	.globl _g_T32CGP
                                     57 	.globl _g_T32COL
                                     58 	.globl _g_T32NAM
                                     59 	.globl _g_TXTPAT
                                     60 	.globl _g_TXTATR
                                     61 	.globl _g_TXTCGP
                                     62 	.globl _g_TXTCOL
                                     63 	.globl _g_TXTNAM
                                     64 	.globl _g_CLMLST
                                     65 	.globl _g_CRTCNT
                                     66 	.globl _g_LINLEN
                                     67 	.globl _g_LINL32
                                     68 	.globl _g_LINL40
                                     69 	.globl _g_BDOS
                                     70 	.globl _g_MASTER
                                     71 	.globl _g_RAMAD3
                                     72 	.globl _g_RAMAD2
                                     73 	.globl _g_RAMAD1
                                     74 	.globl _g_RAMAD0
                                     75 	.globl _g_BREAKV
                                     76 	.globl _g_DISKVE
                                     77 	.globl _g_KANJTABLE
                                     78 	.globl _g_STRSRC
                                     79 	.globl _g_SUBRID
                                     80 	.globl _g_CHAR_16
                                     81 	.globl _g_MSXMID
                                     82 	.globl _g_MSXVER
                                     83 	.globl _g_ROMVersion
                                     84 	.globl _g_BASRVN
                                     85 	.globl _g_VDP_DW
                                     86 	.globl _g_VDP_DR
                                     87 	.globl _g_CGTABL
                                     88 	.globl _g_SVFFFD
                                     89 	.globl _g_RG27SAV
                                     90 	.globl _g_RG26SAV
                                     91 	.globl _g_RG25SAV
                                     92 	.globl _g_SVFFF8
                                     93 	.globl _g_MINROM
                                     94 	.globl _g_RG23SAV
                                     95 	.globl _g_RG22SAV
                                     96 	.globl _g_RG21SAV
                                     97 	.globl _g_RG20SAV
                                     98 	.globl _g_RG19SAV
                                     99 	.globl _g_RG18SAV
                                    100 	.globl _g_RG17SAV
                                    101 	.globl _g_RG16SAV
                                    102 	.globl _g_RG15SAV
                                    103 	.globl _g_RG14SAV
                                    104 	.globl _g_RG13SAV
                                    105 	.globl _g_RG12SAV
                                    106 	.globl _g_RG11SAV
                                    107 	.globl _g_RG10SAV
                                    108 	.globl _g_RG09SAV
                                    109 	.globl _g_RG08SAV
                                    110 	.globl _g_PROCNM
                                    111 	.globl _g_SLTWRK
                                    112 	.globl _g_SLTATR
                                    113 	.globl _g_SLTTBL
                                    114 	.globl _g_EXPTBL
                                    115 	.globl _g_MNROM
                                    116 	.globl _g_DRWANG
                                    117 	.globl _g_DRWSCL
                                    118 	.globl _g_DRWFLG
                                    119 	.globl _g_GYPOS
                                    120 	.globl _g_GXPOS
                                    121 	.globl _g_BRDATR
                                    122 	.globl _g_CASPRV
                                    123 	.globl _g_OLDSCR
                                    124 	.globl _g_SCRMOD
                                    125 	.globl _g_FLBMEM
                                    126 	.globl _g_KANAMD
                                    127 	.globl _g_KANAST
                                    128 	.globl _g_CAPST
                                    129 	.globl _g_CSTYLE
                                    130 	.globl _g_CSRSW
                                    131 	.globl _g_INSFLG
                                    132 	.globl _g_ESCCNT
                                    133 	.globl _g_GRPHED
                                    134 	.globl _g_WINWID
                                    135 	.globl _g_LOWLIM
                                    136 	.globl _g_INTCNT
                                    137 	.globl _g_INTVAL
                                    138 	.globl _g_JIFFY
                                    139 	.globl _g_PADX
                                    140 	.globl _g_PADY
                                    141 	.globl _g_INTFLG
                                    142 	.globl _g_RTYCNT
                                    143 	.globl _g_TRPTBL
                                    144 	.globl _g_HIMEM
                                    145 	.globl _g_BOTTOM
                                    146 	.globl _g_PATWRK
                                    147 	.globl _g_LINWRK
                                    148 	.globl _g_KEYBUF
                                    149 	.globl _g_NEWKEY
                                    150 	.globl _g_OLDKEY
                                    151 	.globl _g_CLIKFL
                                    152 	.globl _g_ONGSBF
                                    153 	.globl _g_FNKFLG
                                    154 	.globl _g_FNKSWI
                                    155 	.globl _g_CODSAV
                                    156 	.globl _g_FSTPOS
                                    157 	.globl _g_LINTTB
                                    158 	.globl _g_BASROM
                                    159 	.globl _g_ENSTOP
                                    160 	.globl _g_VCBC
                                    161 	.globl _g_VCBB
                                    162 	.globl _g_VCBA
                                    163 	.globl _g_PLYCNT
                                    164 	.globl _g_MUSICF
                                    165 	.globl _g_QUEUEN
                                    166 	.globl _g_MCLPTR
                                    167 	.globl _g_MCLLEN
                                    168 	.globl _g_SAVVOL
                                    169 	.globl _g_VOICEN
                                    170 	.globl _g_SAVSP
                                    171 	.globl _g_PRSCNT
                                    172 	.globl _g_LSTMOD
                                    173 	.globl _g_LSTCOM
                                    174 	.globl _g_COMMSK
                                    175 	.globl _g_ESTBLS
                                    176 	.globl _g_FLAGS
                                    177 	.globl _g_ERRORS
                                    178 	.globl _g_DATCNT
                                    179 	.globl _g_DEVNUM
                                    180 	.globl _g_OLDINT
                                    181 	.globl _g_OLDSTT
                                    182 	.globl _g_MEXBIh
                                    183 	.globl _g_RSIQLN
                                    184 	.globl _g_RSFCB
                                    185 	.globl _g_TOCNT
                                    186 	.globl _g_RSTMP
                                    187 	.globl _g_YSAVE
                                    188 	.globl _g_XSAVE
                                    189 	.globl _g_NORUSE
                                    190 	.globl _g_MODE
                                    191 	.globl _g_ROMA
                                    192 	.globl _g_CHRCNT
                                    193 	.globl _g_EXBRSA
                                    194 	.globl _g_AVCSAV
                                    195 	.globl _g_ACPAGE
                                    196 	.globl _g_DPPAGE
                                    197 	.globl _g_RS2IQ
                                    198 	.globl _g_VOICCQ
                                    199 	.globl _g_VOICBQ
                                    200 	.globl _g_VOICAQ
                                    201 	.globl _g_QUEBAK
                                    202 	.globl _g_QUETAB
                                    203 	.globl _g_ASPCT2
                                    204 	.globl _g_ASPCT1
                                    205 	.globl _g_HEADER
                                    206 	.globl _g_HIGH
                                    207 	.globl _g_LOW
                                    208 	.globl _g_CS240
                                    209 	.globl _g_CS120
                                    210 	.globl _g_GETPNT
                                    211 	.globl _g_PUTPNT
                                    212 	.globl _g_REPCNT
                                    213 	.globl _g_SCNCNT
                                    214 	.globl _g_FRCNEW
                                    215 	.globl _g_QUEUES
                                    216 	.globl _g_MINUPD
                                    217 	.globl _g_MAXUPD
                                    218 	.globl _g_TRGFLG
                                    219 	.globl _g_STATFL
                                    220 	.globl _g_RG7SAV
                                    221 	.globl _g_RG6SAV
                                    222 	.globl _g_RG5SAV
                                    223 	.globl _g_RG4SAV
                                    224 	.globl _g_RG3SAV
                                    225 	.globl _g_RG2SAV
                                    226 	.globl _g_RG1SAV
                                    227 	.globl _g_RG0SAV
                                    228 	.globl _g_CNSDFG
                                    229 	.globl _g_USRTAB
                                    230 	.globl _g_CLPRIM
                                    231 	.globl _g_WRPRIM
                                    232 	.globl _g_RDPRIM
                                    233 	.globl _PenaltyShots
                                    234 ;--------------------------------------------------------
                                    235 ; special function registers
                                    236 ;--------------------------------------------------------
                         000000A8   237 _g_PortPrimarySlot	=	0x00a8
                         000000A9   238 _g_PortReadKeyboard	=	0x00a9
                         000000AA   239 _g_PortAccessKeyboard	=	0x00aa
                         000000AB   240 _g_PortControl	=	0x00ab
                         00000098   241 _g_VDP_DataPort	=	0x0098
                         00000099   242 _g_VDP_RegPort	=	0x0099
                         00000099   243 _g_VDP_AddrPort	=	0x0099
                         00000099   244 _g_VDP_StatPort	=	0x0099
                         000000A0   245 _g_PSG_RegPort	=	0x00a0
                         000000A1   246 _g_PSG_DataPort	=	0x00a1
                         000000A2   247 _g_PSG_StatPort	=	0x00a2
                         00000010   248 _g_PSG_Ext_RegPort	=	0x0010
                         00000011   249 _g_PSG_Ext_DataPort	=	0x0011
                         00000012   250 _g_PSG_Ext_StatPort	=	0x0012
                         0000007C   251 _g_MSXMusic_IndexPort	=	0x007c
                         0000007D   252 _g_MSXMusic_DataPort	=	0x007d
                         000000C0   253 _g_MSXAudio_IndexPort	=	0x00c0
                         000000C1   254 _g_MSXAudio_DataPort	=	0x00c1
                         000000C2   255 _g_MSXAudio_IndexPort2	=	0x00c2
                         000000C3   256 _g_MSXAudio_DataPort2	=	0x00c3
                         000000B4   257 _g_RTC_AddrPort	=	0x00b4
                         000000B5   258 _g_RTC_DataPort	=	0x00b5
                         00000060   259 _g_V9_VRAMPort	=	0x0060
                         00000061   260 _g_V9_PalettePort	=	0x0061
                         00000062   261 _g_V9_CmdDataPort	=	0x0062
                         00000063   262 _g_V9_RegDataPort	=	0x0063
                         00000064   263 _g_V9_RegSelectPort	=	0x0064
                         00000065   264 _g_V9_SatusPort	=	0x0065
                         00000066   265 _g_V9_IntFlagPort	=	0x0066
                         00000067   266 _g_V9_SysCtrlPort	=	0x0067
                         00000068   267 _g_V9_KanjiAddrLPort	=	0x0068
                         00000069   268 _g_V9_KanjiAddrHPort	=	0x0069
                         00000069   269 _g_V9_KanjiDataPort	=	0x0069
                         0000006A   270 _g_V9_Kanji2AddrLPort	=	0x006a
                         0000006B   271 _g_V9_Kanji2AddrHPort	=	0x006b
                         0000006B   272 _g_V9_Kanji2DataPort	=	0x006b
                         0000006F   273 _g_V9_OutputCtrPort	=	0x006f
                                    274 ;--------------------------------------------------------
                                    275 ; ram data
                                    276 ;--------------------------------------------------------
                                    277 	.area _DATA
                         0000F3AE   278 _g_LINL40	=	0xf3ae
                         0000F3AF   279 _g_LINL32	=	0xf3af
                         0000F3B0   280 _g_LINLEN	=	0xf3b0
                         0000F3B1   281 _g_CRTCNT	=	0xf3b1
                         0000F3B2   282 _g_CLMLST	=	0xf3b2
                         0000F3B3   283 _g_TXTNAM	=	0xf3b3
                         0000F3B5   284 _g_TXTCOL	=	0xf3b5
                         0000F3B7   285 _g_TXTCGP	=	0xf3b7
                         0000F3B9   286 _g_TXTATR	=	0xf3b9
                         0000F3BB   287 _g_TXTPAT	=	0xf3bb
                         0000F3BD   288 _g_T32NAM	=	0xf3bd
                         0000F3BF   289 _g_T32COL	=	0xf3bf
                         0000F3C1   290 _g_T32CGP	=	0xf3c1
                         0000F3C3   291 _g_T32ATR	=	0xf3c3
                         0000F3C5   292 _g_T32PAT	=	0xf3c5
                         0000F3C7   293 _g_GRPNAM	=	0xf3c7
                         0000F3C9   294 _g_GRPCOL	=	0xf3c9
                         0000F3CB   295 _g_GRPCGP	=	0xf3cb
                         0000F3CD   296 _g_GRPATR	=	0xf3cd
                         0000F3CF   297 _g_GRPPAT	=	0xf3cf
                         0000F3D1   298 _g_MLTNAM	=	0xf3d1
                         0000F3D3   299 _g_MLTCOL	=	0xf3d3
                         0000F3D5   300 _g_MLTCGP	=	0xf3d5
                         0000F3D7   301 _g_MLTATR	=	0xf3d7
                         0000F3D9   302 _g_MLTPAT	=	0xf3d9
                         0000F3DB   303 _g_CLIKSW	=	0xf3db
                         0000F3DC   304 _g_CSRY	=	0xf3dc
                         0000F3DD   305 _g_CSRX	=	0xf3dd
                         0000F3E9   306 _g_FORCLR	=	0xf3e9
                         0000F3EA   307 _g_BAKCLR	=	0xf3ea
                         0000F3EB   308 _g_BDRCLR	=	0xf3eb
                         0000F3F2   309 _g_ATRBYT	=	0xf3f2
                         0000F87F   310 _g_FNKSTR	=	0xf87f
                         0000F92A   311 _g_CLOC	=	0xf92a
                         0000F92C   312 _g_CMASK	=	0xf92c
                         0000FB02   313 _g_LOGOPR	=	0xfb02
                         0000FCB7   314 _g_GRPACX	=	0xfcb7
                         0000FCB9   315 _g_GRPACY	=	0xfcb9
                         0000FFFF   316 _g_SLTSL	=	0xffff
                                    317 ;--------------------------------------------------------
                                    318 ; ram data
                                    319 ;--------------------------------------------------------
                                    320 	.area _INITIALIZED
                                    321 ;--------------------------------------------------------
                                    322 ; absolute external ram data
                                    323 ;--------------------------------------------------------
                                    324 	.area _DABS (ABS)
                                    325 ;--------------------------------------------------------
                                    326 ; global & static initialisations
                                    327 ;--------------------------------------------------------
                                    328 	.area _HOME
                                    329 	.area _GSINIT
                                    330 	.area _GSFINAL
                                    331 	.area _GSINIT
                                    332 ;--------------------------------------------------------
                                    333 ; Home
                                    334 ;--------------------------------------------------------
                                    335 	.area _HOME
                                    336 	.area _HOME
                                    337 ;--------------------------------------------------------
                                    338 ; code
                                    339 ;--------------------------------------------------------
                                    340 	.area _SEG12
                                    341 ;E:\Dropbox\FAUSTO\SVILUPPI\MSX\CODE\C\MSXgl\projects\soccerlgSCC/soccerlg_s12_b3.c:24: void PenaltyShots() {
                                    342 ;	---------------------------------
                                    343 ; Function PenaltyShots
                                    344 ; ---------------------------------
    00000000                        345 _PenaltyShots::
    00000000 DD E5            [15]  346 	push	ix
    00000002 DD 21 00 00      [14]  347 	ld	ix,#0
    00000006 DD 39            [15]  348 	add	ix,sp
    00000008 21 BE FF         [10]  349 	ld	hl, #-66
    0000000B 39               [11]  350 	add	hl, sp
    0000000C F9               [ 6]  351 	ld	sp, hl
                                    352 ;E:\Dropbox\FAUSTO\SVILUPPI\MSX\CODE\C\MSXgl\projects\soccerlgSCC/soccerlg_s12_b3.c:25: while(g_LastTimeCounter+2<g_TimeCounter){
    0000000D                        353 00101$:
    0000000D ED 4Br00r00      [20]  354 	ld	bc, (_g_LastTimeCounter)
    00000011 03               [ 6]  355 	inc	bc
    00000012 03               [ 6]  356 	inc	bc
    00000013 21r00r00         [10]  357 	ld	hl, #_g_TimeCounter
    00000016 79               [ 4]  358 	ld	a, c
    00000017 96               [ 7]  359 	sub	a, (hl)
    00000018 23               [ 6]  360 	inc	hl
    00000019 78               [ 4]  361 	ld	a, b
    0000001A 9E               [ 7]  362 	sbc	a, (hl)
    0000001B 30 06            [12]  363 	jr	NC, 00103$
                                    364 ;E:\Dropbox\FAUSTO\SVILUPPI\MSX\CODE\C\MSXgl\projects\soccerlgSCC/soccerlg_s12_b3.c:26: V9990_WaitSynch();
    0000001D CDr00r00         [17]  365 	call	_V9990_WaitSynch
    00000020 C3r0Dr00         [10]  366 	jp	00101$
    00000023                        367 00103$:
                                    368 ;E:\Dropbox\FAUSTO\SVILUPPI\MSX\CODE\C\MSXgl\projects\soccerlgSCC/soccerlg_s12_b3.c:28: g_MatchStatus = MATCH_PENALTY_SETUP;
    00000023 21r00r00         [10]  369 	ld	hl, #_g_MatchStatus
    00000026 36 12            [10]  370 	ld	(hl), #0x12
                                    371 ;E:\Dropbox\FAUSTO\SVILUPPI\MSX\CODE\C\MSXgl\projects\soccerlgSCC/soccerlg_s12_b3.c:29: g_FieldScrollingActionInProgress = NO_VALUE;
    00000028 21r00r00         [10]  372 	ld	hl, #_g_FieldScrollingActionInProgress
    0000002B 36 FF            [10]  373 	ld	(hl), #0xff
                                    374 ;E:\Dropbox\FAUSTO\SVILUPPI\MSX\CODE\C\MSXgl\projects\soccerlgSCC/soccerlg_s12_b3.c:33: while (g_FieldCurrentYPosition != centerScroll) {
    0000002D                        375 00107$:
    0000002D 2Ar00r00         [16]  376 	ld	hl, (_g_FieldCurrentYPosition)
    00000030 7D               [ 4]  377 	ld	a, l
    00000031 D6 89            [ 7]  378 	sub	a, #0x89
    00000033 B4               [ 4]  379 	or	a, h
    00000034 28 27            [12]  380 	jr	Z, 00109$
                                    381 ;E:\Dropbox\FAUSTO\SVILUPPI\MSX\CODE\C\MSXgl\projects\soccerlgSCC/soccerlg_s12_b3.c:34: if (g_FieldCurrentYPosition < centerScroll) g_FieldCurrentYPosition++;
    00000036 11 89 00         [10]  382 	ld	de, #0x0089
    00000039 BF               [ 4]  383 	cp	a, a
    0000003A ED 52            [15]  384 	sbc	hl, de
    0000003C 30 0A            [12]  385 	jr	NC, 00105$
    0000003E 2Ar00r00         [16]  386 	ld	hl, (_g_FieldCurrentYPosition)
    00000041 23               [ 6]  387 	inc	hl
    00000042 22r00r00         [16]  388 	ld	(_g_FieldCurrentYPosition), hl
    00000045 C3r4Fr00         [10]  389 	jp	00106$
    00000048                        390 00105$:
                                    391 ;E:\Dropbox\FAUSTO\SVILUPPI\MSX\CODE\C\MSXgl\projects\soccerlgSCC/soccerlg_s12_b3.c:35: else g_FieldCurrentYPosition--;
    00000048 2Ar00r00         [16]  392 	ld	hl, (_g_FieldCurrentYPosition)
    0000004B 2B               [ 6]  393 	dec	hl
    0000004C 22r00r00         [16]  394 	ld	(_g_FieldCurrentYPosition), hl
    0000004F                        395 00106$:
                                    396 ;E:\Dropbox\FAUSTO\SVILUPPI\MSX\CODE\C\MSXgl\projects\soccerlgSCC/soccerlg_s12_b3.c:37: CallFnc_VOID(6,UpdateSpritesPositions);
    0000004F 11r00r00         [10]  397 	ld	de, #_UpdateSpritesPositions
    00000052 3E 06            [ 7]  398 	ld	a, #0x06
    00000054 CDr00r00         [17]  399 	call	_CallFnc_VOID
                                    400 ;E:\Dropbox\FAUSTO\SVILUPPI\MSX\CODE\C\MSXgl\projects\soccerlgSCC/soccerlg_s12_b3.c:38: V9990_WaitSynch();
    00000057 CDr00r00         [17]  401 	call	_V9990_WaitSynch
    0000005A C3r2Dr00         [10]  402 	jp	00107$
    0000005D                        403 00109$:
                                    404 ;E:\Dropbox\FAUSTO\SVILUPPI\MSX\CODE\C\MSXgl\projects\soccerlgSCC/soccerlg_s12_b3.c:42: CallFnc_VOID(9,ShowHeaderInfo);
    0000005D 11r00r00         [10]  405 	ld	de, #_ShowHeaderInfo
    00000060 3E 09            [ 7]  406 	ld	a, #0x09
    00000062 CDr00r00         [17]  407 	call	_CallFnc_VOID
                                    408 ;E:\Dropbox\FAUSTO\SVILUPPI\MSX\CODE\C\MSXgl\projects\soccerlgSCC/soccerlg_s12_b3.c:44: if (g_modernAudio) YSCC_PlayLoop(SCC_MODERN_PENALTIES_BIN_SEG, SCC_MODERN_PENALTIES_BIN_SIZE);
    00000065 3Ar00r00         [13]  409 	ld	a, (_g_modernAudio+0)
    00000068 B7               [ 4]  410 	or	a, a
    00000069 28 0E            [12]  411 	jr	Z, 00111$
    0000006B 21 12 00         [10]  412 	ld	hl, #0x0012
    0000006E E5               [11]  413 	push	hl
    0000006F 21 80 4D         [10]  414 	ld	hl, #0x4d80
    00000072 E5               [11]  415 	push	hl
    00000073 21 F4 01         [10]  416 	ld	hl, #0x01f4
    00000076 CDr00r00         [17]  417 	call	_YSCC_PlayLoop
    00000079                        418 00111$:
                                    419 ;E:\Dropbox\FAUSTO\SVILUPPI\MSX\CODE\C\MSXgl\projects\soccerlgSCC/soccerlg_s12_b3.c:45: V9990_PrintLayerAStringAtPos(8, 10, "PENALTY SHOOTOUT");
    00000079 21r3Br16         [10]  420 	ld	hl, #___str_0
    0000007C E5               [11]  421 	push	hl
    0000007D 2E 0A            [ 7]  422 	ld	l, #0x0a
                                    423 ;	spillPairReg hl
                                    424 ;	spillPairReg hl
    0000007F 3E 08            [ 7]  425 	ld	a, #0x08
    00000081 CDr00r00         [17]  426 	call	_V9990_PrintLayerAStringAtPos
                                    427 ;E:\Dropbox\FAUSTO\SVILUPPI\MSX\CODE\C\MSXgl\projects\soccerlgSCC/soccerlg_s12_b3.c:46: for(u8 w=0; w<120; w++) V9990_WaitSynch();
    00000084 0E 00            [ 7]  428 	ld	c, #0x00
    00000086                        429 00372$:
    00000086 79               [ 4]  430 	ld	a, c
    00000087 D6 78            [ 7]  431 	sub	a, #0x78
    00000089 30 09            [12]  432 	jr	NC, 00112$
    0000008B C5               [11]  433 	push	bc
    0000008C CDr00r00         [17]  434 	call	_V9990_WaitSynch
    0000008F C1               [10]  435 	pop	bc
    00000090 0C               [ 4]  436 	inc	c
    00000091 C3r86r00         [10]  437 	jp	00372$
    00000094                        438 00112$:
                                    439 ;E:\Dropbox\FAUSTO\SVILUPPI\MSX\CODE\C\MSXgl\projects\soccerlgSCC/soccerlg_s12_b3.c:47: V9990_ClearTextFromLayerA(8, 10, 16);
    00000094 3E 10            [ 7]  440 	ld	a, #0x10
    00000096 F5               [11]  441 	push	af
    00000097 33               [ 6]  442 	inc	sp
    00000098 2E 0A            [ 7]  443 	ld	l, #0x0a
                                    444 ;	spillPairReg hl
                                    445 ;	spillPairReg hl
    0000009A 3E 08            [ 7]  446 	ld	a, #0x08
    0000009C CDr00r00         [17]  447 	call	_V9990_ClearTextFromLayerA
                                    448 ;E:\Dropbox\FAUSTO\SVILUPPI\MSX\CODE\C\MSXgl\projects\soccerlgSCC/soccerlg_s12_b3.c:50: for(u8 i=0; i<15; i++) {
    0000009F DD 36 FF 00      [19]  449 	ld	-1 (ix), #0x00
    000000A3                        450 00375$:
    000000A3 DD 7E FF         [19]  451 	ld	a, -1 (ix)
    000000A6 D6 0F            [ 7]  452 	sub	a, #0x0f
    000000A8 D2rACr01         [10]  453 	jp	NC, 00443$
                                    454 ;E:\Dropbox\FAUSTO\SVILUPPI\MSX\CODE\C\MSXgl\projects\soccerlgSCC/soccerlg_s12_b3.c:51: g_Players[i].Status = PLAYER_STATUS_NONE;
    000000AB DD 4E FF         [19]  455 	ld	c, -1 (ix)
    000000AE 06 00            [ 7]  456 	ld	b, #0x00
    000000B0 69               [ 4]  457 	ld	l, c
    000000B1 60               [ 4]  458 	ld	h, b
    000000B2 29               [11]  459 	add	hl, hl
    000000B3 29               [11]  460 	add	hl, hl
    000000B4 09               [11]  461 	add	hl, bc
    000000B5 29               [11]  462 	add	hl, hl
    000000B6 29               [11]  463 	add	hl, hl
    000000B7 09               [11]  464 	add	hl, bc
    000000B8 EB               [ 4]  465 	ex	de, hl
    000000B9 21r00r00         [10]  466 	ld	hl, #_g_Players
    000000BC 19               [11]  467 	add	hl, de
    000000BD EB               [ 4]  468 	ex	de, hl
    000000BE 21 12 00         [10]  469 	ld	hl, #0x0012
    000000C1 19               [11]  470 	add	hl, de
    000000C2 AF               [ 4]  471 	xor	a, a
    000000C3 77               [ 7]  472 	ld	(hl), a
    000000C4 23               [ 6]  473 	inc	hl
    000000C5 77               [ 7]  474 	ld	(hl), a
                                    475 ;E:\Dropbox\FAUSTO\SVILUPPI\MSX\CODE\C\MSXgl\projects\soccerlgSCC/soccerlg_s12_b3.c:54: g_Players[i].TargetY = 220 + (i/4)*15; 
    000000C6 21 0E 00         [10]  476 	ld	hl, #0x000e
    000000C9 19               [11]  477 	add	hl, de
    000000CA 4D               [ 4]  478 	ld	c, l
    000000CB 44               [ 4]  479 	ld	b, h
                                    480 ;E:\Dropbox\FAUSTO\SVILUPPI\MSX\CODE\C\MSXgl\projects\soccerlgSCC/soccerlg_s12_b3.c:55: g_Players[i].TargetX = 80 + (i%4)*25;
    000000CC 21 10 00         [10]  481 	ld	hl, #0x0010
    000000CF 19               [11]  482 	add	hl, de
    000000D0 DD 75 FB         [19]  483 	ld	-5 (ix), l
    000000D3 DD 74 FC         [19]  484 	ld	-4 (ix), h
                                    485 ;E:\Dropbox\FAUSTO\SVILUPPI\MSX\CODE\C\MSXgl\projects\soccerlgSCC/soccerlg_s12_b3.c:53: if (i < 7) { // Team 2 (Top)
    000000D6 DD 7E FF         [19]  486 	ld	a, -1 (ix)
    000000D9 D6 07            [ 7]  487 	sub	a, #0x07
    000000DB 30 57            [12]  488 	jr	NC, 00117$
                                    489 ;E:\Dropbox\FAUSTO\SVILUPPI\MSX\CODE\C\MSXgl\projects\soccerlgSCC/soccerlg_s12_b3.c:54: g_Players[i].TargetY = 220 + (i/4)*15; 
    000000DD DD 5E FF         [19]  490 	ld	e, -1 (ix)
    000000E0 16 00            [ 7]  491 	ld	d, #0x00
    000000E2 6B               [ 4]  492 	ld	l, e
                                    493 ;	spillPairReg hl
                                    494 ;	spillPairReg hl
    000000E3 62               [ 4]  495 	ld	h, d
                                    496 ;	spillPairReg hl
                                    497 ;	spillPairReg hl
    000000E4 CB 7A            [ 8]  498 	bit	7, d
    000000E6 28 05            [12]  499 	jr	Z, 00394$
    000000E8 6B               [ 4]  500 	ld	l, e
                                    501 ;	spillPairReg hl
                                    502 ;	spillPairReg hl
    000000E9 62               [ 4]  503 	ld	h, d
                                    504 ;	spillPairReg hl
                                    505 ;	spillPairReg hl
    000000EA 23               [ 6]  506 	inc	hl
    000000EB 23               [ 6]  507 	inc	hl
    000000EC 23               [ 6]  508 	inc	hl
    000000ED                        509 00394$:
    000000ED CB 2C            [ 8]  510 	sra	h
    000000EF CB 1D            [ 8]  511 	rr	l
    000000F1 CB 2C            [ 8]  512 	sra	h
    000000F3 CB 1D            [ 8]  513 	rr	l
    000000F5 D5               [11]  514 	push	de
    000000F6 5D               [ 4]  515 	ld	e, l
    000000F7 54               [ 4]  516 	ld	d, h
    000000F8 29               [11]  517 	add	hl, hl
    000000F9 19               [11]  518 	add	hl, de
    000000FA 29               [11]  519 	add	hl, hl
    000000FB 19               [11]  520 	add	hl, de
    000000FC 29               [11]  521 	add	hl, hl
    000000FD 19               [11]  522 	add	hl, de
    000000FE D1               [10]  523 	pop	de
    000000FF 7D               [ 4]  524 	ld	a, l
    00000100 C6 DC            [ 7]  525 	add	a, #0xdc
    00000102 6F               [ 4]  526 	ld	l, a
                                    527 ;	spillPairReg hl
                                    528 ;	spillPairReg hl
    00000103 7C               [ 4]  529 	ld	a, h
    00000104 CE 00            [ 7]  530 	adc	a, #0x00
    00000106 DD 75 FD         [19]  531 	ld	-3 (ix), l
    00000109 DD 77 FE         [19]  532 	ld	-2 (ix), a
    0000010C DD 7E FD         [19]  533 	ld	a, -3 (ix)
    0000010F 02               [ 7]  534 	ld	(bc), a
    00000110 03               [ 6]  535 	inc	bc
    00000111 DD 7E FE         [19]  536 	ld	a, -2 (ix)
    00000114 02               [ 7]  537 	ld	(bc), a
                                    538 ;E:\Dropbox\FAUSTO\SVILUPPI\MSX\CODE\C\MSXgl\projects\soccerlgSCC/soccerlg_s12_b3.c:55: g_Players[i].TargetX = 80 + (i%4)*25;
    00000115 7B               [ 4]  539 	ld	a, e
    00000116 E6 03            [ 7]  540 	and	a, #0x03
    00000118 4F               [ 4]  541 	ld	c, a
    00000119 06 00            [ 7]  542 	ld	b, #0x00
    0000011B 69               [ 4]  543 	ld	l, c
    0000011C 60               [ 4]  544 	ld	h, b
    0000011D 29               [11]  545 	add	hl, hl
    0000011E 09               [11]  546 	add	hl, bc
    0000011F 29               [11]  547 	add	hl, hl
    00000120 29               [11]  548 	add	hl, hl
    00000121 29               [11]  549 	add	hl, hl
    00000122 09               [11]  550 	add	hl, bc
    00000123 01 50 00         [10]  551 	ld	bc, #0x0050
    00000126 09               [11]  552 	add	hl, bc
    00000127 EB               [ 4]  553 	ex	de, hl
    00000128 DD 6E FB         [19]  554 	ld	l, -5 (ix)
    0000012B DD 66 FC         [19]  555 	ld	h, -4 (ix)
    0000012E 73               [ 7]  556 	ld	(hl), e
    0000012F 23               [ 6]  557 	inc	hl
    00000130 72               [ 7]  558 	ld	(hl), d
    00000131 C3rA6r01         [10]  559 	jp	00376$
    00000134                        560 00117$:
                                    561 ;E:\Dropbox\FAUSTO\SVILUPPI\MSX\CODE\C\MSXgl\projects\soccerlgSCC/soccerlg_s12_b3.c:56: } else if (i < 14) { // Team 1 (Bottom)
    00000134 DD 7E FF         [19]  562 	ld	a, -1 (ix)
    00000137 D6 0E            [ 7]  563 	sub	a, #0x0e
    00000139 30 5A            [12]  564 	jr	NC, 00114$
                                    565 ;E:\Dropbox\FAUSTO\SVILUPPI\MSX\CODE\C\MSXgl\projects\soccerlgSCC/soccerlg_s12_b3.c:57: u8 k = i - 7;
    0000013B DD 7E FF         [19]  566 	ld	a, -1 (ix)
    0000013E C6 F9            [ 7]  567 	add	a, #0xf9
                                    568 ;E:\Dropbox\FAUSTO\SVILUPPI\MSX\CODE\C\MSXgl\projects\soccerlgSCC/soccerlg_s12_b3.c:58: g_Players[i].TargetY = 260 + (k/4)*15;
    00000140 5F               [ 4]  569 	ld	e, a
    00000141 16 00            [ 7]  570 	ld	d, #0x00
    00000143 6B               [ 4]  571 	ld	l, e
                                    572 ;	spillPairReg hl
                                    573 ;	spillPairReg hl
    00000144 62               [ 4]  574 	ld	h, d
                                    575 ;	spillPairReg hl
                                    576 ;	spillPairReg hl
    00000145 CB 7A            [ 8]  577 	bit	7, d
    00000147 28 05            [12]  578 	jr	Z, 00395$
    00000149 6B               [ 4]  579 	ld	l, e
                                    580 ;	spillPairReg hl
                                    581 ;	spillPairReg hl
    0000014A 62               [ 4]  582 	ld	h, d
                                    583 ;	spillPairReg hl
                                    584 ;	spillPairReg hl
    0000014B 23               [ 6]  585 	inc	hl
    0000014C 23               [ 6]  586 	inc	hl
    0000014D 23               [ 6]  587 	inc	hl
    0000014E                        588 00395$:
    0000014E CB 2C            [ 8]  589 	sra	h
    00000150 CB 1D            [ 8]  590 	rr	l
    00000152 CB 2C            [ 8]  591 	sra	h
    00000154 CB 1D            [ 8]  592 	rr	l
    00000156 D5               [11]  593 	push	de
    00000157 5D               [ 4]  594 	ld	e, l
    00000158 54               [ 4]  595 	ld	d, h
    00000159 29               [11]  596 	add	hl, hl
    0000015A 19               [11]  597 	add	hl, de
    0000015B 29               [11]  598 	add	hl, hl
    0000015C 19               [11]  599 	add	hl, de
    0000015D 29               [11]  600 	add	hl, hl
    0000015E 19               [11]  601 	add	hl, de
    0000015F D1               [10]  602 	pop	de
    00000160 7D               [ 4]  603 	ld	a, l
    00000161 C6 04            [ 7]  604 	add	a, #0x04
    00000163 6F               [ 4]  605 	ld	l, a
                                    606 ;	spillPairReg hl
                                    607 ;	spillPairReg hl
    00000164 7C               [ 4]  608 	ld	a, h
    00000165 CE 01            [ 7]  609 	adc	a, #0x01
    00000167 DD 75 FD         [19]  610 	ld	-3 (ix), l
    0000016A DD 77 FE         [19]  611 	ld	-2 (ix), a
    0000016D DD 7E FD         [19]  612 	ld	a, -3 (ix)
    00000170 02               [ 7]  613 	ld	(bc), a
    00000171 03               [ 6]  614 	inc	bc
    00000172 DD 7E FE         [19]  615 	ld	a, -2 (ix)
    00000175 02               [ 7]  616 	ld	(bc), a
                                    617 ;E:\Dropbox\FAUSTO\SVILUPPI\MSX\CODE\C\MSXgl\projects\soccerlgSCC/soccerlg_s12_b3.c:59: g_Players[i].TargetX = 80 + (k%4)*25;
    00000176 7B               [ 4]  618 	ld	a, e
    00000177 E6 03            [ 7]  619 	and	a, #0x03
    00000179 4F               [ 4]  620 	ld	c, a
    0000017A 06 00            [ 7]  621 	ld	b, #0x00
    0000017C 69               [ 4]  622 	ld	l, c
    0000017D 60               [ 4]  623 	ld	h, b
    0000017E 29               [11]  624 	add	hl, hl
    0000017F 09               [11]  625 	add	hl, bc
    00000180 29               [11]  626 	add	hl, hl
    00000181 29               [11]  627 	add	hl, hl
    00000182 29               [11]  628 	add	hl, hl
    00000183 09               [11]  629 	add	hl, bc
    00000184 01 50 00         [10]  630 	ld	bc, #0x0050
    00000187 09               [11]  631 	add	hl, bc
    00000188 EB               [ 4]  632 	ex	de, hl
    00000189 DD 6E FB         [19]  633 	ld	l, -5 (ix)
    0000018C DD 66 FC         [19]  634 	ld	h, -4 (ix)
    0000018F 73               [ 7]  635 	ld	(hl), e
    00000190 23               [ 6]  636 	inc	hl
    00000191 72               [ 7]  637 	ld	(hl), d
    00000192 C3rA6r01         [10]  638 	jp	00376$
    00000195                        639 00114$:
                                    640 ;E:\Dropbox\FAUSTO\SVILUPPI\MSX\CODE\C\MSXgl\projects\soccerlgSCC/soccerlg_s12_b3.c:61: g_Players[i].TargetX = 128;
    00000195 DD 6E FB         [19]  641 	ld	l, -5 (ix)
    00000198 DD 66 FC         [19]  642 	ld	h, -4 (ix)
    0000019B 36 80            [10]  643 	ld	(hl), #0x80
    0000019D 23               [ 6]  644 	inc	hl
    0000019E 36 00            [10]  645 	ld	(hl), #0x00
                                    646 ;E:\Dropbox\FAUSTO\SVILUPPI\MSX\CODE\C\MSXgl\projects\soccerlgSCC/soccerlg_s12_b3.c:62: g_Players[i].TargetY = 243; // Midfield
    000001A0 3E F3            [ 7]  647 	ld	a, #0xf3
    000001A2 02               [ 7]  648 	ld	(bc), a
    000001A3 03               [ 6]  649 	inc	bc
    000001A4 AF               [ 4]  650 	xor	a, a
    000001A5 02               [ 7]  651 	ld	(bc), a
    000001A6                        652 00376$:
                                    653 ;E:\Dropbox\FAUSTO\SVILUPPI\MSX\CODE\C\MSXgl\projects\soccerlgSCC/soccerlg_s12_b3.c:50: for(u8 i=0; i<15; i++) {
    000001A6 DD 34 FF         [23]  654 	inc	-1 (ix)
    000001A9 C3rA3r00         [10]  655 	jp	00375$
                                    656 ;E:\Dropbox\FAUSTO\SVILUPPI\MSX\CODE\C\MSXgl\projects\soccerlgSCC/soccerlg_s12_b3.c:67: while(true) {
    000001AC                        657 00443$:
    000001AC                        658 00140$:
                                    659 ;E:\Dropbox\FAUSTO\SVILUPPI\MSX\CODE\C\MSXgl\projects\soccerlgSCC/soccerlg_s12_b3.c:68: bool allArrived = true;
    000001AC DD 36 F8 01      [19]  660 	ld	-8 (ix), #0x01
                                    661 ;E:\Dropbox\FAUSTO\SVILUPPI\MSX\CODE\C\MSXgl\projects\soccerlgSCC/soccerlg_s12_b3.c:69: for(u8 i=0; i<15; i++) {
    000001B0 DD 36 FF 00      [19]  662 	ld	-1 (ix), #0x00
    000001B4                        663 00378$:
    000001B4 DD 7E FF         [19]  664 	ld	a, -1 (ix)
    000001B7 D6 0F            [ 7]  665 	sub	a, #0x0f
    000001B9 D2r46r03         [10]  666 	jp	NC, 00136$
                                    667 ;E:\Dropbox\FAUSTO\SVILUPPI\MSX\CODE\C\MSXgl\projects\soccerlgSCC/soccerlg_s12_b3.c:70: bool arrived = true;
    000001BC DD 36 FC 01      [19]  668 	ld	-4 (ix), #0x01
                                    669 ;E:\Dropbox\FAUSTO\SVILUPPI\MSX\CODE\C\MSXgl\projects\soccerlgSCC/soccerlg_s12_b3.c:71: if (g_Players[i].X < g_Players[i].TargetX) { g_Players[i].X++; arrived=false; g_Players[i].Direction = DIRECTION_RIGHT; }
    000001C0 DD 4E FF         [19]  670 	ld	c, -1 (ix)
    000001C3 06 00            [ 7]  671 	ld	b, #0x00
    000001C5 69               [ 4]  672 	ld	l, c
    000001C6 60               [ 4]  673 	ld	h, b
    000001C7 29               [11]  674 	add	hl, hl
    000001C8 29               [11]  675 	add	hl, hl
    000001C9 09               [11]  676 	add	hl, bc
    000001CA 29               [11]  677 	add	hl, hl
    000001CB 29               [11]  678 	add	hl, hl
    000001CC 09               [11]  679 	add	hl, bc
                                    680 ;E:\Dropbox\FAUSTO\SVILUPPI\MSX\CODE\C\MSXgl\projects\soccerlgSCC/soccerlg_s12_b3.c:74: if (g_Players[i].Y < g_Players[i].TargetY) { g_Players[i].Y++; arrived=false; g_Players[i].Direction = DIRECTION_DOWN; }
    000001CD 11r00r00         [10]  681 	ld	de, #_g_Players
    000001D0 19               [11]  682 	add	hl, de
    000001D1 DD 75 F9         [19]  683 	ld	-7 (ix), l
    000001D4 DD 74 FA         [19]  684 	ld	-6 (ix), h
                                    685 ;E:\Dropbox\FAUSTO\SVILUPPI\MSX\CODE\C\MSXgl\projects\soccerlgSCC/soccerlg_s12_b3.c:71: if (g_Players[i].X < g_Players[i].TargetX) { g_Players[i].X++; arrived=false; g_Players[i].Direction = DIRECTION_RIGHT; }
    000001D7 DD 7E F9         [19]  686 	ld	a, -7 (ix)
    000001DA C6 02            [ 7]  687 	add	a, #0x02
    000001DC DD 77 FD         [19]  688 	ld	-3 (ix), a
    000001DF DD 7E FA         [19]  689 	ld	a, -6 (ix)
    000001E2 CE 00            [ 7]  690 	adc	a, #0x00
    000001E4 DD 77 FE         [19]  691 	ld	-2 (ix), a
    000001E7 DD 6E FD         [19]  692 	ld	l, -3 (ix)
    000001EA DD 66 FE         [19]  693 	ld	h, -2 (ix)
    000001ED 4E               [ 7]  694 	ld	c, (hl)
    000001EE 23               [ 6]  695 	inc	hl
    000001EF 46               [ 7]  696 	ld	b, (hl)
    000001F0 DD 5E F9         [19]  697 	ld	e, -7 (ix)
    000001F3 DD 56 FA         [19]  698 	ld	d, -6 (ix)
    000001F6 21 10 00         [10]  699 	ld	hl, #16
    000001F9 19               [11]  700 	add	hl, de
    000001FA 5E               [ 7]  701 	ld	e, (hl)
    000001FB 23               [ 6]  702 	inc	hl
    000001FC 56               [ 7]  703 	ld	d, (hl)
    000001FD 79               [ 4]  704 	ld	a, c
    000001FE 93               [ 4]  705 	sub	a, e
    000001FF 78               [ 4]  706 	ld	a, b
    00000200 9A               [ 4]  707 	sbc	a, d
    00000201 30 1D            [12]  708 	jr	NC, 00123$
    00000203 03               [ 6]  709 	inc	bc
    00000204 DD 6E FD         [19]  710 	ld	l, -3 (ix)
    00000207 DD 66 FE         [19]  711 	ld	h, -2 (ix)
    0000020A 71               [ 7]  712 	ld	(hl), c
    0000020B 23               [ 6]  713 	inc	hl
    0000020C 70               [ 7]  714 	ld	(hl), b
    0000020D DD 36 FC 00      [19]  715 	ld	-4 (ix), #0x00
    00000211 DD 6E F9         [19]  716 	ld	l, -7 (ix)
    00000214 DD 66 FA         [19]  717 	ld	h, -6 (ix)
    00000217 11 0A 00         [10]  718 	ld	de, #0x000a
    0000021A 19               [11]  719 	add	hl, de
    0000021B 36 03            [10]  720 	ld	(hl), #0x03
    0000021D C3r40r02         [10]  721 	jp	00124$
    00000220                        722 00123$:
                                    723 ;E:\Dropbox\FAUSTO\SVILUPPI\MSX\CODE\C\MSXgl\projects\soccerlgSCC/soccerlg_s12_b3.c:72: else if (g_Players[i].X > g_Players[i].TargetX) { g_Players[i].X--; arrived=false; g_Players[i].Direction = DIRECTION_LEFT; }
    00000220 7B               [ 4]  724 	ld	a, e
    00000221 91               [ 4]  725 	sub	a, c
    00000222 7A               [ 4]  726 	ld	a, d
    00000223 98               [ 4]  727 	sbc	a, b
    00000224 30 1A            [12]  728 	jr	NC, 00124$
    00000226 0B               [ 6]  729 	dec	bc
    00000227 DD 6E FD         [19]  730 	ld	l, -3 (ix)
    0000022A DD 66 FE         [19]  731 	ld	h, -2 (ix)
    0000022D 71               [ 7]  732 	ld	(hl), c
    0000022E 23               [ 6]  733 	inc	hl
    0000022F 70               [ 7]  734 	ld	(hl), b
    00000230 DD 36 FC 00      [19]  735 	ld	-4 (ix), #0x00
    00000234 DD 6E F9         [19]  736 	ld	l, -7 (ix)
    00000237 DD 66 FA         [19]  737 	ld	h, -6 (ix)
    0000023A 11 0A 00         [10]  738 	ld	de, #0x000a
    0000023D 19               [11]  739 	add	hl, de
    0000023E 36 07            [10]  740 	ld	(hl), #0x07
    00000240                        741 00124$:
                                    742 ;E:\Dropbox\FAUSTO\SVILUPPI\MSX\CODE\C\MSXgl\projects\soccerlgSCC/soccerlg_s12_b3.c:74: if (g_Players[i].Y < g_Players[i].TargetY) { g_Players[i].Y++; arrived=false; g_Players[i].Direction = DIRECTION_DOWN; }
    00000240 DD 6E F9         [19]  743 	ld	l, -7 (ix)
    00000243 DD 66 FA         [19]  744 	ld	h, -6 (ix)
    00000246 4E               [ 7]  745 	ld	c, (hl)
    00000247 23               [ 6]  746 	inc	hl
    00000248 46               [ 7]  747 	ld	b, (hl)
    00000249 DD 5E F9         [19]  748 	ld	e, -7 (ix)
    0000024C DD 56 FA         [19]  749 	ld	d, -6 (ix)
    0000024F 21 0E 00         [10]  750 	ld	hl, #14
    00000252 19               [11]  751 	add	hl, de
    00000253 5E               [ 7]  752 	ld	e, (hl)
    00000254 23               [ 6]  753 	inc	hl
    00000255 56               [ 7]  754 	ld	d, (hl)
    00000256 79               [ 4]  755 	ld	a, c
    00000257 93               [ 4]  756 	sub	a, e
    00000258 78               [ 4]  757 	ld	a, b
    00000259 9A               [ 4]  758 	sbc	a, d
    0000025A 30 1D            [12]  759 	jr	NC, 00128$
    0000025C 03               [ 6]  760 	inc	bc
    0000025D DD 6E F9         [19]  761 	ld	l, -7 (ix)
    00000260 DD 66 FA         [19]  762 	ld	h, -6 (ix)
    00000263 71               [ 7]  763 	ld	(hl), c
    00000264 23               [ 6]  764 	inc	hl
    00000265 70               [ 7]  765 	ld	(hl), b
    00000266 DD 36 FC 00      [19]  766 	ld	-4 (ix), #0x00
    0000026A DD 6E F9         [19]  767 	ld	l, -7 (ix)
    0000026D DD 66 FA         [19]  768 	ld	h, -6 (ix)
    00000270 11 0A 00         [10]  769 	ld	de, #0x000a
    00000273 19               [11]  770 	add	hl, de
    00000274 36 05            [10]  771 	ld	(hl), #0x05
    00000276 C3r99r02         [10]  772 	jp	00129$
    00000279                        773 00128$:
                                    774 ;E:\Dropbox\FAUSTO\SVILUPPI\MSX\CODE\C\MSXgl\projects\soccerlgSCC/soccerlg_s12_b3.c:75: else if (g_Players[i].Y > g_Players[i].TargetY) { g_Players[i].Y--; arrived=false; g_Players[i].Direction = DIRECTION_UP; }
    00000279 7B               [ 4]  775 	ld	a, e
    0000027A 91               [ 4]  776 	sub	a, c
    0000027B 7A               [ 4]  777 	ld	a, d
    0000027C 98               [ 4]  778 	sbc	a, b
    0000027D 30 1A            [12]  779 	jr	NC, 00129$
    0000027F 0B               [ 6]  780 	dec	bc
    00000280 DD 6E F9         [19]  781 	ld	l, -7 (ix)
    00000283 DD 66 FA         [19]  782 	ld	h, -6 (ix)
    00000286 71               [ 7]  783 	ld	(hl), c
    00000287 23               [ 6]  784 	inc	hl
    00000288 70               [ 7]  785 	ld	(hl), b
    00000289 DD 36 FC 00      [19]  786 	ld	-4 (ix), #0x00
    0000028D DD 6E F9         [19]  787 	ld	l, -7 (ix)
    00000290 DD 66 FA         [19]  788 	ld	h, -6 (ix)
    00000293 11 0A 00         [10]  789 	ld	de, #0x000a
    00000296 19               [11]  790 	add	hl, de
    00000297 36 01            [10]  791 	ld	(hl), #0x01
    00000299                        792 00129$:
                                    793 ;E:\Dropbox\FAUSTO\SVILUPPI\MSX\CODE\C\MSXgl\projects\soccerlgSCC/soccerlg_s12_b3.c:79: g_Players[i].Status = PLAYER_STATUS_NONE;
    00000299 DD 7E F9         [19]  794 	ld	a, -7 (ix)
    0000029C C6 12            [ 7]  795 	add	a, #0x12
    0000029E DD 77 FD         [19]  796 	ld	-3 (ix), a
    000002A1 DD 7E FA         [19]  797 	ld	a, -6 (ix)
    000002A4 CE 00            [ 7]  798 	adc	a, #0x00
    000002A6 DD 77 FE         [19]  799 	ld	-2 (ix), a
                                    800 ;E:\Dropbox\FAUSTO\SVILUPPI\MSX\CODE\C\MSXgl\projects\soccerlgSCC/soccerlg_s12_b3.c:77: if (!arrived) {
    000002A9 DD 7E FC         [19]  801 	ld	a, -4 (ix)
    000002AC B7               [ 4]  802 	or	a, a
    000002AD 20 11            [12]  803 	jr	NZ, 00134$
                                    804 ;E:\Dropbox\FAUSTO\SVILUPPI\MSX\CODE\C\MSXgl\projects\soccerlgSCC/soccerlg_s12_b3.c:78: allArrived = false;
    000002AF DD 36 F8 00      [19]  805 	ld	-8 (ix), #0x00
                                    806 ;E:\Dropbox\FAUSTO\SVILUPPI\MSX\CODE\C\MSXgl\projects\soccerlgSCC/soccerlg_s12_b3.c:79: g_Players[i].Status = PLAYER_STATUS_NONE;
    000002B3 DD 6E FD         [19]  807 	ld	l, -3 (ix)
    000002B6 DD 66 FE         [19]  808 	ld	h, -2 (ix)
    000002B9 AF               [ 4]  809 	xor	a, a
    000002BA 77               [ 7]  810 	ld	(hl), a
    000002BB 23               [ 6]  811 	inc	hl
    000002BC 77               [ 7]  812 	ld	(hl), a
    000002BD C3r40r03         [10]  813 	jp	00379$
    000002C0                        814 00134$:
                                    815 ;E:\Dropbox\FAUSTO\SVILUPPI\MSX\CODE\C\MSXgl\projects\soccerlgSCC/soccerlg_s12_b3.c:81: g_Players[i].Status = PLAYER_STATUS_POSITIONED;
    000002C0 DD 6E FD         [19]  816 	ld	l, -3 (ix)
    000002C3 DD 66 FE         [19]  817 	ld	h, -2 (ix)
    000002C6 36 04            [10]  818 	ld	(hl), #0x04
    000002C8 23               [ 6]  819 	inc	hl
    000002C9 36 00            [10]  820 	ld	(hl), #0x00
                                    821 ;E:\Dropbox\FAUSTO\SVILUPPI\MSX\CODE\C\MSXgl\projects\soccerlgSCC/soccerlg_s12_b3.c:82: if (g_Players[i].Y < 243) g_Players[i].Direction = DIRECTION_DOWN;
    000002CB DD 6E F9         [19]  822 	ld	l, -7 (ix)
    000002CE DD 66 FA         [19]  823 	ld	h, -6 (ix)
    000002D1 7E               [ 7]  824 	ld	a, (hl)
    000002D2 DD 77 FD         [19]  825 	ld	-3 (ix), a
    000002D5 23               [ 6]  826 	inc	hl
    000002D6 7E               [ 7]  827 	ld	a, (hl)
    000002D7 DD 77 FE         [19]  828 	ld	-2 (ix), a
                                    829 ;E:\Dropbox\FAUSTO\SVILUPPI\MSX\CODE\C\MSXgl\projects\soccerlgSCC/soccerlg_s12_b3.c:74: if (g_Players[i].Y < g_Players[i].TargetY) { g_Players[i].Y++; arrived=false; g_Players[i].Direction = DIRECTION_DOWN; }
    000002DA DD 7E F9         [19]  830 	ld	a, -7 (ix)
    000002DD C6 0A            [ 7]  831 	add	a, #0x0a
    000002DF DD 77 FB         [19]  832 	ld	-5 (ix), a
    000002E2 DD 7E FA         [19]  833 	ld	a, -6 (ix)
    000002E5 CE 00            [ 7]  834 	adc	a, #0x00
    000002E7 DD 77 FC         [19]  835 	ld	-4 (ix), a
                                    836 ;E:\Dropbox\FAUSTO\SVILUPPI\MSX\CODE\C\MSXgl\projects\soccerlgSCC/soccerlg_s12_b3.c:82: if (g_Players[i].Y < 243) g_Players[i].Direction = DIRECTION_DOWN;
    000002EA DD 7E FD         [19]  837 	ld	a, -3 (ix)
    000002ED D6 F3            [ 7]  838 	sub	a, #0xf3
    000002EF DD 7E FE         [19]  839 	ld	a, -2 (ix)
    000002F2 DE 00            [ 7]  840 	sbc	a, #0x00
    000002F4 30 0B            [12]  841 	jr	NC, 00131$
    000002F6 DD 6E FB         [19]  842 	ld	l, -5 (ix)
    000002F9 DD 66 FC         [19]  843 	ld	h, -4 (ix)
    000002FC 36 05            [10]  844 	ld	(hl), #0x05
    000002FE C3r09r03         [10]  845 	jp	00132$
    00000301                        846 00131$:
                                    847 ;E:\Dropbox\FAUSTO\SVILUPPI\MSX\CODE\C\MSXgl\projects\soccerlgSCC/soccerlg_s12_b3.c:83: else g_Players[i].Direction = DIRECTION_UP;
    00000301 DD 6E FB         [19]  848 	ld	l, -5 (ix)
    00000304 DD 66 FC         [19]  849 	ld	h, -4 (ix)
    00000307 36 01            [10]  850 	ld	(hl), #0x01
    00000309                        851 00132$:
                                    852 ;E:\Dropbox\FAUSTO\SVILUPPI\MSX\CODE\C\MSXgl\projects\soccerlgSCC/soccerlg_s12_b3.c:84: g_Players[i].PatternId = (g_Players[i].Direction == DIRECTION_UP) ? PLAYER_POSE_BACK : PLAYER_POSE_FRONT;
    00000309 DD 7E F9         [19]  853 	ld	a, -7 (ix)
    0000030C C6 08            [ 7]  854 	add	a, #0x08
    0000030E DD 77 FD         [19]  855 	ld	-3 (ix), a
    00000311 DD 7E FA         [19]  856 	ld	a, -6 (ix)
    00000314 CE 00            [ 7]  857 	adc	a, #0x00
    00000316 DD 77 FE         [19]  858 	ld	-2 (ix), a
    00000319 DD 6E FB         [19]  859 	ld	l, -5 (ix)
    0000031C DD 66 FC         [19]  860 	ld	h, -4 (ix)
    0000031F 7E               [ 7]  861 	ld	a, (hl)
    00000320 3D               [ 4]  862 	dec	a
    00000321 20 0B            [12]  863 	jr	NZ, 00396$
    00000323 DD 36 FB 11      [19]  864 	ld	-5 (ix), #0x11
    00000327 DD 36 FC 00      [19]  865 	ld	-4 (ix), #0
    0000032B C3r36r03         [10]  866 	jp	00397$
    0000032E                        867 00396$:
    0000032E DD 36 FB 10      [19]  868 	ld	-5 (ix), #0x10
    00000332 DD 36 FC 00      [19]  869 	ld	-4 (ix), #0
    00000336                        870 00397$:
    00000336 DD 7E FB         [19]  871 	ld	a, -5 (ix)
    00000339 DD 6E FD         [19]  872 	ld	l, -3 (ix)
    0000033C DD 66 FE         [19]  873 	ld	h, -2 (ix)
    0000033F 77               [ 7]  874 	ld	(hl), a
    00000340                        875 00379$:
                                    876 ;E:\Dropbox\FAUSTO\SVILUPPI\MSX\CODE\C\MSXgl\projects\soccerlgSCC/soccerlg_s12_b3.c:69: for(u8 i=0; i<15; i++) {
    00000340 DD 34 FF         [23]  877 	inc	-1 (ix)
    00000343 C3rB4r01         [10]  878 	jp	00378$
    00000346                        879 00136$:
                                    880 ;E:\Dropbox\FAUSTO\SVILUPPI\MSX\CODE\C\MSXgl\projects\soccerlgSCC/soccerlg_s12_b3.c:87: CallFnc_VOID(6,UpdateSpritesPositions);
    00000346 11r00r00         [10]  881 	ld	de, #_UpdateSpritesPositions
    00000349 3E 06            [ 7]  882 	ld	a, #0x06
    0000034B CDr00r00         [17]  883 	call	_CallFnc_VOID
                                    884 ;E:\Dropbox\FAUSTO\SVILUPPI\MSX\CODE\C\MSXgl\projects\soccerlgSCC/soccerlg_s12_b3.c:88: V9990_WaitSynch();
    0000034E CDr00r00         [17]  885 	call	_V9990_WaitSynch
                                    886 ;E:\Dropbox\FAUSTO\SVILUPPI\MSX\CODE\C\MSXgl\projects\soccerlgSCC/soccerlg_s12_b3.c:89: if (allArrived) break;
    00000351 DD 7E F8         [19]  887 	ld	a, -8 (ix)
    00000354 B7               [ 4]  888 	or	a, a
    00000355 CArACr01         [10]  889 	jp	Z, 00140$
                                    890 ;E:\Dropbox\FAUSTO\SVILUPPI\MSX\CODE\C\MSXgl\projects\soccerlgSCC/soccerlg_s12_b3.c:92: g_MatchStatus = MATCH_PENALTY_SHOOTOUT;
    00000358 21r00r00         [10]  891 	ld	hl, #_g_MatchStatus
    0000035B 36 11            [10]  892 	ld	(hl), #0x11
                                    893 ;E:\Dropbox\FAUSTO\SVILUPPI\MSX\CODE\C\MSXgl\projects\soccerlgSCC/soccerlg_s12_b3.c:105: g_Ball.Size = 1;
    0000035D 21r04r00         [10]  894 	ld	hl, #(_g_Ball + 4)
    00000360 36 01            [10]  895 	ld	(hl), #0x01
                                    896 ;E:\Dropbox\FAUSTO\SVILUPPI\MSX\CODE\C\MSXgl\projects\soccerlgSCC/soccerlg_s12_b3.c:106: g_Ball.KickMoveState = 0; // Ensure no dribble offset interferes with Y
    00000362 21r0Dr00         [10]  897 	ld	hl, #(_g_Ball + 13)
    00000365 36 00            [10]  898 	ld	(hl), #0x00
                                    899 ;E:\Dropbox\FAUSTO\SVILUPPI\MSX\CODE\C\MSXgl\projects\soccerlgSCC/soccerlg_s12_b3.c:108: while(true) {
    00000367 DD 36 F7 04      [19]  900 	ld	-9 (ix), #0x04
    0000036B DD 36 F8 00      [19]  901 	ld	-8 (ix), #0x00
    0000036F DD 36 F9 00      [19]  902 	ld	-7 (ix), #0x00
    00000373 DD 36 FA 04      [19]  903 	ld	-6 (ix), #0x04
    00000377 DD 36 FB 00      [19]  904 	ld	-5 (ix), #0x00
    0000037B DD 36 FC 00      [19]  905 	ld	-4 (ix), #0x00
    0000037F DD 36 FD 00      [19]  906 	ld	-3 (ix), #0x00
    00000383                        907 00365$:
                                    908 ;E:\Dropbox\FAUSTO\SVILUPPI\MSX\CODE\C\MSXgl\projects\soccerlgSCC/soccerlg_s12_b3.c:109: V9990_WaitSynch();
    00000383 CDr00r00         [17]  909 	call	_V9990_WaitSynch
                                    910 ;E:\Dropbox\FAUSTO\SVILUPPI\MSX\CODE\C\MSXgl\projects\soccerlgSCC/soccerlg_s12_b3.c:112: if (turn < 10) {
    00000386 DD 7E FD         [19]  911 	ld	a, -3 (ix)
    00000389 D6 0A            [ 7]  912 	sub	a, #0x0a
    0000038B D2r37r04         [10]  913 	jp	NC, 00153$
                                    914 ;E:\Dropbox\FAUSTO\SVILUPPI\MSX\CODE\C\MSXgl\projects\soccerlgSCC/soccerlg_s12_b3.c:113: u8 rem1 = 5 - shots1;
    0000038E DD 4E FC         [19]  915 	ld	c, -4 (ix)
    00000391 3E 05            [ 7]  916 	ld	a, #0x05
    00000393 91               [ 4]  917 	sub	a, c
    00000394 DD 77 FF         [19]  918 	ld	-1 (ix), a
                                    919 ;E:\Dropbox\FAUSTO\SVILUPPI\MSX\CODE\C\MSXgl\projects\soccerlgSCC/soccerlg_s12_b3.c:114: u8 rem2 = 5 - shots2;
    00000397 DD 7E FB         [19]  920 	ld	a, -5 (ix)
    0000039A DD 77 FE         [19]  921 	ld	-2 (ix), a
    0000039D 3E 05            [ 7]  922 	ld	a, #0x05
    0000039F DD 96 FE         [19]  923 	sub	a, -2 (ix)
    000003A2 DD 77 FE         [19]  924 	ld	-2 (ix), a
                                    925 ;E:\Dropbox\FAUSTO\SVILUPPI\MSX\CODE\C\MSXgl\projects\soccerlgSCC/soccerlg_s12_b3.c:115: if (goals1 > goals2 + rem2) { CallFnc_VOID_P1(13,TeamVictory,TEAM_1); return; }
    000003A5 DD 7E F8         [19]  926 	ld	a, -8 (ix)
    000003A8 DD 77 F1         [19]  927 	ld	-15 (ix), a
    000003AB DD 36 F2 00      [19]  928 	ld	-14 (ix), #0x00
    000003AF DD 7E FE         [19]  929 	ld	a, -2 (ix)
    000003B2 DD 77 F3         [19]  930 	ld	-13 (ix), a
    000003B5 DD 36 F4 00      [19]  931 	ld	-12 (ix), #0x00
    000003B9 DD 7E F3         [19]  932 	ld	a, -13 (ix)
    000003BC DD 86 F1         [19]  933 	add	a, -15 (ix)
    000003BF DD 77 F5         [19]  934 	ld	-11 (ix), a
    000003C2 DD 7E F4         [19]  935 	ld	a, -12 (ix)
    000003C5 DD 8E F2         [19]  936 	adc	a, -14 (ix)
    000003C8 DD 77 F6         [19]  937 	ld	-10 (ix), a
    000003CB DD 7E F9         [19]  938 	ld	a, -7 (ix)
    000003CE DD 77 F3         [19]  939 	ld	-13 (ix), a
    000003D1 DD 36 F4 00      [19]  940 	ld	-12 (ix), #0x00
    000003D5 DD 7E F5         [19]  941 	ld	a, -11 (ix)
    000003D8 DD 96 F3         [19]  942 	sub	a, -13 (ix)
    000003DB DD 7E F6         [19]  943 	ld	a, -10 (ix)
    000003DE DD 9E F4         [19]  944 	sbc	a, -12 (ix)
    000003E1 E2rE6r03         [10]  945 	jp	PO, 01132$
    000003E4 EE 80            [ 7]  946 	xor	a, #0x80
    000003E6                        947 01132$:
    000003E6 F2rF8r03         [10]  948 	jp	P, 00143$
    000003E9 3E 01            [ 7]  949 	ld	a, #0x01
    000003EB F5               [11]  950 	push	af
    000003EC 33               [ 6]  951 	inc	sp
    000003ED 11r00r00         [10]  952 	ld	de, #_TeamVictory
    000003F0 3E 0D            [ 7]  953 	ld	a, #0x0d
    000003F2 CDr00r00         [17]  954 	call	_CallFnc_VOID_P1
    000003F5 C3r36r16         [10]  955 	jp	00392$
    000003F8                        956 00143$:
                                    957 ;E:\Dropbox\FAUSTO\SVILUPPI\MSX\CODE\C\MSXgl\projects\soccerlgSCC/soccerlg_s12_b3.c:116: if (goals2 > goals1 + rem1) { CallFnc_VOID_P1(13,TeamVictory,TEAM_2); return; }
    000003F8 DD 7E FF         [19]  958 	ld	a, -1 (ix)
    000003FB DD 77 F5         [19]  959 	ld	-11 (ix), a
    000003FE DD 36 F6 00      [19]  960 	ld	-10 (ix), #0x00
    00000402 DD 7E F5         [19]  961 	ld	a, -11 (ix)
    00000405 DD 86 F3         [19]  962 	add	a, -13 (ix)
    00000408 DD 77 FE         [19]  963 	ld	-2 (ix), a
    0000040B DD 7E F6         [19]  964 	ld	a, -10 (ix)
    0000040E DD 8E F4         [19]  965 	adc	a, -12 (ix)
    00000411 DD 77 FF         [19]  966 	ld	-1 (ix), a
    00000414 DD 7E FE         [19]  967 	ld	a, -2 (ix)
    00000417 DD 96 F1         [19]  968 	sub	a, -15 (ix)
    0000041A DD 7E FF         [19]  969 	ld	a, -1 (ix)
    0000041D DD 9E F2         [19]  970 	sbc	a, -14 (ix)
    00000420 E2r25r04         [10]  971 	jp	PO, 01133$
    00000423 EE 80            [ 7]  972 	xor	a, #0x80
    00000425                        973 01133$:
    00000425 F2r6Dr04         [10]  974 	jp	P, 00154$
    00000428 3E 02            [ 7]  975 	ld	a, #0x02
    0000042A F5               [11]  976 	push	af
    0000042B 33               [ 6]  977 	inc	sp
    0000042C 11r00r00         [10]  978 	ld	de, #_TeamVictory
    0000042F 3E 0D            [ 7]  979 	ld	a, #0x0d
    00000431 CDr00r00         [17]  980 	call	_CallFnc_VOID_P1
    00000434 C3r36r16         [10]  981 	jp	00392$
    00000437                        982 00153$:
                                    983 ;E:\Dropbox\FAUSTO\SVILUPPI\MSX\CODE\C\MSXgl\projects\soccerlgSCC/soccerlg_s12_b3.c:119: if (shots1 == shots2) {
    00000437 DD 7E FB         [19]  984 	ld	a, -5 (ix)
    0000043A DD 96 FC         [19]  985 	sub	a, -4 (ix)
    0000043D 20 2E            [12]  986 	jr	NZ, 00154$
                                    987 ;E:\Dropbox\FAUSTO\SVILUPPI\MSX\CODE\C\MSXgl\projects\soccerlgSCC/soccerlg_s12_b3.c:120: if (goals1 > goals2) { CallFnc_VOID_P1(13,TeamVictory,TEAM_1); return; }
    0000043F DD 7E F8         [19]  988 	ld	a, -8 (ix)
    00000442 DD 96 F9         [19]  989 	sub	a, -7 (ix)
    00000445 30 0F            [12]  990 	jr	NC, 00147$
    00000447 3E 01            [ 7]  991 	ld	a, #0x01
    00000449 F5               [11]  992 	push	af
    0000044A 33               [ 6]  993 	inc	sp
    0000044B 11r00r00         [10]  994 	ld	de, #_TeamVictory
    0000044E 3E 0D            [ 7]  995 	ld	a, #0x0d
    00000450 CDr00r00         [17]  996 	call	_CallFnc_VOID_P1
    00000453 C3r36r16         [10]  997 	jp	00392$
    00000456                        998 00147$:
                                    999 ;E:\Dropbox\FAUSTO\SVILUPPI\MSX\CODE\C\MSXgl\projects\soccerlgSCC/soccerlg_s12_b3.c:121: if (goals2 > goals1) { CallFnc_VOID_P1(13,TeamVictory,TEAM_2); return; }
    00000456 DD 7E F9         [19] 1000 	ld	a, -7 (ix)
    00000459 DD 96 F8         [19] 1001 	sub	a, -8 (ix)
    0000045C 30 0F            [12] 1002 	jr	NC, 00154$
    0000045E 3E 02            [ 7] 1003 	ld	a, #0x02
    00000460 F5               [11] 1004 	push	af
    00000461 33               [ 6] 1005 	inc	sp
    00000462 11r00r00         [10] 1006 	ld	de, #_TeamVictory
    00000465 3E 0D            [ 7] 1007 	ld	a, #0x0d
    00000467 CDr00r00         [17] 1008 	call	_CallFnc_VOID_P1
    0000046A C3r36r16         [10] 1009 	jp	00392$
    0000046D                       1010 00154$:
                                   1011 ;E:\Dropbox\FAUSTO\SVILUPPI\MSX\CODE\C\MSXgl\projects\soccerlgSCC/soccerlg_s12_b3.c:124: YSCC_PlayLoop(SCC_MODERN_PENALTIES_BIN_SEG, SCC_MODERN_PENALTIES_BIN_SIZE);
    0000046D 21 12 00         [10] 1012 	ld	hl, #0x0012
    00000470 E5               [11] 1013 	push	hl
    00000471 21 80 4D         [10] 1014 	ld	hl, #0x4d80
    00000474 E5               [11] 1015 	push	hl
    00000475 21 F4 01         [10] 1016 	ld	hl, #0x01f4
    00000478 CDr00r00         [17] 1017 	call	_YSCC_PlayLoop
                                   1018 ;E:\Dropbox\FAUSTO\SVILUPPI\MSX\CODE\C\MSXgl\projects\soccerlgSCC/soccerlg_s12_b3.c:127: u8 kickingTeam = (turn % 2 == 0) ? TEAM_1 : TEAM_2;
    0000047B DD 4E FD         [19] 1019 	ld	c, -3 (ix)
    0000047E 06 00            [ 7] 1020 	ld	b, #0x00
    00000480 CB 41            [ 8] 1021 	bit	0, c
    00000482 20 06            [12] 1022 	jr	NZ, 00398$
    00000484 11 01 00         [10] 1023 	ld	de, #0x0001
    00000487 C3r8Dr04         [10] 1024 	jp	00399$
    0000048A                       1025 00398$:
    0000048A 11 02 00         [10] 1026 	ld	de, #0x0002
    0000048D                       1027 00399$:
                                   1028 ;E:\Dropbox\FAUSTO\SVILUPPI\MSX\CODE\C\MSXgl\projects\soccerlgSCC/soccerlg_s12_b3.c:128: u8 gkTeam = (kickingTeam == TEAM_1) ? TEAM_2 : TEAM_1;
    0000048D 1D               [ 4] 1029 	dec	e
    0000048E 3E 01            [ 7] 1030 	ld	a, #0x01
    00000490 28 01            [12] 1031 	jr	Z, 01139$
    00000492 AF               [ 4] 1032 	xor	a, a
    00000493                       1033 01139$:
    00000493 DD 77 CB         [19] 1034 	ld	-53 (ix), a
    00000496 B7               [ 4] 1035 	or	a, a
    00000497 28 0B            [12] 1036 	jr	Z, 00400$
    00000499 DD 36 FE 02      [19] 1037 	ld	-2 (ix), #0x02
    0000049D DD 36 FF 00      [19] 1038 	ld	-1 (ix), #0
    000004A1 C3rACr04         [10] 1039 	jp	00401$
    000004A4                       1040 00400$:
    000004A4 DD 36 FE 01      [19] 1041 	ld	-2 (ix), #0x01
    000004A8 DD 36 FF 00      [19] 1042 	ld	-1 (ix), #0
    000004AC                       1043 00401$:
    000004AC DD 7E FE         [19] 1044 	ld	a, -2 (ix)
    000004AF DD 77 F6         [19] 1045 	ld	-10 (ix), a
                                   1046 ;E:\Dropbox\FAUSTO\SVILUPPI\MSX\CODE\C\MSXgl\projects\soccerlgSCC/soccerlg_s12_b3.c:134: u8 k = 8 + ((turn/2) % 6); // Team 1 players 8-13
    000004B2 78               [ 4] 1047 	ld	a, b
    000004B3 07               [ 4] 1048 	rlca
    000004B4 E6 01            [ 7] 1049 	and	a,#0x01
    000004B6 57               [ 4] 1050 	ld	d, a
                                   1051 ;E:\Dropbox\FAUSTO\SVILUPPI\MSX\CODE\C\MSXgl\projects\soccerlgSCC/soccerlg_s12_b3.c:133: if (kickingTeam == TEAM_1) {
    000004B7 DD 7E CB         [19] 1052 	ld	a, -53 (ix)
    000004BA B7               [ 4] 1053 	or	a, a
    000004BB 28 21            [12] 1054 	jr	Z, 00156$
                                   1055 ;E:\Dropbox\FAUSTO\SVILUPPI\MSX\CODE\C\MSXgl\projects\soccerlgSCC/soccerlg_s12_b3.c:134: u8 k = 8 + ((turn/2) % 6); // Team 1 players 8-13
    000004BD 59               [ 4] 1056 	ld	e, c
    000004BE 60               [ 4] 1057 	ld	h, b
                                   1058 ;	spillPairReg hl
                                   1059 ;	spillPairReg hl
    000004BF 7A               [ 4] 1060 	ld	a, d
    000004C0 B7               [ 4] 1061 	or	a, a
    000004C1 28 03            [12] 1062 	jr	Z, 00402$
    000004C3 03               [ 6] 1063 	inc	bc
    000004C4 59               [ 4] 1064 	ld	e, c
    000004C5 60               [ 4] 1065 	ld	h, b
                                   1066 ;	spillPairReg hl
                                   1067 ;	spillPairReg hl
    000004C6                       1068 00402$:
    000004C6 6B               [ 4] 1069 	ld	l, e
    000004C7 CB 2C            [ 8] 1070 	sra	h
    000004C9 CB 1D            [ 8] 1071 	rr	l
    000004CB 11 06 00         [10] 1072 	ld	de, #0x0006
    000004CE CDr00r00         [17] 1073 	call	__modsint
    000004D1 7B               [ 4] 1074 	ld	a, e
    000004D2 C6 08            [ 7] 1075 	add	a, #0x08
    000004D4 DD 77 CC         [19] 1076 	ld	-52 (ix), a
                                   1077 ;E:\Dropbox\FAUSTO\SVILUPPI\MSX\CODE\C\MSXgl\projects\soccerlgSCC/soccerlg_s12_b3.c:136: gkId = 0; // Team 2 GK
    000004D7 DD 36 CD 00      [19] 1078 	ld	-51 (ix), #0x00
    000004DB C3rFBr04         [10] 1079 	jp	00157$
    000004DE                       1080 00156$:
                                   1081 ;E:\Dropbox\FAUSTO\SVILUPPI\MSX\CODE\C\MSXgl\projects\soccerlgSCC/soccerlg_s12_b3.c:138: u8 k = 1 + ((turn/2) % 6); // Team 2 players 1-6
    000004DE 59               [ 4] 1082 	ld	e, c
    000004DF 60               [ 4] 1083 	ld	h, b
                                   1084 ;	spillPairReg hl
                                   1085 ;	spillPairReg hl
    000004E0 7A               [ 4] 1086 	ld	a, d
    000004E1 B7               [ 4] 1087 	or	a, a
    000004E2 28 03            [12] 1088 	jr	Z, 00403$
    000004E4 03               [ 6] 1089 	inc	bc
    000004E5 59               [ 4] 1090 	ld	e, c
    000004E6 60               [ 4] 1091 	ld	h, b
                                   1092 ;	spillPairReg hl
                                   1093 ;	spillPairReg hl
    000004E7                       1094 00403$:
    000004E7 6B               [ 4] 1095 	ld	l, e
    000004E8 CB 2C            [ 8] 1096 	sra	h
    000004EA CB 1D            [ 8] 1097 	rr	l
    000004EC 11 06 00         [10] 1098 	ld	de, #0x0006
    000004EF CDr00r00         [17] 1099 	call	__modsint
    000004F2 7B               [ 4] 1100 	ld	a, e
    000004F3 3C               [ 4] 1101 	inc	a
    000004F4 DD 77 CC         [19] 1102 	ld	-52 (ix), a
                                   1103 ;E:\Dropbox\FAUSTO\SVILUPPI\MSX\CODE\C\MSXgl\projects\soccerlgSCC/soccerlg_s12_b3.c:140: gkId = 7; // Team 1 GK
    000004F7 DD 36 CD 07      [19] 1104 	ld	-51 (ix), #0x07
    000004FB                       1105 00157$:
                                   1106 ;E:\Dropbox\FAUSTO\SVILUPPI\MSX\CODE\C\MSXgl\projects\soccerlgSCC/soccerlg_s12_b3.c:148: g_Players[kickerId].TargetX = kickSpotX;
    000004FB DD 4E CC         [19] 1107 	ld	c, -52 (ix)
    000004FE 06 00            [ 7] 1108 	ld	b, #0x00
    00000500 69               [ 4] 1109 	ld	l, c
    00000501 60               [ 4] 1110 	ld	h, b
    00000502 29               [11] 1111 	add	hl, hl
    00000503 29               [11] 1112 	add	hl, hl
    00000504 09               [11] 1113 	add	hl, bc
    00000505 29               [11] 1114 	add	hl, hl
    00000506 29               [11] 1115 	add	hl, hl
    00000507 09               [11] 1116 	add	hl, bc
    00000508 EB               [ 4] 1117 	ex	de, hl
    00000509 21r00r00         [10] 1118 	ld	hl, #_g_Players
    0000050C 19               [11] 1119 	add	hl, de
    0000050D DD 75 CE         [19] 1120 	ld	-50 (ix), l
    00000510 DD 74 CF         [19] 1121 	ld	-49 (ix), h
    00000513 DD 7E CE         [19] 1122 	ld	a, -50 (ix)
    00000516 C6 10            [ 7] 1123 	add	a, #0x10
    00000518 DD 77 D0         [19] 1124 	ld	-48 (ix), a
    0000051B DD 7E CF         [19] 1125 	ld	a, -49 (ix)
    0000051E CE 00            [ 7] 1126 	adc	a, #0x00
    00000520 DD 77 D1         [19] 1127 	ld	-47 (ix), a
    00000523 DD 6E D0         [19] 1128 	ld	l, -48 (ix)
    00000526 DD 66 D1         [19] 1129 	ld	h, -47 (ix)
    00000529 36 78            [10] 1130 	ld	(hl), #0x78
    0000052B 23               [ 6] 1131 	inc	hl
    0000052C 36 00            [10] 1132 	ld	(hl), #0x00
                                   1133 ;E:\Dropbox\FAUSTO\SVILUPPI\MSX\CODE\C\MSXgl\projects\soccerlgSCC/soccerlg_s12_b3.c:149: g_Players[kickerId].TargetY = kickSpotY + 6; // Player stands behind ball
    0000052E DD 7E CE         [19] 1134 	ld	a, -50 (ix)
    00000531 C6 0E            [ 7] 1135 	add	a, #0x0e
    00000533 DD 77 D2         [19] 1136 	ld	-46 (ix), a
    00000536 DD 7E CF         [19] 1137 	ld	a, -49 (ix)
    00000539 CE 00            [ 7] 1138 	adc	a, #0x00
    0000053B DD 77 D3         [19] 1139 	ld	-45 (ix), a
    0000053E DD 6E D2         [19] 1140 	ld	l, -46 (ix)
    00000541 DD 66 D3         [19] 1141 	ld	h, -45 (ix)
    00000544 36 67            [10] 1142 	ld	(hl), #0x67
    00000546 23               [ 6] 1143 	inc	hl
    00000547 36 00            [10] 1144 	ld	(hl), #0x00
                                   1145 ;E:\Dropbox\FAUSTO\SVILUPPI\MSX\CODE\C\MSXgl\projects\soccerlgSCC/soccerlg_s12_b3.c:150: g_Players[gkId].TargetX = kickSpotX;
    00000549 DD 4E CD         [19] 1146 	ld	c, -51 (ix)
    0000054C 06 00            [ 7] 1147 	ld	b, #0x00
    0000054E 69               [ 4] 1148 	ld	l, c
    0000054F 60               [ 4] 1149 	ld	h, b
    00000550 29               [11] 1150 	add	hl, hl
    00000551 29               [11] 1151 	add	hl, hl
    00000552 09               [11] 1152 	add	hl, bc
    00000553 29               [11] 1153 	add	hl, hl
    00000554 29               [11] 1154 	add	hl, hl
    00000555 09               [11] 1155 	add	hl, bc
    00000556 EB               [ 4] 1156 	ex	de, hl
    00000557 21r00r00         [10] 1157 	ld	hl, #_g_Players
    0000055A 19               [11] 1158 	add	hl, de
    0000055B DD 75 D4         [19] 1159 	ld	-44 (ix), l
    0000055E DD 74 D5         [19] 1160 	ld	-43 (ix), h
    00000561 DD 7E D4         [19] 1161 	ld	a, -44 (ix)
    00000564 C6 10            [ 7] 1162 	add	a, #0x10
    00000566 DD 77 D6         [19] 1163 	ld	-42 (ix), a
    00000569 DD 7E D5         [19] 1164 	ld	a, -43 (ix)
    0000056C CE 00            [ 7] 1165 	adc	a, #0x00
    0000056E DD 77 D7         [19] 1166 	ld	-41 (ix), a
    00000571 DD 6E D6         [19] 1167 	ld	l, -42 (ix)
    00000574 DD 66 D7         [19] 1168 	ld	h, -41 (ix)
    00000577 36 78            [10] 1169 	ld	(hl), #0x78
    00000579 23               [ 6] 1170 	inc	hl
    0000057A 36 00            [10] 1171 	ld	(hl), #0x00
                                   1172 ;E:\Dropbox\FAUSTO\SVILUPPI\MSX\CODE\C\MSXgl\projects\soccerlgSCC/soccerlg_s12_b3.c:151: g_Players[gkId].TargetY = gkSpotY;
    0000057C DD 7E D4         [19] 1173 	ld	a, -44 (ix)
    0000057F C6 0E            [ 7] 1174 	add	a, #0x0e
    00000581 DD 77 D8         [19] 1175 	ld	-40 (ix), a
    00000584 DD 7E D5         [19] 1176 	ld	a, -43 (ix)
    00000587 CE 00            [ 7] 1177 	adc	a, #0x00
    00000589 DD 77 D9         [19] 1178 	ld	-39 (ix), a
    0000058C DD 6E D8         [19] 1179 	ld	l, -40 (ix)
    0000058F DD 66 D9         [19] 1180 	ld	h, -39 (ix)
    00000592 36 36            [10] 1181 	ld	(hl), #0x36
    00000594 23               [ 6] 1182 	inc	hl
    00000595 36 00            [10] 1183 	ld	(hl), #0x00
                                   1184 ;E:\Dropbox\FAUSTO\SVILUPPI\MSX\CODE\C\MSXgl\projects\soccerlgSCC/soccerlg_s12_b3.c:154: g_Players[REFEREE].TargetX = 50;
    00000597 21 32 00         [10] 1185 	ld	hl, #0x0032
    0000059A 22r36r01         [16] 1186 	ld	((_g_Players + 310)), hl
                                   1187 ;E:\Dropbox\FAUSTO\SVILUPPI\MSX\CODE\C\MSXgl\projects\soccerlgSCC/soccerlg_s12_b3.c:155: g_Players[REFEREE].TargetY = kickSpotY; 
    0000059D 2E 61            [ 7] 1188 	ld	l, #0x61
    0000059F 22r34r01         [16] 1189 	ld	((_g_Players + 308)), hl
                                   1190 ;E:\Dropbox\FAUSTO\SVILUPPI\MSX\CODE\C\MSXgl\projects\soccerlgSCC/soccerlg_s12_b3.c:157: g_Players[kickerId].Status = PLAYER_STATUS_NONE;
    000005A2 DD 7E CE         [19] 1191 	ld	a, -50 (ix)
    000005A5 C6 12            [ 7] 1192 	add	a, #0x12
    000005A7 DD 77 DA         [19] 1193 	ld	-38 (ix), a
    000005AA DD 7E CF         [19] 1194 	ld	a, -49 (ix)
    000005AD CE 00            [ 7] 1195 	adc	a, #0x00
    000005AF DD 77 DB         [19] 1196 	ld	-37 (ix), a
    000005B2 DD 6E DA         [19] 1197 	ld	l, -38 (ix)
    000005B5 DD 66 DB         [19] 1198 	ld	h, -37 (ix)
    000005B8 AF               [ 4] 1199 	xor	a, a
    000005B9 77               [ 7] 1200 	ld	(hl), a
    000005BA 23               [ 6] 1201 	inc	hl
    000005BB 77               [ 7] 1202 	ld	(hl), a
                                   1203 ;E:\Dropbox\FAUSTO\SVILUPPI\MSX\CODE\C\MSXgl\projects\soccerlgSCC/soccerlg_s12_b3.c:158: g_Players[gkId].Status = PLAYER_STATUS_NONE;
    000005BC DD 7E D4         [19] 1204 	ld	a, -44 (ix)
    000005BF C6 12            [ 7] 1205 	add	a, #0x12
    000005C1 DD 77 DC         [19] 1206 	ld	-36 (ix), a
    000005C4 DD 7E D5         [19] 1207 	ld	a, -43 (ix)
    000005C7 CE 00            [ 7] 1208 	adc	a, #0x00
    000005C9 DD 77 DD         [19] 1209 	ld	-35 (ix), a
    000005CC DD 6E DC         [19] 1210 	ld	l, -36 (ix)
    000005CF DD 66 DD         [19] 1211 	ld	h, -35 (ix)
    000005D2 AF               [ 4] 1212 	xor	a, a
    000005D3 77               [ 7] 1213 	ld	(hl), a
    000005D4 23               [ 6] 1214 	inc	hl
    000005D5 77               [ 7] 1215 	ld	(hl), a
                                   1216 ;E:\Dropbox\FAUSTO\SVILUPPI\MSX\CODE\C\MSXgl\projects\soccerlgSCC/soccerlg_s12_b3.c:159: g_Players[REFEREE].Status = PLAYER_STATUS_NONE;
    000005D6 21 00 00         [10] 1217 	ld	hl, #0x0000
    000005D9 22r38r01         [16] 1218 	ld	((_g_Players + 312)), hl
                                   1219 ;E:\Dropbox\FAUSTO\SVILUPPI\MSX\CODE\C\MSXgl\projects\soccerlgSCC/soccerlg_s12_b3.c:162: g_Ball.PossessionPlayerId = NO_VALUE;
    000005DC 21r06r00         [10] 1220 	ld	hl, #(_g_Ball + 6)
    000005DF 36 FF            [10] 1221 	ld	(hl), #0xff
                                   1222 ;E:\Dropbox\FAUSTO\SVILUPPI\MSX\CODE\C\MSXgl\projects\soccerlgSCC/soccerlg_s12_b3.c:163: g_Ball.X = kickSpotX;
    000005E1 21 78 00         [10] 1223 	ld	hl, #0x0078
    000005E4 22r02r00         [16] 1224 	ld	((_g_Ball + 2)), hl
                                   1225 ;E:\Dropbox\FAUSTO\SVILUPPI\MSX\CODE\C\MSXgl\projects\soccerlgSCC/soccerlg_s12_b3.c:164: g_Ball.Y = kickSpotY; // Ball exactly on spot
    000005E7 2E 61            [ 7] 1226 	ld	l, #0x61
    000005E9 22r00r00         [16] 1227 	ld	(_g_Ball), hl
                                   1228 ;E:\Dropbox\FAUSTO\SVILUPPI\MSX\CODE\C\MSXgl\projects\soccerlgSCC/soccerlg_s12_b3.c:165: g_Ball.KickMoveState = 0;
    000005EC 21r0Dr00         [10] 1229 	ld	hl, #(_g_Ball + 13)
    000005EF 36 00            [10] 1230 	ld	(hl), #0x00
                                   1231 ;E:\Dropbox\FAUSTO\SVILUPPI\MSX\CODE\C\MSXgl\projects\soccerlgSCC/soccerlg_s12_b3.c:166: g_BallIsVisible=TRUE;
    000005F1 21r00r00         [10] 1232 	ld	hl, #_g_BallIsVisible
    000005F4 36 01            [10] 1233 	ld	(hl), #0x01
                                   1234 ;E:\Dropbox\FAUSTO\SVILUPPI\MSX\CODE\C\MSXgl\projects\soccerlgSCC/soccerlg_s12_b3.c:167: CallFnc_VOID(6,UpdateSpritesPositions);
    000005F6 11r00r00         [10] 1235 	ld	de, #_UpdateSpritesPositions
    000005F9 3E 06            [ 7] 1236 	ld	a, #0x06
    000005FB CDr00r00         [17] 1237 	call	_CallFnc_VOID
                                   1238 ;E:\Dropbox\FAUSTO\SVILUPPI\MSX\CODE\C\MSXgl\projects\soccerlgSCC/soccerlg_s12_b3.c:169: while(true) {
    000005FE                       1239 00203$:
                                   1240 ;E:\Dropbox\FAUSTO\SVILUPPI\MSX\CODE\C\MSXgl\projects\soccerlgSCC/soccerlg_s12_b3.c:170: V9990_WaitSynch();
    000005FE CDr00r00         [17] 1241 	call	_V9990_WaitSynch
                                   1242 ;E:\Dropbox\FAUSTO\SVILUPPI\MSX\CODE\C\MSXgl\projects\soccerlgSCC/soccerlg_s12_b3.c:173: bool kDone = true;
    00000601 DD 36 F1 01      [19] 1243 	ld	-15 (ix), #0x01
                                   1244 ;E:\Dropbox\FAUSTO\SVILUPPI\MSX\CODE\C\MSXgl\projects\soccerlgSCC/soccerlg_s12_b3.c:174: if (g_Players[kickerId].Y > g_Players[kickerId].TargetY) { g_Players[kickerId].Y--; kDone=false; g_Players[kickerId].Direction=DIRECTION_UP; }
    00000605 DD 6E CE         [19] 1245 	ld	l, -50 (ix)
    00000608 DD 66 CF         [19] 1246 	ld	h, -49 (ix)
    0000060B 7E               [ 7] 1247 	ld	a, (hl)
    0000060C DD 77 F4         [19] 1248 	ld	-12 (ix), a
    0000060F 23               [ 6] 1249 	inc	hl
    00000610 7E               [ 7] 1250 	ld	a, (hl)
    00000611 DD 77 F5         [19] 1251 	ld	-11 (ix), a
    00000614 DD 6E D2         [19] 1252 	ld	l, -46 (ix)
    00000617 DD 66 D3         [19] 1253 	ld	h, -45 (ix)
    0000061A 7E               [ 7] 1254 	ld	a, (hl)
    0000061B DD 77 FE         [19] 1255 	ld	-2 (ix), a
    0000061E 23               [ 6] 1256 	inc	hl
    0000061F 7E               [ 7] 1257 	ld	a, (hl)
    00000620 DD 77 FF         [19] 1258 	ld	-1 (ix), a
    00000623 DD 7E FE         [19] 1259 	ld	a, -2 (ix)
    00000626 DD 96 F4         [19] 1260 	sub	a, -12 (ix)
    00000629 DD 7E FF         [19] 1261 	ld	a, -1 (ix)
    0000062C DD 9E F5         [19] 1262 	sbc	a, -11 (ix)
    0000062F 30 3E            [12] 1263 	jr	NC, 00161$
    00000631 DD 7E F4         [19] 1264 	ld	a, -12 (ix)
    00000634 C6 FF            [ 7] 1265 	add	a, #0xff
    00000636 DD 77 FE         [19] 1266 	ld	-2 (ix), a
    00000639 DD 7E F5         [19] 1267 	ld	a, -11 (ix)
    0000063C CE FF            [ 7] 1268 	adc	a, #0xff
    0000063E DD 77 FF         [19] 1269 	ld	-1 (ix), a
    00000641 DD 6E CE         [19] 1270 	ld	l, -50 (ix)
    00000644 DD 66 CF         [19] 1271 	ld	h, -49 (ix)
    00000647 DD 7E FE         [19] 1272 	ld	a, -2 (ix)
    0000064A 77               [ 7] 1273 	ld	(hl), a
    0000064B 23               [ 6] 1274 	inc	hl
    0000064C DD 7E FF         [19] 1275 	ld	a, -1 (ix)
    0000064F 77               [ 7] 1276 	ld	(hl), a
    00000650 DD 36 F1 00      [19] 1277 	ld	-15 (ix), #0x00
    00000654 DD 7E CE         [19] 1278 	ld	a, -50 (ix)
    00000657 C6 0A            [ 7] 1279 	add	a, #0x0a
    00000659 DD 77 FE         [19] 1280 	ld	-2 (ix), a
    0000065C DD 7E CF         [19] 1281 	ld	a, -49 (ix)
    0000065F CE 00            [ 7] 1282 	adc	a, #0x00
    00000661 DD 77 FF         [19] 1283 	ld	-1 (ix), a
    00000664 DD 6E FE         [19] 1284 	ld	l, -2 (ix)
    00000667 DD 66 FF         [19] 1285 	ld	h, -1 (ix)
    0000066A 36 01            [10] 1286 	ld	(hl), #0x01
    0000066C C3r9Dr06         [10] 1287 	jp	00162$
    0000066F                       1288 00161$:
                                   1289 ;E:\Dropbox\FAUSTO\SVILUPPI\MSX\CODE\C\MSXgl\projects\soccerlgSCC/soccerlg_s12_b3.c:175: else if (g_Players[kickerId].Y < g_Players[kickerId].TargetY) { g_Players[kickerId].Y++; kDone=false; g_Players[kickerId].Direction=DIRECTION_DOWN; }
    0000066F DD 7E F4         [19] 1290 	ld	a, -12 (ix)
    00000672 DD 96 FE         [19] 1291 	sub	a, -2 (ix)
    00000675 DD 7E F5         [19] 1292 	ld	a, -11 (ix)
    00000678 DD 9E FF         [19] 1293 	sbc	a, -1 (ix)
    0000067B 30 20            [12] 1294 	jr	NC, 00162$
    0000067D DD 4E F4         [19] 1295 	ld	c, -12 (ix)
    00000680 DD 46 F5         [19] 1296 	ld	b, -11 (ix)
    00000683 03               [ 6] 1297 	inc	bc
    00000684 DD 6E CE         [19] 1298 	ld	l, -50 (ix)
    00000687 DD 66 CF         [19] 1299 	ld	h, -49 (ix)
    0000068A 71               [ 7] 1300 	ld	(hl), c
    0000068B 23               [ 6] 1301 	inc	hl
    0000068C 70               [ 7] 1302 	ld	(hl), b
    0000068D DD 36 F1 00      [19] 1303 	ld	-15 (ix), #0x00
    00000691 DD 6E CE         [19] 1304 	ld	l, -50 (ix)
    00000694 DD 66 CF         [19] 1305 	ld	h, -49 (ix)
    00000697 11 0A 00         [10] 1306 	ld	de, #0x000a
    0000069A 19               [11] 1307 	add	hl, de
    0000069B 36 05            [10] 1308 	ld	(hl), #0x05
    0000069D                       1309 00162$:
                                   1310 ;E:\Dropbox\FAUSTO\SVILUPPI\MSX\CODE\C\MSXgl\projects\soccerlgSCC/soccerlg_s12_b3.c:177: if (g_Players[kickerId].X > g_Players[kickerId].TargetX) { g_Players[kickerId].X--; kDone=false; g_Players[kickerId].Direction=DIRECTION_LEFT; }
    0000069D DD 7E CE         [19] 1311 	ld	a, -50 (ix)
    000006A0 C6 02            [ 7] 1312 	add	a, #0x02
    000006A2 DD 77 DE         [19] 1313 	ld	-34 (ix), a
    000006A5 DD 7E CF         [19] 1314 	ld	a, -49 (ix)
    000006A8 CE 00            [ 7] 1315 	adc	a, #0x00
    000006AA DD 77 DF         [19] 1316 	ld	-33 (ix), a
    000006AD DD 6E DE         [19] 1317 	ld	l, -34 (ix)
    000006B0 DD 66 DF         [19] 1318 	ld	h, -33 (ix)
    000006B3 7E               [ 7] 1319 	ld	a, (hl)
    000006B4 DD 77 F4         [19] 1320 	ld	-12 (ix), a
    000006B7 23               [ 6] 1321 	inc	hl
    000006B8 7E               [ 7] 1322 	ld	a, (hl)
    000006B9 DD 77 F5         [19] 1323 	ld	-11 (ix), a
    000006BC DD 6E D0         [19] 1324 	ld	l, -48 (ix)
    000006BF DD 66 D1         [19] 1325 	ld	h, -47 (ix)
    000006C2 7E               [ 7] 1326 	ld	a, (hl)
    000006C3 DD 77 FE         [19] 1327 	ld	-2 (ix), a
    000006C6 23               [ 6] 1328 	inc	hl
    000006C7 7E               [ 7] 1329 	ld	a, (hl)
    000006C8 DD 77 FF         [19] 1330 	ld	-1 (ix), a
    000006CB DD 7E FE         [19] 1331 	ld	a, -2 (ix)
    000006CE DD 96 F4         [19] 1332 	sub	a, -12 (ix)
    000006D1 DD 7E FF         [19] 1333 	ld	a, -1 (ix)
    000006D4 DD 9E F5         [19] 1334 	sbc	a, -11 (ix)
    000006D7 30 3E            [12] 1335 	jr	NC, 00166$
    000006D9 DD 7E F4         [19] 1336 	ld	a, -12 (ix)
    000006DC C6 FF            [ 7] 1337 	add	a, #0xff
    000006DE DD 77 FE         [19] 1338 	ld	-2 (ix), a
    000006E1 DD 7E F5         [19] 1339 	ld	a, -11 (ix)
    000006E4 CE FF            [ 7] 1340 	adc	a, #0xff
    000006E6 DD 77 FF         [19] 1341 	ld	-1 (ix), a
    000006E9 DD 6E DE         [19] 1342 	ld	l, -34 (ix)
    000006EC DD 66 DF         [19] 1343 	ld	h, -33 (ix)
    000006EF DD 7E FE         [19] 1344 	ld	a, -2 (ix)
    000006F2 77               [ 7] 1345 	ld	(hl), a
    000006F3 23               [ 6] 1346 	inc	hl
    000006F4 DD 7E FF         [19] 1347 	ld	a, -1 (ix)
    000006F7 77               [ 7] 1348 	ld	(hl), a
    000006F8 DD 36 F1 00      [19] 1349 	ld	-15 (ix), #0x00
    000006FC DD 7E CE         [19] 1350 	ld	a, -50 (ix)
    000006FF C6 0A            [ 7] 1351 	add	a, #0x0a
    00000701 DD 77 FE         [19] 1352 	ld	-2 (ix), a
    00000704 DD 7E CF         [19] 1353 	ld	a, -49 (ix)
    00000707 CE 00            [ 7] 1354 	adc	a, #0x00
    00000709 DD 77 FF         [19] 1355 	ld	-1 (ix), a
    0000070C DD 6E FE         [19] 1356 	ld	l, -2 (ix)
    0000070F DD 66 FF         [19] 1357 	ld	h, -1 (ix)
    00000712 36 07            [10] 1358 	ld	(hl), #0x07
    00000714 C3r45r07         [10] 1359 	jp	00167$
    00000717                       1360 00166$:
                                   1361 ;E:\Dropbox\FAUSTO\SVILUPPI\MSX\CODE\C\MSXgl\projects\soccerlgSCC/soccerlg_s12_b3.c:178: else if (g_Players[kickerId].X < g_Players[kickerId].TargetX) { g_Players[kickerId].X++; kDone=false; g_Players[kickerId].Direction=DIRECTION_RIGHT; }
    00000717 DD 7E F4         [19] 1362 	ld	a, -12 (ix)
    0000071A DD 96 FE         [19] 1363 	sub	a, -2 (ix)
    0000071D DD 7E F5         [19] 1364 	ld	a, -11 (ix)
    00000720 DD 9E FF         [19] 1365 	sbc	a, -1 (ix)
    00000723 30 20            [12] 1366 	jr	NC, 00167$
    00000725 DD 4E F4         [19] 1367 	ld	c, -12 (ix)
    00000728 DD 46 F5         [19] 1368 	ld	b, -11 (ix)
    0000072B 03               [ 6] 1369 	inc	bc
    0000072C DD 6E DE         [19] 1370 	ld	l, -34 (ix)
    0000072F DD 66 DF         [19] 1371 	ld	h, -33 (ix)
    00000732 71               [ 7] 1372 	ld	(hl), c
    00000733 23               [ 6] 1373 	inc	hl
    00000734 70               [ 7] 1374 	ld	(hl), b
    00000735 DD 36 F1 00      [19] 1375 	ld	-15 (ix), #0x00
    00000739 DD 6E CE         [19] 1376 	ld	l, -50 (ix)
    0000073C DD 66 CF         [19] 1377 	ld	h, -49 (ix)
    0000073F 11 0A 00         [10] 1378 	ld	de, #0x000a
    00000742 19               [11] 1379 	add	hl, de
    00000743 36 03            [10] 1380 	ld	(hl), #0x03
    00000745                       1381 00167$:
                                   1382 ;E:\Dropbox\FAUSTO\SVILUPPI\MSX\CODE\C\MSXgl\projects\soccerlgSCC/soccerlg_s12_b3.c:181: bool gDone = true;
    00000745 DD 36 F2 01      [19] 1383 	ld	-14 (ix), #0x01
                                   1384 ;E:\Dropbox\FAUSTO\SVILUPPI\MSX\CODE\C\MSXgl\projects\soccerlgSCC/soccerlg_s12_b3.c:182: if (g_Players[gkId].Y > g_Players[gkId].TargetY) { g_Players[gkId].Y--; gDone=false; g_Players[gkId].Direction=DIRECTION_UP; }
    00000749 DD 6E D4         [19] 1385 	ld	l, -44 (ix)
    0000074C DD 66 D5         [19] 1386 	ld	h, -43 (ix)
    0000074F 7E               [ 7] 1387 	ld	a, (hl)
    00000750 DD 77 F4         [19] 1388 	ld	-12 (ix), a
    00000753 23               [ 6] 1389 	inc	hl
    00000754 7E               [ 7] 1390 	ld	a, (hl)
    00000755 DD 77 F5         [19] 1391 	ld	-11 (ix), a
    00000758 DD 6E D8         [19] 1392 	ld	l, -40 (ix)
    0000075B DD 66 D9         [19] 1393 	ld	h, -39 (ix)
    0000075E 7E               [ 7] 1394 	ld	a, (hl)
    0000075F DD 77 FE         [19] 1395 	ld	-2 (ix), a
    00000762 23               [ 6] 1396 	inc	hl
    00000763 7E               [ 7] 1397 	ld	a, (hl)
    00000764 DD 77 FF         [19] 1398 	ld	-1 (ix), a
    00000767 DD 7E FE         [19] 1399 	ld	a, -2 (ix)
    0000076A DD 96 F4         [19] 1400 	sub	a, -12 (ix)
    0000076D DD 7E FF         [19] 1401 	ld	a, -1 (ix)
    00000770 DD 9E F5         [19] 1402 	sbc	a, -11 (ix)
    00000773 30 3E            [12] 1403 	jr	NC, 00171$
    00000775 DD 7E F4         [19] 1404 	ld	a, -12 (ix)
    00000778 C6 FF            [ 7] 1405 	add	a, #0xff
    0000077A DD 77 FE         [19] 1406 	ld	-2 (ix), a
    0000077D DD 7E F5         [19] 1407 	ld	a, -11 (ix)
    00000780 CE FF            [ 7] 1408 	adc	a, #0xff
    00000782 DD 77 FF         [19] 1409 	ld	-1 (ix), a
    00000785 DD 6E D4         [19] 1410 	ld	l, -44 (ix)
    00000788 DD 66 D5         [19] 1411 	ld	h, -43 (ix)
    0000078B DD 7E FE         [19] 1412 	ld	a, -2 (ix)
    0000078E 77               [ 7] 1413 	ld	(hl), a
    0000078F 23               [ 6] 1414 	inc	hl
    00000790 DD 7E FF         [19] 1415 	ld	a, -1 (ix)
    00000793 77               [ 7] 1416 	ld	(hl), a
    00000794 DD 36 F2 00      [19] 1417 	ld	-14 (ix), #0x00
    00000798 DD 7E D4         [19] 1418 	ld	a, -44 (ix)
    0000079B C6 0A            [ 7] 1419 	add	a, #0x0a
    0000079D DD 77 FE         [19] 1420 	ld	-2 (ix), a
    000007A0 DD 7E D5         [19] 1421 	ld	a, -43 (ix)
    000007A3 CE 00            [ 7] 1422 	adc	a, #0x00
    000007A5 DD 77 FF         [19] 1423 	ld	-1 (ix), a
    000007A8 DD 6E FE         [19] 1424 	ld	l, -2 (ix)
    000007AB DD 66 FF         [19] 1425 	ld	h, -1 (ix)
    000007AE 36 01            [10] 1426 	ld	(hl), #0x01
    000007B0 C3rE1r07         [10] 1427 	jp	00172$
    000007B3                       1428 00171$:
                                   1429 ;E:\Dropbox\FAUSTO\SVILUPPI\MSX\CODE\C\MSXgl\projects\soccerlgSCC/soccerlg_s12_b3.c:183: else if (g_Players[gkId].Y < g_Players[gkId].TargetY) { g_Players[gkId].Y++; gDone=false; g_Players[gkId].Direction=DIRECTION_DOWN; }
    000007B3 DD 7E F4         [19] 1430 	ld	a, -12 (ix)
    000007B6 DD 96 FE         [19] 1431 	sub	a, -2 (ix)
    000007B9 DD 7E F5         [19] 1432 	ld	a, -11 (ix)
    000007BC DD 9E FF         [19] 1433 	sbc	a, -1 (ix)
    000007BF 30 20            [12] 1434 	jr	NC, 00172$
    000007C1 DD 4E F4         [19] 1435 	ld	c, -12 (ix)
    000007C4 DD 46 F5         [19] 1436 	ld	b, -11 (ix)
    000007C7 03               [ 6] 1437 	inc	bc
    000007C8 DD 6E D4         [19] 1438 	ld	l, -44 (ix)
    000007CB DD 66 D5         [19] 1439 	ld	h, -43 (ix)
    000007CE 71               [ 7] 1440 	ld	(hl), c
    000007CF 23               [ 6] 1441 	inc	hl
    000007D0 70               [ 7] 1442 	ld	(hl), b
    000007D1 DD 36 F2 00      [19] 1443 	ld	-14 (ix), #0x00
    000007D5 DD 6E D4         [19] 1444 	ld	l, -44 (ix)
    000007D8 DD 66 D5         [19] 1445 	ld	h, -43 (ix)
    000007DB 11 0A 00         [10] 1446 	ld	de, #0x000a
    000007DE 19               [11] 1447 	add	hl, de
    000007DF 36 05            [10] 1448 	ld	(hl), #0x05
    000007E1                       1449 00172$:
                                   1450 ;E:\Dropbox\FAUSTO\SVILUPPI\MSX\CODE\C\MSXgl\projects\soccerlgSCC/soccerlg_s12_b3.c:185: if (g_Players[gkId].X > g_Players[gkId].TargetX) { g_Players[gkId].X--; gDone=false; g_Players[gkId].Direction=DIRECTION_LEFT; }
    000007E1 DD 7E D4         [19] 1451 	ld	a, -44 (ix)
    000007E4 C6 02            [ 7] 1452 	add	a, #0x02
    000007E6 DD 77 E0         [19] 1453 	ld	-32 (ix), a
    000007E9 DD 7E D5         [19] 1454 	ld	a, -43 (ix)
    000007EC CE 00            [ 7] 1455 	adc	a, #0x00
    000007EE DD 77 E1         [19] 1456 	ld	-31 (ix), a
    000007F1 DD 6E E0         [19] 1457 	ld	l, -32 (ix)
    000007F4 DD 66 E1         [19] 1458 	ld	h, -31 (ix)
    000007F7 7E               [ 7] 1459 	ld	a, (hl)
    000007F8 DD 77 F4         [19] 1460 	ld	-12 (ix), a
    000007FB 23               [ 6] 1461 	inc	hl
    000007FC 7E               [ 7] 1462 	ld	a, (hl)
    000007FD DD 77 F5         [19] 1463 	ld	-11 (ix), a
    00000800 DD 6E D6         [19] 1464 	ld	l, -42 (ix)
    00000803 DD 66 D7         [19] 1465 	ld	h, -41 (ix)
    00000806 7E               [ 7] 1466 	ld	a, (hl)
    00000807 DD 77 FE         [19] 1467 	ld	-2 (ix), a
    0000080A 23               [ 6] 1468 	inc	hl
    0000080B 7E               [ 7] 1469 	ld	a, (hl)
    0000080C DD 77 FF         [19] 1470 	ld	-1 (ix), a
    0000080F DD 7E FE         [19] 1471 	ld	a, -2 (ix)
    00000812 DD 96 F4         [19] 1472 	sub	a, -12 (ix)
    00000815 DD 7E FF         [19] 1473 	ld	a, -1 (ix)
    00000818 DD 9E F5         [19] 1474 	sbc	a, -11 (ix)
    0000081B 30 3E            [12] 1475 	jr	NC, 00176$
    0000081D DD 7E F4         [19] 1476 	ld	a, -12 (ix)
    00000820 C6 FF            [ 7] 1477 	add	a, #0xff
    00000822 DD 77 FE         [19] 1478 	ld	-2 (ix), a
    00000825 DD 7E F5         [19] 1479 	ld	a, -11 (ix)
    00000828 CE FF            [ 7] 1480 	adc	a, #0xff
    0000082A DD 77 FF         [19] 1481 	ld	-1 (ix), a
    0000082D DD 6E E0         [19] 1482 	ld	l, -32 (ix)
    00000830 DD 66 E1         [19] 1483 	ld	h, -31 (ix)
    00000833 DD 7E FE         [19] 1484 	ld	a, -2 (ix)
    00000836 77               [ 7] 1485 	ld	(hl), a
    00000837 23               [ 6] 1486 	inc	hl
    00000838 DD 7E FF         [19] 1487 	ld	a, -1 (ix)
    0000083B 77               [ 7] 1488 	ld	(hl), a
    0000083C DD 36 F2 00      [19] 1489 	ld	-14 (ix), #0x00
    00000840 DD 7E D4         [19] 1490 	ld	a, -44 (ix)
    00000843 C6 0A            [ 7] 1491 	add	a, #0x0a
    00000845 DD 77 FE         [19] 1492 	ld	-2 (ix), a
    00000848 DD 7E D5         [19] 1493 	ld	a, -43 (ix)
    0000084B CE 00            [ 7] 1494 	adc	a, #0x00
    0000084D DD 77 FF         [19] 1495 	ld	-1 (ix), a
    00000850 DD 6E FE         [19] 1496 	ld	l, -2 (ix)
    00000853 DD 66 FF         [19] 1497 	ld	h, -1 (ix)
    00000856 36 07            [10] 1498 	ld	(hl), #0x07
    00000858 C3r89r08         [10] 1499 	jp	00177$
    0000085B                       1500 00176$:
                                   1501 ;E:\Dropbox\FAUSTO\SVILUPPI\MSX\CODE\C\MSXgl\projects\soccerlgSCC/soccerlg_s12_b3.c:186: else if (g_Players[gkId].X < g_Players[gkId].TargetX) { g_Players[gkId].X++; gDone=false; g_Players[gkId].Direction=DIRECTION_RIGHT; }
    0000085B DD 7E F4         [19] 1502 	ld	a, -12 (ix)
    0000085E DD 96 FE         [19] 1503 	sub	a, -2 (ix)
    00000861 DD 7E F5         [19] 1504 	ld	a, -11 (ix)
    00000864 DD 9E FF         [19] 1505 	sbc	a, -1 (ix)
    00000867 30 20            [12] 1506 	jr	NC, 00177$
    00000869 DD 4E F4         [19] 1507 	ld	c, -12 (ix)
    0000086C DD 46 F5         [19] 1508 	ld	b, -11 (ix)
    0000086F 03               [ 6] 1509 	inc	bc
    00000870 DD 6E E0         [19] 1510 	ld	l, -32 (ix)
    00000873 DD 66 E1         [19] 1511 	ld	h, -31 (ix)
    00000876 71               [ 7] 1512 	ld	(hl), c
    00000877 23               [ 6] 1513 	inc	hl
    00000878 70               [ 7] 1514 	ld	(hl), b
    00000879 DD 36 F2 00      [19] 1515 	ld	-14 (ix), #0x00
    0000087D DD 6E D4         [19] 1516 	ld	l, -44 (ix)
    00000880 DD 66 D5         [19] 1517 	ld	h, -43 (ix)
    00000883 11 0A 00         [10] 1518 	ld	de, #0x000a
    00000886 19               [11] 1519 	add	hl, de
    00000887 36 03            [10] 1520 	ld	(hl), #0x03
    00000889                       1521 00177$:
                                   1522 ;E:\Dropbox\FAUSTO\SVILUPPI\MSX\CODE\C\MSXgl\projects\soccerlgSCC/soccerlg_s12_b3.c:189: bool rDone = true;
    00000889 DD 36 F3 01      [19] 1523 	ld	-13 (ix), #0x01
                                   1524 ;E:\Dropbox\FAUSTO\SVILUPPI\MSX\CODE\C\MSXgl\projects\soccerlgSCC/soccerlg_s12_b3.c:190: if (g_Players[REFEREE].Y > g_Players[REFEREE].TargetY) { g_Players[REFEREE].Y--; rDone=false; g_Players[REFEREE].Direction=DIRECTION_UP; }
    0000088D 21r26r01         [10] 1525 	ld	hl, #(_g_Players + 294)
    00000890 7E               [ 7] 1526 	ld	a, (hl)
    00000891 DD 77 F4         [19] 1527 	ld	-12 (ix), a
    00000894 23               [ 6] 1528 	inc	hl
    00000895 7E               [ 7] 1529 	ld	a, (hl)
    00000896 DD 77 F5         [19] 1530 	ld	-11 (ix), a
    00000899 21r34r01         [10] 1531 	ld	hl, #(_g_Players + 308)
    0000089C 7E               [ 7] 1532 	ld	a, (hl)
    0000089D DD 77 FE         [19] 1533 	ld	-2 (ix), a
    000008A0 23               [ 6] 1534 	inc	hl
    000008A1 7E               [ 7] 1535 	ld	a, (hl)
    000008A2 DD 77 FF         [19] 1536 	ld	-1 (ix), a
    000008A5 DD 7E FE         [19] 1537 	ld	a, -2 (ix)
    000008A8 DD 96 F4         [19] 1538 	sub	a, -12 (ix)
    000008AB DD 7E FF         [19] 1539 	ld	a, -1 (ix)
    000008AE DD 9E F5         [19] 1540 	sbc	a, -11 (ix)
    000008B1 30 28            [12] 1541 	jr	NC, 00181$
    000008B3 DD 7E F4         [19] 1542 	ld	a, -12 (ix)
    000008B6 C6 FF            [ 7] 1543 	add	a, #0xff
    000008B8 DD 77 FE         [19] 1544 	ld	-2 (ix), a
    000008BB DD 7E F5         [19] 1545 	ld	a, -11 (ix)
    000008BE CE FF            [ 7] 1546 	adc	a, #0xff
    000008C0 DD 77 FF         [19] 1547 	ld	-1 (ix), a
    000008C3 21r26r01         [10] 1548 	ld	hl, #(_g_Players + 294)
    000008C6 DD 7E FE         [19] 1549 	ld	a, -2 (ix)
    000008C9 77               [ 7] 1550 	ld	(hl), a
    000008CA 23               [ 6] 1551 	inc	hl
    000008CB DD 7E FF         [19] 1552 	ld	a, -1 (ix)
    000008CE 77               [ 7] 1553 	ld	(hl), a
    000008CF DD 36 F3 00      [19] 1554 	ld	-13 (ix), #0x00
    000008D3 21r30r01         [10] 1555 	ld	hl, #(_g_Players + 304)
    000008D6 36 01            [10] 1556 	ld	(hl), #0x01
    000008D8 C3rFDr08         [10] 1557 	jp	00182$
    000008DB                       1558 00181$:
                                   1559 ;E:\Dropbox\FAUSTO\SVILUPPI\MSX\CODE\C\MSXgl\projects\soccerlgSCC/soccerlg_s12_b3.c:191: else if (g_Players[REFEREE].Y < g_Players[REFEREE].TargetY) { g_Players[REFEREE].Y++; rDone=false; g_Players[REFEREE].Direction=DIRECTION_DOWN; }
    000008DB DD 7E F4         [19] 1560 	ld	a, -12 (ix)
    000008DE DD 96 FE         [19] 1561 	sub	a, -2 (ix)
    000008E1 DD 7E F5         [19] 1562 	ld	a, -11 (ix)
    000008E4 DD 9E FF         [19] 1563 	sbc	a, -1 (ix)
    000008E7 30 14            [12] 1564 	jr	NC, 00182$
    000008E9 DD 4E F4         [19] 1565 	ld	c, -12 (ix)
    000008EC DD 46 F5         [19] 1566 	ld	b, -11 (ix)
    000008EF 03               [ 6] 1567 	inc	bc
    000008F0 ED 43r26r01      [20] 1568 	ld	((_g_Players + 294)), bc
    000008F4 DD 36 F3 00      [19] 1569 	ld	-13 (ix), #0x00
    000008F8 21r30r01         [10] 1570 	ld	hl, #(_g_Players + 304)
    000008FB 36 05            [10] 1571 	ld	(hl), #0x05
    000008FD                       1572 00182$:
                                   1573 ;E:\Dropbox\FAUSTO\SVILUPPI\MSX\CODE\C\MSXgl\projects\soccerlgSCC/soccerlg_s12_b3.c:193: if (g_Players[REFEREE].X > g_Players[REFEREE].TargetX) { g_Players[REFEREE].X--; rDone=false; g_Players[REFEREE].Direction=DIRECTION_LEFT; }
    000008FD ED 5Br28r01      [20] 1574 	ld	de, (#(_g_Players + 296) + 0)
    00000901 2Ar36r01         [16] 1575 	ld	hl, (#(_g_Players + 310) + 0)
    00000904 7D               [ 4] 1576 	ld	a, l
    00000905 93               [ 4] 1577 	sub	a, e
    00000906 7C               [ 4] 1578 	ld	a, h
    00000907 9A               [ 4] 1579 	sbc	a, d
    00000908 30 11            [12] 1580 	jr	NC, 00186$
    0000090A 1B               [ 6] 1581 	dec	de
    0000090B ED 53r28r01      [20] 1582 	ld	((_g_Players + 296)), de
    0000090F DD 36 F3 00      [19] 1583 	ld	-13 (ix), #0x00
    00000913 21r30r01         [10] 1584 	ld	hl, #(_g_Players + 304)
    00000916 36 07            [10] 1585 	ld	(hl), #0x07
    00000918 C3r2Fr09         [10] 1586 	jp	00187$
    0000091B                       1587 00186$:
                                   1588 ;E:\Dropbox\FAUSTO\SVILUPPI\MSX\CODE\C\MSXgl\projects\soccerlgSCC/soccerlg_s12_b3.c:194: else if (g_Players[REFEREE].X < g_Players[REFEREE].TargetX) { g_Players[REFEREE].X++; rDone=false; g_Players[REFEREE].Direction=DIRECTION_RIGHT; }
    0000091B 7B               [ 4] 1589 	ld	a, e
    0000091C 95               [ 4] 1590 	sub	a, l
    0000091D 7A               [ 4] 1591 	ld	a, d
    0000091E 9C               [ 4] 1592 	sbc	a, h
    0000091F 30 0E            [12] 1593 	jr	NC, 00187$
    00000921 13               [ 6] 1594 	inc	de
    00000922 ED 53r28r01      [20] 1595 	ld	((_g_Players + 296)), de
    00000926 DD 36 F3 00      [19] 1596 	ld	-13 (ix), #0x00
    0000092A 21r30r01         [10] 1597 	ld	hl, #(_g_Players + 304)
    0000092D 36 03            [10] 1598 	ld	(hl), #0x03
    0000092F                       1599 00187$:
                                   1600 ;E:\Dropbox\FAUSTO\SVILUPPI\MSX\CODE\C\MSXgl\projects\soccerlgSCC/soccerlg_s12_b3.c:197: u16 animStatus = ((g_FrameCounter % 8) == 0) ? PLAYER_STATUS_NONE : PLAYER_STATUS_POSITIONED;
    0000092F 3Ar00r00         [13] 1601 	ld	a, (_g_FrameCounter+0)
    00000932 E6 07            [ 7] 1602 	and	a, #0x07
    00000934 20 06            [12] 1603 	jr	NZ, 00404$
    00000936 01 00 00         [10] 1604 	ld	bc, #0x0000
    00000939 C3r3Fr09         [10] 1605 	jp	00405$
    0000093C                       1606 00404$:
    0000093C 01 04 00         [10] 1607 	ld	bc, #0x0004
    0000093F                       1608 00405$:
                                   1609 ;E:\Dropbox\FAUSTO\SVILUPPI\MSX\CODE\C\MSXgl\projects\soccerlgSCC/soccerlg_s12_b3.c:198: g_Players[kickerId].Status = animStatus;
    0000093F DD 6E DA         [19] 1610 	ld	l, -38 (ix)
    00000942 DD 66 DB         [19] 1611 	ld	h, -37 (ix)
    00000945 71               [ 7] 1612 	ld	(hl), c
    00000946 23               [ 6] 1613 	inc	hl
    00000947 70               [ 7] 1614 	ld	(hl), b
                                   1615 ;E:\Dropbox\FAUSTO\SVILUPPI\MSX\CODE\C\MSXgl\projects\soccerlgSCC/soccerlg_s12_b3.c:199: g_Players[gkId].Status = animStatus;
    00000948 DD 6E DC         [19] 1616 	ld	l, -36 (ix)
    0000094B DD 66 DD         [19] 1617 	ld	h, -35 (ix)
    0000094E 71               [ 7] 1618 	ld	(hl), c
    0000094F 23               [ 6] 1619 	inc	hl
    00000950 70               [ 7] 1620 	ld	(hl), b
                                   1621 ;E:\Dropbox\FAUSTO\SVILUPPI\MSX\CODE\C\MSXgl\projects\soccerlgSCC/soccerlg_s12_b3.c:200: g_Players[REFEREE].Status = animStatus;
    00000951 ED 43r38r01      [20] 1622 	ld	((_g_Players + 312)), bc
                                   1623 ;E:\Dropbox\FAUSTO\SVILUPPI\MSX\CODE\C\MSXgl\projects\soccerlgSCC/soccerlg_s12_b3.c:204: i16 targetCamY = (i16)g_Players[gkId].Y - 106;
    00000955 DD 6E D4         [19] 1624 	ld	l, -44 (ix)
    00000958 DD 66 D5         [19] 1625 	ld	h, -43 (ix)
    0000095B 4E               [ 7] 1626 	ld	c, (hl)
    0000095C 23               [ 6] 1627 	inc	hl
    0000095D 46               [ 7] 1628 	ld	b, (hl)
    0000095E 79               [ 4] 1629 	ld	a, c
    0000095F C6 96            [ 7] 1630 	add	a, #0x96
    00000961 4F               [ 4] 1631 	ld	c, a
    00000962 78               [ 4] 1632 	ld	a, b
    00000963 CE FF            [ 7] 1633 	adc	a, #0xff
    00000965 47               [ 4] 1634 	ld	b, a
                                   1635 ;E:\Dropbox\FAUSTO\SVILUPPI\MSX\CODE\C\MSXgl\projects\soccerlgSCC/soccerlg_s12_b3.c:205: if (targetCamY < 0) targetCamY = 0;
    00000966 50               [ 4] 1636 	ld	d, b
    00000967 CB 7A            [ 8] 1637 	bit	7, d
    00000969 28 03            [12] 1638 	jr	Z, 00189$
    0000096B 01 00 00         [10] 1639 	ld	bc, #0x0000
    0000096E                       1640 00189$:
                                   1641 ;E:\Dropbox\FAUSTO\SVILUPPI\MSX\CODE\C\MSXgl\projects\soccerlgSCC/soccerlg_s12_b3.c:206: if (targetCamY > FIELD_CENTRAL_Y) targetCamY = FIELD_CENTRAL_Y;
    0000096E 59               [ 4] 1642 	ld	e, c
    0000096F 50               [ 4] 1643 	ld	d, b
    00000970 3E 89            [ 7] 1644 	ld	a, #0x89
    00000972 BB               [ 4] 1645 	cp	a, e
    00000973 3E 00            [ 7] 1646 	ld	a, #0x00
    00000975 9A               [ 4] 1647 	sbc	a, d
    00000976 E2r7Br09         [10] 1648 	jp	PO, 01142$
    00000979 EE 80            [ 7] 1649 	xor	a, #0x80
    0000097B                       1650 01142$:
    0000097B F2r81r09         [10] 1651 	jp	P, 00191$
    0000097E 01 89 00         [10] 1652 	ld	bc, #0x0089
    00000981                       1653 00191$:
                                   1654 ;E:\Dropbox\FAUSTO\SVILUPPI\MSX\CODE\C\MSXgl\projects\soccerlgSCC/soccerlg_s12_b3.c:208: if (g_FieldCurrentYPosition > targetCamY) g_FieldCurrentYPosition--;
    00000981 2Ar00r00         [16] 1655 	ld	hl, (_g_FieldCurrentYPosition)
    00000984 79               [ 4] 1656 	ld	a, c
    00000985 95               [ 4] 1657 	sub	a, l
    00000986 78               [ 4] 1658 	ld	a, b
    00000987 9C               [ 4] 1659 	sbc	a, h
    00000988 E2r8Dr09         [10] 1660 	jp	PO, 01143$
    0000098B EE 80            [ 7] 1661 	xor	a, #0x80
    0000098D                       1662 01143$:
    0000098D F2r9Ar09         [10] 1663 	jp	P, 00195$
    00000990 2Ar00r00         [16] 1664 	ld	hl, (_g_FieldCurrentYPosition)
    00000993 2B               [ 6] 1665 	dec	hl
    00000994 22r00r00         [16] 1666 	ld	(_g_FieldCurrentYPosition), hl
    00000997 C3rADr09         [10] 1667 	jp	00196$
    0000099A                       1668 00195$:
                                   1669 ;E:\Dropbox\FAUSTO\SVILUPPI\MSX\CODE\C\MSXgl\projects\soccerlgSCC/soccerlg_s12_b3.c:209: else if (g_FieldCurrentYPosition < targetCamY) g_FieldCurrentYPosition++;
    0000099A 7D               [ 4] 1670 	ld	a, l
    0000099B 91               [ 4] 1671 	sub	a, c
    0000099C 7C               [ 4] 1672 	ld	a, h
    0000099D 98               [ 4] 1673 	sbc	a, b
    0000099E E2rA3r09         [10] 1674 	jp	PO, 01144$
    000009A1 EE 80            [ 7] 1675 	xor	a, #0x80
    000009A3                       1676 01144$:
    000009A3 F2rADr09         [10] 1677 	jp	P, 00196$
    000009A6 2Ar00r00         [16] 1678 	ld	hl, (_g_FieldCurrentYPosition)
    000009A9 23               [ 6] 1679 	inc	hl
    000009AA 22r00r00         [16] 1680 	ld	(_g_FieldCurrentYPosition), hl
    000009AD                       1681 00196$:
                                   1682 ;E:\Dropbox\FAUSTO\SVILUPPI\MSX\CODE\C\MSXgl\projects\soccerlgSCC/soccerlg_s12_b3.c:211: CallFnc_VOID(6,UpdateSpritesPositions);
    000009AD 11r00r00         [10] 1683 	ld	de, #_UpdateSpritesPositions
    000009B0 3E 06            [ 7] 1684 	ld	a, #0x06
    000009B2 CDr00r00         [17] 1685 	call	_CallFnc_VOID
                                   1686 ;E:\Dropbox\FAUSTO\SVILUPPI\MSX\CODE\C\MSXgl\projects\soccerlgSCC/soccerlg_s12_b3.c:213: if (kDone && gDone && rDone && g_FieldCurrentYPosition == 0) {
    000009B5 DD 7E F1         [19] 1687 	ld	a, -15 (ix)
    000009B8 B7               [ 4] 1688 	or	a, a
    000009B9 CArFEr05         [10] 1689 	jp	Z, 00203$
    000009BC DD 7E F2         [19] 1690 	ld	a, -14 (ix)
    000009BF B7               [ 4] 1691 	or	a, a
    000009C0 CArFEr05         [10] 1692 	jp	Z, 00203$
    000009C3 DD 7E F3         [19] 1693 	ld	a, -13 (ix)
    000009C6 B7               [ 4] 1694 	or	a, a
    000009C7 CArFEr05         [10] 1695 	jp	Z, 00203$
    000009CA 3Ar01r00         [13] 1696 	ld	a, (_g_FieldCurrentYPosition+1)
    000009CD 21r00r00         [10] 1697 	ld	hl, #_g_FieldCurrentYPosition
    000009D0 B6               [ 7] 1698 	or	a, (hl)
    000009D1 C2rFEr05         [10] 1699 	jp	NZ, 00203$
                                   1700 ;E:\Dropbox\FAUSTO\SVILUPPI\MSX\CODE\C\MSXgl\projects\soccerlgSCC/soccerlg_s12_b3.c:214: g_ActiveFieldZone = FIELD_NORTH_ZONE;
    000009D4 21r00r00         [10] 1701 	ld	hl, #_g_ActiveFieldZone
    000009D7 36 00            [10] 1702 	ld	(hl), #0x00
                                   1703 ;E:\Dropbox\FAUSTO\SVILUPPI\MSX\CODE\C\MSXgl\projects\soccerlgSCC/soccerlg_s12_b3.c:218: g_VblankSuspended=TRUE; 
    000009D9 21r00r00         [10] 1704 	ld	hl, #_g_VblankSuspended
    000009DC 36 01            [10] 1705 	ld	(hl), #0x01
                                   1706 ;E:\Dropbox\FAUSTO\SVILUPPI\MSX\CODE\C\MSXgl\projects\soccerlgSCC/soccerlg_s12_b3.c:220: g_Players[kickerId].Direction = DIRECTION_UP;
    000009DE DD 7E CE         [19] 1707 	ld	a, -50 (ix)
    000009E1 C6 0A            [ 7] 1708 	add	a, #0x0a
    000009E3 DD 77 E2         [19] 1709 	ld	-30 (ix), a
    000009E6 DD 7E CF         [19] 1710 	ld	a, -49 (ix)
    000009E9 CE 00            [ 7] 1711 	adc	a, #0x00
    000009EB DD 77 E3         [19] 1712 	ld	-29 (ix), a
    000009EE DD 6E E2         [19] 1713 	ld	l, -30 (ix)
    000009F1 DD 66 E3         [19] 1714 	ld	h, -29 (ix)
    000009F4 36 01            [10] 1715 	ld	(hl), #0x01
                                   1716 ;E:\Dropbox\FAUSTO\SVILUPPI\MSX\CODE\C\MSXgl\projects\soccerlgSCC/soccerlg_s12_b3.c:221: g_Players[kickerId].PatternId = PLAYER_POSE_BACK;
    000009F6 DD 7E CE         [19] 1717 	ld	a, -50 (ix)
    000009F9 C6 08            [ 7] 1718 	add	a, #0x08
    000009FB DD 77 E4         [19] 1719 	ld	-28 (ix), a
    000009FE DD 7E CF         [19] 1720 	ld	a, -49 (ix)
    00000A01 CE 00            [ 7] 1721 	adc	a, #0x00
    00000A03 DD 77 E5         [19] 1722 	ld	-27 (ix), a
    00000A06 DD 6E E4         [19] 1723 	ld	l, -28 (ix)
    00000A09 DD 66 E5         [19] 1724 	ld	h, -27 (ix)
    00000A0C 36 11            [10] 1725 	ld	(hl), #0x11
                                   1726 ;E:\Dropbox\FAUSTO\SVILUPPI\MSX\CODE\C\MSXgl\projects\soccerlgSCC/soccerlg_s12_b3.c:222: g_Players[gkId].Direction = DIRECTION_DOWN;
    00000A0E DD 7E D4         [19] 1727 	ld	a, -44 (ix)
    00000A11 C6 0A            [ 7] 1728 	add	a, #0x0a
    00000A13 DD 77 E6         [19] 1729 	ld	-26 (ix), a
    00000A16 DD 7E D5         [19] 1730 	ld	a, -43 (ix)
    00000A19 CE 00            [ 7] 1731 	adc	a, #0x00
    00000A1B DD 77 E7         [19] 1732 	ld	-25 (ix), a
    00000A1E DD 6E E6         [19] 1733 	ld	l, -26 (ix)
    00000A21 DD 66 E7         [19] 1734 	ld	h, -25 (ix)
    00000A24 36 05            [10] 1735 	ld	(hl), #0x05
                                   1736 ;E:\Dropbox\FAUSTO\SVILUPPI\MSX\CODE\C\MSXgl\projects\soccerlgSCC/soccerlg_s12_b3.c:223: g_Players[gkId].PatternId = PLAYER_POSE_FRONT;
    00000A26 DD 7E D4         [19] 1737 	ld	a, -44 (ix)
    00000A29 C6 08            [ 7] 1738 	add	a, #0x08
    00000A2B DD 77 E8         [19] 1739 	ld	-24 (ix), a
    00000A2E DD 7E D5         [19] 1740 	ld	a, -43 (ix)
    00000A31 CE 00            [ 7] 1741 	adc	a, #0x00
    00000A33 DD 77 E9         [19] 1742 	ld	-23 (ix), a
    00000A36 DD 6E E8         [19] 1743 	ld	l, -24 (ix)
    00000A39 DD 66 E9         [19] 1744 	ld	h, -23 (ix)
    00000A3C 36 10            [10] 1745 	ld	(hl), #0x10
                                   1746 ;E:\Dropbox\FAUSTO\SVILUPPI\MSX\CODE\C\MSXgl\projects\soccerlgSCC/soccerlg_s12_b3.c:224: g_Players[REFEREE].PatternId = PLAYER_POSE_RIGHT;
    00000A3E 21r2Er01         [10] 1747 	ld	hl, #(_g_Players + 302)
    00000A41 36 9D            [10] 1748 	ld	(hl), #0x9d
                                   1749 ;E:\Dropbox\FAUSTO\SVILUPPI\MSX\CODE\C\MSXgl\projects\soccerlgSCC/soccerlg_s12_b3.c:226: g_Ball.PossessionPlayerId = NO_VALUE;
    00000A43 21r06r00         [10] 1750 	ld	hl, #(_g_Ball + 6)
    00000A46 36 FF            [10] 1751 	ld	(hl), #0xff
                                   1752 ;E:\Dropbox\FAUSTO\SVILUPPI\MSX\CODE\C\MSXgl\projects\soccerlgSCC/soccerlg_s12_b3.c:227: g_Ball.X = kickSpotX;
    00000A48 21 78 00         [10] 1753 	ld	hl, #0x0078
    00000A4B 22r02r00         [16] 1754 	ld	((_g_Ball + 2)), hl
                                   1755 ;E:\Dropbox\FAUSTO\SVILUPPI\MSX\CODE\C\MSXgl\projects\soccerlgSCC/soccerlg_s12_b3.c:228: g_Ball.Y = kickSpotY;
    00000A4E 2E 61            [ 7] 1756 	ld	l, #0x61
    00000A50 22r00r00         [16] 1757 	ld	(_g_Ball), hl
                                   1758 ;E:\Dropbox\FAUSTO\SVILUPPI\MSX\CODE\C\MSXgl\projects\soccerlgSCC/soccerlg_s12_b3.c:229: g_BallIsVisible=TRUE;
    00000A53 21r00r00         [10] 1759 	ld	hl, #_g_BallIsVisible
    00000A56 36 01            [10] 1760 	ld	(hl), #0x01
                                   1761 ;E:\Dropbox\FAUSTO\SVILUPPI\MSX\CODE\C\MSXgl\projects\soccerlgSCC/soccerlg_s12_b3.c:230: CallFnc_VOID(6,UpdateSpritesPositions);
    00000A58 11r00r00         [10] 1762 	ld	de, #_UpdateSpritesPositions
    00000A5B 3E 06            [ 7] 1763 	ld	a, #0x06
    00000A5D CDr00r00         [17] 1764 	call	_CallFnc_VOID
                                   1765 ;E:\Dropbox\FAUSTO\SVILUPPI\MSX\CODE\C\MSXgl\projects\soccerlgSCC/soccerlg_s12_b3.c:231: V9990_PrintLayerAStringAtPos(10,22, g_History1);
    00000A60 21r00r00         [10] 1766 	ld	hl, #_g_History1
    00000A63 E5               [11] 1767 	push	hl
    00000A64 2E 16            [ 7] 1768 	ld	l, #0x16
                                   1769 ;	spillPairReg hl
                                   1770 ;	spillPairReg hl
    00000A66 3E 0A            [ 7] 1771 	ld	a, #0x0a
    00000A68 CDr00r00         [17] 1772 	call	_V9990_PrintLayerAStringAtPos
                                   1773 ;E:\Dropbox\FAUSTO\SVILUPPI\MSX\CODE\C\MSXgl\projects\soccerlgSCC/soccerlg_s12_b3.c:232: V9990_PrintLayerAStringAtPos(10,23, g_History2);
    00000A6B 21r00r00         [10] 1774 	ld	hl, #_g_History2
    00000A6E E5               [11] 1775 	push	hl
    00000A6F 2E 17            [ 7] 1776 	ld	l, #0x17
                                   1777 ;	spillPairReg hl
                                   1778 ;	spillPairReg hl
    00000A71 3E 0A            [ 7] 1779 	ld	a, #0x0a
    00000A73 CDr00r00         [17] 1780 	call	_V9990_PrintLayerAStringAtPos
                                   1781 ;E:\Dropbox\FAUSTO\SVILUPPI\MSX\CODE\C\MSXgl\projects\soccerlgSCC/soccerlg_s12_b3.c:235: for(u8 w=0; w<60; w++) V9990_WaitSynch();
    00000A76 0E 00            [ 7] 1782 	ld	c, #0x00
    00000A78                       1783 00381$:
    00000A78 79               [ 4] 1784 	ld	a, c
    00000A79 D6 3C            [ 7] 1785 	sub	a, #0x3c
    00000A7B 30 09            [12] 1786 	jr	NC, 00205$
    00000A7D C5               [11] 1787 	push	bc
    00000A7E CDr00r00         [17] 1788 	call	_V9990_WaitSynch
    00000A81 C1               [10] 1789 	pop	bc
    00000A82 0C               [ 4] 1790 	inc	c
    00000A83 C3r78r0A         [10] 1791 	jp	00381$
    00000A86                       1792 00205$:
                                   1793 ;E:\Dropbox\FAUSTO\SVILUPPI\MSX\CODE\C\MSXgl\projects\soccerlgSCC/soccerlg_s12_b3.c:236: PlayPCM(PCM_REFEREER);
    00000A86 3E 05            [ 7] 1794 	ld	a, #0x05
    00000A88 CDr00r00         [17] 1795 	call	_PlayPCM
                                   1796 ;E:\Dropbox\FAUSTO\SVILUPPI\MSX\CODE\C\MSXgl\projects\soccerlgSCC/soccerlg_s12_b3.c:238: u16 targetX = FIELD_POS_X_CENTER;
    00000A8B DD 36 EA 78      [19] 1797 	ld	-22 (ix), #0x78
    00000A8F DD 36 EB 00      [19] 1798 	ld	-21 (ix), #0
                                   1799 ;E:\Dropbox\FAUSTO\SVILUPPI\MSX\CODE\C\MSXgl\projects\soccerlgSCC/soccerlg_s12_b3.c:239: u8 shotDirIdx = 1; // 0=Left, 1=Center, 2=Right
    00000A93 DD 36 FF 01      [19] 1800 	ld	-1 (ix), #0x01
                                   1801 ;E:\Dropbox\FAUSTO\SVILUPPI\MSX\CODE\C\MSXgl\projects\soccerlgSCC/soccerlg_s12_b3.c:240: bool shotTaken = false;
    00000A97 DD 36 ED 00      [19] 1802 	ld	-19 (ix), #0x00
                                   1803 ;E:\Dropbox\FAUSTO\SVILUPPI\MSX\CODE\C\MSXgl\projects\soccerlgSCC/soccerlg_s12_b3.c:241: u8 playerGkChoice = 1; // 0=Left, 1=Center, 2=Right
    00000A9B DD 36 FE 01      [19] 1804 	ld	-2 (ix), #0x01
                                   1805 ;E:\Dropbox\FAUSTO\SVILUPPI\MSX\CODE\C\MSXgl\projects\soccerlgSCC/soccerlg_s12_b3.c:243: if (kickingTeam == TEAM_1) {
    00000A9F DD 7E CB         [19] 1806 	ld	a, -53 (ix)
    00000AA2 B7               [ 4] 1807 	or	a, a
    00000AA3 CArDEr0B         [10] 1808 	jp	Z, 00238$
                                   1809 ;E:\Dropbox\FAUSTO\SVILUPPI\MSX\CODE\C\MSXgl\projects\soccerlgSCC/soccerlg_s12_b3.c:244: g_ShotCursorX = FIELD_POS_X_CENTER;
    00000AA6 21 78 00         [10] 1810 	ld	hl, #0x0078
    00000AA9 22r00r00         [16] 1811 	ld	(_g_ShotCursorX), hl
                                   1812 ;E:\Dropbox\FAUSTO\SVILUPPI\MSX\CODE\C\MSXgl\projects\soccerlgSCC/soccerlg_s12_b3.c:245: i8 aimPos = 1;
    00000AAC DD 36 F1 01      [19] 1813 	ld	-15 (ix), #0x01
                                   1814 ;E:\Dropbox\FAUSTO\SVILUPPI\MSX\CODE\C\MSXgl\projects\soccerlgSCC/soccerlg_s12_b3.c:246: i8 aimDir = 1;
    00000AB0 DD 36 EE 01      [19] 1815 	ld	-18 (ix), #0x01
                                   1816 ;E:\Dropbox\FAUSTO\SVILUPPI\MSX\CODE\C\MSXgl\projects\soccerlgSCC/soccerlg_s12_b3.c:247: u16 moveTimer = 0;
    00000AB4 AF               [ 4] 1817 	xor	a, a
    00000AB5 DD 77 F2         [19] 1818 	ld	-14 (ix), a
    00000AB8 DD 77 F3         [19] 1819 	ld	-13 (ix), a
                                   1820 ;E:\Dropbox\FAUSTO\SVILUPPI\MSX\CODE\C\MSXgl\projects\soccerlgSCC/soccerlg_s12_b3.c:250: while(!shotTaken) {
    00000ABB AF               [ 4] 1821 	xor	a, a
    00000ABC DD 77 F4         [19] 1822 	ld	-12 (ix), a
    00000ABF DD 77 F5         [19] 1823 	ld	-11 (ix), a
    00000AC2                       1824 00222$:
    00000AC2 DD 7E ED         [19] 1825 	ld	a, -19 (ix)
    00000AC5 B7               [ 4] 1826 	or	a, a
    00000AC6 C2r56r0C         [10] 1827 	jp	NZ, 00239$
                                   1828 ;E:\Dropbox\FAUSTO\SVILUPPI\MSX\CODE\C\MSXgl\projects\soccerlgSCC/soccerlg_s12_b3.c:251: V9990_WaitSynch();
    00000AC9 CDr00r00         [17] 1829 	call	_V9990_WaitSynch
                                   1830 ;E:\Dropbox\FAUSTO\SVILUPPI\MSX\CODE\C\MSXgl\projects\soccerlgSCC/soccerlg_s12_b3.c:254: moveTimer++;
    00000ACC DD 34 F2         [23] 1831 	inc	-14 (ix)
    00000ACF 20 03            [12] 1832 	jr	NZ, 01145$
    00000AD1 DD 34 F3         [23] 1833 	inc	-13 (ix)
    00000AD4                       1834 01145$:
                                   1835 ;E:\Dropbox\FAUSTO\SVILUPPI\MSX\CODE\C\MSXgl\projects\soccerlgSCC/soccerlg_s12_b3.c:255: if (moveTimer > 8) { // Speed of cursor
    00000AD4 DD 7E F2         [19] 1836 	ld	a, -14 (ix)
    00000AD7 DD 77 EF         [19] 1837 	ld	-17 (ix), a
    00000ADA DD 7E F3         [19] 1838 	ld	a, -13 (ix)
    00000ADD DD 77 F0         [19] 1839 	ld	-16 (ix), a
    00000AE0 3E 08            [ 7] 1840 	ld	a, #0x08
    00000AE2 DD BE EF         [19] 1841 	cp	a, -17 (ix)
    00000AE5 3E 00            [ 7] 1842 	ld	a, #0x00
    00000AE7 DD 9E F0         [19] 1843 	sbc	a, -16 (ix)
    00000AEA 30 35            [12] 1844 	jr	NC, 00212$
                                   1845 ;E:\Dropbox\FAUSTO\SVILUPPI\MSX\CODE\C\MSXgl\projects\soccerlgSCC/soccerlg_s12_b3.c:256: moveTimer = 0;
    00000AEC AF               [ 4] 1846 	xor	a, a
    00000AED DD 77 F2         [19] 1847 	ld	-14 (ix), a
    00000AF0 DD 77 F3         [19] 1848 	ld	-13 (ix), a
                                   1849 ;E:\Dropbox\FAUSTO\SVILUPPI\MSX\CODE\C\MSXgl\projects\soccerlgSCC/soccerlg_s12_b3.c:257: aimPos += aimDir;
    00000AF3 DD 7E EE         [19] 1850 	ld	a, -18 (ix)
    00000AF6 DD 86 F1         [19] 1851 	add	a, -15 (ix)
                                   1852 ;E:\Dropbox\FAUSTO\SVILUPPI\MSX\CODE\C\MSXgl\projects\soccerlgSCC/soccerlg_s12_b3.c:258: if (aimPos >= 2) {
    00000AF9 DD 77 F1         [19] 1853 	ld	-15 (ix), a
    00000AFC EE 80            [ 7] 1854 	xor	a, #0x80
    00000AFE D6 82            [ 7] 1855 	sub	a, #0x82
    00000B00 38 0B            [12] 1856 	jr	C, 00209$
                                   1857 ;E:\Dropbox\FAUSTO\SVILUPPI\MSX\CODE\C\MSXgl\projects\soccerlgSCC/soccerlg_s12_b3.c:259: aimPos = 2;
    00000B02 DD 36 F1 02      [19] 1858 	ld	-15 (ix), #0x02
                                   1859 ;E:\Dropbox\FAUSTO\SVILUPPI\MSX\CODE\C\MSXgl\projects\soccerlgSCC/soccerlg_s12_b3.c:260: aimDir = -1;
    00000B06 DD 36 EE FF      [19] 1860 	ld	-18 (ix), #0xff
    00000B0A C3r21r0B         [10] 1861 	jp	00212$
    00000B0D                       1862 00209$:
                                   1863 ;E:\Dropbox\FAUSTO\SVILUPPI\MSX\CODE\C\MSXgl\projects\soccerlgSCC/soccerlg_s12_b3.c:261: } else if (aimPos <= 0) {
    00000B0D AF               [ 4] 1864 	xor	a, a
    00000B0E DD 96 F1         [19] 1865 	sub	a, -15 (ix)
    00000B11 E2r16r0B         [10] 1866 	jp	PO, 01146$
    00000B14 EE 80            [ 7] 1867 	xor	a, #0x80
    00000B16                       1868 01146$:
    00000B16 FAr21r0B         [10] 1869 	jp	M, 00212$
                                   1870 ;E:\Dropbox\FAUSTO\SVILUPPI\MSX\CODE\C\MSXgl\projects\soccerlgSCC/soccerlg_s12_b3.c:262: aimPos = 0;
    00000B19 DD 36 F1 00      [19] 1871 	ld	-15 (ix), #0x00
                                   1872 ;E:\Dropbox\FAUSTO\SVILUPPI\MSX\CODE\C\MSXgl\projects\soccerlgSCC/soccerlg_s12_b3.c:263: aimDir = 1;
    00000B1D DD 36 EE 01      [19] 1873 	ld	-18 (ix), #0x01
    00000B21                       1874 00212$:
                                   1875 ;E:\Dropbox\FAUSTO\SVILUPPI\MSX\CODE\C\MSXgl\projects\soccerlgSCC/soccerlg_s12_b3.c:267: if (aimPos == 0) g_ShotCursorX = GOAL_X_MIN;
    00000B21 DD 7E F1         [19] 1876 	ld	a, -15 (ix)
    00000B24 B7               [ 4] 1877 	or	a, a
    00000B25 20 09            [12] 1878 	jr	NZ, 00217$
    00000B27 21 60 00         [10] 1879 	ld	hl, #0x0060
    00000B2A 22r00r00         [16] 1880 	ld	(_g_ShotCursorX), hl
    00000B2D C3r45r0B         [10] 1881 	jp	00218$
    00000B30                       1882 00217$:
                                   1883 ;E:\Dropbox\FAUSTO\SVILUPPI\MSX\CODE\C\MSXgl\projects\soccerlgSCC/soccerlg_s12_b3.c:268: else if (aimPos == 1) g_ShotCursorX = FIELD_POS_X_CENTER;
    00000B30 DD 7E F1         [19] 1884 	ld	a, -15 (ix)
    00000B33 3D               [ 4] 1885 	dec	a
    00000B34 20 09            [12] 1886 	jr	NZ, 00214$
    00000B36 21 78 00         [10] 1887 	ld	hl, #0x0078
    00000B39 22r00r00         [16] 1888 	ld	(_g_ShotCursorX), hl
    00000B3C C3r45r0B         [10] 1889 	jp	00218$
    00000B3F                       1890 00214$:
                                   1891 ;E:\Dropbox\FAUSTO\SVILUPPI\MSX\CODE\C\MSXgl\projects\soccerlgSCC/soccerlg_s12_b3.c:269: else g_ShotCursorX = GOAL_X_MAX;
    00000B3F 21 90 00         [10] 1892 	ld	hl, #0x0090
    00000B42 22r00r00         [16] 1893 	ld	(_g_ShotCursorX), hl
    00000B45                       1894 00218$:
                                   1895 ;E:\Dropbox\FAUSTO\SVILUPPI\MSX\CODE\C\MSXgl\projects\soccerlgSCC/soccerlg_s12_b3.c:272: attr.Y = FIELD_BOUND_Y_TOP - 20 - g_FieldCurrentYPosition;
    00000B45 3Ar00r00         [13] 1896 	ld	a, (_g_FieldCurrentYPosition+0)
    00000B48 4F               [ 4] 1897 	ld	c, a
    00000B49 3E 1E            [ 7] 1898 	ld	a, #0x1e
    00000B4B 91               [ 4] 1899 	sub	a, c
    00000B4C DD 77 C7         [19] 1900 	ld	-57 (ix), a
                                   1901 ;E:\Dropbox\FAUSTO\SVILUPPI\MSX\CODE\C\MSXgl\projects\soccerlgSCC/soccerlg_s12_b3.c:273: attr.X = g_ShotCursorX;
    00000B4F 21 0B 00         [10] 1902 	ld	hl, #11
    00000B52 39               [11] 1903 	add	hl, sp
    00000B53 3Ar00r00         [13] 1904 	ld	a, (_g_ShotCursorX+0)
    00000B56 77               [ 7] 1905 	ld	(hl), a
    00000B57 23               [ 6] 1906 	inc	hl
    00000B58 3Ar01r00         [13] 1907 	ld	a, (_g_ShotCursorX+1)
    00000B5B E6 03            [ 7] 1908 	and	a, #0x03
    00000B5D 4F               [ 4] 1909 	ld	c,a
    00000B5E 7E               [ 7] 1910 	ld	a, (hl)
    00000B5F E6 FC            [ 7] 1911 	and	a, #0xfc
    00000B61 B1               [ 4] 1912 	or	a, c
    00000B62 77               [ 7] 1913 	ld	(hl), a
                                   1914 ;E:\Dropbox\FAUSTO\SVILUPPI\MSX\CODE\C\MSXgl\projects\soccerlgSCC/soccerlg_s12_b3.c:274: attr.Pattern = SPRITE_DOWN_ARROW;
    00000B63 DD 36 C8 79      [19] 1915 	ld	-56 (ix), #0x79
                                   1916 ;E:\Dropbox\FAUSTO\SVILUPPI\MSX\CODE\C\MSXgl\projects\soccerlgSCC/soccerlg_s12_b3.c:275: attr.P = 1; attr.SC = 0; attr.D = 0;
    00000B67 21 0C 00         [10] 1917 	ld	hl, #12
    00000B6A 39               [11] 1918 	add	hl, sp
    00000B6B CB EE            [15] 1919 	set	5, (hl)
    00000B6D 21 0C 00         [10] 1920 	ld	hl, #12
    00000B70 39               [11] 1921 	add	hl, sp
    00000B71 7E               [ 7] 1922 	ld	a, (hl)
    00000B72 E6 3F            [ 7] 1923 	and	a, #0x3f
    00000B74 77               [ 7] 1924 	ld	(hl), a
    00000B75 21 0C 00         [10] 1925 	ld	hl, #12
    00000B78 39               [11] 1926 	add	hl, sp
    00000B79 CB A6            [15] 1927 	res	4, (hl)
                                   1928 ;E:\Dropbox\FAUSTO\SVILUPPI\MSX\CODE\C\MSXgl\projects\soccerlgSCC/soccerlg_s12_b3.c:276: V9_SetSpriteP1(16, &attr);
                                   1929 ;E:/Dropbox/FAUSTO/SVILUPPI/MSX/CODE/C/MSXgl/engine/src/v9990.h:781: inline void V9_SetSpriteP1(u8 id, const V9_Sprite* attr) { V9_WriteVRAM(V9_P1_SPAT + (id * 4), (const u8*)attr, 4); }
                                   1930 ;E:/Dropbox/FAUSTO/SVILUPPI/MSX/CODE/C/MSXgl/engine/src/v9990.h:371: inline void V9_WriteVRAM(u32 addr, const u8* src, u16 count) { V9_SetWriteAddress(addr); V9_WriteVRAM_CurrentAddr(src, count); }
    00000B7B 11 40 FE         [10] 1931 	ld	de, #0xfe40
    00000B7E 21 03 00         [10] 1932 	ld	hl, #0x0003
    00000B81 CDr00r00         [17] 1933 	call	_V9_SetWriteAddress
    00000B84 11 04 00         [10] 1934 	ld	de, #0x0004
    00000B87 21 09 00         [10] 1935 	ld	hl, #9
    00000B8A 39               [11] 1936 	add	hl, sp
    00000B8B CDr00r00         [17] 1937 	call	_V9_WriteVRAM_CurrentAddr
                                   1938 ;E:\Dropbox\FAUSTO\SVILUPPI\MSX\CODE\C\MSXgl\projects\soccerlgSCC/soccerlg_s12_b3.c:278: timeoutTimer++;
    00000B8E DD 34 F4         [23] 1939 	inc	-12 (ix)
    00000B91 20 03            [12] 1940 	jr	NZ, 01149$
    00000B93 DD 34 F5         [23] 1941 	inc	-11 (ix)
    00000B96                       1942 01149$:
                                   1943 ;E:\Dropbox\FAUSTO\SVILUPPI\MSX\CODE\C\MSXgl\projects\soccerlgSCC/soccerlg_s12_b3.c:279: bool joyTrigged = CallFnc_U8(5,IsJoystickTriggerPressed);
    00000B96 11r00r00         [10] 1944 	ld	de, #_IsJoystickTriggerPressed
    00000B99 3E 05            [ 7] 1945 	ld	a, #0x05
    00000B9B CDr00r00         [17] 1946 	call	_CallFnc_U8
                                   1947 ;E:\Dropbox\FAUSTO\SVILUPPI\MSX\CODE\C\MSXgl\projects\soccerlgSCC/soccerlg_s12_b3.c:280: if (joyTrigged || timeoutTimer >= 300) {
    00000B9E B7               [ 4] 1948 	or	a, a
    00000B9F 20 0E            [12] 1949 	jr	NZ, 00219$
    00000BA1 DD 7E F4         [19] 1950 	ld	a, -12 (ix)
    00000BA4 DD 46 F5         [19] 1951 	ld	b, -11 (ix)
    00000BA7 D6 2C            [ 7] 1952 	sub	a, #0x2c
    00000BA9 78               [ 4] 1953 	ld	a, b
    00000BAA DE 01            [ 7] 1954 	sbc	a, #0x01
    00000BAC DArC2r0A         [10] 1955 	jp	C, 00222$
    00000BAF                       1956 00219$:
                                   1957 ;E:\Dropbox\FAUSTO\SVILUPPI\MSX\CODE\C\MSXgl\projects\soccerlgSCC/soccerlg_s12_b3.c:281: targetX = g_ShotCursorX;
    00000BAF 2Ar00r00         [16] 1958 	ld	hl, (_g_ShotCursorX)
    00000BB2 DD 75 EA         [19] 1959 	ld	-22 (ix), l
    00000BB5 DD 74 EB         [19] 1960 	ld	-21 (ix), h
                                   1961 ;E:\Dropbox\FAUSTO\SVILUPPI\MSX\CODE\C\MSXgl\projects\soccerlgSCC/soccerlg_s12_b3.c:282: shotDirIdx = (u8)aimPos;
    00000BB8 DD 7E F1         [19] 1962 	ld	a, -15 (ix)
    00000BBB DD 77 FF         [19] 1963 	ld	-1 (ix), a
                                   1964 ;E:\Dropbox\FAUSTO\SVILUPPI\MSX\CODE\C\MSXgl\projects\soccerlgSCC/soccerlg_s12_b3.c:283: shotTaken = true;
    00000BBE DD 36 ED 01      [19] 1965 	ld	-19 (ix), #0x01
                                   1966 ;E:\Dropbox\FAUSTO\SVILUPPI\MSX\CODE\C\MSXgl\projects\soccerlgSCC/soccerlg_s12_b3.c:284: attr.D = 1;
    00000BC2 21 0C 00         [10] 1967 	ld	hl, #12
    00000BC5 39               [11] 1968 	add	hl, sp
    00000BC6 CB E6            [15] 1969 	set	4, (hl)
                                   1970 ;E:\Dropbox\FAUSTO\SVILUPPI\MSX\CODE\C\MSXgl\projects\soccerlgSCC/soccerlg_s12_b3.c:285: V9_SetSpriteP1(16, &attr);
                                   1971 ;E:/Dropbox/FAUSTO/SVILUPPI/MSX/CODE/C/MSXgl/engine/src/v9990.h:781: inline void V9_SetSpriteP1(u8 id, const V9_Sprite* attr) { V9_WriteVRAM(V9_P1_SPAT + (id * 4), (const u8*)attr, 4); }
                                   1972 ;E:/Dropbox/FAUSTO/SVILUPPI/MSX/CODE/C/MSXgl/engine/src/v9990.h:371: inline void V9_WriteVRAM(u32 addr, const u8* src, u16 count) { V9_SetWriteAddress(addr); V9_WriteVRAM_CurrentAddr(src, count); }
    00000BC8 11 40 FE         [10] 1973 	ld	de, #0xfe40
    00000BCB 21 03 00         [10] 1974 	ld	hl, #0x0003
    00000BCE CDr00r00         [17] 1975 	call	_V9_SetWriteAddress
    00000BD1 11 04 00         [10] 1976 	ld	de, #0x0004
    00000BD4 21 09 00         [10] 1977 	ld	hl, #9
    00000BD7 39               [11] 1978 	add	hl, sp
    00000BD8 CDr00r00         [17] 1979 	call	_V9_WriteVRAM_CurrentAddr
                                   1980 ;E:\Dropbox\FAUSTO\SVILUPPI\MSX\CODE\C\MSXgl\projects\soccerlgSCC/soccerlg_s12_b3.c:285: V9_SetSpriteP1(16, &attr);
    00000BDB C3rC2r0A         [10] 1981 	jp	00222$
    00000BDE                       1982 00238$:
                                   1983 ;E:\Dropbox\FAUSTO\SVILUPPI\MSX\CODE\C\MSXgl\projects\soccerlgSCC/soccerlg_s12_b3.c:290: shotDirIdx = g_FrameCounter % 3;
    00000BDE 3Ar00r00         [13] 1984 	ld	a, (_g_FrameCounter+0)
    00000BE1 DD 77 F4         [19] 1985 	ld	-12 (ix), a
    00000BE4 DD 36 F5 00      [19] 1986 	ld	-11 (ix), #0x00
    00000BE8 11 03 00         [10] 1987 	ld	de, #0x0003
    00000BEB DD 6E F4         [19] 1988 	ld	l, -12 (ix)
                                   1989 ;	spillPairReg hl
                                   1990 ;	spillPairReg hl
    00000BEE DD 66 F5         [19] 1991 	ld	h, -11 (ix)
                                   1992 ;	spillPairReg hl
                                   1993 ;	spillPairReg hl
    00000BF1 CDr00r00         [17] 1994 	call	__modsint
    00000BF4 DD 73 F4         [19] 1995 	ld	-12 (ix), e
    00000BF7 DD 72 F5         [19] 1996 	ld	-11 (ix), d
    00000BFA DD 7E F4         [19] 1997 	ld	a, -12 (ix)
                                   1998 ;E:\Dropbox\FAUSTO\SVILUPPI\MSX\CODE\C\MSXgl\projects\soccerlgSCC/soccerlg_s12_b3.c:291: if (shotDirIdx == 0) targetX = GOAL_X_MIN;
    00000BFD DD 77 FF         [19] 1999 	ld	-1 (ix), a
    00000C00 B7               [ 4] 2000 	or	a, a
    00000C01 20 0B            [12] 2001 	jr	NZ, 00229$
    00000C03 DD 36 EA 60      [19] 2002 	ld	-22 (ix), #0x60
    00000C07 DD 36 EB 00      [19] 2003 	ld	-21 (ix), #0
    00000C0B C3r27r0C         [10] 2004 	jp	00494$
    00000C0E                       2005 00229$:
                                   2006 ;E:\Dropbox\FAUSTO\SVILUPPI\MSX\CODE\C\MSXgl\projects\soccerlgSCC/soccerlg_s12_b3.c:292: else if (shotDirIdx == 1) targetX = FIELD_POS_X_CENTER;
    00000C0E DD 7E FF         [19] 2007 	ld	a, -1 (ix)
    00000C11 3D               [ 4] 2008 	dec	a
    00000C12 20 0B            [12] 2009 	jr	NZ, 00226$
    00000C14 DD 36 EA 78      [19] 2010 	ld	-22 (ix), #0x78
    00000C18 DD 36 EB 00      [19] 2011 	ld	-21 (ix), #0
    00000C1C C3r27r0C         [10] 2012 	jp	00494$
    00000C1F                       2013 00226$:
                                   2014 ;E:\Dropbox\FAUSTO\SVILUPPI\MSX\CODE\C\MSXgl\projects\soccerlgSCC/soccerlg_s12_b3.c:293: else targetX = GOAL_X_MAX;
    00000C1F DD 36 EA 90      [19] 2015 	ld	-22 (ix), #0x90
    00000C23 DD 36 EB 00      [19] 2016 	ld	-21 (ix), #0
                                   2017 ;E:\Dropbox\FAUSTO\SVILUPPI\MSX\CODE\C\MSXgl\projects\soccerlgSCC/soccerlg_s12_b3.c:296: for(u8 w=0; w<120; w++) {
    00000C27                       2018 00494$:
    00000C27 DD 36 F5 00      [19] 2019 	ld	-11 (ix), #0x00
    00000C2B                       2020 00384$:
    00000C2B DD 7E F5         [19] 2021 	ld	a, -11 (ix)
    00000C2E D6 78            [ 7] 2022 	sub	a, #0x78
    00000C30 30 24            [12] 2023 	jr	NC, 00239$
                                   2024 ;E:\Dropbox\FAUSTO\SVILUPPI\MSX\CODE\C\MSXgl\projects\soccerlgSCC/soccerlg_s12_b3.c:297: V9990_WaitSynch();
    00000C32 CDr00r00         [17] 2025 	call	_V9990_WaitSynch
                                   2026 ;E:\Dropbox\FAUSTO\SVILUPPI\MSX\CODE\C\MSXgl\projects\soccerlgSCC/soccerlg_s12_b3.c:298: u8 joy = CallFnc_U8(4,GetJoystickDirection);
    00000C35 11r00r00         [10] 2027 	ld	de, #_GetJoystickDirection
    00000C38 3E 04            [ 7] 2028 	ld	a, #0x04
    00000C3A CDr00r00         [17] 2029 	call	_CallFnc_U8
                                   2030 ;E:\Dropbox\FAUSTO\SVILUPPI\MSX\CODE\C\MSXgl\projects\soccerlgSCC/soccerlg_s12_b3.c:299: if (joy == DIRECTION_LEFT) playerGkChoice = 0;
    00000C3D FE 07            [ 7] 2031 	cp	a, #0x07
    00000C3F 20 07            [12] 2032 	jr	NZ, 00234$
    00000C41 DD 36 FE 00      [19] 2033 	ld	-2 (ix), #0x00
    00000C45 C3r50r0C         [10] 2034 	jp	00385$
    00000C48                       2035 00234$:
                                   2036 ;E:\Dropbox\FAUSTO\SVILUPPI\MSX\CODE\C\MSXgl\projects\soccerlgSCC/soccerlg_s12_b3.c:300: else if (joy == DIRECTION_RIGHT) playerGkChoice = 2;
    00000C48 D6 03            [ 7] 2037 	sub	a, #0x03
    00000C4A 20 04            [12] 2038 	jr	NZ, 00385$
    00000C4C DD 36 FE 02      [19] 2039 	ld	-2 (ix), #0x02
    00000C50                       2040 00385$:
                                   2041 ;E:\Dropbox\FAUSTO\SVILUPPI\MSX\CODE\C\MSXgl\projects\soccerlgSCC/soccerlg_s12_b3.c:296: for(u8 w=0; w<120; w++) {
    00000C50 DD 34 F5         [23] 2042 	inc	-11 (ix)
    00000C53 C3r2Br0C         [10] 2043 	jp	00384$
                                   2044 ;E:\Dropbox\FAUSTO\SVILUPPI\MSX\CODE\C\MSXgl\projects\soccerlgSCC/soccerlg_s12_b3.c:303: shotTaken = true;
    00000C56                       2045 00239$:
                                   2046 ;E:\Dropbox\FAUSTO\SVILUPPI\MSX\CODE\C\MSXgl\projects\soccerlgSCC/soccerlg_s12_b3.c:308: bool goal = false;
    00000C56 DD 36 EC 00      [19] 2047 	ld	-20 (ix), #0x00
                                   2048 ;E:\Dropbox\FAUSTO\SVILUPPI\MSX\CODE\C\MSXgl\projects\soccerlgSCC/soccerlg_s12_b3.c:309: bool saved = false;
    00000C5A DD 36 ED 00      [19] 2049 	ld	-19 (ix), #0x00
                                   2050 ;E:\Dropbox\FAUSTO\SVILUPPI\MSX\CODE\C\MSXgl\projects\soccerlgSCC/soccerlg_s12_b3.c:313: if (kickingTeam == TEAM_1) {
    00000C5E DD 7E CB         [19] 2051 	ld	a, -53 (ix)
    00000C61 B7               [ 4] 2052 	or	a, a
    00000C62 CAr12r0D         [10] 2053 	jp	Z, 00247$
                                   2054 ;E:\Dropbox\FAUSTO\SVILUPPI\MSX\CODE\C\MSXgl\projects\soccerlgSCC/soccerlg_s12_b3.c:315: u8 gkCountryId = (gkTeam == TEAM_1) ? g_Team1PaletteId : g_Team2PaletteId;
    00000C65 DD 7E F6         [19] 2055 	ld	a, -10 (ix)
    00000C68 3D               [ 4] 2056 	dec	a
    00000C69 20 09            [12] 2057 	jr	NZ, 00406$
    00000C6B 3Ar00r00         [13] 2058 	ld	a, (_g_Team1PaletteId+0)
    00000C6E DD 77 FE         [19] 2059 	ld	-2 (ix), a
    00000C71 C3r7Ar0C         [10] 2060 	jp	00407$
    00000C74                       2061 00406$:
    00000C74 3Ar00r00         [13] 2062 	ld	a, (_g_Team2PaletteId+0)
    00000C77 DD 77 FE         [19] 2063 	ld	-2 (ix), a
    00000C7A                       2064 00407$:
                                   2065 ;E:\Dropbox\FAUSTO\SVILUPPI\MSX\CODE\C\MSXgl\projects\soccerlgSCC/soccerlg_s12_b3.c:197: u16 animStatus = ((g_FrameCounter % 8) == 0) ? PLAYER_STATUS_NONE : PLAYER_STATUS_POSITIONED;
    00000C7A 3Ar00r00         [13] 2066 	ld	a, (_g_FrameCounter+0)
    00000C7D DD 77 F5         [19] 2067 	ld	-11 (ix), a
    00000C80 DD 36 F6 00      [19] 2068 	ld	-10 (ix), #0x00
                                   2069 ;E:\Dropbox\FAUSTO\SVILUPPI\MSX\CODE\C\MSXgl\projects\soccerlgSCC/soccerlg_s12_b3.c:317: if (gkCountryId == TEAM_GER) {
    00000C84 DD 7E FE         [19] 2070 	ld	a, -2 (ix)
    00000C87 3D               [ 4] 2071 	dec	a
    00000C88 20 57            [12] 2072 	jr	NZ, 00244$
                                   2073 ;E:\Dropbox\FAUSTO\SVILUPPI\MSX\CODE\C\MSXgl\projects\soccerlgSCC/soccerlg_s12_b3.c:319: u8 rnd = g_FrameCounter % 100;
    00000C8A 11 64 00         [10] 2074 	ld	de, #0x0064
    00000C8D DD 6E F5         [19] 2075 	ld	l, -11 (ix)
                                   2076 ;	spillPairReg hl
                                   2077 ;	spillPairReg hl
    00000C90 DD 66 F6         [19] 2078 	ld	h, -10 (ix)
                                   2079 ;	spillPairReg hl
                                   2080 ;	spillPairReg hl
    00000C93 CDr00r00         [17] 2081 	call	__modsint
    00000C96 7B               [ 4] 2082 	ld	a, e
                                   2083 ;E:\Dropbox\FAUSTO\SVILUPPI\MSX\CODE\C\MSXgl\projects\soccerlgSCC/soccerlg_s12_b3.c:320: if (rnd < 80) gkChoice = shotDirIdx; // Save
    00000C97 D6 50            [ 7] 2084 	sub	a, #0x50
    00000C99 30 09            [12] 2085 	jr	NC, 00241$
    00000C9B DD 7E FF         [19] 2086 	ld	a, -1 (ix)
    00000C9E DD 77 FE         [19] 2087 	ld	-2 (ix), a
    00000CA1 C3r12r0D         [10] 2088 	jp	00248$
    00000CA4                       2089 00241$:
                                   2090 ;E:\Dropbox\FAUSTO\SVILUPPI\MSX\CODE\C\MSXgl\projects\soccerlgSCC/soccerlg_s12_b3.c:321: else gkChoice = (g_FrameCounter * 7 + 3) % 3; // Random
    00000CA4 DD 4E F5         [19] 2091 	ld	c, -11 (ix)
    00000CA7 DD 46 F6         [19] 2092 	ld	b, -10 (ix)
    00000CAA 69               [ 4] 2093 	ld	l, c
    00000CAB 60               [ 4] 2094 	ld	h, b
    00000CAC 29               [11] 2095 	add	hl, hl
    00000CAD 09               [11] 2096 	add	hl, bc
    00000CAE 29               [11] 2097 	add	hl, hl
    00000CAF 09               [11] 2098 	add	hl, bc
    00000CB0 DD 75 F5         [19] 2099 	ld	-11 (ix), l
    00000CB3 DD 74 F6         [19] 2100 	ld	-10 (ix), h
    00000CB6 DD 7E F5         [19] 2101 	ld	a, -11 (ix)
    00000CB9 C6 03            [ 7] 2102 	add	a, #0x03
    00000CBB DD 77 F3         [19] 2103 	ld	-13 (ix), a
    00000CBE DD 7E F6         [19] 2104 	ld	a, -10 (ix)
    00000CC1 CE 00            [ 7] 2105 	adc	a, #0x00
    00000CC3 DD 77 F4         [19] 2106 	ld	-12 (ix), a
    00000CC6 11 03 00         [10] 2107 	ld	de, #0x0003
    00000CC9 DD 6E F3         [19] 2108 	ld	l, -13 (ix)
                                   2109 ;	spillPairReg hl
                                   2110 ;	spillPairReg hl
    00000CCC DD 66 F4         [19] 2111 	ld	h, -12 (ix)
                                   2112 ;	spillPairReg hl
                                   2113 ;	spillPairReg hl
    00000CCF CDr00r00         [17] 2114 	call	__modsint
    00000CD2 DD 73 F5         [19] 2115 	ld	-11 (ix), e
    00000CD5 DD 72 F6         [19] 2116 	ld	-10 (ix), d
    00000CD8 DD 7E F5         [19] 2117 	ld	a, -11 (ix)
    00000CDB DD 77 FE         [19] 2118 	ld	-2 (ix), a
    00000CDE C3r12r0D         [10] 2119 	jp	00248$
    00000CE1                       2120 00244$:
                                   2121 ;E:\Dropbox\FAUSTO\SVILUPPI\MSX\CODE\C\MSXgl\projects\soccerlgSCC/soccerlg_s12_b3.c:324: gkChoice = (g_FrameCounter * 7 + 3) % 3;
    00000CE1 DD 4E F5         [19] 2122 	ld	c, -11 (ix)
    00000CE4 DD 46 F6         [19] 2123 	ld	b, -10 (ix)
    00000CE7 69               [ 4] 2124 	ld	l, c
    00000CE8 60               [ 4] 2125 	ld	h, b
    00000CE9 29               [11] 2126 	add	hl, hl
    00000CEA 09               [11] 2127 	add	hl, bc
    00000CEB 29               [11] 2128 	add	hl, hl
    00000CEC 09               [11] 2129 	add	hl, bc
    00000CED DD 75 F3         [19] 2130 	ld	-13 (ix), l
    00000CF0 DD 74 F4         [19] 2131 	ld	-12 (ix), h
    00000CF3 DD 7E F3         [19] 2132 	ld	a, -13 (ix)
    00000CF6 C6 03            [ 7] 2133 	add	a, #0x03
    00000CF8 DD 77 F5         [19] 2134 	ld	-11 (ix), a
    00000CFB DD 7E F4         [19] 2135 	ld	a, -12 (ix)
    00000CFE CE 00            [ 7] 2136 	adc	a, #0x00
    00000D00 DD 77 F6         [19] 2137 	ld	-10 (ix), a
    00000D03 11 03 00         [10] 2138 	ld	de, #0x0003
    00000D06 DD 6E F5         [19] 2139 	ld	l, -11 (ix)
                                   2140 ;	spillPairReg hl
                                   2141 ;	spillPairReg hl
    00000D09 DD 66 F6         [19] 2142 	ld	h, -10 (ix)
                                   2143 ;	spillPairReg hl
                                   2144 ;	spillPairReg hl
    00000D0C CDr00r00         [17] 2145 	call	__modsint
    00000D0F DD 73 FE         [19] 2146 	ld	-2 (ix), e
                                   2147 ;E:\Dropbox\FAUSTO\SVILUPPI\MSX\CODE\C\MSXgl\projects\soccerlgSCC/soccerlg_s12_b3.c:328: gkChoice = playerGkChoice;
    00000D12                       2148 00247$:
    00000D12                       2149 00248$:
                                   2150 ;E:\Dropbox\FAUSTO\SVILUPPI\MSX\CODE\C\MSXgl\projects\soccerlgSCC/soccerlg_s12_b3.c:331: if (gkChoice == 0) gkDiveDir = DIRECTION_LEFT;
    00000D12 DD 7E FE         [19] 2151 	ld	a, -2 (ix)
    00000D15 B7               [ 4] 2152 	or	a, a
    00000D16 20 05            [12] 2153 	jr	NZ, 00253$
    00000D18 0E 07            [ 7] 2154 	ld	c, #0x07
    00000D1A C3r28r0D         [10] 2155 	jp	00254$
    00000D1D                       2156 00253$:
                                   2157 ;E:\Dropbox\FAUSTO\SVILUPPI\MSX\CODE\C\MSXgl\projects\soccerlgSCC/soccerlg_s12_b3.c:332: else if (gkChoice == 2) gkDiveDir = DIRECTION_RIGHT;
    00000D1D DD 7E FE         [19] 2158 	ld	a, -2 (ix)
    00000D20 D6 02            [ 7] 2159 	sub	a, #0x02
                                   2160 ;E:\Dropbox\FAUSTO\SVILUPPI\MSX\CODE\C\MSXgl\projects\soccerlgSCC/soccerlg_s12_b3.c:333: else gkDiveDir = DIRECTION_NONE;
    00000D22 0E 03            [ 7] 2161 	ld	c, #0x03
    00000D24 28 02            [12] 2162 	jr	Z, 00254$
    00000D26 0E 00            [ 7] 2163 	ld	c, #0x00
    00000D28                       2164 00254$:
                                   2165 ;E:\Dropbox\FAUSTO\SVILUPPI\MSX\CODE\C\MSXgl\projects\soccerlgSCC/soccerlg_s12_b3.c:334: PlayAyFx(AYFX_BALL);
    00000D28 C5               [11] 2166 	push	bc
    00000D29 3E 05            [ 7] 2167 	ld	a, #0x05
    00000D2B CDr00r00         [17] 2168 	call	_PlayAyFx
    00000D2E C1               [10] 2169 	pop	bc
                                   2170 ;E:\Dropbox\FAUSTO\SVILUPPI\MSX\CODE\C\MSXgl\projects\soccerlgSCC/soccerlg_s12_b3.c:335: while (ballTimer < 60) {
    00000D2F 79               [ 4] 2171 	ld	a, c
    00000D30 D6 07            [ 7] 2172 	sub	a, #0x07
    00000D32 3E 01            [ 7] 2173 	ld	a, #0x01
    00000D34 28 01            [12] 2174 	jr	Z, 01163$
    00000D36 AF               [ 4] 2175 	xor	a, a
    00000D37                       2176 01163$:
    00000D37 DD 77 EE         [19] 2177 	ld	-18 (ix), a
    00000D3A 79               [ 4] 2178 	ld	a, c
    00000D3B D6 03            [ 7] 2179 	sub	a, #0x03
    00000D3D 3E 01            [ 7] 2180 	ld	a, #0x01
    00000D3F 28 01            [12] 2181 	jr	Z, 01165$
    00000D41 AF               [ 4] 2182 	xor	a, a
    00000D42                       2183 01165$:
    00000D42 DD 77 EF         [19] 2184 	ld	-17 (ix), a
    00000D45 DD 7E FF         [19] 2185 	ld	a, -1 (ix)
    00000D48 DD 96 FE         [19] 2186 	sub	a, -2 (ix)
    00000D4B 3E 01            [ 7] 2187 	ld	a, #0x01
    00000D4D 28 01            [12] 2188 	jr	Z, 01167$
    00000D4F AF               [ 4] 2189 	xor	a, a
    00000D50                       2190 01167$:
    00000D50 DD 77 F0         [19] 2191 	ld	-16 (ix), a
    00000D53 AF               [ 4] 2192 	xor	a, a
    00000D54 DD 77 FE         [19] 2193 	ld	-2 (ix), a
    00000D57 DD 77 FF         [19] 2194 	ld	-1 (ix), a
    00000D5A                       2195 00273$:
    00000D5A DD 7E FE         [19] 2196 	ld	a, -2 (ix)
    00000D5D DD 77 F5         [19] 2197 	ld	-11 (ix), a
    00000D60 DD 7E FF         [19] 2198 	ld	a, -1 (ix)
    00000D63 DD 77 F6         [19] 2199 	ld	-10 (ix), a
    00000D66 DD 7E F5         [19] 2200 	ld	a, -11 (ix)
    00000D69 D6 3C            [ 7] 2201 	sub	a, #0x3c
    00000D6B DD 7E F6         [19] 2202 	ld	a, -10 (ix)
    00000D6E DE 00            [ 7] 2203 	sbc	a, #0x00
    00000D70 D2r5Dr0F         [10] 2204 	jp	NC, 00275$
                                   2205 ;E:\Dropbox\FAUSTO\SVILUPPI\MSX\CODE\C\MSXgl\projects\soccerlgSCC/soccerlg_s12_b3.c:336: V9990_WaitSynch();
    00000D73 CDr00r00         [17] 2206 	call	_V9990_WaitSynch
                                   2207 ;E:\Dropbox\FAUSTO\SVILUPPI\MSX\CODE\C\MSXgl\projects\soccerlgSCC/soccerlg_s12_b3.c:337: ballTimer++;
    00000D76 DD 34 FE         [23] 2208 	inc	-2 (ix)
    00000D79 20 03            [12] 2209 	jr	NZ, 01168$
    00000D7B DD 34 FF         [23] 2210 	inc	-1 (ix)
    00000D7E                       2211 01168$:
                                   2212 ;E:\Dropbox\FAUSTO\SVILUPPI\MSX\CODE\C\MSXgl\projects\soccerlgSCC/soccerlg_s12_b3.c:339: i16 dx = (i16)targetX - (i16)g_Ball.X;
    00000D7E DD 7E EA         [19] 2213 	ld	a, -22 (ix)
    00000D81 DD 77 F1         [19] 2214 	ld	-15 (ix), a
    00000D84 DD 7E EB         [19] 2215 	ld	a, -21 (ix)
    00000D87 DD 77 F2         [19] 2216 	ld	-14 (ix), a
    00000D8A 21r02r00         [10] 2217 	ld	hl, #(_g_Ball + 2)
    00000D8D 7E               [ 7] 2218 	ld	a, (hl)
    00000D8E DD 77 F5         [19] 2219 	ld	-11 (ix), a
    00000D91 23               [ 6] 2220 	inc	hl
    00000D92 7E               [ 7] 2221 	ld	a, (hl)
    00000D93 DD 77 F6         [19] 2222 	ld	-10 (ix), a
    00000D96 DD 7E F5         [19] 2223 	ld	a, -11 (ix)
    00000D99 DD 77 F3         [19] 2224 	ld	-13 (ix), a
    00000D9C DD 7E F6         [19] 2225 	ld	a, -10 (ix)
    00000D9F DD 77 F4         [19] 2226 	ld	-12 (ix), a
    00000DA2 DD 7E F1         [19] 2227 	ld	a, -15 (ix)
    00000DA5 DD 96 F3         [19] 2228 	sub	a, -13 (ix)
    00000DA8 DD 77 F5         [19] 2229 	ld	-11 (ix), a
    00000DAB DD 7E F2         [19] 2230 	ld	a, -14 (ix)
    00000DAE DD 9E F4         [19] 2231 	sbc	a, -12 (ix)
    00000DB1 DD 77 F6         [19] 2232 	ld	-10 (ix), a
                                   2233 ;E:\Dropbox\FAUSTO\SVILUPPI\MSX\CODE\C\MSXgl\projects\soccerlgSCC/soccerlg_s12_b3.c:342: g_Ball.Y -= 6;
    00000DB4 21r00r00         [10] 2234 	ld	hl, #_g_Ball
    00000DB7 7E               [ 7] 2235 	ld	a, (hl)
    00000DB8 DD 77 F3         [19] 2236 	ld	-13 (ix), a
    00000DBB 23               [ 6] 2237 	inc	hl
    00000DBC 7E               [ 7] 2238 	ld	a, (hl)
    00000DBD DD 77 F4         [19] 2239 	ld	-12 (ix), a
    00000DC0 DD 7E F3         [19] 2240 	ld	a, -13 (ix)
    00000DC3 DD 77 F1         [19] 2241 	ld	-15 (ix), a
    00000DC6 DD 7E F4         [19] 2242 	ld	a, -12 (ix)
    00000DC9 DD 77 F2         [19] 2243 	ld	-14 (ix), a
    00000DCC DD 7E F1         [19] 2244 	ld	a, -15 (ix)
    00000DCF C6 FA            [ 7] 2245 	add	a, #0xfa
    00000DD1 DD 77 F3         [19] 2246 	ld	-13 (ix), a
    00000DD4 DD 7E F2         [19] 2247 	ld	a, -14 (ix)
    00000DD7 CE FF            [ 7] 2248 	adc	a, #0xff
    00000DD9 DD 77 F4         [19] 2249 	ld	-12 (ix), a
    00000DDC 21r00r00         [10] 2250 	ld	hl, #_g_Ball
    00000DDF DD 7E F3         [19] 2251 	ld	a, -13 (ix)
    00000DE2 77               [ 7] 2252 	ld	(hl), a
    00000DE3 23               [ 6] 2253 	inc	hl
    00000DE4 DD 7E F4         [19] 2254 	ld	a, -12 (ix)
    00000DE7 77               [ 7] 2255 	ld	(hl), a
                                   2256 ;E:\Dropbox\FAUSTO\SVILUPPI\MSX\CODE\C\MSXgl\projects\soccerlgSCC/soccerlg_s12_b3.c:343: g_Ball.X += (dx / 8); 
    00000DE8 21r02r00         [10] 2257 	ld	hl, #(_g_Ball + 2)
    00000DEB 7E               [ 7] 2258 	ld	a, (hl)
    00000DEC DD 77 F3         [19] 2259 	ld	-13 (ix), a
    00000DEF 23               [ 6] 2260 	inc	hl
    00000DF0 7E               [ 7] 2261 	ld	a, (hl)
    00000DF1 DD 77 F4         [19] 2262 	ld	-12 (ix), a
    00000DF4 DD 7E F5         [19] 2263 	ld	a, -11 (ix)
    00000DF7 DD 77 F1         [19] 2264 	ld	-15 (ix), a
    00000DFA DD 7E F6         [19] 2265 	ld	a, -10 (ix)
    00000DFD DD 77 F2         [19] 2266 	ld	-14 (ix), a
    00000E00 DD 7E F1         [19] 2267 	ld	a, -15 (ix)
    00000E03 DD 77 F5         [19] 2268 	ld	-11 (ix), a
    00000E06 DD 7E F2         [19] 2269 	ld	a, -14 (ix)
    00000E09 DD 77 F6         [19] 2270 	ld	-10 (ix), a
    00000E0C DD CB F2 7E      [20] 2271 	bit	7, -14 (ix)
    00000E10 28 10            [12] 2272 	jr	Z, 00408$
    00000E12 DD 7E F1         [19] 2273 	ld	a, -15 (ix)
    00000E15 C6 07            [ 7] 2274 	add	a, #0x07
    00000E17 DD 77 F5         [19] 2275 	ld	-11 (ix), a
    00000E1A DD 7E F2         [19] 2276 	ld	a, -14 (ix)
    00000E1D CE 00            [ 7] 2277 	adc	a, #0x00
    00000E1F DD 77 F6         [19] 2278 	ld	-10 (ix), a
    00000E22                       2279 00408$:
    00000E22 DD CB F6 2E      [23] 2280 	sra	-10 (ix)
    00000E26 DD CB F5 1E      [23] 2281 	rr	-11 (ix)
    00000E2A DD CB F6 2E      [23] 2282 	sra	-10 (ix)
    00000E2E DD CB F5 1E      [23] 2283 	rr	-11 (ix)
    00000E32 DD CB F6 2E      [23] 2284 	sra	-10 (ix)
    00000E36 DD CB F5 1E      [23] 2285 	rr	-11 (ix)
    00000E3A DD 7E F3         [19] 2286 	ld	a, -13 (ix)
    00000E3D DD 77 F1         [19] 2287 	ld	-15 (ix), a
    00000E40 DD 7E F4         [19] 2288 	ld	a, -12 (ix)
    00000E43 DD 77 F2         [19] 2289 	ld	-14 (ix), a
    00000E46 DD 7E F5         [19] 2290 	ld	a, -11 (ix)
    00000E49 DD 77 F3         [19] 2291 	ld	-13 (ix), a
    00000E4C DD 7E F6         [19] 2292 	ld	a, -10 (ix)
    00000E4F DD 77 F4         [19] 2293 	ld	-12 (ix), a
    00000E52 DD 7E F3         [19] 2294 	ld	a, -13 (ix)
    00000E55 DD 86 F1         [19] 2295 	add	a, -15 (ix)
    00000E58 DD 77 F5         [19] 2296 	ld	-11 (ix), a
    00000E5B DD 7E F4         [19] 2297 	ld	a, -12 (ix)
    00000E5E DD 8E F2         [19] 2298 	adc	a, -14 (ix)
    00000E61 DD 77 F6         [19] 2299 	ld	-10 (ix), a
    00000E64 21r02r00         [10] 2300 	ld	hl, #(_g_Ball + 2)
    00000E67 DD 7E F5         [19] 2301 	ld	a, -11 (ix)
    00000E6A 77               [ 7] 2302 	ld	(hl), a
    00000E6B 23               [ 6] 2303 	inc	hl
    00000E6C DD 7E F6         [19] 2304 	ld	a, -10 (ix)
    00000E6F 77               [ 7] 2305 	ld	(hl), a
                                   2306 ;E:\Dropbox\FAUSTO\SVILUPPI\MSX\CODE\C\MSXgl\projects\soccerlgSCC/soccerlg_s12_b3.c:345: if (ballTimer < 20) {
    00000E70 DD 7E FE         [19] 2307 	ld	a, -2 (ix)
    00000E73 DD 46 FF         [19] 2308 	ld	b, -1 (ix)
    00000E76 D6 14            [ 7] 2309 	sub	a, #0x14
    00000E78 78               [ 4] 2310 	ld	a, b
    00000E79 DE 00            [ 7] 2311 	sbc	a, #0x00
    00000E7B D2r11r0F         [10] 2312 	jp	NC, 00261$
                                   2313 ;E:\Dropbox\FAUSTO\SVILUPPI\MSX\CODE\C\MSXgl\projects\soccerlgSCC/soccerlg_s12_b3.c:346: if (gkDiveDir == DIRECTION_LEFT) {
    00000E7E DD 7E EE         [19] 2314 	ld	a, -18 (ix)
    00000E81 B7               [ 4] 2315 	or	a, a
    00000E82 28 45            [12] 2316 	jr	Z, 00258$
                                   2317 ;E:\Dropbox\FAUSTO\SVILUPPI\MSX\CODE\C\MSXgl\projects\soccerlgSCC/soccerlg_s12_b3.c:347: g_Players[gkId].X -= 3;
    00000E84 DD 6E E0         [19] 2318 	ld	l, -32 (ix)
    00000E87 DD 66 E1         [19] 2319 	ld	h, -31 (ix)
    00000E8A 7E               [ 7] 2320 	ld	a, (hl)
    00000E8B DD 77 F5         [19] 2321 	ld	-11 (ix), a
    00000E8E 23               [ 6] 2322 	inc	hl
    00000E8F 7E               [ 7] 2323 	ld	a, (hl)
    00000E90 DD 77 F6         [19] 2324 	ld	-10 (ix), a
    00000E93 DD 7E F5         [19] 2325 	ld	a, -11 (ix)
    00000E96 DD 77 F3         [19] 2326 	ld	-13 (ix), a
    00000E99 DD 7E F6         [19] 2327 	ld	a, -10 (ix)
    00000E9C DD 77 F4         [19] 2328 	ld	-12 (ix), a
    00000E9F DD 7E F3         [19] 2329 	ld	a, -13 (ix)
    00000EA2 C6 FD            [ 7] 2330 	add	a, #0xfd
    00000EA4 DD 77 F5         [19] 2331 	ld	-11 (ix), a
    00000EA7 DD 7E F4         [19] 2332 	ld	a, -12 (ix)
    00000EAA CE FF            [ 7] 2333 	adc	a, #0xff
    00000EAC DD 77 F6         [19] 2334 	ld	-10 (ix), a
    00000EAF DD 6E E0         [19] 2335 	ld	l, -32 (ix)
    00000EB2 DD 66 E1         [19] 2336 	ld	h, -31 (ix)
    00000EB5 DD 7E F5         [19] 2337 	ld	a, -11 (ix)
    00000EB8 77               [ 7] 2338 	ld	(hl), a
    00000EB9 23               [ 6] 2339 	inc	hl
    00000EBA DD 7E F6         [19] 2340 	ld	a, -10 (ix)
    00000EBD 77               [ 7] 2341 	ld	(hl), a
                                   2342 ;E:\Dropbox\FAUSTO\SVILUPPI\MSX\CODE\C\MSXgl\projects\soccerlgSCC/soccerlg_s12_b3.c:348: g_Players[gkId].PatternId = PLAYER_POSE_TEAM2_GK_DOWN_LEFT;
    00000EBE DD 6E E8         [19] 2343 	ld	l, -24 (ix)
    00000EC1 DD 66 E9         [19] 2344 	ld	h, -23 (ix)
    00000EC4 36 A0            [10] 2345 	ld	(hl), #0xa0
    00000EC6 C3r11r0F         [10] 2346 	jp	00261$
    00000EC9                       2347 00258$:
                                   2348 ;E:\Dropbox\FAUSTO\SVILUPPI\MSX\CODE\C\MSXgl\projects\soccerlgSCC/soccerlg_s12_b3.c:349: } else if (gkDiveDir == DIRECTION_RIGHT) {
    00000EC9 DD 7E EF         [19] 2349 	ld	a, -17 (ix)
    00000ECC B7               [ 4] 2350 	or	a, a
    00000ECD 28 42            [12] 2351 	jr	Z, 00261$
                                   2352 ;E:\Dropbox\FAUSTO\SVILUPPI\MSX\CODE\C\MSXgl\projects\soccerlgSCC/soccerlg_s12_b3.c:350: g_Players[gkId].X += 3;
    00000ECF DD 6E E0         [19] 2353 	ld	l, -32 (ix)
    00000ED2 DD 66 E1         [19] 2354 	ld	h, -31 (ix)
    00000ED5 7E               [ 7] 2355 	ld	a, (hl)
    00000ED6 DD 77 F5         [19] 2356 	ld	-11 (ix), a
    00000ED9 23               [ 6] 2357 	inc	hl
    00000EDA 7E               [ 7] 2358 	ld	a, (hl)
    00000EDB DD 77 F6         [19] 2359 	ld	-10 (ix), a
    00000EDE DD 7E F5         [19] 2360 	ld	a, -11 (ix)
    00000EE1 DD 77 F3         [19] 2361 	ld	-13 (ix), a
    00000EE4 DD 7E F6         [19] 2362 	ld	a, -10 (ix)
    00000EE7 DD 77 F4         [19] 2363 	ld	-12 (ix), a
    00000EEA DD 7E F3         [19] 2364 	ld	a, -13 (ix)
    00000EED C6 03            [ 7] 2365 	add	a, #0x03
    00000EEF DD 77 F5         [19] 2366 	ld	-11 (ix), a
    00000EF2 DD 7E F4         [19] 2367 	ld	a, -12 (ix)
    00000EF5 CE 00            [ 7] 2368 	adc	a, #0x00
    00000EF7 DD 77 F6         [19] 2369 	ld	-10 (ix), a
    00000EFA DD 6E E0         [19] 2370 	ld	l, -32 (ix)
    00000EFD DD 66 E1         [19] 2371 	ld	h, -31 (ix)
    00000F00 DD 7E F5         [19] 2372 	ld	a, -11 (ix)
    00000F03 77               [ 7] 2373 	ld	(hl), a
    00000F04 23               [ 6] 2374 	inc	hl
    00000F05 DD 7E F6         [19] 2375 	ld	a, -10 (ix)
    00000F08 77               [ 7] 2376 	ld	(hl), a
                                   2377 ;E:\Dropbox\FAUSTO\SVILUPPI\MSX\CODE\C\MSXgl\projects\soccerlgSCC/soccerlg_s12_b3.c:351: g_Players[gkId].PatternId = PLAYER_POSE_TEAM2_GK_DOWN_RIGHT;
    00000F09 DD 6E E8         [19] 2378 	ld	l, -24 (ix)
    00000F0C DD 66 E9         [19] 2379 	ld	h, -23 (ix)
    00000F0F 36 2F            [10] 2380 	ld	(hl), #0x2f
    00000F11                       2381 00261$:
                                   2382 ;E:\Dropbox\FAUSTO\SVILUPPI\MSX\CODE\C\MSXgl\projects\soccerlgSCC/soccerlg_s12_b3.c:342: g_Ball.Y -= 6;
    00000F11 21r00r00         [10] 2383 	ld	hl, #_g_Ball
    00000F14 7E               [ 7] 2384 	ld	a, (hl)
    00000F15 DD 77 F5         [19] 2385 	ld	-11 (ix), a
    00000F18 23               [ 6] 2386 	inc	hl
    00000F19 7E               [ 7] 2387 	ld	a, (hl)
    00000F1A DD 77 F6         [19] 2388 	ld	-10 (ix), a
                                   2389 ;E:\Dropbox\FAUSTO\SVILUPPI\MSX\CODE\C\MSXgl\projects\soccerlgSCC/soccerlg_s12_b3.c:355: if (g_Ball.Y <= FIELD_BOUND_Y_TOP + 8) {
    00000F1D 3E 3A            [ 7] 2390 	ld	a, #0x3a
    00000F1F DD BE F5         [19] 2391 	cp	a, -11 (ix)
    00000F22 3E 00            [ 7] 2392 	ld	a, #0x00
    00000F24 DD 9E F6         [19] 2393 	sbc	a, -10 (ix)
    00000F27 38 17            [12] 2394 	jr	C, 00268$
                                   2395 ;E:\Dropbox\FAUSTO\SVILUPPI\MSX\CODE\C\MSXgl\projects\soccerlgSCC/soccerlg_s12_b3.c:356: if (gkChoice == shotDirIdx) {
    00000F29 DD 7E F0         [19] 2396 	ld	a, -16 (ix)
    00000F2C B7               [ 4] 2397 	or	a, a
    00000F2D 28 07            [12] 2398 	jr	Z, 00263$
                                   2399 ;E:\Dropbox\FAUSTO\SVILUPPI\MSX\CODE\C\MSXgl\projects\soccerlgSCC/soccerlg_s12_b3.c:357: saved = true;
    00000F2F DD 36 ED 01      [19] 2400 	ld	-19 (ix), #0x01
    00000F33 C3r3Ar0F         [10] 2401 	jp	00264$
    00000F36                       2402 00263$:
                                   2403 ;E:\Dropbox\FAUSTO\SVILUPPI\MSX\CODE\C\MSXgl\projects\soccerlgSCC/soccerlg_s12_b3.c:359: goal = true;
    00000F36 DD 36 EC 01      [19] 2404 	ld	-20 (ix), #0x01
    00000F3A                       2405 00264$:
                                   2406 ;E:\Dropbox\FAUSTO\SVILUPPI\MSX\CODE\C\MSXgl\projects\soccerlgSCC/soccerlg_s12_b3.c:362: if (saved) break;
    00000F3A DD 7E ED         [19] 2407 	ld	a, -19 (ix)
    00000F3D B7               [ 4] 2408 	or	a, a
    00000F3E 20 1D            [12] 2409 	jr	NZ, 00275$
    00000F40                       2410 00268$:
                                   2411 ;E:\Dropbox\FAUSTO\SVILUPPI\MSX\CODE\C\MSXgl\projects\soccerlgSCC/soccerlg_s12_b3.c:365: if (goal) {
    00000F40 DD 7E EC         [19] 2412 	ld	a, -20 (ix)
    00000F43 B7               [ 4] 2413 	or	a, a
    00000F44 28 0C            [12] 2414 	jr	Z, 00272$
                                   2415 ;E:\Dropbox\FAUSTO\SVILUPPI\MSX\CODE\C\MSXgl\projects\soccerlgSCC/soccerlg_s12_b3.c:366: if (g_Ball.Y <= FIELD_BOUND_Y_TOP - 10) break;
    00000F46 3E 28            [ 7] 2416 	ld	a, #0x28
    00000F48 DD BE F5         [19] 2417 	cp	a, -11 (ix)
    00000F4B 3E 00            [ 7] 2418 	ld	a, #0x00
    00000F4D DD 9E F6         [19] 2419 	sbc	a, -10 (ix)
    00000F50 30 0B            [12] 2420 	jr	NC, 00275$
    00000F52                       2421 00272$:
                                   2422 ;E:\Dropbox\FAUSTO\SVILUPPI\MSX\CODE\C\MSXgl\projects\soccerlgSCC/soccerlg_s12_b3.c:368: CallFnc_VOID(6,UpdateSpritesPositions);
    00000F52 11r00r00         [10] 2423 	ld	de, #_UpdateSpritesPositions
    00000F55 3E 06            [ 7] 2424 	ld	a, #0x06
    00000F57 CDr00r00         [17] 2425 	call	_CallFnc_VOID
    00000F5A C3r5Ar0D         [10] 2426 	jp	00273$
    00000F5D                       2427 00275$:
                                   2428 ;E:\Dropbox\FAUSTO\SVILUPPI\MSX\CODE\C\MSXgl\projects\soccerlgSCC/soccerlg_s12_b3.c:372: if (goal) {
    00000F5D DD 7E EC         [19] 2429 	ld	a, -20 (ix)
    00000F60 B7               [ 4] 2430 	or	a, a
    00000F61 28 66            [12] 2431 	jr	Z, 00286$
                                   2432 ;E:\Dropbox\FAUSTO\SVILUPPI\MSX\CODE\C\MSXgl\projects\soccerlgSCC/soccerlg_s12_b3.c:373: resChar = 'O'; // Uppercase for visibility
    00000F63 DD 36 FF 4F      [19] 2433 	ld	-1 (ix), #0x4f
                                   2434 ;E:\Dropbox\FAUSTO\SVILUPPI\MSX\CODE\C\MSXgl\projects\soccerlgSCC/soccerlg_s12_b3.c:374: if (kickingTeam == TEAM_1) goals1++; else goals2++;
    00000F67 DD 7E CB         [19] 2435 	ld	a, -53 (ix)
    00000F6A B7               [ 4] 2436 	or	a, a
    00000F6B 28 06            [12] 2437 	jr	Z, 00277$
    00000F6D DD 34 F9         [23] 2438 	inc	-7 (ix)
    00000F70 C3r76r0F         [10] 2439 	jp	00278$
    00000F73                       2440 00277$:
    00000F73 DD 34 F8         [23] 2441 	inc	-8 (ix)
    00000F76                       2442 00278$:
                                   2443 ;E:\Dropbox\FAUSTO\SVILUPPI\MSX\CODE\C\MSXgl\projects\soccerlgSCC/soccerlg_s12_b3.c:375: V9990_PrintLayerAStringAtPos(12, 10, "IN  GOAL");
    00000F76 21r4Cr16         [10] 2444 	ld	hl, #___str_1
    00000F79 E5               [11] 2445 	push	hl
    00000F7A 2E 0A            [ 7] 2446 	ld	l, #0x0a
                                   2447 ;	spillPairReg hl
                                   2448 ;	spillPairReg hl
    00000F7C 3E 0C            [ 7] 2449 	ld	a, #0x0c
    00000F7E CDr00r00         [17] 2450 	call	_V9990_PrintLayerAStringAtPos
                                   2451 ;E:\Dropbox\FAUSTO\SVILUPPI\MSX\CODE\C\MSXgl\projects\soccerlgSCC/soccerlg_s12_b3.c:376: if (g_modernAudio) {
    00000F81 3Ar00r00         [13] 2452 	ld	a, (_g_modernAudio+0)
    00000F84 B7               [ 4] 2453 	or	a, a
    00000F85 28 14            [12] 2454 	jr	Z, 00280$
                                   2455 ;E:\Dropbox\FAUSTO\SVILUPPI\MSX\CODE\C\MSXgl\projects\soccerlgSCC/soccerlg_s12_b3.c:377: YSCC_Stop();
    00000F87 CDr00r00         [17] 2456 	call	_YSCC_Stop
                                   2457 ;E:\Dropbox\FAUSTO\SVILUPPI\MSX\CODE\C\MSXgl\projects\soccerlgSCC/soccerlg_s12_b3.c:378: YSCC_Play(SCC_MODERN_INGOAL_BIN_SEG, SCC_MODERN_INGOAL_BIN_SIZE);
    00000F8A 21 08 00         [10] 2458 	ld	hl, #0x0008
    00000F8D E5               [11] 2459 	push	hl
    00000F8E 21 00 DE         [10] 2460 	ld	hl, #0xde00
    00000F91 E5               [11] 2461 	push	hl
    00000F92 21 8A 02         [10] 2462 	ld	hl, #0x028a
    00000F95 CDr00r00         [17] 2463 	call	_YSCC_Play
    00000F98 C3rB1r0F         [10] 2464 	jp	00281$
    00000F9B                       2465 00280$:
                                   2466 ;E:\Dropbox\FAUSTO\SVILUPPI\MSX\CODE\C\MSXgl\projects\soccerlgSCC/soccerlg_s12_b3.c:380: PlayPCM(PCM_INGOAL);
    00000F9B 3E 02            [ 7] 2467 	ld	a, #0x02
    00000F9D CDr00r00         [17] 2468 	call	_PlayPCM
                                   2469 ;E:\Dropbox\FAUSTO\SVILUPPI\MSX\CODE\C\MSXgl\projects\soccerlgSCC/soccerlg_s12_b3.c:381: YSCC_Stop();
    00000FA0 CDr00r00         [17] 2470 	call	_YSCC_Stop
                                   2471 ;E:\Dropbox\FAUSTO\SVILUPPI\MSX\CODE\C\MSXgl\projects\soccerlgSCC/soccerlg_s12_b3.c:382: YSCC_Play(SCC_MODERN_INGOAL_BIN_SEG, SCC_MODERN_INGOAL_BIN_SIZE);//YSCC_Play(SCC_PUBLIC_GOAL_BIN_SEG, SCC_PUBLIC_GOAL_BIN_SIZE);
    00000FA3 21 08 00         [10] 2472 	ld	hl, #0x0008
    00000FA6 E5               [11] 2473 	push	hl
    00000FA7 21 00 DE         [10] 2474 	ld	hl, #0xde00
    00000FAA E5               [11] 2475 	push	hl
    00000FAB 21 8A 02         [10] 2476 	ld	hl, #0x028a
    00000FAE CDr00r00         [17] 2477 	call	_YSCC_Play
    00000FB1                       2478 00281$:
                                   2479 ;E:\Dropbox\FAUSTO\SVILUPPI\MSX\CODE\C\MSXgl\projects\soccerlgSCC/soccerlg_s12_b3.c:384: g_peopleState=!g_peopleState;
    00000FB1 3Ar00r00         [13] 2480 	ld	a, (_g_peopleState+0)
    00000FB4 D6 01            [ 7] 2481 	sub	a,#0x01
    00000FB6 3E 00            [ 7] 2482 	ld	a, #0x00
    00000FB8 17               [ 4] 2483 	rla
                                   2484 ;E:\Dropbox\FAUSTO\SVILUPPI\MSX\CODE\C\MSXgl\projects\soccerlgSCC/soccerlg_s12_b3.c:385: CallFnc_VOID_P1(7,PeopleMoving,g_peopleState);
    00000FB9 32r00r00         [13] 2485 	ld	(_g_peopleState+0), a
    00000FBC F5               [11] 2486 	push	af
    00000FBD 33               [ 6] 2487 	inc	sp
    00000FBE 11r00r00         [10] 2488 	ld	de, #_PeopleMoving
    00000FC1 3E 07            [ 7] 2489 	ld	a, #0x07
    00000FC3 CDr00r00         [17] 2490 	call	_CallFnc_VOID_P1
    00000FC6 C3r10r10         [10] 2491 	jp	00287$
    00000FC9                       2492 00286$:
                                   2493 ;E:\Dropbox\FAUSTO\SVILUPPI\MSX\CODE\C\MSXgl\projects\soccerlgSCC/soccerlg_s12_b3.c:387: resChar = 'X'; // Uppercase for visibility
    00000FC9 DD 36 FF 58      [19] 2494 	ld	-1 (ix), #0x58
                                   2495 ;E:\Dropbox\FAUSTO\SVILUPPI\MSX\CODE\C\MSXgl\projects\soccerlgSCC/soccerlg_s12_b3.c:388: if (g_modernAudio) {
    00000FCD 3Ar00r00         [13] 2496 	ld	a, (_g_modernAudio+0)
    00000FD0 B7               [ 4] 2497 	or	a, a
    00000FD1 28 11            [12] 2498 	jr	Z, 00283$
                                   2499 ;E:\Dropbox\FAUSTO\SVILUPPI\MSX\CODE\C\MSXgl\projects\soccerlgSCC/soccerlg_s12_b3.c:389: YSCC_Play(SCC_MODERN_GOALKICK_BIN_SEG, SCC_MODERN_GOALKICK_BIN_SIZE);
    00000FD3 21 01 00         [10] 2500 	ld	hl, #0x0001
    00000FD6 E5               [11] 2501 	push	hl
    00000FD7 21 80 2E         [10] 2502 	ld	hl, #0x2e80
    00000FDA E5               [11] 2503 	push	hl
    00000FDB 21 F8 02         [10] 2504 	ld	hl, #0x02f8
    00000FDE CDr00r00         [17] 2505 	call	_YSCC_Play
    00000FE1 C3rE9r0F         [10] 2506 	jp	00284$
    00000FE4                       2507 00283$:
                                   2508 ;E:\Dropbox\FAUSTO\SVILUPPI\MSX\CODE\C\MSXgl\projects\soccerlgSCC/soccerlg_s12_b3.c:391: PlayAyFx(AYFX_BALL_ON_GOALKEEPER);
    00000FE4 3E 03            [ 7] 2509 	ld	a, #0x03
    00000FE6 CDr00r00         [17] 2510 	call	_PlayAyFx
    00000FE9                       2511 00284$:
                                   2512 ;E:\Dropbox\FAUSTO\SVILUPPI\MSX\CODE\C\MSXgl\projects\soccerlgSCC/soccerlg_s12_b3.c:393: V9990_PrintLayerAStringAtPos(14, 10, saved ? "SAVED" : "MISS");
    00000FE9 DD 7E ED         [19] 2513 	ld	a, -19 (ix)
    00000FEC B7               [ 4] 2514 	or	a, a
    00000FED 28 0B            [12] 2515 	jr	Z, 00409$
    00000FEF DD 36 F5r55      [19] 2516 	ld	-11 (ix), #<(___str_2)
    00000FF3 DD 36 F6s16      [19] 2517 	ld	-10 (ix), #>(___str_2)
    00000FF7 C3r02r10         [10] 2518 	jp	00410$
    00000FFA                       2519 00409$:
    00000FFA DD 36 F5r5B      [19] 2520 	ld	-11 (ix), #<(___str_3)
    00000FFE DD 36 F6s16      [19] 2521 	ld	-10 (ix), #>(___str_3)
    00001002                       2522 00410$:
    00001002 DD 4E F5         [19] 2523 	ld	c, -11 (ix)
    00001005 DD 46 F6         [19] 2524 	ld	b, -10 (ix)
    00001008 C5               [11] 2525 	push	bc
    00001009 2E 0A            [ 7] 2526 	ld	l, #0x0a
                                   2527 ;	spillPairReg hl
                                   2528 ;	spillPairReg hl
    0000100B 3E 0E            [ 7] 2529 	ld	a, #0x0e
    0000100D CDr00r00         [17] 2530 	call	_V9990_PrintLayerAStringAtPos
    00001010                       2531 00287$:
                                   2532 ;E:\Dropbox\FAUSTO\SVILUPPI\MSX\CODE\C\MSXgl\projects\soccerlgSCC/soccerlg_s12_b3.c:396: if (kickingTeam == TEAM_1) { if(h1_idx < 19) { g_History1[h1_idx++] = resChar; g_History1[h1_idx] = 0; } shots1++; } 
    00001010 DD 7E CB         [19] 2533 	ld	a, -53 (ix)
    00001013 B7               [ 4] 2534 	or	a, a
    00001014 28 36            [12] 2535 	jr	Z, 00293$
    00001016 DD 7E F7         [19] 2536 	ld	a, -9 (ix)
    00001019 D6 13            [ 7] 2537 	sub	a, #0x13
    0000101B 30 29            [12] 2538 	jr	NC, 00289$
    0000101D 3Er00            [ 7] 2539 	ld	a, #<(_g_History1)
    0000101F DD 86 F7         [19] 2540 	add	a, -9 (ix)
    00001022 DD 77 F5         [19] 2541 	ld	-11 (ix), a
    00001025 3Es00            [ 7] 2542 	ld	a, #>(_g_History1)
    00001027 CE 00            [ 7] 2543 	adc	a, #0x00
    00001029 DD 77 F6         [19] 2544 	ld	-10 (ix), a
    0000102C DD 34 F7         [23] 2545 	inc	-9 (ix)
    0000102F DD 6E F5         [19] 2546 	ld	l, -11 (ix)
    00001032 DD 66 F6         [19] 2547 	ld	h, -10 (ix)
    00001035 DD 7E FF         [19] 2548 	ld	a, -1 (ix)
    00001038 77               [ 7] 2549 	ld	(hl), a
    00001039 3Er00            [ 7] 2550 	ld	a, #<(_g_History1)
    0000103B DD 86 F7         [19] 2551 	add	a, -9 (ix)
    0000103E 4F               [ 4] 2552 	ld	c, a
    0000103F 3Es00            [ 7] 2553 	ld	a, #>(_g_History1)
    00001041 CE 00            [ 7] 2554 	adc	a, #0x00
    00001043 47               [ 4] 2555 	ld	b, a
    00001044 AF               [ 4] 2556 	xor	a, a
    00001045 02               [ 7] 2557 	ld	(bc), a
    00001046                       2558 00289$:
    00001046 DD 34 FC         [23] 2559 	inc	-4 (ix)
    00001049 C3r75r10         [10] 2560 	jp	00294$
    0000104C                       2561 00293$:
                                   2562 ;E:\Dropbox\FAUSTO\SVILUPPI\MSX\CODE\C\MSXgl\projects\soccerlgSCC/soccerlg_s12_b3.c:397: else { if(h2_idx < 19) { g_History2[h2_idx++] = resChar; g_History2[h2_idx] = 0; } shots2++; }
    0000104C DD 7E FA         [19] 2563 	ld	a, -6 (ix)
    0000104F D6 13            [ 7] 2564 	sub	a, #0x13
    00001051 30 1F            [12] 2565 	jr	NC, 00291$
    00001053 3Er00            [ 7] 2566 	ld	a, #<(_g_History2)
    00001055 DD 86 FA         [19] 2567 	add	a, -6 (ix)
    00001058 4F               [ 4] 2568 	ld	c, a
    00001059 3Es00            [ 7] 2569 	ld	a, #>(_g_History2)
    0000105B CE 00            [ 7] 2570 	adc	a, #0x00
    0000105D 47               [ 4] 2571 	ld	b, a
    0000105E DD 34 FA         [23] 2572 	inc	-6 (ix)
    00001061 DD 7E FF         [19] 2573 	ld	a, -1 (ix)
    00001064 02               [ 7] 2574 	ld	(bc), a
    00001065 3Er00            [ 7] 2575 	ld	a, #<(_g_History2)
    00001067 DD 86 FA         [19] 2576 	add	a, -6 (ix)
    0000106A 4F               [ 4] 2577 	ld	c, a
    0000106B 3Es00            [ 7] 2578 	ld	a, #>(_g_History2)
    0000106D CE 00            [ 7] 2579 	adc	a, #0x00
    0000106F 47               [ 4] 2580 	ld	b, a
    00001070 AF               [ 4] 2581 	xor	a, a
    00001071 02               [ 7] 2582 	ld	(bc), a
    00001072                       2583 00291$:
    00001072 DD 34 FB         [23] 2584 	inc	-5 (ix)
    00001075                       2585 00294$:
                                   2586 ;E:\Dropbox\FAUSTO\SVILUPPI\MSX\CODE\C\MSXgl\projects\soccerlgSCC/soccerlg_s12_b3.c:398: if (goal) {
    00001075 DD 7E EC         [19] 2587 	ld	a, -20 (ix)
    00001078 B7               [ 4] 2588 	or	a, a
    00001079 28 15            [12] 2589 	jr	Z, 00296$
                                   2590 ;E:\Dropbox\FAUSTO\SVILUPPI\MSX\CODE\C\MSXgl\projects\soccerlgSCC/soccerlg_s12_b3.c:399: g_peopleState=!g_peopleState;
    0000107B 3Ar00r00         [13] 2591 	ld	a, (_g_peopleState+0)
    0000107E D6 01            [ 7] 2592 	sub	a,#0x01
    00001080 3E 00            [ 7] 2593 	ld	a, #0x00
    00001082 17               [ 4] 2594 	rla
                                   2595 ;E:\Dropbox\FAUSTO\SVILUPPI\MSX\CODE\C\MSXgl\projects\soccerlgSCC/soccerlg_s12_b3.c:400: CallFnc_VOID_P1(7,PeopleMoving,g_peopleState);
    00001083 32r00r00         [13] 2596 	ld	(_g_peopleState+0), a
    00001086 F5               [11] 2597 	push	af
    00001087 33               [ 6] 2598 	inc	sp
    00001088 11r00r00         [10] 2599 	ld	de, #_PeopleMoving
    0000108B 3E 07            [ 7] 2600 	ld	a, #0x07
    0000108D CDr00r00         [17] 2601 	call	_CallFnc_VOID_P1
    00001090                       2602 00296$:
                                   2603 ;E:\Dropbox\FAUSTO\SVILUPPI\MSX\CODE\C\MSXgl\projects\soccerlgSCC/soccerlg_s12_b3.c:403: V9990_PrintLayerAStringAtPos(10, 22, g_History1);
    00001090 21r00r00         [10] 2604 	ld	hl, #_g_History1
    00001093 E5               [11] 2605 	push	hl
    00001094 2E 16            [ 7] 2606 	ld	l, #0x16
                                   2607 ;	spillPairReg hl
                                   2608 ;	spillPairReg hl
    00001096 3E 0A            [ 7] 2609 	ld	a, #0x0a
    00001098 CDr00r00         [17] 2610 	call	_V9990_PrintLayerAStringAtPos
                                   2611 ;E:\Dropbox\FAUSTO\SVILUPPI\MSX\CODE\C\MSXgl\projects\soccerlgSCC/soccerlg_s12_b3.c:404: V9990_PrintLayerAStringAtPos(10, 23, g_History2);
    0000109B 21r00r00         [10] 2612 	ld	hl, #_g_History2
    0000109E E5               [11] 2613 	push	hl
    0000109F 2E 17            [ 7] 2614 	ld	l, #0x17
                                   2615 ;	spillPairReg hl
                                   2616 ;	spillPairReg hl
    000010A1 3E 0A            [ 7] 2617 	ld	a, #0x0a
    000010A3 CDr00r00         [17] 2618 	call	_V9990_PrintLayerAStringAtPos
                                   2619 ;E:\Dropbox\FAUSTO\SVILUPPI\MSX\CODE\C\MSXgl\projects\soccerlgSCC/soccerlg_s12_b3.c:406: for(u8 w=0; w<120; w++) V9990_WaitSynch();
    000010A6 0E 00            [ 7] 2620 	ld	c, #0x00
    000010A8                       2621 00387$:
    000010A8 79               [ 4] 2622 	ld	a, c
    000010A9 D6 78            [ 7] 2623 	sub	a, #0x78
    000010AB 30 09            [12] 2624 	jr	NC, 00297$
    000010AD C5               [11] 2625 	push	bc
    000010AE CDr00r00         [17] 2626 	call	_V9990_WaitSynch
    000010B1 C1               [10] 2627 	pop	bc
    000010B2 0C               [ 4] 2628 	inc	c
    000010B3 C3rA8r10         [10] 2629 	jp	00387$
    000010B6                       2630 00297$:
                                   2631 ;E:\Dropbox\FAUSTO\SVILUPPI\MSX\CODE\C\MSXgl\projects\soccerlgSCC/soccerlg_s12_b3.c:408: if (goal) {
    000010B6 DD 7E EC         [19] 2632 	ld	a, -20 (ix)
    000010B9 B7               [ 4] 2633 	or	a, a
    000010BA 28 15            [12] 2634 	jr	Z, 00299$
                                   2635 ;E:\Dropbox\FAUSTO\SVILUPPI\MSX\CODE\C\MSXgl\projects\soccerlgSCC/soccerlg_s12_b3.c:409: g_peopleState=!g_peopleState;
    000010BC 3Ar00r00         [13] 2636 	ld	a, (_g_peopleState+0)
    000010BF D6 01            [ 7] 2637 	sub	a,#0x01
    000010C1 3E 00            [ 7] 2638 	ld	a, #0x00
    000010C3 17               [ 4] 2639 	rla
                                   2640 ;E:\Dropbox\FAUSTO\SVILUPPI\MSX\CODE\C\MSXgl\projects\soccerlgSCC/soccerlg_s12_b3.c:410: CallFnc_VOID_P1(7,PeopleMoving,g_peopleState);
    000010C4 32r00r00         [13] 2641 	ld	(_g_peopleState+0), a
    000010C7 F5               [11] 2642 	push	af
    000010C8 33               [ 6] 2643 	inc	sp
    000010C9 11r00r00         [10] 2644 	ld	de, #_PeopleMoving
    000010CC 3E 07            [ 7] 2645 	ld	a, #0x07
    000010CE CDr00r00         [17] 2646 	call	_CallFnc_VOID_P1
    000010D1                       2647 00299$:
                                   2648 ;E:\Dropbox\FAUSTO\SVILUPPI\MSX\CODE\C\MSXgl\projects\soccerlgSCC/soccerlg_s12_b3.c:413: V9990_ClearTextFromLayerA(12, 10, 10);
    000010D1 3E 0A            [ 7] 2649 	ld	a, #0x0a
    000010D3 F5               [11] 2650 	push	af
    000010D4 33               [ 6] 2651 	inc	sp
    000010D5 2E 0A            [ 7] 2652 	ld	l, #0x0a
                                   2653 ;	spillPairReg hl
                                   2654 ;	spillPairReg hl
    000010D7 3E 0C            [ 7] 2655 	ld	a, #0x0c
    000010D9 CDr00r00         [17] 2656 	call	_V9990_ClearTextFromLayerA
                                   2657 ;E:\Dropbox\FAUSTO\SVILUPPI\MSX\CODE\C\MSXgl\projects\soccerlgSCC/soccerlg_s12_b3.c:414: g_BallIsVisible=FALSE;
    000010DC 21r00r00         [10] 2658 	ld	hl, #_g_BallIsVisible
    000010DF 36 00            [10] 2659 	ld	(hl), #0x00
                                   2660 ;E:\Dropbox\FAUSTO\SVILUPPI\MSX\CODE\C\MSXgl\projects\soccerlgSCC/soccerlg_s12_b3.c:415: if (!goal && g_modernAudio){
    000010E1 DD 7E EC         [19] 2661 	ld	a, -20 (ix)
    000010E4 B7               [ 4] 2662 	or	a, a
    000010E5 20 14            [12] 2663 	jr	NZ, 00301$
    000010E7 3Ar00r00         [13] 2664 	ld	a, (_g_modernAudio+0)
    000010EA B7               [ 4] 2665 	or	a, a
    000010EB 28 0E            [12] 2666 	jr	Z, 00301$
                                   2667 ;E:\Dropbox\FAUSTO\SVILUPPI\MSX\CODE\C\MSXgl\projects\soccerlgSCC/soccerlg_s12_b3.c:416: YSCC_PlayLoop(SCC_MODERN_PENALTIES_BIN_SEG, SCC_MODERN_PENALTIES_BIN_SIZE);
    000010ED 21 12 00         [10] 2668 	ld	hl, #0x0012
    000010F0 E5               [11] 2669 	push	hl
    000010F1 21 80 4D         [10] 2670 	ld	hl, #0x4d80
    000010F4 E5               [11] 2671 	push	hl
    000010F5 21 F4 01         [10] 2672 	ld	hl, #0x01f4
    000010F8 CDr00r00         [17] 2673 	call	_YSCC_PlayLoop
    000010FB                       2674 00301$:
                                   2675 ;E:\Dropbox\FAUSTO\SVILUPPI\MSX\CODE\C\MSXgl\projects\soccerlgSCC/soccerlg_s12_b3.c:420: g_VblankSuspended=FALSE;
    000010FB 21r00r00         [10] 2676 	ld	hl, #_g_VblankSuspended
    000010FE 36 00            [10] 2677 	ld	(hl), #0x00
                                   2678 ;E:\Dropbox\FAUSTO\SVILUPPI\MSX\CODE\C\MSXgl\projects\soccerlgSCC/soccerlg_s12_b3.c:422: if (kickerId < 7) {
    00001100 DD 7E CC         [19] 2679 	ld	a, -52 (ix)
    00001103 D6 07            [ 7] 2680 	sub	a, #0x07
    00001105 30 59            [12] 2681 	jr	NC, 00304$
                                   2682 ;E:\Dropbox\FAUSTO\SVILUPPI\MSX\CODE\C\MSXgl\projects\soccerlgSCC/soccerlg_s12_b3.c:423: g_Players[kickerId].TargetY = 220 + (kickerId/4)*15; 
    00001107 DD 7E D2         [19] 2683 	ld	a, -46 (ix)
    0000110A DD 77 FE         [19] 2684 	ld	-2 (ix), a
    0000110D DD 7E D3         [19] 2685 	ld	a, -45 (ix)
    00001110 DD 77 FF         [19] 2686 	ld	-1 (ix), a
    00001113 DD 4E CC         [19] 2687 	ld	c, -52 (ix)
    00001116 06 00            [ 7] 2688 	ld	b, #0x00
    00001118 59               [ 4] 2689 	ld	e, c
    00001119 50               [ 4] 2690 	ld	d, b
    0000111A CB 78            [ 8] 2691 	bit	7, b
    0000111C 28 05            [12] 2692 	jr	Z, 00411$
    0000111E 59               [ 4] 2693 	ld	e, c
    0000111F 50               [ 4] 2694 	ld	d, b
    00001120 13               [ 6] 2695 	inc	de
    00001121 13               [ 6] 2696 	inc	de
    00001122 13               [ 6] 2697 	inc	de
    00001123                       2698 00411$:
    00001123 CB 2A            [ 8] 2699 	sra	d
    00001125 CB 1B            [ 8] 2700 	rr	e
    00001127 CB 2A            [ 8] 2701 	sra	d
    00001129 CB 1B            [ 8] 2702 	rr	e
    0000112B 6B               [ 4] 2703 	ld	l, e
    0000112C 62               [ 4] 2704 	ld	h, d
    0000112D 29               [11] 2705 	add	hl, hl
    0000112E 19               [11] 2706 	add	hl, de
    0000112F 29               [11] 2707 	add	hl, hl
    00001130 19               [11] 2708 	add	hl, de
    00001131 29               [11] 2709 	add	hl, hl
    00001132 19               [11] 2710 	add	hl, de
    00001133 11 DC 00         [10] 2711 	ld	de, #0x00dc
    00001136 19               [11] 2712 	add	hl, de
    00001137 EB               [ 4] 2713 	ex	de, hl
    00001138 DD 6E FE         [19] 2714 	ld	l, -2 (ix)
    0000113B DD 66 FF         [19] 2715 	ld	h, -1 (ix)
    0000113E 73               [ 7] 2716 	ld	(hl), e
    0000113F 23               [ 6] 2717 	inc	hl
    00001140 72               [ 7] 2718 	ld	(hl), d
                                   2719 ;E:\Dropbox\FAUSTO\SVILUPPI\MSX\CODE\C\MSXgl\projects\soccerlgSCC/soccerlg_s12_b3.c:424: g_Players[kickerId].TargetX = 80 + (kickerId%4)*25;
    00001141 79               [ 4] 2720 	ld	a, c
    00001142 E6 03            [ 7] 2721 	and	a, #0x03
    00001144 4F               [ 4] 2722 	ld	c, a
    00001145 06 00            [ 7] 2723 	ld	b, #0x00
    00001147 69               [ 4] 2724 	ld	l, c
    00001148 60               [ 4] 2725 	ld	h, b
    00001149 29               [11] 2726 	add	hl, hl
    0000114A 09               [11] 2727 	add	hl, bc
    0000114B 29               [11] 2728 	add	hl, hl
    0000114C 29               [11] 2729 	add	hl, hl
    0000114D 29               [11] 2730 	add	hl, hl
    0000114E 09               [11] 2731 	add	hl, bc
    0000114F 01 50 00         [10] 2732 	ld	bc, #0x0050
    00001152 09               [11] 2733 	add	hl, bc
    00001153 EB               [ 4] 2734 	ex	de, hl
    00001154 DD 6E D0         [19] 2735 	ld	l, -48 (ix)
    00001157 DD 66 D1         [19] 2736 	ld	h, -47 (ix)
    0000115A 73               [ 7] 2737 	ld	(hl), e
    0000115B 23               [ 6] 2738 	inc	hl
    0000115C 72               [ 7] 2739 	ld	(hl), d
    0000115D C3rB9r11         [10] 2740 	jp	00305$
    00001160                       2741 00304$:
                                   2742 ;E:\Dropbox\FAUSTO\SVILUPPI\MSX\CODE\C\MSXgl\projects\soccerlgSCC/soccerlg_s12_b3.c:426: u8 k = kickerId - 7;
    00001160 DD 7E CC         [19] 2743 	ld	a, -52 (ix)
    00001163 C6 F9            [ 7] 2744 	add	a, #0xf9
    00001165 4F               [ 4] 2745 	ld	c, a
                                   2746 ;E:\Dropbox\FAUSTO\SVILUPPI\MSX\CODE\C\MSXgl\projects\soccerlgSCC/soccerlg_s12_b3.c:427: g_Players[kickerId].TargetY = 260 + (k/4)*15;
    00001166 DD 7E D2         [19] 2747 	ld	a, -46 (ix)
    00001169 DD 77 FE         [19] 2748 	ld	-2 (ix), a
    0000116C DD 7E D3         [19] 2749 	ld	a, -45 (ix)
    0000116F DD 77 FF         [19] 2750 	ld	-1 (ix), a
    00001172 06 00            [ 7] 2751 	ld	b, #0x00
    00001174 59               [ 4] 2752 	ld	e, c
    00001175 50               [ 4] 2753 	ld	d, b
    00001176 CB 78            [ 8] 2754 	bit	7, b
    00001178 28 05            [12] 2755 	jr	Z, 00412$
    0000117A 59               [ 4] 2756 	ld	e, c
    0000117B 50               [ 4] 2757 	ld	d, b
    0000117C 13               [ 6] 2758 	inc	de
    0000117D 13               [ 6] 2759 	inc	de
    0000117E 13               [ 6] 2760 	inc	de
    0000117F                       2761 00412$:
    0000117F CB 2A            [ 8] 2762 	sra	d
    00001181 CB 1B            [ 8] 2763 	rr	e
    00001183 CB 2A            [ 8] 2764 	sra	d
    00001185 CB 1B            [ 8] 2765 	rr	e
    00001187 6B               [ 4] 2766 	ld	l, e
    00001188 62               [ 4] 2767 	ld	h, d
    00001189 29               [11] 2768 	add	hl, hl
    0000118A 19               [11] 2769 	add	hl, de
    0000118B 29               [11] 2770 	add	hl, hl
    0000118C 19               [11] 2771 	add	hl, de
    0000118D 29               [11] 2772 	add	hl, hl
    0000118E 19               [11] 2773 	add	hl, de
    0000118F 11 04 01         [10] 2774 	ld	de, #0x0104
    00001192 19               [11] 2775 	add	hl, de
    00001193 EB               [ 4] 2776 	ex	de, hl
    00001194 DD 6E FE         [19] 2777 	ld	l, -2 (ix)
    00001197 DD 66 FF         [19] 2778 	ld	h, -1 (ix)
    0000119A 73               [ 7] 2779 	ld	(hl), e
    0000119B 23               [ 6] 2780 	inc	hl
    0000119C 72               [ 7] 2781 	ld	(hl), d
                                   2782 ;E:\Dropbox\FAUSTO\SVILUPPI\MSX\CODE\C\MSXgl\projects\soccerlgSCC/soccerlg_s12_b3.c:428: g_Players[kickerId].TargetX = 80 + (k%4)*25;
    0000119D 79               [ 4] 2783 	ld	a, c
    0000119E E6 03            [ 7] 2784 	and	a, #0x03
    000011A0 4F               [ 4] 2785 	ld	c, a
    000011A1 06 00            [ 7] 2786 	ld	b, #0x00
    000011A3 69               [ 4] 2787 	ld	l, c
    000011A4 60               [ 4] 2788 	ld	h, b
    000011A5 29               [11] 2789 	add	hl, hl
    000011A6 09               [11] 2790 	add	hl, bc
    000011A7 29               [11] 2791 	add	hl, hl
    000011A8 29               [11] 2792 	add	hl, hl
    000011A9 29               [11] 2793 	add	hl, hl
    000011AA 09               [11] 2794 	add	hl, bc
    000011AB 01 50 00         [10] 2795 	ld	bc, #0x0050
    000011AE 09               [11] 2796 	add	hl, bc
    000011AF EB               [ 4] 2797 	ex	de, hl
    000011B0 DD 6E D0         [19] 2798 	ld	l, -48 (ix)
    000011B3 DD 66 D1         [19] 2799 	ld	h, -47 (ix)
    000011B6 73               [ 7] 2800 	ld	(hl), e
    000011B7 23               [ 6] 2801 	inc	hl
    000011B8 72               [ 7] 2802 	ld	(hl), d
    000011B9                       2803 00305$:
                                   2804 ;E:\Dropbox\FAUSTO\SVILUPPI\MSX\CODE\C\MSXgl\projects\soccerlgSCC/soccerlg_s12_b3.c:432: if (gkId < 7) {
    000011B9 DD 7E CD         [19] 2805 	ld	a, -51 (ix)
    000011BC D6 07            [ 7] 2806 	sub	a, #0x07
    000011BE 30 59            [12] 2807 	jr	NC, 00307$
                                   2808 ;E:\Dropbox\FAUSTO\SVILUPPI\MSX\CODE\C\MSXgl\projects\soccerlgSCC/soccerlg_s12_b3.c:433: g_Players[gkId].TargetY = 220 + (gkId/4)*15; 
    000011C0 DD 7E D8         [19] 2809 	ld	a, -40 (ix)
    000011C3 DD 77 FE         [19] 2810 	ld	-2 (ix), a
    000011C6 DD 7E D9         [19] 2811 	ld	a, -39 (ix)
    000011C9 DD 77 FF         [19] 2812 	ld	-1 (ix), a
    000011CC DD 4E CD         [19] 2813 	ld	c, -51 (ix)
    000011CF 06 00            [ 7] 2814 	ld	b, #0x00
    000011D1 59               [ 4] 2815 	ld	e, c
    000011D2 50               [ 4] 2816 	ld	d, b
    000011D3 CB 78            [ 8] 2817 	bit	7, b
    000011D5 28 05            [12] 2818 	jr	Z, 00413$
    000011D7 59               [ 4] 2819 	ld	e, c
    000011D8 50               [ 4] 2820 	ld	d, b
    000011D9 13               [ 6] 2821 	inc	de
    000011DA 13               [ 6] 2822 	inc	de
    000011DB 13               [ 6] 2823 	inc	de
    000011DC                       2824 00413$:
    000011DC CB 2A            [ 8] 2825 	sra	d
    000011DE CB 1B            [ 8] 2826 	rr	e
    000011E0 CB 2A            [ 8] 2827 	sra	d
    000011E2 CB 1B            [ 8] 2828 	rr	e
    000011E4 6B               [ 4] 2829 	ld	l, e
    000011E5 62               [ 4] 2830 	ld	h, d
    000011E6 29               [11] 2831 	add	hl, hl
    000011E7 19               [11] 2832 	add	hl, de
    000011E8 29               [11] 2833 	add	hl, hl
    000011E9 19               [11] 2834 	add	hl, de
    000011EA 29               [11] 2835 	add	hl, hl
    000011EB 19               [11] 2836 	add	hl, de
    000011EC 11 DC 00         [10] 2837 	ld	de, #0x00dc
    000011EF 19               [11] 2838 	add	hl, de
    000011F0 EB               [ 4] 2839 	ex	de, hl
    000011F1 DD 6E FE         [19] 2840 	ld	l, -2 (ix)
    000011F4 DD 66 FF         [19] 2841 	ld	h, -1 (ix)
    000011F7 73               [ 7] 2842 	ld	(hl), e
    000011F8 23               [ 6] 2843 	inc	hl
    000011F9 72               [ 7] 2844 	ld	(hl), d
                                   2845 ;E:\Dropbox\FAUSTO\SVILUPPI\MSX\CODE\C\MSXgl\projects\soccerlgSCC/soccerlg_s12_b3.c:434: g_Players[gkId].TargetX = 80 + (gkId%4)*25;
    000011FA 79               [ 4] 2846 	ld	a, c
    000011FB E6 03            [ 7] 2847 	and	a, #0x03
    000011FD 4F               [ 4] 2848 	ld	c, a
    000011FE 06 00            [ 7] 2849 	ld	b, #0x00
    00001200 69               [ 4] 2850 	ld	l, c
    00001201 60               [ 4] 2851 	ld	h, b
    00001202 29               [11] 2852 	add	hl, hl
    00001203 09               [11] 2853 	add	hl, bc
    00001204 29               [11] 2854 	add	hl, hl
    00001205 29               [11] 2855 	add	hl, hl
    00001206 29               [11] 2856 	add	hl, hl
    00001207 09               [11] 2857 	add	hl, bc
    00001208 01 50 00         [10] 2858 	ld	bc, #0x0050
    0000120B 09               [11] 2859 	add	hl, bc
    0000120C EB               [ 4] 2860 	ex	de, hl
    0000120D DD 6E D6         [19] 2861 	ld	l, -42 (ix)
    00001210 DD 66 D7         [19] 2862 	ld	h, -41 (ix)
    00001213 73               [ 7] 2863 	ld	(hl), e
    00001214 23               [ 6] 2864 	inc	hl
    00001215 72               [ 7] 2865 	ld	(hl), d
    00001216 C3r72r12         [10] 2866 	jp	00308$
    00001219                       2867 00307$:
                                   2868 ;E:\Dropbox\FAUSTO\SVILUPPI\MSX\CODE\C\MSXgl\projects\soccerlgSCC/soccerlg_s12_b3.c:436: u8 k = gkId - 7;
    00001219 DD 7E CD         [19] 2869 	ld	a, -51 (ix)
    0000121C C6 F9            [ 7] 2870 	add	a, #0xf9
    0000121E 4F               [ 4] 2871 	ld	c, a
                                   2872 ;E:\Dropbox\FAUSTO\SVILUPPI\MSX\CODE\C\MSXgl\projects\soccerlgSCC/soccerlg_s12_b3.c:437: g_Players[gkId].TargetY = 260 + (k/4)*15;
    0000121F DD 7E D8         [19] 2873 	ld	a, -40 (ix)
    00001222 DD 77 FE         [19] 2874 	ld	-2 (ix), a
    00001225 DD 7E D9         [19] 2875 	ld	a, -39 (ix)
    00001228 DD 77 FF         [19] 2876 	ld	-1 (ix), a
    0000122B 06 00            [ 7] 2877 	ld	b, #0x00
    0000122D 59               [ 4] 2878 	ld	e, c
    0000122E 50               [ 4] 2879 	ld	d, b
    0000122F CB 78            [ 8] 2880 	bit	7, b
    00001231 28 05            [12] 2881 	jr	Z, 00414$
    00001233 59               [ 4] 2882 	ld	e, c
    00001234 50               [ 4] 2883 	ld	d, b
    00001235 13               [ 6] 2884 	inc	de
    00001236 13               [ 6] 2885 	inc	de
    00001237 13               [ 6] 2886 	inc	de
    00001238                       2887 00414$:
    00001238 CB 2A            [ 8] 2888 	sra	d
    0000123A CB 1B            [ 8] 2889 	rr	e
    0000123C CB 2A            [ 8] 2890 	sra	d
    0000123E CB 1B            [ 8] 2891 	rr	e
    00001240 6B               [ 4] 2892 	ld	l, e
    00001241 62               [ 4] 2893 	ld	h, d
    00001242 29               [11] 2894 	add	hl, hl
    00001243 19               [11] 2895 	add	hl, de
    00001244 29               [11] 2896 	add	hl, hl
    00001245 19               [11] 2897 	add	hl, de
    00001246 29               [11] 2898 	add	hl, hl
    00001247 19               [11] 2899 	add	hl, de
    00001248 11 04 01         [10] 2900 	ld	de, #0x0104
    0000124B 19               [11] 2901 	add	hl, de
    0000124C EB               [ 4] 2902 	ex	de, hl
    0000124D DD 6E FE         [19] 2903 	ld	l, -2 (ix)
    00001250 DD 66 FF         [19] 2904 	ld	h, -1 (ix)
    00001253 73               [ 7] 2905 	ld	(hl), e
    00001254 23               [ 6] 2906 	inc	hl
    00001255 72               [ 7] 2907 	ld	(hl), d
                                   2908 ;E:\Dropbox\FAUSTO\SVILUPPI\MSX\CODE\C\MSXgl\projects\soccerlgSCC/soccerlg_s12_b3.c:438: g_Players[gkId].TargetX = 80 + (k%4)*25;
    00001256 79               [ 4] 2909 	ld	a, c
    00001257 E6 03            [ 7] 2910 	and	a, #0x03
    00001259 4F               [ 4] 2911 	ld	c, a
    0000125A 06 00            [ 7] 2912 	ld	b, #0x00
    0000125C 69               [ 4] 2913 	ld	l, c
    0000125D 60               [ 4] 2914 	ld	h, b
    0000125E 29               [11] 2915 	add	hl, hl
    0000125F 09               [11] 2916 	add	hl, bc
    00001260 29               [11] 2917 	add	hl, hl
    00001261 29               [11] 2918 	add	hl, hl
    00001262 29               [11] 2919 	add	hl, hl
    00001263 09               [11] 2920 	add	hl, bc
    00001264 01 50 00         [10] 2921 	ld	bc, #0x0050
    00001267 09               [11] 2922 	add	hl, bc
    00001268 EB               [ 4] 2923 	ex	de, hl
    00001269 DD 6E D6         [19] 2924 	ld	l, -42 (ix)
    0000126C DD 66 D7         [19] 2925 	ld	h, -41 (ix)
    0000126F 73               [ 7] 2926 	ld	(hl), e
    00001270 23               [ 6] 2927 	inc	hl
    00001271 72               [ 7] 2928 	ld	(hl), d
    00001272                       2929 00308$:
                                   2930 ;E:\Dropbox\FAUSTO\SVILUPPI\MSX\CODE\C\MSXgl\projects\soccerlgSCC/soccerlg_s12_b3.c:443: g_Players[REFEREE].TargetX = 128;
    00001272 21 80 00         [10] 2931 	ld	hl, #0x0080
    00001275 22r36r01         [16] 2932 	ld	((_g_Players + 310)), hl
                                   2933 ;E:\Dropbox\FAUSTO\SVILUPPI\MSX\CODE\C\MSXgl\projects\soccerlgSCC/soccerlg_s12_b3.c:444: g_Players[REFEREE].TargetY = 243;
    00001278 2E F3            [ 7] 2934 	ld	l, #0xf3
    0000127A 22r34r01         [16] 2935 	ld	((_g_Players + 308)), hl
                                   2936 ;E:\Dropbox\FAUSTO\SVILUPPI\MSX\CODE\C\MSXgl\projects\soccerlgSCC/soccerlg_s12_b3.c:446: while(true) {
    0000127D                       2937 00358$:
                                   2938 ;E:\Dropbox\FAUSTO\SVILUPPI\MSX\CODE\C\MSXgl\projects\soccerlgSCC/soccerlg_s12_b3.c:447: V9990_WaitSynch();
    0000127D CDr00r00         [17] 2939 	call	_V9990_WaitSynch
                                   2940 ;E:\Dropbox\FAUSTO\SVILUPPI\MSX\CODE\C\MSXgl\projects\soccerlgSCC/soccerlg_s12_b3.c:448: bool kDone = true;
    00001280 DD 36 F0 01      [19] 2941 	ld	-16 (ix), #0x01
                                   2942 ;E:\Dropbox\FAUSTO\SVILUPPI\MSX\CODE\C\MSXgl\projects\soccerlgSCC/soccerlg_s12_b3.c:449: bool gDone = true;
    00001284 DD 36 F1 01      [19] 2943 	ld	-15 (ix), #0x01
                                   2944 ;E:\Dropbox\FAUSTO\SVILUPPI\MSX\CODE\C\MSXgl\projects\soccerlgSCC/soccerlg_s12_b3.c:450: bool rDone = true;
    00001288 DD 36 F2 01      [19] 2945 	ld	-14 (ix), #0x01
                                   2946 ;E:\Dropbox\FAUSTO\SVILUPPI\MSX\CODE\C\MSXgl\projects\soccerlgSCC/soccerlg_s12_b3.c:174: if (g_Players[kickerId].Y > g_Players[kickerId].TargetY) { g_Players[kickerId].Y--; kDone=false; g_Players[kickerId].Direction=DIRECTION_UP; }
    0000128C DD 6E CE         [19] 2947 	ld	l, -50 (ix)
    0000128F DD 66 CF         [19] 2948 	ld	h, -49 (ix)
    00001292 4E               [ 7] 2949 	ld	c, (hl)
    00001293 23               [ 6] 2950 	inc	hl
    00001294 46               [ 7] 2951 	ld	b, (hl)
    00001295 DD 6E D2         [19] 2952 	ld	l, -46 (ix)
    00001298 DD 66 D3         [19] 2953 	ld	h, -45 (ix)
    0000129B 5E               [ 7] 2954 	ld	e, (hl)
    0000129C 23               [ 6] 2955 	inc	hl
    0000129D 56               [ 7] 2956 	ld	d, (hl)
                                   2957 ;E:\Dropbox\FAUSTO\SVILUPPI\MSX\CODE\C\MSXgl\projects\soccerlgSCC/soccerlg_s12_b3.c:453: if (g_Players[kickerId].Y < g_Players[kickerId].TargetY) { g_Players[kickerId].Y++; kDone=false; g_Players[kickerId].Direction=DIRECTION_DOWN; }
    0000129E 79               [ 4] 2958 	ld	a, c
    0000129F 93               [ 4] 2959 	sub	a, e
    000012A0 78               [ 4] 2960 	ld	a, b
    000012A1 9A               [ 4] 2961 	sbc	a, d
    000012A2 30 19            [12] 2962 	jr	NC, 00312$
    000012A4 03               [ 6] 2963 	inc	bc
    000012A5 DD 6E CE         [19] 2964 	ld	l, -50 (ix)
    000012A8 DD 66 CF         [19] 2965 	ld	h, -49 (ix)
    000012AB 71               [ 7] 2966 	ld	(hl), c
    000012AC 23               [ 6] 2967 	inc	hl
    000012AD 70               [ 7] 2968 	ld	(hl), b
    000012AE DD 36 F0 00      [19] 2969 	ld	-16 (ix), #0x00
    000012B2 DD 6E E2         [19] 2970 	ld	l, -30 (ix)
    000012B5 DD 66 E3         [19] 2971 	ld	h, -29 (ix)
    000012B8 36 05            [10] 2972 	ld	(hl), #0x05
    000012BA C3rD9r12         [10] 2973 	jp	00313$
    000012BD                       2974 00312$:
                                   2975 ;E:\Dropbox\FAUSTO\SVILUPPI\MSX\CODE\C\MSXgl\projects\soccerlgSCC/soccerlg_s12_b3.c:454: else if (g_Players[kickerId].Y > g_Players[kickerId].TargetY) { g_Players[kickerId].Y--; kDone=false; g_Players[kickerId].Direction=DIRECTION_UP; }
    000012BD 7B               [ 4] 2976 	ld	a, e
    000012BE 91               [ 4] 2977 	sub	a, c
    000012BF 7A               [ 4] 2978 	ld	a, d
    000012C0 98               [ 4] 2979 	sbc	a, b
    000012C1 30 16            [12] 2980 	jr	NC, 00313$
    000012C3 0B               [ 6] 2981 	dec	bc
    000012C4 DD 6E CE         [19] 2982 	ld	l, -50 (ix)
    000012C7 DD 66 CF         [19] 2983 	ld	h, -49 (ix)
    000012CA 71               [ 7] 2984 	ld	(hl), c
    000012CB 23               [ 6] 2985 	inc	hl
    000012CC 70               [ 7] 2986 	ld	(hl), b
    000012CD DD 36 F0 00      [19] 2987 	ld	-16 (ix), #0x00
    000012D1 DD 6E E2         [19] 2988 	ld	l, -30 (ix)
    000012D4 DD 66 E3         [19] 2989 	ld	h, -29 (ix)
    000012D7 36 01            [10] 2990 	ld	(hl), #0x01
    000012D9                       2991 00313$:
                                   2992 ;E:\Dropbox\FAUSTO\SVILUPPI\MSX\CODE\C\MSXgl\projects\soccerlgSCC/soccerlg_s12_b3.c:177: if (g_Players[kickerId].X > g_Players[kickerId].TargetX) { g_Players[kickerId].X--; kDone=false; g_Players[kickerId].Direction=DIRECTION_LEFT; }
    000012D9 DD 6E DE         [19] 2993 	ld	l, -34 (ix)
    000012DC DD 66 DF         [19] 2994 	ld	h, -33 (ix)
    000012DF 4E               [ 7] 2995 	ld	c, (hl)
    000012E0 23               [ 6] 2996 	inc	hl
    000012E1 46               [ 7] 2997 	ld	b, (hl)
    000012E2 DD 6E D0         [19] 2998 	ld	l, -48 (ix)
    000012E5 DD 66 D1         [19] 2999 	ld	h, -47 (ix)
    000012E8 5E               [ 7] 3000 	ld	e, (hl)
    000012E9 23               [ 6] 3001 	inc	hl
    000012EA 56               [ 7] 3002 	ld	d, (hl)
                                   3003 ;E:\Dropbox\FAUSTO\SVILUPPI\MSX\CODE\C\MSXgl\projects\soccerlgSCC/soccerlg_s12_b3.c:456: if (g_Players[kickerId].X < g_Players[kickerId].TargetX) { g_Players[kickerId].X++; kDone=false; if(g_Players[kickerId].Direction==DIRECTION_NONE) g_Players[kickerId].Direction=DIRECTION_RIGHT; }
    000012EB 79               [ 4] 3004 	ld	a, c
    000012EC 93               [ 4] 3005 	sub	a, e
    000012ED 78               [ 4] 3006 	ld	a, b
    000012EE 9A               [ 4] 3007 	sbc	a, d
    000012EF 30 23            [12] 3008 	jr	NC, 00321$
    000012F1 03               [ 6] 3009 	inc	bc
    000012F2 DD 6E DE         [19] 3010 	ld	l, -34 (ix)
    000012F5 DD 66 DF         [19] 3011 	ld	h, -33 (ix)
    000012F8 71               [ 7] 3012 	ld	(hl), c
    000012F9 23               [ 6] 3013 	inc	hl
    000012FA 70               [ 7] 3014 	ld	(hl), b
    000012FB DD 36 F0 00      [19] 3015 	ld	-16 (ix), #0x00
    000012FF DD 6E E2         [19] 3016 	ld	l, -30 (ix)
    00001302 DD 66 E3         [19] 3017 	ld	h, -29 (ix)
    00001305 7E               [ 7] 3018 	ld	a, (hl)
    00001306 B7               [ 4] 3019 	or	a, a
    00001307 20 31            [12] 3020 	jr	NZ, 00322$
    00001309 DD 6E E2         [19] 3021 	ld	l, -30 (ix)
    0000130C DD 66 E3         [19] 3022 	ld	h, -29 (ix)
    0000130F 36 03            [10] 3023 	ld	(hl), #0x03
    00001311 C3r3Ar13         [10] 3024 	jp	00322$
    00001314                       3025 00321$:
                                   3026 ;E:\Dropbox\FAUSTO\SVILUPPI\MSX\CODE\C\MSXgl\projects\soccerlgSCC/soccerlg_s12_b3.c:457: else if (g_Players[kickerId].X > g_Players[kickerId].TargetX) { g_Players[kickerId].X--; kDone=false; if(g_Players[kickerId].Direction==DIRECTION_NONE) g_Players[kickerId].Direction=DIRECTION_LEFT; }
    00001314 7B               [ 4] 3027 	ld	a, e
    00001315 91               [ 4] 3028 	sub	a, c
    00001316 7A               [ 4] 3029 	ld	a, d
    00001317 98               [ 4] 3030 	sbc	a, b
    00001318 30 20            [12] 3031 	jr	NC, 00322$
    0000131A 0B               [ 6] 3032 	dec	bc
    0000131B DD 6E DE         [19] 3033 	ld	l, -34 (ix)
    0000131E DD 66 DF         [19] 3034 	ld	h, -33 (ix)
    00001321 71               [ 7] 3035 	ld	(hl), c
    00001322 23               [ 6] 3036 	inc	hl
    00001323 70               [ 7] 3037 	ld	(hl), b
    00001324 DD 36 F0 00      [19] 3038 	ld	-16 (ix), #0x00
    00001328 DD 6E E2         [19] 3039 	ld	l, -30 (ix)
    0000132B DD 66 E3         [19] 3040 	ld	h, -29 (ix)
    0000132E 7E               [ 7] 3041 	ld	a, (hl)
    0000132F B7               [ 4] 3042 	or	a, a
    00001330 20 08            [12] 3043 	jr	NZ, 00322$
    00001332 DD 6E E2         [19] 3044 	ld	l, -30 (ix)
    00001335 DD 66 E3         [19] 3045 	ld	h, -29 (ix)
    00001338 36 07            [10] 3046 	ld	(hl), #0x07
    0000133A                       3047 00322$:
                                   3048 ;E:\Dropbox\FAUSTO\SVILUPPI\MSX\CODE\C\MSXgl\projects\soccerlgSCC/soccerlg_s12_b3.c:182: if (g_Players[gkId].Y > g_Players[gkId].TargetY) { g_Players[gkId].Y--; gDone=false; g_Players[gkId].Direction=DIRECTION_UP; }
    0000133A DD 6E D4         [19] 3049 	ld	l, -44 (ix)
    0000133D DD 66 D5         [19] 3050 	ld	h, -43 (ix)
    00001340 4E               [ 7] 3051 	ld	c, (hl)
    00001341 23               [ 6] 3052 	inc	hl
    00001342 46               [ 7] 3053 	ld	b, (hl)
    00001343 DD 6E D8         [19] 3054 	ld	l, -40 (ix)
    00001346 DD 66 D9         [19] 3055 	ld	h, -39 (ix)
    00001349 5E               [ 7] 3056 	ld	e, (hl)
    0000134A 23               [ 6] 3057 	inc	hl
    0000134B 56               [ 7] 3058 	ld	d, (hl)
                                   3059 ;E:\Dropbox\FAUSTO\SVILUPPI\MSX\CODE\C\MSXgl\projects\soccerlgSCC/soccerlg_s12_b3.c:460: if (g_Players[gkId].Y < g_Players[gkId].TargetY) { g_Players[gkId].Y++; gDone=false; g_Players[gkId].Direction=DIRECTION_DOWN; }
    0000134C 79               [ 4] 3060 	ld	a, c
    0000134D 93               [ 4] 3061 	sub	a, e
    0000134E 78               [ 4] 3062 	ld	a, b
    0000134F 9A               [ 4] 3063 	sbc	a, d
    00001350 30 19            [12] 3064 	jr	NC, 00326$
    00001352 03               [ 6] 3065 	inc	bc
    00001353 DD 6E D4         [19] 3066 	ld	l, -44 (ix)
    00001356 DD 66 D5         [19] 3067 	ld	h, -43 (ix)
    00001359 71               [ 7] 3068 	ld	(hl), c
    0000135A 23               [ 6] 3069 	inc	hl
    0000135B 70               [ 7] 3070 	ld	(hl), b
    0000135C DD 36 F1 00      [19] 3071 	ld	-15 (ix), #0x00
    00001360 DD 6E E6         [19] 3072 	ld	l, -26 (ix)
    00001363 DD 66 E7         [19] 3073 	ld	h, -25 (ix)
    00001366 36 05            [10] 3074 	ld	(hl), #0x05
    00001368 C3r87r13         [10] 3075 	jp	00327$
    0000136B                       3076 00326$:
                                   3077 ;E:\Dropbox\FAUSTO\SVILUPPI\MSX\CODE\C\MSXgl\projects\soccerlgSCC/soccerlg_s12_b3.c:461: else if (g_Players[gkId].Y > g_Players[gkId].TargetY) { g_Players[gkId].Y--; gDone=false; g_Players[gkId].Direction=DIRECTION_UP; }
    0000136B 7B               [ 4] 3078 	ld	a, e
    0000136C 91               [ 4] 3079 	sub	a, c
    0000136D 7A               [ 4] 3080 	ld	a, d
    0000136E 98               [ 4] 3081 	sbc	a, b
    0000136F 30 16            [12] 3082 	jr	NC, 00327$
    00001371 0B               [ 6] 3083 	dec	bc
    00001372 DD 6E D4         [19] 3084 	ld	l, -44 (ix)
    00001375 DD 66 D5         [19] 3085 	ld	h, -43 (ix)
    00001378 71               [ 7] 3086 	ld	(hl), c
    00001379 23               [ 6] 3087 	inc	hl
    0000137A 70               [ 7] 3088 	ld	(hl), b
    0000137B DD 36 F1 00      [19] 3089 	ld	-15 (ix), #0x00
    0000137F DD 6E E6         [19] 3090 	ld	l, -26 (ix)
    00001382 DD 66 E7         [19] 3091 	ld	h, -25 (ix)
    00001385 36 01            [10] 3092 	ld	(hl), #0x01
    00001387                       3093 00327$:
                                   3094 ;E:\Dropbox\FAUSTO\SVILUPPI\MSX\CODE\C\MSXgl\projects\soccerlgSCC/soccerlg_s12_b3.c:185: if (g_Players[gkId].X > g_Players[gkId].TargetX) { g_Players[gkId].X--; gDone=false; g_Players[gkId].Direction=DIRECTION_LEFT; }
    00001387 DD 6E E0         [19] 3095 	ld	l, -32 (ix)
    0000138A DD 66 E1         [19] 3096 	ld	h, -31 (ix)
    0000138D 4E               [ 7] 3097 	ld	c, (hl)
    0000138E 23               [ 6] 3098 	inc	hl
    0000138F 46               [ 7] 3099 	ld	b, (hl)
    00001390 DD 6E D6         [19] 3100 	ld	l, -42 (ix)
    00001393 DD 66 D7         [19] 3101 	ld	h, -41 (ix)
    00001396 5E               [ 7] 3102 	ld	e, (hl)
    00001397 23               [ 6] 3103 	inc	hl
    00001398 56               [ 7] 3104 	ld	d, (hl)
                                   3105 ;E:\Dropbox\FAUSTO\SVILUPPI\MSX\CODE\C\MSXgl\projects\soccerlgSCC/soccerlg_s12_b3.c:463: if (g_Players[gkId].X < g_Players[gkId].TargetX) { g_Players[gkId].X++; gDone=false; if(g_Players[gkId].Direction==DIRECTION_NONE) g_Players[gkId].Direction=DIRECTION_RIGHT; }
    00001399 79               [ 4] 3106 	ld	a, c
    0000139A 93               [ 4] 3107 	sub	a, e
    0000139B 78               [ 4] 3108 	ld	a, b
    0000139C 9A               [ 4] 3109 	sbc	a, d
    0000139D 30 23            [12] 3110 	jr	NC, 00335$
    0000139F 03               [ 6] 3111 	inc	bc
    000013A0 DD 6E E0         [19] 3112 	ld	l, -32 (ix)
    000013A3 DD 66 E1         [19] 3113 	ld	h, -31 (ix)
    000013A6 71               [ 7] 3114 	ld	(hl), c
    000013A7 23               [ 6] 3115 	inc	hl
    000013A8 70               [ 7] 3116 	ld	(hl), b
    000013A9 DD 36 F1 00      [19] 3117 	ld	-15 (ix), #0x00
    000013AD DD 6E E6         [19] 3118 	ld	l, -26 (ix)
    000013B0 DD 66 E7         [19] 3119 	ld	h, -25 (ix)
    000013B3 7E               [ 7] 3120 	ld	a, (hl)
    000013B4 B7               [ 4] 3121 	or	a, a
    000013B5 20 31            [12] 3122 	jr	NZ, 00336$
    000013B7 DD 6E E6         [19] 3123 	ld	l, -26 (ix)
    000013BA DD 66 E7         [19] 3124 	ld	h, -25 (ix)
    000013BD 36 03            [10] 3125 	ld	(hl), #0x03
    000013BF C3rE8r13         [10] 3126 	jp	00336$
    000013C2                       3127 00335$:
                                   3128 ;E:\Dropbox\FAUSTO\SVILUPPI\MSX\CODE\C\MSXgl\projects\soccerlgSCC/soccerlg_s12_b3.c:464: else if (g_Players[gkId].X > g_Players[gkId].TargetX) { g_Players[gkId].X--; gDone=false; if(g_Players[gkId].Direction==DIRECTION_NONE) g_Players[gkId].Direction=DIRECTION_LEFT; }
    000013C2 7B               [ 4] 3129 	ld	a, e
    000013C3 91               [ 4] 3130 	sub	a, c
    000013C4 7A               [ 4] 3131 	ld	a, d
    000013C5 98               [ 4] 3132 	sbc	a, b
    000013C6 30 20            [12] 3133 	jr	NC, 00336$
    000013C8 0B               [ 6] 3134 	dec	bc
    000013C9 DD 6E E0         [19] 3135 	ld	l, -32 (ix)
    000013CC DD 66 E1         [19] 3136 	ld	h, -31 (ix)
    000013CF 71               [ 7] 3137 	ld	(hl), c
    000013D0 23               [ 6] 3138 	inc	hl
    000013D1 70               [ 7] 3139 	ld	(hl), b
    000013D2 DD 36 F1 00      [19] 3140 	ld	-15 (ix), #0x00
    000013D6 DD 6E E6         [19] 3141 	ld	l, -26 (ix)
    000013D9 DD 66 E7         [19] 3142 	ld	h, -25 (ix)
    000013DC 7E               [ 7] 3143 	ld	a, (hl)
    000013DD B7               [ 4] 3144 	or	a, a
    000013DE 20 08            [12] 3145 	jr	NZ, 00336$
    000013E0 DD 6E E6         [19] 3146 	ld	l, -26 (ix)
    000013E3 DD 66 E7         [19] 3147 	ld	h, -25 (ix)
    000013E6 36 07            [10] 3148 	ld	(hl), #0x07
    000013E8                       3149 00336$:
                                   3150 ;E:\Dropbox\FAUSTO\SVILUPPI\MSX\CODE\C\MSXgl\projects\soccerlgSCC/soccerlg_s12_b3.c:190: if (g_Players[REFEREE].Y > g_Players[REFEREE].TargetY) { g_Players[REFEREE].Y--; rDone=false; g_Players[REFEREE].Direction=DIRECTION_UP; }
    000013E8 ED 4Br26r01      [20] 3151 	ld	bc, (#(_g_Players + 294) + 0)
    000013EC ED 5Br34r01      [20] 3152 	ld	de, (#(_g_Players + 308) + 0)
                                   3153 ;E:\Dropbox\FAUSTO\SVILUPPI\MSX\CODE\C\MSXgl\projects\soccerlgSCC/soccerlg_s12_b3.c:467: if (g_Players[REFEREE].Y < g_Players[REFEREE].TargetY) { g_Players[REFEREE].Y++; rDone=false; g_Players[REFEREE].Direction=DIRECTION_DOWN; }
    000013F0 79               [ 4] 3154 	ld	a, c
    000013F1 93               [ 4] 3155 	sub	a, e
    000013F2 78               [ 4] 3156 	ld	a, b
    000013F3 9A               [ 4] 3157 	sbc	a, d
    000013F4 30 11            [12] 3158 	jr	NC, 00340$
    000013F6 03               [ 6] 3159 	inc	bc
    000013F7 ED 43r26r01      [20] 3160 	ld	((_g_Players + 294)), bc
    000013FB DD 36 F2 00      [19] 3161 	ld	-14 (ix), #0x00
    000013FF 21r30r01         [10] 3162 	ld	hl, #(_g_Players + 304)
    00001402 36 05            [10] 3163 	ld	(hl), #0x05
    00001404 C3r1Br14         [10] 3164 	jp	00341$
    00001407                       3165 00340$:
                                   3166 ;E:\Dropbox\FAUSTO\SVILUPPI\MSX\CODE\C\MSXgl\projects\soccerlgSCC/soccerlg_s12_b3.c:468: else if (g_Players[REFEREE].Y > g_Players[REFEREE].TargetY) { g_Players[REFEREE].Y--; rDone=false; g_Players[REFEREE].Direction=DIRECTION_UP; }
    00001407 7B               [ 4] 3167 	ld	a, e
    00001408 91               [ 4] 3168 	sub	a, c
    00001409 7A               [ 4] 3169 	ld	a, d
    0000140A 98               [ 4] 3170 	sbc	a, b
    0000140B 30 0E            [12] 3171 	jr	NC, 00341$
    0000140D 0B               [ 6] 3172 	dec	bc
    0000140E ED 43r26r01      [20] 3173 	ld	((_g_Players + 294)), bc
    00001412 DD 36 F2 00      [19] 3174 	ld	-14 (ix), #0x00
    00001416 21r30r01         [10] 3175 	ld	hl, #(_g_Players + 304)
    00001419 36 01            [10] 3176 	ld	(hl), #0x01
    0000141B                       3177 00341$:
                                   3178 ;E:\Dropbox\FAUSTO\SVILUPPI\MSX\CODE\C\MSXgl\projects\soccerlgSCC/soccerlg_s12_b3.c:193: if (g_Players[REFEREE].X > g_Players[REFEREE].TargetX) { g_Players[REFEREE].X--; rDone=false; g_Players[REFEREE].Direction=DIRECTION_LEFT; }
    0000141B ED 4Br28r01      [20] 3179 	ld	bc, (#(_g_Players + 296) + 0)
    0000141F ED 5Br36r01      [20] 3180 	ld	de, (#(_g_Players + 310) + 0)
                                   3181 ;E:\Dropbox\FAUSTO\SVILUPPI\MSX\CODE\C\MSXgl\projects\soccerlgSCC/soccerlg_s12_b3.c:470: if (g_Players[REFEREE].X < g_Players[REFEREE].TargetX) { g_Players[REFEREE].X++; rDone=false; g_Players[REFEREE].Direction=DIRECTION_RIGHT; }
    00001423 79               [ 4] 3182 	ld	a, c
    00001424 93               [ 4] 3183 	sub	a, e
    00001425 78               [ 4] 3184 	ld	a, b
    00001426 9A               [ 4] 3185 	sbc	a, d
    00001427 30 11            [12] 3186 	jr	NC, 00345$
    00001429 03               [ 6] 3187 	inc	bc
    0000142A ED 43r28r01      [20] 3188 	ld	((_g_Players + 296)), bc
    0000142E DD 36 F2 00      [19] 3189 	ld	-14 (ix), #0x00
    00001432 21r30r01         [10] 3190 	ld	hl, #(_g_Players + 304)
    00001435 36 03            [10] 3191 	ld	(hl), #0x03
    00001437 C3r4Er14         [10] 3192 	jp	00346$
    0000143A                       3193 00345$:
                                   3194 ;E:\Dropbox\FAUSTO\SVILUPPI\MSX\CODE\C\MSXgl\projects\soccerlgSCC/soccerlg_s12_b3.c:471: else if (g_Players[REFEREE].X > g_Players[REFEREE].TargetX) { g_Players[REFEREE].X--; rDone=false; g_Players[REFEREE].Direction=DIRECTION_LEFT; }
    0000143A 7B               [ 4] 3195 	ld	a, e
    0000143B 91               [ 4] 3196 	sub	a, c
    0000143C 7A               [ 4] 3197 	ld	a, d
    0000143D 98               [ 4] 3198 	sbc	a, b
    0000143E 30 0E            [12] 3199 	jr	NC, 00346$
    00001440 0B               [ 6] 3200 	dec	bc
    00001441 ED 43r28r01      [20] 3201 	ld	((_g_Players + 296)), bc
    00001445 DD 36 F2 00      [19] 3202 	ld	-14 (ix), #0x00
    00001449 21r30r01         [10] 3203 	ld	hl, #(_g_Players + 304)
    0000144C 36 07            [10] 3204 	ld	(hl), #0x07
    0000144E                       3205 00346$:
                                   3206 ;E:\Dropbox\FAUSTO\SVILUPPI\MSX\CODE\C\MSXgl\projects\soccerlgSCC/soccerlg_s12_b3.c:197: u16 animStatus = ((g_FrameCounter % 8) == 0) ? PLAYER_STATUS_NONE : PLAYER_STATUS_POSITIONED;
    0000144E 3Ar00r00         [13] 3207 	ld	a, (_g_FrameCounter+0)
    00001451 DD 77 F5         [19] 3208 	ld	-11 (ix), a
    00001454 DD 36 F6 00      [19] 3209 	ld	-10 (ix), #0x00
                                   3210 ;E:\Dropbox\FAUSTO\SVILUPPI\MSX\CODE\C\MSXgl\projects\soccerlgSCC/soccerlg_s12_b3.c:474: u16 animStatus = ((g_FrameCounter % 8) == 0) ? PLAYER_STATUS_NONE : PLAYER_STATUS_POSITIONED;
    00001458 DD 7E F5         [19] 3211 	ld	a, -11 (ix)
    0000145B E6 07            [ 7] 3212 	and	a,#0x07
    0000145D 20 09            [12] 3213 	jr	NZ, 00415$
    0000145F DD 77 FE         [19] 3214 	ld	-2 (ix), a
    00001462 DD 77 FF         [19] 3215 	ld	-1 (ix), a
    00001465 C3r70r14         [10] 3216 	jp	00416$
    00001468                       3217 00415$:
    00001468 DD 36 FE 04      [19] 3218 	ld	-2 (ix), #0x04
    0000146C DD 36 FF 00      [19] 3219 	ld	-1 (ix), #0
    00001470                       3220 00416$:
    00001470 DD 7E FE         [19] 3221 	ld	a, -2 (ix)
    00001473 DD 77 F3         [19] 3222 	ld	-13 (ix), a
    00001476 DD 7E FF         [19] 3223 	ld	a, -1 (ix)
    00001479 DD 77 F4         [19] 3224 	ld	-12 (ix), a
                                   3225 ;E:\Dropbox\FAUSTO\SVILUPPI\MSX\CODE\C\MSXgl\projects\soccerlgSCC/soccerlg_s12_b3.c:477: if (goal) {
    0000147C DD 7E EC         [19] 3226 	ld	a, -20 (ix)
    0000147F B7               [ 4] 3227 	or	a, a
    00001480 CAr0Dr15         [10] 3228 	jp	Z, 00348$
                                   3229 ;E:\Dropbox\FAUSTO\SVILUPPI\MSX\CODE\C\MSXgl\projects\soccerlgSCC/soccerlg_s12_b3.c:479: u8 anim = (g_FrameCounter / 8) % 2;
    00001483 DD 7E F5         [19] 3230 	ld	a, -11 (ix)
    00001486 DD 77 FE         [19] 3231 	ld	-2 (ix), a
    00001489 DD 7E F6         [19] 3232 	ld	a, -10 (ix)
    0000148C DD 77 FF         [19] 3233 	ld	-1 (ix), a
    0000148F DD CB F6 7E      [20] 3234 	bit	7, -10 (ix)
    00001493 28 10            [12] 3235 	jr	Z, 00417$
    00001495 DD 7E F5         [19] 3236 	ld	a, -11 (ix)
    00001498 C6 07            [ 7] 3237 	add	a, #0x07
    0000149A DD 77 FE         [19] 3238 	ld	-2 (ix), a
    0000149D DD 7E F6         [19] 3239 	ld	a, -10 (ix)
    000014A0 CE 00            [ 7] 3240 	adc	a, #0x00
    000014A2 DD 77 FF         [19] 3241 	ld	-1 (ix), a
    000014A5                       3242 00417$:
    000014A5 DD CB FF 2E      [23] 3243 	sra	-1 (ix)
    000014A9 DD CB FE 1E      [23] 3244 	rr	-2 (ix)
    000014AD DD CB FF 2E      [23] 3245 	sra	-1 (ix)
    000014B1 DD CB FE 1E      [23] 3246 	rr	-2 (ix)
    000014B5 DD CB FF 2E      [23] 3247 	sra	-1 (ix)
    000014B9 DD CB FE 1E      [23] 3248 	rr	-2 (ix)
    000014BD 11 02 00         [10] 3249 	ld	de, #0x0002
    000014C0 DD 6E FE         [19] 3250 	ld	l, -2 (ix)
                                   3251 ;	spillPairReg hl
                                   3252 ;	spillPairReg hl
    000014C3 DD 66 FF         [19] 3253 	ld	h, -1 (ix)
                                   3254 ;	spillPairReg hl
                                   3255 ;	spillPairReg hl
    000014C6 CDr00r00         [17] 3256 	call	__modsint
    000014C9 DD 73 FE         [19] 3257 	ld	-2 (ix), e
    000014CC DD 72 FF         [19] 3258 	ld	-1 (ix), d
    000014CF DD 46 FE         [19] 3259 	ld	b, -2 (ix)
                                   3260 ;E:\Dropbox\FAUSTO\SVILUPPI\MSX\CODE\C\MSXgl\projects\soccerlgSCC/soccerlg_s12_b3.c:480: g_Players[kickerId].PatternId = (anim == 0) ? PLAYER_POSE_CELEBRATION_FRONT_1 : PLAYER_POSE_CELEBRATION_FRONT_2;
    000014D2 DD 7E E4         [19] 3261 	ld	a, -28 (ix)
    000014D5 DD 77 F5         [19] 3262 	ld	-11 (ix), a
    000014D8 DD 7E E5         [19] 3263 	ld	a, -27 (ix)
    000014DB DD 77 F6         [19] 3264 	ld	-10 (ix), a
    000014DE 78               [ 4] 3265 	ld	a, b
    000014DF B7               [ 4] 3266 	or	a, a
    000014E0 20 0B            [12] 3267 	jr	NZ, 00418$
    000014E2 DD 36 FE 30      [19] 3268 	ld	-2 (ix), #0x30
    000014E6 DD 36 FF 00      [19] 3269 	ld	-1 (ix), #0
    000014EA C3rF5r14         [10] 3270 	jp	00419$
    000014ED                       3271 00418$:
    000014ED DD 36 FE 31      [19] 3272 	ld	-2 (ix), #0x31
    000014F1 DD 36 FF 00      [19] 3273 	ld	-1 (ix), #0
    000014F5                       3274 00419$:
    000014F5 DD 7E FE         [19] 3275 	ld	a, -2 (ix)
    000014F8 DD 6E F5         [19] 3276 	ld	l, -11 (ix)
    000014FB DD 66 F6         [19] 3277 	ld	h, -10 (ix)
    000014FE 77               [ 7] 3278 	ld	(hl), a
                                   3279 ;E:\Dropbox\FAUSTO\SVILUPPI\MSX\CODE\C\MSXgl\projects\soccerlgSCC/soccerlg_s12_b3.c:481: g_Players[kickerId].Status = PLAYER_STATUS_POSITIONED; // Lock pattern
    000014FF DD 6E DA         [19] 3280 	ld	l, -38 (ix)
    00001502 DD 66 DB         [19] 3281 	ld	h, -37 (ix)
    00001505 36 04            [10] 3282 	ld	(hl), #0x04
    00001507 23               [ 6] 3283 	inc	hl
    00001508 36 00            [10] 3284 	ld	(hl), #0x00
    0000150A C3r1Cr15         [10] 3285 	jp	00349$
    0000150D                       3286 00348$:
                                   3287 ;E:\Dropbox\FAUSTO\SVILUPPI\MSX\CODE\C\MSXgl\projects\soccerlgSCC/soccerlg_s12_b3.c:483: g_Players[kickerId].Status = animStatus;
    0000150D DD 6E DA         [19] 3288 	ld	l, -38 (ix)
    00001510 DD 66 DB         [19] 3289 	ld	h, -37 (ix)
    00001513 DD 7E F3         [19] 3290 	ld	a, -13 (ix)
    00001516 77               [ 7] 3291 	ld	(hl), a
    00001517 23               [ 6] 3292 	inc	hl
    00001518 DD 7E F4         [19] 3293 	ld	a, -12 (ix)
    0000151B 77               [ 7] 3294 	ld	(hl), a
    0000151C                       3295 00349$:
                                   3296 ;E:\Dropbox\FAUSTO\SVILUPPI\MSX\CODE\C\MSXgl\projects\soccerlgSCC/soccerlg_s12_b3.c:486: g_Players[gkId].Status = animStatus;
    0000151C DD 6E DC         [19] 3297 	ld	l, -36 (ix)
    0000151F DD 66 DD         [19] 3298 	ld	h, -35 (ix)
    00001522 DD 7E F3         [19] 3299 	ld	a, -13 (ix)
    00001525 77               [ 7] 3300 	ld	(hl), a
    00001526 23               [ 6] 3301 	inc	hl
    00001527 DD 7E F4         [19] 3302 	ld	a, -12 (ix)
    0000152A 77               [ 7] 3303 	ld	(hl), a
                                   3304 ;E:\Dropbox\FAUSTO\SVILUPPI\MSX\CODE\C\MSXgl\projects\soccerlgSCC/soccerlg_s12_b3.c:487: g_Players[REFEREE].Status = animStatus;
    0000152B 21r38r01         [10] 3305 	ld	hl, #(_g_Players + 312)
    0000152E DD 7E F3         [19] 3306 	ld	a, -13 (ix)
    00001531 77               [ 7] 3307 	ld	(hl), a
    00001532 23               [ 6] 3308 	inc	hl
    00001533 DD 7E F4         [19] 3309 	ld	a, -12 (ix)
    00001536 77               [ 7] 3310 	ld	(hl), a
                                   3311 ;E:\Dropbox\FAUSTO\SVILUPPI\MSX\CODE\C\MSXgl\projects\soccerlgSCC/soccerlg_s12_b3.c:490: if (g_FieldCurrentYPosition < FIELD_CENTRAL_Y) g_FieldCurrentYPosition++;
    00001537 3Ar00r00         [13] 3312 	ld	a, (_g_FieldCurrentYPosition+0)
    0000153A D6 89            [ 7] 3313 	sub	a, #0x89
    0000153C 3Ar01r00         [13] 3314 	ld	a, (_g_FieldCurrentYPosition+1)
    0000153F 17               [ 4] 3315 	rla
    00001540 3F               [ 4] 3316 	ccf
    00001541 1F               [ 4] 3317 	rra
    00001542 DE 80            [ 7] 3318 	sbc	a, #0x80
    00001544 30 07            [12] 3319 	jr	NC, 00351$
    00001546 2Ar00r00         [16] 3320 	ld	hl, (_g_FieldCurrentYPosition)
    00001549 23               [ 6] 3321 	inc	hl
    0000154A 22r00r00         [16] 3322 	ld	(_g_FieldCurrentYPosition), hl
    0000154D                       3323 00351$:
                                   3324 ;E:\Dropbox\FAUSTO\SVILUPPI\MSX\CODE\C\MSXgl\projects\soccerlgSCC/soccerlg_s12_b3.c:493: CallFnc_VOID(6,UpdateSpritesPositions);
    0000154D 11r00r00         [10] 3325 	ld	de, #_UpdateSpritesPositions
    00001550 3E 06            [ 7] 3326 	ld	a, #0x06
    00001552 CDr00r00         [17] 3327 	call	_CallFnc_VOID
                                   3328 ;E:\Dropbox\FAUSTO\SVILUPPI\MSX\CODE\C\MSXgl\projects\soccerlgSCC/soccerlg_s12_b3.c:495: if (kDone && gDone && rDone && g_FieldCurrentYPosition >= FIELD_CENTRAL_Y) break;
    00001555 DD 7E F0         [19] 3329 	ld	a, -16 (ix)
    00001558 B7               [ 4] 3330 	or	a, a
    00001559 CAr7Dr12         [10] 3331 	jp	Z, 00358$
    0000155C DD 7E F1         [19] 3332 	ld	a, -15 (ix)
    0000155F B7               [ 4] 3333 	or	a, a
    00001560 CAr7Dr12         [10] 3334 	jp	Z, 00358$
    00001563 DD 7E F2         [19] 3335 	ld	a, -14 (ix)
    00001566 B7               [ 4] 3336 	or	a, a
    00001567 CAr7Dr12         [10] 3337 	jp	Z, 00358$
    0000156A 3Ar00r00         [13] 3338 	ld	a, (_g_FieldCurrentYPosition+0)
    0000156D D6 89            [ 7] 3339 	sub	a, #0x89
    0000156F 3Ar01r00         [13] 3340 	ld	a, (_g_FieldCurrentYPosition+1)
    00001572 17               [ 4] 3341 	rla
    00001573 3F               [ 4] 3342 	ccf
    00001574 1F               [ 4] 3343 	rra
    00001575 DE 80            [ 7] 3344 	sbc	a, #0x80
    00001577 DAr7Dr12         [10] 3345 	jp	C, 00358$
                                   3346 ;E:\Dropbox\FAUSTO\SVILUPPI\MSX\CODE\C\MSXgl\projects\soccerlgSCC/soccerlg_s12_b3.c:499: for(u8 i=0; i<15; i++) {
    0000157A DD 36 FF 00      [19] 3347 	ld	-1 (ix), #0x00
    0000157E                       3348 00390$:
    0000157E DD 7E FF         [19] 3349 	ld	a, -1 (ix)
    00001581 D6 0F            [ 7] 3350 	sub	a, #0x0f
    00001583 D2r28r16         [10] 3351 	jp	NC, 00363$
                                   3352 ;E:\Dropbox\FAUSTO\SVILUPPI\MSX\CODE\C\MSXgl\projects\soccerlgSCC/soccerlg_s12_b3.c:500: if (g_Players[i].Y < 243) {
    00001586 DD 4E FF         [19] 3353 	ld	c, -1 (ix)
    00001589 06 00            [ 7] 3354 	ld	b, #0x00
    0000158B 69               [ 4] 3355 	ld	l, c
    0000158C 60               [ 4] 3356 	ld	h, b
    0000158D 29               [11] 3357 	add	hl, hl
    0000158E 29               [11] 3358 	add	hl, hl
    0000158F 09               [11] 3359 	add	hl, bc
    00001590 29               [11] 3360 	add	hl, hl
    00001591 29               [11] 3361 	add	hl, hl
    00001592 09               [11] 3362 	add	hl, bc
    00001593 DD 75 F5         [19] 3363 	ld	-11 (ix), l
    00001596 DD 74 F6         [19] 3364 	ld	-10 (ix), h
    00001599 DD 7E F5         [19] 3365 	ld	a, -11 (ix)
    0000159C C6r00            [ 7] 3366 	add	a, #<(_g_Players)
    0000159E DD 77 EF         [19] 3367 	ld	-17 (ix), a
    000015A1 DD 7E F6         [19] 3368 	ld	a, -10 (ix)
    000015A4 CEs00            [ 7] 3369 	adc	a, #>(_g_Players)
    000015A6 DD 77 F0         [19] 3370 	ld	-16 (ix), a
    000015A9 DD 6E EF         [19] 3371 	ld	l, -17 (ix)
    000015AC DD 66 F0         [19] 3372 	ld	h, -16 (ix)
    000015AF 7E               [ 7] 3373 	ld	a, (hl)
    000015B0 DD 77 F5         [19] 3374 	ld	-11 (ix), a
    000015B3 23               [ 6] 3375 	inc	hl
    000015B4 7E               [ 7] 3376 	ld	a, (hl)
    000015B5 DD 77 F6         [19] 3377 	ld	-10 (ix), a
    000015B8 DD 7E F5         [19] 3378 	ld	a, -11 (ix)
    000015BB DD 77 F1         [19] 3379 	ld	-15 (ix), a
    000015BE DD 7E F6         [19] 3380 	ld	a, -10 (ix)
    000015C1 DD 77 F2         [19] 3381 	ld	-14 (ix), a
                                   3382 ;E:\Dropbox\FAUSTO\SVILUPPI\MSX\CODE\C\MSXgl\projects\soccerlgSCC/soccerlg_s12_b3.c:501: g_Players[i].Direction = DIRECTION_DOWN;
    000015C4 DD 7E EF         [19] 3383 	ld	a, -17 (ix)
    000015C7 C6 0A            [ 7] 3384 	add	a, #0x0a
    000015C9 DD 77 F3         [19] 3385 	ld	-13 (ix), a
    000015CC DD 7E F0         [19] 3386 	ld	a, -16 (ix)
    000015CF CE 00            [ 7] 3387 	adc	a, #0x00
    000015D1 DD 77 F4         [19] 3388 	ld	-12 (ix), a
                                   3389 ;E:\Dropbox\FAUSTO\SVILUPPI\MSX\CODE\C\MSXgl\projects\soccerlgSCC/soccerlg_s12_b3.c:502: g_Players[i].PatternId = PLAYER_POSE_FRONT;
    000015D4 DD 7E EF         [19] 3390 	ld	a, -17 (ix)
    000015D7 C6 08            [ 7] 3391 	add	a, #0x08
    000015D9 DD 77 F5         [19] 3392 	ld	-11 (ix), a
    000015DC DD 7E F0         [19] 3393 	ld	a, -16 (ix)
    000015DF CE 00            [ 7] 3394 	adc	a, #0x00
    000015E1 DD 77 F6         [19] 3395 	ld	-10 (ix), a
                                   3396 ;E:\Dropbox\FAUSTO\SVILUPPI\MSX\CODE\C\MSXgl\projects\soccerlgSCC/soccerlg_s12_b3.c:500: if (g_Players[i].Y < 243) {
    000015E4 DD 7E F1         [19] 3397 	ld	a, -15 (ix)
    000015E7 D6 F3            [ 7] 3398 	sub	a, #0xf3
    000015E9 DD 7E F2         [19] 3399 	ld	a, -14 (ix)
    000015EC DE 00            [ 7] 3400 	sbc	a, #0x00
    000015EE 30 13            [12] 3401 	jr	NC, 00361$
                                   3402 ;E:\Dropbox\FAUSTO\SVILUPPI\MSX\CODE\C\MSXgl\projects\soccerlgSCC/soccerlg_s12_b3.c:501: g_Players[i].Direction = DIRECTION_DOWN;
    000015F0 DD 6E F3         [19] 3403 	ld	l, -13 (ix)
    000015F3 DD 66 F4         [19] 3404 	ld	h, -12 (ix)
    000015F6 36 05            [10] 3405 	ld	(hl), #0x05
                                   3406 ;E:\Dropbox\FAUSTO\SVILUPPI\MSX\CODE\C\MSXgl\projects\soccerlgSCC/soccerlg_s12_b3.c:502: g_Players[i].PatternId = PLAYER_POSE_FRONT;
    000015F8 DD 6E F5         [19] 3407 	ld	l, -11 (ix)
    000015FB DD 66 F6         [19] 3408 	ld	h, -10 (ix)
    000015FE 36 10            [10] 3409 	ld	(hl), #0x10
    00001600 C3r13r16         [10] 3410 	jp	00362$
    00001603                       3411 00361$:
                                   3412 ;E:\Dropbox\FAUSTO\SVILUPPI\MSX\CODE\C\MSXgl\projects\soccerlgSCC/soccerlg_s12_b3.c:504: g_Players[i].Direction = DIRECTION_UP;
    00001603 DD 6E F3         [19] 3413 	ld	l, -13 (ix)
    00001606 DD 66 F4         [19] 3414 	ld	h, -12 (ix)
    00001609 36 01            [10] 3415 	ld	(hl), #0x01
                                   3416 ;E:\Dropbox\FAUSTO\SVILUPPI\MSX\CODE\C\MSXgl\projects\soccerlgSCC/soccerlg_s12_b3.c:505: g_Players[i].PatternId = PLAYER_POSE_BACK;
    0000160B DD 6E F5         [19] 3417 	ld	l, -11 (ix)
    0000160E DD 66 F6         [19] 3418 	ld	h, -10 (ix)
    00001611 36 11            [10] 3419 	ld	(hl), #0x11
    00001613                       3420 00362$:
                                   3421 ;E:\Dropbox\FAUSTO\SVILUPPI\MSX\CODE\C\MSXgl\projects\soccerlgSCC/soccerlg_s12_b3.c:507: g_Players[i].Status = PLAYER_STATUS_POSITIONED;
    00001613 DD 6E EF         [19] 3422 	ld	l, -17 (ix)
    00001616 DD 66 F0         [19] 3423 	ld	h, -16 (ix)
    00001619 11 12 00         [10] 3424 	ld	de, #0x0012
    0000161C 19               [11] 3425 	add	hl, de
    0000161D 36 04            [10] 3426 	ld	(hl), #0x04
    0000161F 23               [ 6] 3427 	inc	hl
    00001620 36 00            [10] 3428 	ld	(hl), #0x00
                                   3429 ;E:\Dropbox\FAUSTO\SVILUPPI\MSX\CODE\C\MSXgl\projects\soccerlgSCC/soccerlg_s12_b3.c:499: for(u8 i=0; i<15; i++) {
    00001622 DD 34 FF         [23] 3430 	inc	-1 (ix)
    00001625 C3r7Er15         [10] 3431 	jp	00390$
    00001628                       3432 00363$:
                                   3433 ;E:\Dropbox\FAUSTO\SVILUPPI\MSX\CODE\C\MSXgl\projects\soccerlgSCC/soccerlg_s12_b3.c:510: CallFnc_VOID(6,UpdateSpritesPositions);
    00001628 11r00r00         [10] 3434 	ld	de, #_UpdateSpritesPositions
    0000162B 3E 06            [ 7] 3435 	ld	a, #0x06
    0000162D CDr00r00         [17] 3436 	call	_CallFnc_VOID
                                   3437 ;E:\Dropbox\FAUSTO\SVILUPPI\MSX\CODE\C\MSXgl\projects\soccerlgSCC/soccerlg_s12_b3.c:514: turn++;
    00001630 DD 34 FD         [23] 3438 	inc	-3 (ix)
    00001633 C3r83r03         [10] 3439 	jp	00365$
    00001636                       3440 00392$:
                                   3441 ;E:\Dropbox\FAUSTO\SVILUPPI\MSX\CODE\C\MSXgl\projects\soccerlgSCC/soccerlg_s12_b3.c:516: }
    00001636 DD F9            [10] 3442 	ld	sp, ix
    00001638 DD E1            [14] 3443 	pop	ix
    0000163A C9               [10] 3444 	ret
                         0000F380  3445 _g_RDPRIM	=	0xf380
                         0000F385  3446 _g_WRPRIM	=	0xf385
                         0000F38C  3447 _g_CLPRIM	=	0xf38c
                         0000F39A  3448 _g_USRTAB	=	0xf39a
                         0000F3DE  3449 _g_CNSDFG	=	0xf3de
                         0000F3DF  3450 _g_RG0SAV	=	0xf3df
                         0000F3E0  3451 _g_RG1SAV	=	0xf3e0
                         0000F3E1  3452 _g_RG2SAV	=	0xf3e1
                         0000F3E2  3453 _g_RG3SAV	=	0xf3e2
                         0000F3E3  3454 _g_RG4SAV	=	0xf3e3
                         0000F3E4  3455 _g_RG5SAV	=	0xf3e4
                         0000F3E5  3456 _g_RG6SAV	=	0xf3e5
                         0000F3E6  3457 _g_RG7SAV	=	0xf3e6
                         0000F3E7  3458 _g_STATFL	=	0xf3e7
                         0000F3E8  3459 _g_TRGFLG	=	0xf3e8
                         0000F3EC  3460 _g_MAXUPD	=	0xf3ec
                         0000F3EF  3461 _g_MINUPD	=	0xf3ef
                         0000F3F3  3462 _g_QUEUES	=	0xf3f3
                         0000F3F5  3463 _g_FRCNEW	=	0xf3f5
                         0000F3F6  3464 _g_SCNCNT	=	0xf3f6
                         0000F3F7  3465 _g_REPCNT	=	0xf3f7
                         0000F3F8  3466 _g_PUTPNT	=	0xf3f8
                         0000F3FA  3467 _g_GETPNT	=	0xf3fa
                         0000F3FC  3468 _g_CS120	=	0xf3fc
                         0000F401  3469 _g_CS240	=	0xf401
                         0000F406  3470 _g_LOW	=	0xf406
                         0000F408  3471 _g_HIGH	=	0xf408
                         0000F40A  3472 _g_HEADER	=	0xf40a
                         0000F40B  3473 _g_ASPCT1	=	0xf40b
                         0000F40D  3474 _g_ASPCT2	=	0xf40d
                         0000F959  3475 _g_QUETAB	=	0xf959
                         0000F971  3476 _g_QUEBAK	=	0xf971
                         0000F975  3477 _g_VOICAQ	=	0xf975
                         0000F9F5  3478 _g_VOICBQ	=	0xf9f5
                         0000FA75  3479 _g_VOICCQ	=	0xfa75
                         0000FAF5  3480 _g_RS2IQ	=	0xfaf5
                         0000FAF5  3481 _g_DPPAGE	=	0xfaf5
                         0000FAF6  3482 _g_ACPAGE	=	0xfaf6
                         0000FAF7  3483 _g_AVCSAV	=	0xfaf7
                         0000FAF8  3484 _g_EXBRSA	=	0xfaf8
                         0000FAF9  3485 _g_CHRCNT	=	0xfaf9
                         0000FAFA  3486 _g_ROMA	=	0xfafa
                         0000FAFC  3487 _g_MODE	=	0xfafc
                         0000FAFD  3488 _g_NORUSE	=	0xfafd
                         0000FAFE  3489 _g_XSAVE	=	0xfafe
                         0000FB00  3490 _g_YSAVE	=	0xfb00
                         0000FB03  3491 _g_RSTMP	=	0xfb03
                         0000FB03  3492 _g_TOCNT	=	0xfb03
                         0000FB04  3493 _g_RSFCB	=	0xfb04
                         0000FB06  3494 _g_RSIQLN	=	0xfb06
                         0000FB07  3495 _g_MEXBIh	=	0xfb07
                         0000FB0C  3496 _g_OLDSTT	=	0xfb0c
                         0000FB0C  3497 _g_OLDINT	=	0xfb0c
                         0000FB16  3498 _g_DEVNUM	=	0xfb16
                         0000FB17  3499 _g_DATCNT	=	0xfb17
                         0000FB1A  3500 _g_ERRORS	=	0xfb1a
                         0000FB1B  3501 _g_FLAGS	=	0xfb1b
                         0000FB1C  3502 _g_ESTBLS	=	0xfb1c
                         0000FB1D  3503 _g_COMMSK	=	0xfb1d
                         0000FB1E  3504 _g_LSTCOM	=	0xfb1e
                         0000FB1F  3505 _g_LSTMOD	=	0xfb1f
                         0000FB35  3506 _g_PRSCNT	=	0xfb35
                         0000FB36  3507 _g_SAVSP	=	0xfb36
                         0000FB38  3508 _g_VOICEN	=	0xfb38
                         0000FB39  3509 _g_SAVVOL	=	0xfb39
                         0000FB3B  3510 _g_MCLLEN	=	0xfb3b
                         0000FB3C  3511 _g_MCLPTR	=	0xfb3c
                         0000FB3E  3512 _g_QUEUEN	=	0xfb3e
                         0000FB3F  3513 _g_MUSICF	=	0xfb3f
                         0000FB40  3514 _g_PLYCNT	=	0xfb40
                         0000FB41  3515 _g_VCBA	=	0xfb41
                         0000FB66  3516 _g_VCBB	=	0xfb66
                         0000FB8B  3517 _g_VCBC	=	0xfb8b
                         0000FBB0  3518 _g_ENSTOP	=	0xfbb0
                         0000FBB1  3519 _g_BASROM	=	0xfbb1
                         0000FBB2  3520 _g_LINTTB	=	0xfbb2
                         0000FBCA  3521 _g_FSTPOS	=	0xfbca
                         0000FBCC  3522 _g_CODSAV	=	0xfbcc
                         0000FBCD  3523 _g_FNKSWI	=	0xfbcd
                         0000FBCE  3524 _g_FNKFLG	=	0xfbce
                         0000FBD8  3525 _g_ONGSBF	=	0xfbd8
                         0000FBD9  3526 _g_CLIKFL	=	0xfbd9
                         0000FBDA  3527 _g_OLDKEY	=	0xfbda
                         0000FBE5  3528 _g_NEWKEY	=	0xfbe5
                         0000FBF0  3529 _g_KEYBUF	=	0xfbf0
                         0000FC18  3530 _g_LINWRK	=	0xfc18
                         0000FC40  3531 _g_PATWRK	=	0xfc40
                         0000FC48  3532 _g_BOTTOM	=	0xfc48
                         0000FC4A  3533 _g_HIMEM	=	0xfc4a
                         0000FC4C  3534 _g_TRPTBL	=	0xfc4c
                         0000FC9A  3535 _g_RTYCNT	=	0xfc9a
                         0000FC9B  3536 _g_INTFLG	=	0xfc9b
                         0000FC9C  3537 _g_PADY	=	0xfc9c
                         0000FC9D  3538 _g_PADX	=	0xfc9d
                         0000FC9E  3539 _g_JIFFY	=	0xfc9e
                         0000FCA0  3540 _g_INTVAL	=	0xfca0
                         0000FCA2  3541 _g_INTCNT	=	0xfca2
                         0000FCA4  3542 _g_LOWLIM	=	0xfca4
                         0000FCA5  3543 _g_WINWID	=	0xfca5
                         0000FCA6  3544 _g_GRPHED	=	0xfca6
                         0000FCA7  3545 _g_ESCCNT	=	0xfca7
                         0000FCA8  3546 _g_INSFLG	=	0xfca8
                         0000FCA9  3547 _g_CSRSW	=	0xfca9
                         0000FCAA  3548 _g_CSTYLE	=	0xfcaa
                         0000FCAB  3549 _g_CAPST	=	0xfcab
                         0000FCAC  3550 _g_KANAST	=	0xfcac
                         0000FCAD  3551 _g_KANAMD	=	0xfcad
                         0000FCAE  3552 _g_FLBMEM	=	0xfcae
                         0000FCAF  3553 _g_SCRMOD	=	0xfcaf
                         0000FCB0  3554 _g_OLDSCR	=	0xfcb0
                         0000FCB1  3555 _g_CASPRV	=	0xfcb1
                         0000FCB2  3556 _g_BRDATR	=	0xfcb2
                         0000FCB3  3557 _g_GXPOS	=	0xfcb3
                         0000FCB5  3558 _g_GYPOS	=	0xfcb5
                         0000FCBB  3559 _g_DRWFLG	=	0xfcbb
                         0000FCBC  3560 _g_DRWSCL	=	0xfcbc
                         0000FCBD  3561 _g_DRWANG	=	0xfcbd
                         0000FCC1  3562 _g_MNROM	=	0xfcc1
                         0000FCC1  3563 _g_EXPTBL	=	0xfcc1
                         0000FCC5  3564 _g_SLTTBL	=	0xfcc5
                         0000FCC9  3565 _g_SLTATR	=	0xfcc9
                         0000FD09  3566 _g_SLTWRK	=	0xfd09
                         0000FD89  3567 _g_PROCNM	=	0xfd89
                         0000FFE7  3568 _g_RG08SAV	=	0xffe7
                         0000FFE8  3569 _g_RG09SAV	=	0xffe8
                         0000FFE9  3570 _g_RG10SAV	=	0xffe9
                         0000FFEA  3571 _g_RG11SAV	=	0xffea
                         0000FFEB  3572 _g_RG12SAV	=	0xffeb
                         0000FFEC  3573 _g_RG13SAV	=	0xffec
                         0000FFED  3574 _g_RG14SAV	=	0xffed
                         0000FFEE  3575 _g_RG15SAV	=	0xffee
                         0000FFEF  3576 _g_RG16SAV	=	0xffef
                         0000FFF0  3577 _g_RG17SAV	=	0xfff0
                         0000FFF1  3578 _g_RG18SAV	=	0xfff1
                         0000FFF2  3579 _g_RG19SAV	=	0xfff2
                         0000FFF3  3580 _g_RG20SAV	=	0xfff3
                         0000FFF4  3581 _g_RG21SAV	=	0xfff4
                         0000FFF5  3582 _g_RG22SAV	=	0xfff5
                         0000FFF6  3583 _g_RG23SAV	=	0xfff6
                         0000FFF7  3584 _g_MINROM	=	0xfff7
                         0000FFF8  3585 _g_SVFFF8	=	0xfff8
                         0000FFFA  3586 _g_RG25SAV	=	0xfffa
                         0000FFFB  3587 _g_RG26SAV	=	0xfffb
                         0000FFFC  3588 _g_RG27SAV	=	0xfffc
                         0000FFFD  3589 _g_SVFFFD	=	0xfffd
                         00000004  3590 _g_CGTABL	=	0x0004
                         00000006  3591 _g_VDP_DR	=	0x0006
                         00000007  3592 _g_VDP_DW	=	0x0007
                         0000002B  3593 _g_BASRVN	=	0x002b
                         0000002B  3594 _g_ROMVersion	=	0x002b
                         0000002D  3595 _g_MSXVER	=	0x002d
                         0000002E  3596 _g_MSXMID	=	0x002e
                         00000034  3597 _g_CHAR_16	=	0x0034
                         00000000  3598 _g_SUBRID	=	0x0000
                         00000002  3599 _g_STRSRC	=	0x0002
                         0000F30F  3600 _g_KANJTABLE	=	0xf30f
                         0000F323  3601 _g_DISKVE	=	0xf323
                         0000F325  3602 _g_BREAKV	=	0xf325
                         0000F341  3603 _g_RAMAD0	=	0xf341
                         0000F342  3604 _g_RAMAD1	=	0xf342
                         0000F343  3605 _g_RAMAD2	=	0xf343
                         0000F344  3606 _g_RAMAD3	=	0xf344
                         0000F348  3607 _g_MASTER	=	0xf348
                         0000F37D  3608 _g_BDOS	=	0xf37d
    0000163B                       3609 ___str_0:
    0000163B 50 45 4E 41 4C 54 59  3610 	.ascii "PENALTY SHOOTOUT"
             20 53 48 4F 4F 54 4F
             55 54
    0000164B 00                    3611 	.db 0x00
    0000164C                       3612 ___str_1:
    0000164C 49 4E 20 20 47 4F 41  3613 	.ascii "IN  GOAL"
             4C
    00001654 00                    3614 	.db 0x00
    00001655                       3615 ___str_2:
    00001655 53 41 56 45 44        3616 	.ascii "SAVED"
    0000165A 00                    3617 	.db 0x00
    0000165B                       3618 ___str_3:
    0000165B 4D 49 53 53           3619 	.ascii "MISS"
    0000165F 00                    3620 	.db 0x00
                                   3621 	.area _SEG12
                                   3622 	.area _INITIALIZER
                                   3623 	.area _CABS (ABS)
