                                      1 ;--------------------------------------------------------
                                      2 ; File Created by SDCC : free open source ANSI-C Compiler
                                      3 ; Version 4.2.0 #13081 (MINGW64)
                                      4 ;--------------------------------------------------------
                                      5 	.module soccerlg_s4_b3
                                      6 	.optsdcc -mz80
                                      7 	
                                      8 ;--------------------------------------------------------
                                      9 ; Public variables in this module
                                     10 ;--------------------------------------------------------
                                     11 	.globl _VGM_Stop
                                     12 	.globl _DEBUG_INIT
                                     13 	.globl _TickAI
                                     14 	.globl _SetPlayerTarget
                                     15 	.globl _TickBallCollision
                                     16 	.globl _UpdatePassTarget
                                     17 	.globl _TickGoalkeeperAnimation
                                     18 	.globl _TickCheckBallBoundaries
                                     19 	.globl _TickUpdateTime
                                     20 	.globl _TickActiveFieldZone
                                     21 	.globl _TickBallFlying
                                     22 	.globl _GetNoMovingPlayerPatternId
                                     23 	.globl _ShowMenu
                                     24 	.globl _V9990_PrintLayerAStringAtPos
                                     25 	.globl _PutPonPonGirlSprite
                                     26 	.globl _TickThrowIn
                                     27 	.globl _TickTeamJoystick
                                     28 	.globl _TickPonPonGirlsAnimation
                                     29 	.globl _UpdateSpritesPositions
                                     30 	.globl _TickGoalCelebration
                                     31 	.globl _V9990_InitMenuLayers
                                     32 	.globl _TickPlayerToOwnTarget
                                     33 	.globl _TickGoalKick
                                     34 	.globl _IsJoystickTriggerPressed
                                     35 	.globl _PerformPass
                                     36 	.globl _V9990_ClearTextFromLayerA
                                     37 	.globl _PlayPCM
                                     38 	.globl _PlayVGM
                                     39 	.globl _CallFnc_U8_P1
                                     40 	.globl _CallFnc_U8
                                     41 	.globl _CallFnc_VOID_P1
                                     42 	.globl _CallFnc_VOID
                                     43 	.globl _V9990_LoadImagePresentationData
                                     44 	.globl _LoadMsxVdpFonts
                                     45 	.globl _V9990_WaitSynch
                                     46 	.globl _V9_Detect
                                     47 	.globl _V9_SetPaletteEntry
                                     48 	.globl _V9_SetScrollingBY
                                     49 	.globl _V9_SetColorMode
                                     50 	.globl _V9_SetScreenMode
                                     51 	.globl _V9_WriteVRAM_CurrentAddr
                                     52 	.globl _V9_SetWriteAddress
                                     53 	.globl _V9_GetRegister
                                     54 	.globl _V9_SetRegister16
                                     55 	.globl _V9_SetRegister
                                     56 	.globl _V9_SetPort
                                     57 	.globl _Print_SetColor
                                     58 	.globl _Print_DrawText
                                     59 	.globl _VDP_RegWriteBakMask
                                     60 	.globl _VDP_SetMode
                                     61 	.globl _VDP_ClearVRAM
                                     62 	.globl _Keyboard_IsKeyPressed
                                     63 	.globl _Joystick_Read
                                     64 	.globl _g_SLTSL
                                     65 	.globl _g_GRPACY
                                     66 	.globl _g_GRPACX
                                     67 	.globl _g_LOGOPR
                                     68 	.globl _g_CMASK
                                     69 	.globl _g_CLOC
                                     70 	.globl _g_FNKSTR
                                     71 	.globl _g_ATRBYT
                                     72 	.globl _g_BDRCLR
                                     73 	.globl _g_BAKCLR
                                     74 	.globl _g_FORCLR
                                     75 	.globl _g_CSRX
                                     76 	.globl _g_CSRY
                                     77 	.globl _g_CLIKSW
                                     78 	.globl _g_MLTPAT
                                     79 	.globl _g_MLTATR
                                     80 	.globl _g_MLTCGP
                                     81 	.globl _g_MLTCOL
                                     82 	.globl _g_MLTNAM
                                     83 	.globl _g_GRPPAT
                                     84 	.globl _g_GRPATR
                                     85 	.globl _g_GRPCGP
                                     86 	.globl _g_GRPCOL
                                     87 	.globl _g_GRPNAM
                                     88 	.globl _g_T32PAT
                                     89 	.globl _g_T32ATR
                                     90 	.globl _g_T32CGP
                                     91 	.globl _g_T32COL
                                     92 	.globl _g_T32NAM
                                     93 	.globl _g_TXTPAT
                                     94 	.globl _g_TXTATR
                                     95 	.globl _g_TXTCGP
                                     96 	.globl _g_TXTCOL
                                     97 	.globl _g_TXTNAM
                                     98 	.globl _g_CLMLST
                                     99 	.globl _g_CRTCNT
                                    100 	.globl _g_LINLEN
                                    101 	.globl _g_LINL32
                                    102 	.globl _g_LINL40
                                    103 	.globl _g_BDOS
                                    104 	.globl _g_MASTER
                                    105 	.globl _g_RAMAD3
                                    106 	.globl _g_RAMAD2
                                    107 	.globl _g_RAMAD1
                                    108 	.globl _g_RAMAD0
                                    109 	.globl _g_BREAKV
                                    110 	.globl _g_DISKVE
                                    111 	.globl _g_KANJTABLE
                                    112 	.globl _g_STRSRC
                                    113 	.globl _g_SUBRID
                                    114 	.globl _g_CHAR_16
                                    115 	.globl _g_MSXMID
                                    116 	.globl _g_MSXVER
                                    117 	.globl _g_ROMVersion
                                    118 	.globl _g_BASRVN
                                    119 	.globl _g_VDP_DW
                                    120 	.globl _g_VDP_DR
                                    121 	.globl _g_CGTABL
                                    122 	.globl _g_SVFFFD
                                    123 	.globl _g_RG27SAV
                                    124 	.globl _g_RG26SAV
                                    125 	.globl _g_RG25SAV
                                    126 	.globl _g_SVFFF8
                                    127 	.globl _g_MINROM
                                    128 	.globl _g_RG23SAV
                                    129 	.globl _g_RG22SAV
                                    130 	.globl _g_RG21SAV
                                    131 	.globl _g_RG20SAV
                                    132 	.globl _g_RG19SAV
                                    133 	.globl _g_RG18SAV
                                    134 	.globl _g_RG17SAV
                                    135 	.globl _g_RG16SAV
                                    136 	.globl _g_RG15SAV
                                    137 	.globl _g_RG14SAV
                                    138 	.globl _g_RG13SAV
                                    139 	.globl _g_RG12SAV
                                    140 	.globl _g_RG11SAV
                                    141 	.globl _g_RG10SAV
                                    142 	.globl _g_RG09SAV
                                    143 	.globl _g_RG08SAV
                                    144 	.globl _g_PROCNM
                                    145 	.globl _g_SLTWRK
                                    146 	.globl _g_SLTATR
                                    147 	.globl _g_SLTTBL
                                    148 	.globl _g_EXPTBL
                                    149 	.globl _g_MNROM
                                    150 	.globl _g_DRWANG
                                    151 	.globl _g_DRWSCL
                                    152 	.globl _g_DRWFLG
                                    153 	.globl _g_GYPOS
                                    154 	.globl _g_GXPOS
                                    155 	.globl _g_BRDATR
                                    156 	.globl _g_CASPRV
                                    157 	.globl _g_OLDSCR
                                    158 	.globl _g_SCRMOD
                                    159 	.globl _g_FLBMEM
                                    160 	.globl _g_KANAMD
                                    161 	.globl _g_KANAST
                                    162 	.globl _g_CAPST
                                    163 	.globl _g_CSTYLE
                                    164 	.globl _g_CSRSW
                                    165 	.globl _g_INSFLG
                                    166 	.globl _g_ESCCNT
                                    167 	.globl _g_GRPHED
                                    168 	.globl _g_WINWID
                                    169 	.globl _g_LOWLIM
                                    170 	.globl _g_INTCNT
                                    171 	.globl _g_INTVAL
                                    172 	.globl _g_JIFFY
                                    173 	.globl _g_PADX
                                    174 	.globl _g_PADY
                                    175 	.globl _g_INTFLG
                                    176 	.globl _g_RTYCNT
                                    177 	.globl _g_TRPTBL
                                    178 	.globl _g_HIMEM
                                    179 	.globl _g_BOTTOM
                                    180 	.globl _g_PATWRK
                                    181 	.globl _g_LINWRK
                                    182 	.globl _g_KEYBUF
                                    183 	.globl _g_NEWKEY
                                    184 	.globl _g_OLDKEY
                                    185 	.globl _g_CLIKFL
                                    186 	.globl _g_ONGSBF
                                    187 	.globl _g_FNKFLG
                                    188 	.globl _g_FNKSWI
                                    189 	.globl _g_CODSAV
                                    190 	.globl _g_FSTPOS
                                    191 	.globl _g_LINTTB
                                    192 	.globl _g_BASROM
                                    193 	.globl _g_ENSTOP
                                    194 	.globl _g_VCBC
                                    195 	.globl _g_VCBB
                                    196 	.globl _g_VCBA
                                    197 	.globl _g_PLYCNT
                                    198 	.globl _g_MUSICF
                                    199 	.globl _g_QUEUEN
                                    200 	.globl _g_MCLPTR
                                    201 	.globl _g_MCLLEN
                                    202 	.globl _g_SAVVOL
                                    203 	.globl _g_VOICEN
                                    204 	.globl _g_SAVSP
                                    205 	.globl _g_PRSCNT
                                    206 	.globl _g_LSTMOD
                                    207 	.globl _g_LSTCOM
                                    208 	.globl _g_COMMSK
                                    209 	.globl _g_ESTBLS
                                    210 	.globl _g_FLAGS
                                    211 	.globl _g_ERRORS
                                    212 	.globl _g_DATCNT
                                    213 	.globl _g_DEVNUM
                                    214 	.globl _g_OLDINT
                                    215 	.globl _g_OLDSTT
                                    216 	.globl _g_MEXBIh
                                    217 	.globl _g_RSIQLN
                                    218 	.globl _g_RSFCB
                                    219 	.globl _g_TOCNT
                                    220 	.globl _g_RSTMP
                                    221 	.globl _g_YSAVE
                                    222 	.globl _g_XSAVE
                                    223 	.globl _g_NORUSE
                                    224 	.globl _g_MODE
                                    225 	.globl _g_ROMA
                                    226 	.globl _g_CHRCNT
                                    227 	.globl _g_EXBRSA
                                    228 	.globl _g_AVCSAV
                                    229 	.globl _g_ACPAGE
                                    230 	.globl _g_DPPAGE
                                    231 	.globl _g_RS2IQ
                                    232 	.globl _g_VOICCQ
                                    233 	.globl _g_VOICBQ
                                    234 	.globl _g_VOICAQ
                                    235 	.globl _g_QUEBAK
                                    236 	.globl _g_QUETAB
                                    237 	.globl _g_ASPCT2
                                    238 	.globl _g_ASPCT1
                                    239 	.globl _g_HEADER
                                    240 	.globl _g_HIGH
                                    241 	.globl _g_LOW
                                    242 	.globl _g_CS240
                                    243 	.globl _g_CS120
                                    244 	.globl _g_GETPNT
                                    245 	.globl _g_PUTPNT
                                    246 	.globl _g_REPCNT
                                    247 	.globl _g_SCNCNT
                                    248 	.globl _g_FRCNEW
                                    249 	.globl _g_QUEUES
                                    250 	.globl _g_MINUPD
                                    251 	.globl _g_MAXUPD
                                    252 	.globl _g_TRGFLG
                                    253 	.globl _g_STATFL
                                    254 	.globl _g_RG7SAV
                                    255 	.globl _g_RG6SAV
                                    256 	.globl _g_RG5SAV
                                    257 	.globl _g_RG4SAV
                                    258 	.globl _g_RG3SAV
                                    259 	.globl _g_RG2SAV
                                    260 	.globl _g_RG1SAV
                                    261 	.globl _g_RG0SAV
                                    262 	.globl _g_CNSDFG
                                    263 	.globl _g_USRTAB
                                    264 	.globl _g_CLPRIM
                                    265 	.globl _g_WRPRIM
                                    266 	.globl _g_RDPRIM
                                    267 	.globl _IsTeamJoystickTriggerPressed
                                    268 	.globl _GetJoystickDirection
                                    269 	.globl _InitVariables
                                    270 	.globl _LoadPresentation
                                    271 	.globl _TickGameFieldScrolling
                                    272 	.globl _MainSub
                                    273 	.globl _MainGameLoop
                                    274 	.globl _TickShowKickOff
                                    275 	.globl _TickShotCursor
                                    276 	.globl _EnforcePenaltyBoxRestriction
                                    277 	.globl _GetPlayerIdByRole
                                    278 	.globl _GetClosestPlayerToBall
                                    279 	.globl _SetPlayerBallPossession
                                    280 	.globl _PutBallOnPlayerFeet
                                    281 	.globl _TickCornerKick
                                    282 ;--------------------------------------------------------
                                    283 ; special function registers
                                    284 ;--------------------------------------------------------
                         000000A8   285 _g_PortPrimarySlot	=	0x00a8
                         000000A9   286 _g_PortReadKeyboard	=	0x00a9
                         000000AA   287 _g_PortAccessKeyboard	=	0x00aa
                         000000AB   288 _g_PortControl	=	0x00ab
                         00000098   289 _g_VDP_DataPort	=	0x0098
                         00000099   290 _g_VDP_RegPort	=	0x0099
                         00000099   291 _g_VDP_AddrPort	=	0x0099
                         00000099   292 _g_VDP_StatPort	=	0x0099
                         000000A0   293 _g_PSG_RegPort	=	0x00a0
                         000000A1   294 _g_PSG_DataPort	=	0x00a1
                         000000A2   295 _g_PSG_StatPort	=	0x00a2
                         00000010   296 _g_PSG_Ext_RegPort	=	0x0010
                         00000011   297 _g_PSG_Ext_DataPort	=	0x0011
                         00000012   298 _g_PSG_Ext_StatPort	=	0x0012
                         0000007C   299 _g_MSXMusic_IndexPort	=	0x007c
                         0000007D   300 _g_MSXMusic_DataPort	=	0x007d
                         000000C0   301 _g_MSXAudio_IndexPort	=	0x00c0
                         000000C1   302 _g_MSXAudio_DataPort	=	0x00c1
                         000000C2   303 _g_MSXAudio_IndexPort2	=	0x00c2
                         000000C3   304 _g_MSXAudio_DataPort2	=	0x00c3
                         000000B4   305 _g_RTC_AddrPort	=	0x00b4
                         000000B5   306 _g_RTC_DataPort	=	0x00b5
                         00000060   307 _g_V9_VRAMPort	=	0x0060
                         00000061   308 _g_V9_PalettePort	=	0x0061
                         00000062   309 _g_V9_CmdDataPort	=	0x0062
                         00000063   310 _g_V9_RegDataPort	=	0x0063
                         00000064   311 _g_V9_RegSelectPort	=	0x0064
                         00000065   312 _g_V9_SatusPort	=	0x0065
                         00000066   313 _g_V9_IntFlagPort	=	0x0066
                         00000067   314 _g_V9_SysCtrlPort	=	0x0067
                         00000068   315 _g_V9_KanjiAddrLPort	=	0x0068
                         00000069   316 _g_V9_KanjiAddrHPort	=	0x0069
                         00000069   317 _g_V9_KanjiDataPort	=	0x0069
                         0000006A   318 _g_V9_Kanji2AddrLPort	=	0x006a
                         0000006B   319 _g_V9_Kanji2AddrHPort	=	0x006b
                         0000006B   320 _g_V9_Kanji2DataPort	=	0x006b
                         0000006F   321 _g_V9_OutputCtrPort	=	0x006f
                                    322 ;--------------------------------------------------------
                                    323 ; ram data
                                    324 ;--------------------------------------------------------
                                    325 	.area _DATA
                         0000F3AE   326 _g_LINL40	=	0xf3ae
                         0000F3AF   327 _g_LINL32	=	0xf3af
                         0000F3B0   328 _g_LINLEN	=	0xf3b0
                         0000F3B1   329 _g_CRTCNT	=	0xf3b1
                         0000F3B2   330 _g_CLMLST	=	0xf3b2
                         0000F3B3   331 _g_TXTNAM	=	0xf3b3
                         0000F3B5   332 _g_TXTCOL	=	0xf3b5
                         0000F3B7   333 _g_TXTCGP	=	0xf3b7
                         0000F3B9   334 _g_TXTATR	=	0xf3b9
                         0000F3BB   335 _g_TXTPAT	=	0xf3bb
                         0000F3BD   336 _g_T32NAM	=	0xf3bd
                         0000F3BF   337 _g_T32COL	=	0xf3bf
                         0000F3C1   338 _g_T32CGP	=	0xf3c1
                         0000F3C3   339 _g_T32ATR	=	0xf3c3
                         0000F3C5   340 _g_T32PAT	=	0xf3c5
                         0000F3C7   341 _g_GRPNAM	=	0xf3c7
                         0000F3C9   342 _g_GRPCOL	=	0xf3c9
                         0000F3CB   343 _g_GRPCGP	=	0xf3cb
                         0000F3CD   344 _g_GRPATR	=	0xf3cd
                         0000F3CF   345 _g_GRPPAT	=	0xf3cf
                         0000F3D1   346 _g_MLTNAM	=	0xf3d1
                         0000F3D3   347 _g_MLTCOL	=	0xf3d3
                         0000F3D5   348 _g_MLTCGP	=	0xf3d5
                         0000F3D7   349 _g_MLTATR	=	0xf3d7
                         0000F3D9   350 _g_MLTPAT	=	0xf3d9
                         0000F3DB   351 _g_CLIKSW	=	0xf3db
                         0000F3DC   352 _g_CSRY	=	0xf3dc
                         0000F3DD   353 _g_CSRX	=	0xf3dd
                         0000F3E9   354 _g_FORCLR	=	0xf3e9
                         0000F3EA   355 _g_BAKCLR	=	0xf3ea
                         0000F3EB   356 _g_BDRCLR	=	0xf3eb
                         0000F3F2   357 _g_ATRBYT	=	0xf3f2
                         0000F87F   358 _g_FNKSTR	=	0xf87f
                         0000F92A   359 _g_CLOC	=	0xf92a
                         0000F92C   360 _g_CMASK	=	0xf92c
                         0000FB02   361 _g_LOGOPR	=	0xfb02
                         0000FCB7   362 _g_GRPACX	=	0xfcb7
                         0000FCB9   363 _g_GRPACY	=	0xfcb9
                         0000FFFF   364 _g_SLTSL	=	0xffff
    00000000                        365 _TickCornerKick_s_ForceKickTimer_65537_1432:
    00000000                        366 	.ds 2
    00000002                        367 _TickCornerKick_joyMoved_131078_1465:
    00000002                        368 	.ds 1
    00000003                        369 _TickCornerKick_t1Latched_131079_1470:
    00000003                        370 	.ds 1
                                    371 ;--------------------------------------------------------
                                    372 ; ram data
                                    373 ;--------------------------------------------------------
                                    374 	.area _INITIALIZED
                                    375 ;--------------------------------------------------------
                                    376 ; absolute external ram data
                                    377 ;--------------------------------------------------------
                                    378 	.area _DABS (ABS)
                                    379 ;--------------------------------------------------------
                                    380 ; global & static initialisations
                                    381 ;--------------------------------------------------------
                                    382 	.area _HOME
                                    383 	.area _GSINIT
                                    384 	.area _GSFINAL
                                    385 	.area _GSINIT
                                    386 ;E:\Dropbox\FAUSTO\SVILUPPI\MSX\CODE\C\MSXgl\projects\soccerlgSCC/soccerlg_s4_b3.c:675: static u16 s_ForceKickTimer = 0;
    00000000 21 00 00         [10]  387 	ld	hl, #0x0000
    00000003 22r00r00         [16]  388 	ld	(_TickCornerKick_s_ForceKickTimer_65537_1432), hl
                                    389 ;E:\Dropbox\FAUSTO\SVILUPPI\MSX\CODE\C\MSXgl\projects\soccerlgSCC/soccerlg_s4_b3.c:824: static bool joyMoved = false;
    00000006 FD 21r02r00      [14]  390 	ld	iy, #_TickCornerKick_joyMoved_131078_1465
    0000000A FD 36 00 00      [19]  391 	ld	0 (iy), #0x00
                                    392 ;E:\Dropbox\FAUSTO\SVILUPPI\MSX\CODE\C\MSXgl\projects\soccerlgSCC/soccerlg_s4_b3.c:849: static bool t1Latched = false;
    0000000E FD 21r03r00      [14]  393 	ld	iy, #_TickCornerKick_t1Latched_131079_1470
    00000012 FD 36 00 00      [19]  394 	ld	0 (iy), #0x00
                                    395 ;--------------------------------------------------------
                                    396 ; Home
                                    397 ;--------------------------------------------------------
                                    398 	.area _HOME
                                    399 	.area _HOME
                                    400 ;--------------------------------------------------------
                                    401 ; code
                                    402 ;--------------------------------------------------------
                                    403 	.area _SEG4
                                    404 ;E:\Dropbox\FAUSTO\SVILUPPI\MSX\CODE\C\MSXgl\projects\soccerlgSCC/soccerlg_s4_b3.c:25: bool IsTeamJoystickTriggerPressed(){		
                                    405 ;	---------------------------------
                                    406 ; Function IsTeamJoystickTriggerPressed
                                    407 ; ---------------------------------
    00000000                        408 _IsTeamJoystickTriggerPressed::
                                    409 ;E:\Dropbox\FAUSTO\SVILUPPI\MSX\CODE\C\MSXgl\projects\soccerlgSCC/soccerlg_s4_b3.c:26: u8 joyStat = Joystick_Read(JOY_PORT_1);
    00000000 2E 0F            [ 7]  410 	ld	l, #0x0f
                                    411 ;	spillPairReg hl
                                    412 ;	spillPairReg hl
    00000002 CDr00r00         [17]  413 	call	_Joystick_Read
                                    414 ;E:\Dropbox\FAUSTO\SVILUPPI\MSX\CODE\C\MSXgl\projects\soccerlgSCC/soccerlg_s4_b3.c:27: if (IS_JOY_PRESSED(joyStat, JOY_INPUT_TRIGGER_A))
    00000005 CB 65            [ 8]  415 	bit	4, l
    00000007 20 03            [12]  416 	jr	NZ, 00102$
                                    417 ;E:\Dropbox\FAUSTO\SVILUPPI\MSX\CODE\C\MSXgl\projects\soccerlgSCC/soccerlg_s4_b3.c:29: return true;
    00000009 3E 01            [ 7]  418 	ld	a, #0x01
    0000000B C9               [10]  419 	ret
    0000000C                        420 00102$:
                                    421 ;E:\Dropbox\FAUSTO\SVILUPPI\MSX\CODE\C\MSXgl\projects\soccerlgSCC/soccerlg_s4_b3.c:31: if(Keyboard_IsKeyPressed(KEY_SPACE))
    0000000C 3E 08            [ 7]  422 	ld	a, #0x08
    0000000E CDr00r00         [17]  423 	call	_Keyboard_IsKeyPressed
    00000011 B7               [ 4]  424 	or	a, a
                                    425 ;E:\Dropbox\FAUSTO\SVILUPPI\MSX\CODE\C\MSXgl\projects\soccerlgSCC/soccerlg_s4_b3.c:33: return true;
                                    426 ;E:\Dropbox\FAUSTO\SVILUPPI\MSX\CODE\C\MSXgl\projects\soccerlgSCC/soccerlg_s4_b3.c:35: return FALSE;
    00000012 3E 01            [ 7]  427 	ld	a, #0x01
    00000014 C0               [11]  428 	ret	NZ
    00000015 AF               [ 4]  429 	xor	a, a
                                    430 ;E:\Dropbox\FAUSTO\SVILUPPI\MSX\CODE\C\MSXgl\projects\soccerlgSCC/soccerlg_s4_b3.c:36: }
    00000016 C9               [10]  431 	ret
                         0000F380   432 _g_RDPRIM	=	0xf380
                         0000F385   433 _g_WRPRIM	=	0xf385
                         0000F38C   434 _g_CLPRIM	=	0xf38c
                         0000F39A   435 _g_USRTAB	=	0xf39a
                         0000F3DE   436 _g_CNSDFG	=	0xf3de
                         0000F3DF   437 _g_RG0SAV	=	0xf3df
                         0000F3E0   438 _g_RG1SAV	=	0xf3e0
                         0000F3E1   439 _g_RG2SAV	=	0xf3e1
                         0000F3E2   440 _g_RG3SAV	=	0xf3e2
                         0000F3E3   441 _g_RG4SAV	=	0xf3e3
                         0000F3E4   442 _g_RG5SAV	=	0xf3e4
                         0000F3E5   443 _g_RG6SAV	=	0xf3e5
                         0000F3E6   444 _g_RG7SAV	=	0xf3e6
                         0000F3E7   445 _g_STATFL	=	0xf3e7
                         0000F3E8   446 _g_TRGFLG	=	0xf3e8
                         0000F3EC   447 _g_MAXUPD	=	0xf3ec
                         0000F3EF   448 _g_MINUPD	=	0xf3ef
                         0000F3F3   449 _g_QUEUES	=	0xf3f3
                         0000F3F5   450 _g_FRCNEW	=	0xf3f5
                         0000F3F6   451 _g_SCNCNT	=	0xf3f6
                         0000F3F7   452 _g_REPCNT	=	0xf3f7
                         0000F3F8   453 _g_PUTPNT	=	0xf3f8
                         0000F3FA   454 _g_GETPNT	=	0xf3fa
                         0000F3FC   455 _g_CS120	=	0xf3fc
                         0000F401   456 _g_CS240	=	0xf401
                         0000F406   457 _g_LOW	=	0xf406
                         0000F408   458 _g_HIGH	=	0xf408
                         0000F40A   459 _g_HEADER	=	0xf40a
                         0000F40B   460 _g_ASPCT1	=	0xf40b
                         0000F40D   461 _g_ASPCT2	=	0xf40d
                         0000F959   462 _g_QUETAB	=	0xf959
                         0000F971   463 _g_QUEBAK	=	0xf971
                         0000F975   464 _g_VOICAQ	=	0xf975
                         0000F9F5   465 _g_VOICBQ	=	0xf9f5
                         0000FA75   466 _g_VOICCQ	=	0xfa75
                         0000FAF5   467 _g_RS2IQ	=	0xfaf5
                         0000FAF5   468 _g_DPPAGE	=	0xfaf5
                         0000FAF6   469 _g_ACPAGE	=	0xfaf6
                         0000FAF7   470 _g_AVCSAV	=	0xfaf7
                         0000FAF8   471 _g_EXBRSA	=	0xfaf8
                         0000FAF9   472 _g_CHRCNT	=	0xfaf9
                         0000FAFA   473 _g_ROMA	=	0xfafa
                         0000FAFC   474 _g_MODE	=	0xfafc
                         0000FAFD   475 _g_NORUSE	=	0xfafd
                         0000FAFE   476 _g_XSAVE	=	0xfafe
                         0000FB00   477 _g_YSAVE	=	0xfb00
                         0000FB03   478 _g_RSTMP	=	0xfb03
                         0000FB03   479 _g_TOCNT	=	0xfb03
                         0000FB04   480 _g_RSFCB	=	0xfb04
                         0000FB06   481 _g_RSIQLN	=	0xfb06
                         0000FB07   482 _g_MEXBIh	=	0xfb07
                         0000FB0C   483 _g_OLDSTT	=	0xfb0c
                         0000FB0C   484 _g_OLDINT	=	0xfb0c
                         0000FB16   485 _g_DEVNUM	=	0xfb16
                         0000FB17   486 _g_DATCNT	=	0xfb17
                         0000FB1A   487 _g_ERRORS	=	0xfb1a
                         0000FB1B   488 _g_FLAGS	=	0xfb1b
                         0000FB1C   489 _g_ESTBLS	=	0xfb1c
                         0000FB1D   490 _g_COMMSK	=	0xfb1d
                         0000FB1E   491 _g_LSTCOM	=	0xfb1e
                         0000FB1F   492 _g_LSTMOD	=	0xfb1f
                         0000FB35   493 _g_PRSCNT	=	0xfb35
                         0000FB36   494 _g_SAVSP	=	0xfb36
                         0000FB38   495 _g_VOICEN	=	0xfb38
                         0000FB39   496 _g_SAVVOL	=	0xfb39
                         0000FB3B   497 _g_MCLLEN	=	0xfb3b
                         0000FB3C   498 _g_MCLPTR	=	0xfb3c
                         0000FB3E   499 _g_QUEUEN	=	0xfb3e
                         0000FB3F   500 _g_MUSICF	=	0xfb3f
                         0000FB40   501 _g_PLYCNT	=	0xfb40
                         0000FB41   502 _g_VCBA	=	0xfb41
                         0000FB66   503 _g_VCBB	=	0xfb66
                         0000FB8B   504 _g_VCBC	=	0xfb8b
                         0000FBB0   505 _g_ENSTOP	=	0xfbb0
                         0000FBB1   506 _g_BASROM	=	0xfbb1
                         0000FBB2   507 _g_LINTTB	=	0xfbb2
                         0000FBCA   508 _g_FSTPOS	=	0xfbca
                         0000FBCC   509 _g_CODSAV	=	0xfbcc
                         0000FBCD   510 _g_FNKSWI	=	0xfbcd
                         0000FBCE   511 _g_FNKFLG	=	0xfbce
                         0000FBD8   512 _g_ONGSBF	=	0xfbd8
                         0000FBD9   513 _g_CLIKFL	=	0xfbd9
                         0000FBDA   514 _g_OLDKEY	=	0xfbda
                         0000FBE5   515 _g_NEWKEY	=	0xfbe5
                         0000FBF0   516 _g_KEYBUF	=	0xfbf0
                         0000FC18   517 _g_LINWRK	=	0xfc18
                         0000FC40   518 _g_PATWRK	=	0xfc40
                         0000FC48   519 _g_BOTTOM	=	0xfc48
                         0000FC4A   520 _g_HIMEM	=	0xfc4a
                         0000FC4C   521 _g_TRPTBL	=	0xfc4c
                         0000FC9A   522 _g_RTYCNT	=	0xfc9a
                         0000FC9B   523 _g_INTFLG	=	0xfc9b
                         0000FC9C   524 _g_PADY	=	0xfc9c
                         0000FC9D   525 _g_PADX	=	0xfc9d
                         0000FC9E   526 _g_JIFFY	=	0xfc9e
                         0000FCA0   527 _g_INTVAL	=	0xfca0
                         0000FCA2   528 _g_INTCNT	=	0xfca2
                         0000FCA4   529 _g_LOWLIM	=	0xfca4
                         0000FCA5   530 _g_WINWID	=	0xfca5
                         0000FCA6   531 _g_GRPHED	=	0xfca6
                         0000FCA7   532 _g_ESCCNT	=	0xfca7
                         0000FCA8   533 _g_INSFLG	=	0xfca8
                         0000FCA9   534 _g_CSRSW	=	0xfca9
                         0000FCAA   535 _g_CSTYLE	=	0xfcaa
                         0000FCAB   536 _g_CAPST	=	0xfcab
                         0000FCAC   537 _g_KANAST	=	0xfcac
                         0000FCAD   538 _g_KANAMD	=	0xfcad
                         0000FCAE   539 _g_FLBMEM	=	0xfcae
                         0000FCAF   540 _g_SCRMOD	=	0xfcaf
                         0000FCB0   541 _g_OLDSCR	=	0xfcb0
                         0000FCB1   542 _g_CASPRV	=	0xfcb1
                         0000FCB2   543 _g_BRDATR	=	0xfcb2
                         0000FCB3   544 _g_GXPOS	=	0xfcb3
                         0000FCB5   545 _g_GYPOS	=	0xfcb5
                         0000FCBB   546 _g_DRWFLG	=	0xfcbb
                         0000FCBC   547 _g_DRWSCL	=	0xfcbc
                         0000FCBD   548 _g_DRWANG	=	0xfcbd
                         0000FCC1   549 _g_MNROM	=	0xfcc1
                         0000FCC1   550 _g_EXPTBL	=	0xfcc1
                         0000FCC5   551 _g_SLTTBL	=	0xfcc5
                         0000FCC9   552 _g_SLTATR	=	0xfcc9
                         0000FD09   553 _g_SLTWRK	=	0xfd09
                         0000FD89   554 _g_PROCNM	=	0xfd89
                         0000FFE7   555 _g_RG08SAV	=	0xffe7
                         0000FFE8   556 _g_RG09SAV	=	0xffe8
                         0000FFE9   557 _g_RG10SAV	=	0xffe9
                         0000FFEA   558 _g_RG11SAV	=	0xffea
                         0000FFEB   559 _g_RG12SAV	=	0xffeb
                         0000FFEC   560 _g_RG13SAV	=	0xffec
                         0000FFED   561 _g_RG14SAV	=	0xffed
                         0000FFEE   562 _g_RG15SAV	=	0xffee
                         0000FFEF   563 _g_RG16SAV	=	0xffef
                         0000FFF0   564 _g_RG17SAV	=	0xfff0
                         0000FFF1   565 _g_RG18SAV	=	0xfff1
                         0000FFF2   566 _g_RG19SAV	=	0xfff2
                         0000FFF3   567 _g_RG20SAV	=	0xfff3
                         0000FFF4   568 _g_RG21SAV	=	0xfff4
                         0000FFF5   569 _g_RG22SAV	=	0xfff5
                         0000FFF6   570 _g_RG23SAV	=	0xfff6
                         0000FFF7   571 _g_MINROM	=	0xfff7
                         0000FFF8   572 _g_SVFFF8	=	0xfff8
                         0000FFFA   573 _g_RG25SAV	=	0xfffa
                         0000FFFB   574 _g_RG26SAV	=	0xfffb
                         0000FFFC   575 _g_RG27SAV	=	0xfffc
                         0000FFFD   576 _g_SVFFFD	=	0xfffd
                         00000004   577 _g_CGTABL	=	0x0004
                         00000006   578 _g_VDP_DR	=	0x0006
                         00000007   579 _g_VDP_DW	=	0x0007
                         0000002B   580 _g_BASRVN	=	0x002b
                         0000002B   581 _g_ROMVersion	=	0x002b
                         0000002D   582 _g_MSXVER	=	0x002d
                         0000002E   583 _g_MSXMID	=	0x002e
                         00000034   584 _g_CHAR_16	=	0x0034
                         00000000   585 _g_SUBRID	=	0x0000
                         00000002   586 _g_STRSRC	=	0x0002
                         0000F30F   587 _g_KANJTABLE	=	0xf30f
                         0000F323   588 _g_DISKVE	=	0xf323
                         0000F325   589 _g_BREAKV	=	0xf325
                         0000F341   590 _g_RAMAD0	=	0xf341
                         0000F342   591 _g_RAMAD1	=	0xf342
                         0000F343   592 _g_RAMAD2	=	0xf343
                         0000F344   593 _g_RAMAD3	=	0xf344
                         0000F348   594 _g_MASTER	=	0xf348
                         0000F37D   595 _g_BDOS	=	0xf37d
                                    596 ;E:\Dropbox\FAUSTO\SVILUPPI\MSX\CODE\C\MSXgl\projects\soccerlgSCC/soccerlg_s4_b3.c:39: u8 GetJoystickDirection(){
                                    597 ;	---------------------------------
                                    598 ; Function GetJoystickDirection
                                    599 ; ---------------------------------
    00000017                        600 _GetJoystickDirection::
                                    601 ;E:/Dropbox/FAUSTO/SVILUPPI/MSX/CODE/C/MSXgl/engine/src/input.h:182: u8 in = ~Joystick_Read(port);
    00000017 2E 0F            [ 7]  602 	ld	l, #0x0f
                                    603 ;	spillPairReg hl
                                    604 ;	spillPairReg hl
    00000019 CDr00r00         [17]  605 	call	_Joystick_Read
    0000001C 7D               [ 4]  606 	ld	a, l
    0000001D 2F               [ 4]  607 	cpl
                                    608 ;E:\Dropbox\FAUSTO\SVILUPPI\MSX\CODE\C\MSXgl\projects\soccerlgSCC/soccerlg_s4_b3.c:40: u8 dir = Joystick_GetDirection(JOY_PORT_1);
    0000001E E6 0F            [ 7]  609 	and	a, #0x0f
    00000020 47               [ 4]  610 	ld	b, a
    00000021 58               [ 4]  611 	ld	e, b
                                    612 ;E:\Dropbox\FAUSTO\SVILUPPI\MSX\CODE\C\MSXgl\projects\soccerlgSCC/soccerlg_s4_b3.c:41: u8 retValue=DIRECTION_NONE;
    00000022 0E 00            [ 7]  613 	ld	c, #0x00
                                    614 ;E:\Dropbox\FAUSTO\SVILUPPI\MSX\CODE\C\MSXgl\projects\soccerlgSCC/soccerlg_s4_b3.c:42: switch (dir){
    00000024 3E 0A            [ 7]  615 	ld	a, #0x0a
    00000026 90               [ 4]  616 	sub	a, b
    00000027 38 4F            [12]  617 	jr	C, 00109$
    00000029 16 00            [ 7]  618 	ld	d, #0x00
    0000002B 21r32r00         [10]  619 	ld	hl, #00229$
    0000002E 19               [11]  620 	add	hl, de
    0000002F 19               [11]  621 	add	hl, de
    00000030 19               [11]  622 	add	hl, de
    00000031 E9               [ 4]  623 	jp	(hl)
    00000032                        624 00229$:
    00000032 C3r78r00         [10]  625 	jp	00109$
    00000035 C3r53r00         [10]  626 	jp	00101$
    00000038 C3r58r00         [10]  627 	jp	00102$
    0000003B C3r78r00         [10]  628 	jp	00109$
    0000003E C3r5Dr00         [10]  629 	jp	00103$
    00000041 C3r6Cr00         [10]  630 	jp	00106$
    00000044 C3r76r00         [10]  631 	jp	00108$
    00000047 C3r78r00         [10]  632 	jp	00109$
    0000004A C3r62r00         [10]  633 	jp	00104$
    0000004D C3r67r00         [10]  634 	jp	00105$
    00000050 C3r71r00         [10]  635 	jp	00107$
                                    636 ;E:\Dropbox\FAUSTO\SVILUPPI\MSX\CODE\C\MSXgl\projects\soccerlgSCC/soccerlg_s4_b3.c:43: case JOY_INPUT_DIR_UP:
    00000053                        637 00101$:
                                    638 ;E:\Dropbox\FAUSTO\SVILUPPI\MSX\CODE\C\MSXgl\projects\soccerlgSCC/soccerlg_s4_b3.c:44: retValue=DIRECTION_UP;
    00000053 0E 01            [ 7]  639 	ld	c, #0x01
                                    640 ;E:\Dropbox\FAUSTO\SVILUPPI\MSX\CODE\C\MSXgl\projects\soccerlgSCC/soccerlg_s4_b3.c:45: break;
    00000055 C3r78r00         [10]  641 	jp	00109$
                                    642 ;E:\Dropbox\FAUSTO\SVILUPPI\MSX\CODE\C\MSXgl\projects\soccerlgSCC/soccerlg_s4_b3.c:46: case JOY_INPUT_DIR_DOWN:
    00000058                        643 00102$:
                                    644 ;E:\Dropbox\FAUSTO\SVILUPPI\MSX\CODE\C\MSXgl\projects\soccerlgSCC/soccerlg_s4_b3.c:47: retValue=DIRECTION_DOWN;
    00000058 0E 05            [ 7]  645 	ld	c, #0x05
                                    646 ;E:\Dropbox\FAUSTO\SVILUPPI\MSX\CODE\C\MSXgl\projects\soccerlgSCC/soccerlg_s4_b3.c:48: break;
    0000005A C3r78r00         [10]  647 	jp	00109$
                                    648 ;E:\Dropbox\FAUSTO\SVILUPPI\MSX\CODE\C\MSXgl\projects\soccerlgSCC/soccerlg_s4_b3.c:49: case JOY_INPUT_DIR_LEFT:
    0000005D                        649 00103$:
                                    650 ;E:\Dropbox\FAUSTO\SVILUPPI\MSX\CODE\C\MSXgl\projects\soccerlgSCC/soccerlg_s4_b3.c:50: retValue=DIRECTION_LEFT;
    0000005D 0E 07            [ 7]  651 	ld	c, #0x07
                                    652 ;E:\Dropbox\FAUSTO\SVILUPPI\MSX\CODE\C\MSXgl\projects\soccerlgSCC/soccerlg_s4_b3.c:51: break;
    0000005F C3r78r00         [10]  653 	jp	00109$
                                    654 ;E:\Dropbox\FAUSTO\SVILUPPI\MSX\CODE\C\MSXgl\projects\soccerlgSCC/soccerlg_s4_b3.c:52: case JOY_INPUT_DIR_RIGHT:
    00000062                        655 00104$:
                                    656 ;E:\Dropbox\FAUSTO\SVILUPPI\MSX\CODE\C\MSXgl\projects\soccerlgSCC/soccerlg_s4_b3.c:53: retValue=DIRECTION_RIGHT;
    00000062 0E 03            [ 7]  657 	ld	c, #0x03
                                    658 ;E:\Dropbox\FAUSTO\SVILUPPI\MSX\CODE\C\MSXgl\projects\soccerlgSCC/soccerlg_s4_b3.c:54: break;
    00000064 C3r78r00         [10]  659 	jp	00109$
                                    660 ;E:\Dropbox\FAUSTO\SVILUPPI\MSX\CODE\C\MSXgl\projects\soccerlgSCC/soccerlg_s4_b3.c:55: case JOY_INPUT_DIR_UP_RIGHT:
    00000067                        661 00105$:
                                    662 ;E:\Dropbox\FAUSTO\SVILUPPI\MSX\CODE\C\MSXgl\projects\soccerlgSCC/soccerlg_s4_b3.c:56: retValue=DIRECTION_UP_RIGHT;
    00000067 0E 02            [ 7]  663 	ld	c, #0x02
                                    664 ;E:\Dropbox\FAUSTO\SVILUPPI\MSX\CODE\C\MSXgl\projects\soccerlgSCC/soccerlg_s4_b3.c:57: break;
    00000069 C3r78r00         [10]  665 	jp	00109$
                                    666 ;E:\Dropbox\FAUSTO\SVILUPPI\MSX\CODE\C\MSXgl\projects\soccerlgSCC/soccerlg_s4_b3.c:58: case JOY_INPUT_DIR_UP_LEFT:
    0000006C                        667 00106$:
                                    668 ;E:\Dropbox\FAUSTO\SVILUPPI\MSX\CODE\C\MSXgl\projects\soccerlgSCC/soccerlg_s4_b3.c:59: retValue=DIRECTION_UP_LEFT;
    0000006C 0E 08            [ 7]  669 	ld	c, #0x08
                                    670 ;E:\Dropbox\FAUSTO\SVILUPPI\MSX\CODE\C\MSXgl\projects\soccerlgSCC/soccerlg_s4_b3.c:60: break;
    0000006E C3r78r00         [10]  671 	jp	00109$
                                    672 ;E:\Dropbox\FAUSTO\SVILUPPI\MSX\CODE\C\MSXgl\projects\soccerlgSCC/soccerlg_s4_b3.c:61: case JOY_INPUT_DIR_DOWN_RIGHT:
    00000071                        673 00107$:
                                    674 ;E:\Dropbox\FAUSTO\SVILUPPI\MSX\CODE\C\MSXgl\projects\soccerlgSCC/soccerlg_s4_b3.c:62: retValue=DIRECTION_DOWN_RIGHT;
    00000071 0E 04            [ 7]  675 	ld	c, #0x04
                                    676 ;E:\Dropbox\FAUSTO\SVILUPPI\MSX\CODE\C\MSXgl\projects\soccerlgSCC/soccerlg_s4_b3.c:63: break;
    00000073 C3r78r00         [10]  677 	jp	00109$
                                    678 ;E:\Dropbox\FAUSTO\SVILUPPI\MSX\CODE\C\MSXgl\projects\soccerlgSCC/soccerlg_s4_b3.c:64: case JOY_INPUT_DIR_DOWN_LEFT:
    00000076                        679 00108$:
                                    680 ;E:\Dropbox\FAUSTO\SVILUPPI\MSX\CODE\C\MSXgl\projects\soccerlgSCC/soccerlg_s4_b3.c:65: retValue=DIRECTION_DOWN_LEFT;
    00000076 0E 06            [ 7]  681 	ld	c, #0x06
                                    682 ;E:\Dropbox\FAUSTO\SVILUPPI\MSX\CODE\C\MSXgl\projects\soccerlgSCC/soccerlg_s4_b3.c:67: }
    00000078                        683 00109$:
                                    684 ;E:\Dropbox\FAUSTO\SVILUPPI\MSX\CODE\C\MSXgl\projects\soccerlgSCC/soccerlg_s4_b3.c:68: if(retValue==DIRECTION_NONE){
    00000078 79               [ 4]  685 	ld	a, c
    00000079 B7               [ 4]  686 	or	a, a
    0000007A C2r15r01         [10]  687 	jp	NZ, 00135$
                                    688 ;E:\Dropbox\FAUSTO\SVILUPPI\MSX\CODE\C\MSXgl\projects\soccerlgSCC/soccerlg_s4_b3.c:69: if(Keyboard_IsKeyPressed(KEY_LEFT) && Keyboard_IsKeyPressed(KEY_UP))
    0000007D C5               [11]  689 	push	bc
    0000007E 3E 48            [ 7]  690 	ld	a, #0x48
    00000080 CDr00r00         [17]  691 	call	_Keyboard_IsKeyPressed
    00000083 C1               [10]  692 	pop	bc
    00000084 B7               [ 4]  693 	or	a, a
    00000085 28 0C            [12]  694 	jr	Z, 00111$
    00000087 C5               [11]  695 	push	bc
    00000088 3E 58            [ 7]  696 	ld	a, #0x58
    0000008A CDr00r00         [17]  697 	call	_Keyboard_IsKeyPressed
    0000008D C1               [10]  698 	pop	bc
    0000008E B7               [ 4]  699 	or	a, a
    0000008F 28 02            [12]  700 	jr	Z, 00111$
                                    701 ;E:\Dropbox\FAUSTO\SVILUPPI\MSX\CODE\C\MSXgl\projects\soccerlgSCC/soccerlg_s4_b3.c:71: retValue=DIRECTION_UP_LEFT;
    00000091 0E 08            [ 7]  702 	ld	c, #0x08
    00000093                        703 00111$:
                                    704 ;E:\Dropbox\FAUSTO\SVILUPPI\MSX\CODE\C\MSXgl\projects\soccerlgSCC/soccerlg_s4_b3.c:73: if(Keyboard_IsKeyPressed(KEY_LEFT) && Keyboard_IsKeyPressed(KEY_DOWN))
    00000093 C5               [11]  705 	push	bc
    00000094 3E 48            [ 7]  706 	ld	a, #0x48
    00000096 CDr00r00         [17]  707 	call	_Keyboard_IsKeyPressed
    00000099 C1               [10]  708 	pop	bc
    0000009A B7               [ 4]  709 	or	a, a
    0000009B 28 0C            [12]  710 	jr	Z, 00114$
    0000009D C5               [11]  711 	push	bc
    0000009E 3E 68            [ 7]  712 	ld	a, #0x68
    000000A0 CDr00r00         [17]  713 	call	_Keyboard_IsKeyPressed
    000000A3 C1               [10]  714 	pop	bc
    000000A4 B7               [ 4]  715 	or	a, a
    000000A5 28 02            [12]  716 	jr	Z, 00114$
                                    717 ;E:\Dropbox\FAUSTO\SVILUPPI\MSX\CODE\C\MSXgl\projects\soccerlgSCC/soccerlg_s4_b3.c:75: retValue=DIRECTION_DOWN_LEFT;
    000000A7 0E 06            [ 7]  718 	ld	c, #0x06
    000000A9                        719 00114$:
                                    720 ;E:\Dropbox\FAUSTO\SVILUPPI\MSX\CODE\C\MSXgl\projects\soccerlgSCC/soccerlg_s4_b3.c:77: if(Keyboard_IsKeyPressed(KEY_RIGHT) && Keyboard_IsKeyPressed(KEY_DOWN))
    000000A9 C5               [11]  721 	push	bc
    000000AA 3E 78            [ 7]  722 	ld	a, #0x78
    000000AC CDr00r00         [17]  723 	call	_Keyboard_IsKeyPressed
    000000AF C1               [10]  724 	pop	bc
    000000B0 B7               [ 4]  725 	or	a, a
    000000B1 28 0C            [12]  726 	jr	Z, 00117$
    000000B3 C5               [11]  727 	push	bc
    000000B4 3E 68            [ 7]  728 	ld	a, #0x68
    000000B6 CDr00r00         [17]  729 	call	_Keyboard_IsKeyPressed
    000000B9 C1               [10]  730 	pop	bc
    000000BA B7               [ 4]  731 	or	a, a
    000000BB 28 02            [12]  732 	jr	Z, 00117$
                                    733 ;E:\Dropbox\FAUSTO\SVILUPPI\MSX\CODE\C\MSXgl\projects\soccerlgSCC/soccerlg_s4_b3.c:79: retValue=DIRECTION_DOWN_RIGHT;
    000000BD 0E 04            [ 7]  734 	ld	c, #0x04
    000000BF                        735 00117$:
                                    736 ;E:\Dropbox\FAUSTO\SVILUPPI\MSX\CODE\C\MSXgl\projects\soccerlgSCC/soccerlg_s4_b3.c:81: if(Keyboard_IsKeyPressed(KEY_RIGHT) && Keyboard_IsKeyPressed(KEY_UP))
    000000BF C5               [11]  737 	push	bc
    000000C0 3E 78            [ 7]  738 	ld	a, #0x78
    000000C2 CDr00r00         [17]  739 	call	_Keyboard_IsKeyPressed
    000000C5 C1               [10]  740 	pop	bc
    000000C6 B7               [ 4]  741 	or	a, a
    000000C7 28 0C            [12]  742 	jr	Z, 00120$
    000000C9 C5               [11]  743 	push	bc
    000000CA 3E 58            [ 7]  744 	ld	a, #0x58
    000000CC CDr00r00         [17]  745 	call	_Keyboard_IsKeyPressed
    000000CF C1               [10]  746 	pop	bc
    000000D0 B7               [ 4]  747 	or	a, a
    000000D1 28 02            [12]  748 	jr	Z, 00120$
                                    749 ;E:\Dropbox\FAUSTO\SVILUPPI\MSX\CODE\C\MSXgl\projects\soccerlgSCC/soccerlg_s4_b3.c:83: retValue=DIRECTION_UP_RIGHT;
    000000D3 0E 02            [ 7]  750 	ld	c, #0x02
    000000D5                        751 00120$:
                                    752 ;E:\Dropbox\FAUSTO\SVILUPPI\MSX\CODE\C\MSXgl\projects\soccerlgSCC/soccerlg_s4_b3.c:85: if(retValue==DIRECTION_NONE && Keyboard_IsKeyPressed(KEY_LEFT))
    000000D5 79               [ 4]  753 	ld	a, c
    000000D6 B7               [ 4]  754 	or	a, a
    000000D7 20 0C            [12]  755 	jr	NZ, 00123$
    000000D9 C5               [11]  756 	push	bc
    000000DA 3E 48            [ 7]  757 	ld	a, #0x48
    000000DC CDr00r00         [17]  758 	call	_Keyboard_IsKeyPressed
    000000DF C1               [10]  759 	pop	bc
    000000E0 B7               [ 4]  760 	or	a, a
    000000E1 28 02            [12]  761 	jr	Z, 00123$
                                    762 ;E:\Dropbox\FAUSTO\SVILUPPI\MSX\CODE\C\MSXgl\projects\soccerlgSCC/soccerlg_s4_b3.c:87: retValue=DIRECTION_LEFT;
    000000E3 0E 07            [ 7]  763 	ld	c, #0x07
    000000E5                        764 00123$:
                                    765 ;E:\Dropbox\FAUSTO\SVILUPPI\MSX\CODE\C\MSXgl\projects\soccerlgSCC/soccerlg_s4_b3.c:89: if(retValue==DIRECTION_NONE && Keyboard_IsKeyPressed(KEY_RIGHT))
    000000E5 79               [ 4]  766 	ld	a, c
    000000E6 B7               [ 4]  767 	or	a, a
    000000E7 20 0C            [12]  768 	jr	NZ, 00126$
    000000E9 C5               [11]  769 	push	bc
    000000EA 3E 78            [ 7]  770 	ld	a, #0x78
    000000EC CDr00r00         [17]  771 	call	_Keyboard_IsKeyPressed
    000000EF C1               [10]  772 	pop	bc
    000000F0 B7               [ 4]  773 	or	a, a
    000000F1 28 02            [12]  774 	jr	Z, 00126$
                                    775 ;E:\Dropbox\FAUSTO\SVILUPPI\MSX\CODE\C\MSXgl\projects\soccerlgSCC/soccerlg_s4_b3.c:91: retValue=DIRECTION_RIGHT;
    000000F3 0E 03            [ 7]  776 	ld	c, #0x03
    000000F5                        777 00126$:
                                    778 ;E:\Dropbox\FAUSTO\SVILUPPI\MSX\CODE\C\MSXgl\projects\soccerlgSCC/soccerlg_s4_b3.c:93: if(retValue==DIRECTION_NONE && Keyboard_IsKeyPressed(KEY_UP))
    000000F5 79               [ 4]  779 	ld	a, c
    000000F6 B7               [ 4]  780 	or	a, a
    000000F7 20 0C            [12]  781 	jr	NZ, 00129$
    000000F9 C5               [11]  782 	push	bc
    000000FA 3E 58            [ 7]  783 	ld	a, #0x58
    000000FC CDr00r00         [17]  784 	call	_Keyboard_IsKeyPressed
    000000FF C1               [10]  785 	pop	bc
    00000100 B7               [ 4]  786 	or	a, a
    00000101 28 02            [12]  787 	jr	Z, 00129$
                                    788 ;E:\Dropbox\FAUSTO\SVILUPPI\MSX\CODE\C\MSXgl\projects\soccerlgSCC/soccerlg_s4_b3.c:95: retValue=DIRECTION_UP;
    00000103 0E 01            [ 7]  789 	ld	c, #0x01
    00000105                        790 00129$:
                                    791 ;E:\Dropbox\FAUSTO\SVILUPPI\MSX\CODE\C\MSXgl\projects\soccerlgSCC/soccerlg_s4_b3.c:97: if(retValue==DIRECTION_NONE && Keyboard_IsKeyPressed(KEY_DOWN))
    00000105 79               [ 4]  792 	ld	a, c
    00000106 B7               [ 4]  793 	or	a, a
    00000107 20 0C            [12]  794 	jr	NZ, 00135$
    00000109 C5               [11]  795 	push	bc
    0000010A 3E 68            [ 7]  796 	ld	a, #0x68
    0000010C CDr00r00         [17]  797 	call	_Keyboard_IsKeyPressed
    0000010F C1               [10]  798 	pop	bc
    00000110 B7               [ 4]  799 	or	a, a
    00000111 28 02            [12]  800 	jr	Z, 00135$
                                    801 ;E:\Dropbox\FAUSTO\SVILUPPI\MSX\CODE\C\MSXgl\projects\soccerlgSCC/soccerlg_s4_b3.c:99: retValue=DIRECTION_DOWN;
    00000113 0E 05            [ 7]  802 	ld	c, #0x05
    00000115                        803 00135$:
                                    804 ;E:\Dropbox\FAUSTO\SVILUPPI\MSX\CODE\C\MSXgl\projects\soccerlgSCC/soccerlg_s4_b3.c:102: return retValue;
    00000115 79               [ 4]  805 	ld	a, c
                                    806 ;E:\Dropbox\FAUSTO\SVILUPPI\MSX\CODE\C\MSXgl\projects\soccerlgSCC/soccerlg_s4_b3.c:103: }
    00000116 C9               [10]  807 	ret
                                    808 ;E:\Dropbox\FAUSTO\SVILUPPI\MSX\CODE\C\MSXgl\projects\soccerlgSCC/soccerlg_s4_b3.c:106: void InitVariables(){
                                    809 ;	---------------------------------
                                    810 ; Function InitVariables
                                    811 ; ---------------------------------
    00000117                        812 _InitVariables::
                                    813 ;E:\Dropbox\FAUSTO\SVILUPPI\MSX\CODE\C\MSXgl\projects\soccerlgSCC/soccerlg_s4_b3.c:107: g_ShowButtonsInfo=true;
    00000117 21r00r00         [10]  814 	ld	hl, #_g_ShowButtonsInfo
    0000011A 36 01            [10]  815 	ld	(hl), #0x01
                                    816 ;E:\Dropbox\FAUSTO\SVILUPPI\MSX\CODE\C\MSXgl\projects\soccerlgSCC/soccerlg_s4_b3.c:109: g_Ball.PossessionPlayerId = NO_VALUE;
    0000011C 21r06r00         [10]  817 	ld	hl, #(_g_Ball + 6)
    0000011F 36 FF            [10]  818 	ld	(hl), #0xff
                                    819 ;E:\Dropbox\FAUSTO\SVILUPPI\MSX\CODE\C\MSXgl\projects\soccerlgSCC/soccerlg_s4_b3.c:110: g_Ball.PassTargetPlayerId = NO_VALUE;
    00000121 21r10r00         [10]  820 	ld	hl, #(_g_Ball + 16)
    00000124 36 FF            [10]  821 	ld	(hl), #0xff
                                    822 ;E:\Dropbox\FAUSTO\SVILUPPI\MSX\CODE\C\MSXgl\projects\soccerlgSCC/soccerlg_s4_b3.c:111: g_Ball.ShotActive = 0;
    00000126 21r1Br00         [10]  823 	ld	hl, #(_g_Ball + 27)
    00000129 36 00            [10]  824 	ld	(hl), #0x00
                                    825 ;E:\Dropbox\FAUSTO\SVILUPPI\MSX\CODE\C\MSXgl\projects\soccerlgSCC/soccerlg_s4_b3.c:112: g_Ball.LastTouchTeamId = NO_VALUE;
    0000012B 21r0Er00         [10]  826 	ld	hl, #(_g_Ball + 14)
    0000012E 36 FF            [10]  827 	ld	(hl), #0xff
                                    828 ;E:\Dropbox\FAUSTO\SVILUPPI\MSX\CODE\C\MSXgl\projects\soccerlgSCC/soccerlg_s4_b3.c:113: g_Ball.ComingFromRestart = 0;
    00000130 21r1Dr00         [10]  829 	ld	hl, #(_g_Ball + 29)
    00000133 36 00            [10]  830 	ld	(hl), #0x00
                                    831 ;E:\Dropbox\FAUSTO\SVILUPPI\MSX\CODE\C\MSXgl\projects\soccerlgSCC/soccerlg_s4_b3.c:114: g_Ball.StealCooldown = 0;
    00000135 21r0Fr00         [10]  832 	ld	hl, #(_g_Ball + 15)
    00000138 36 00            [10]  833 	ld	(hl), #0x00
                                    834 ;E:\Dropbox\FAUSTO\SVILUPPI\MSX\CODE\C\MSXgl\projects\soccerlgSCC/soccerlg_s4_b3.c:115: g_FieldCurrentYPosition = 0; // Initialize to avoid garbage scroll in ISR
    0000013A 21 00 00         [10]  835 	ld	hl, #0x0000
    0000013D 22r00r00         [16]  836 	ld	(_g_FieldCurrentYPosition), hl
                                    837 ;E:\Dropbox\FAUSTO\SVILUPPI\MSX\CODE\C\MSXgl\projects\soccerlgSCC/soccerlg_s4_b3.c:116: g_FieldScrollingActionInProgress = NO_VALUE;
    00000140 21r00r00         [10]  838 	ld	hl, #_g_FieldScrollingActionInProgress
    00000143 36 FF            [10]  839 	ld	(hl), #0xff
                                    840 ;E:\Dropbox\FAUSTO\SVILUPPI\MSX\CODE\C\MSXgl\projects\soccerlgSCC/soccerlg_s4_b3.c:117: }
    00000145 C9               [10]  841 	ret
                                    842 ;E:\Dropbox\FAUSTO\SVILUPPI\MSX\CODE\C\MSXgl\projects\soccerlgSCC/soccerlg_s4_b3.c:120: void LoadPresentation(){
                                    843 ;	---------------------------------
                                    844 ; Function LoadPresentation
                                    845 ; ---------------------------------
    00000146                        846 _LoadPresentation::
    00000146 F5               [11]  847 	push	af
    00000147 3B               [ 6]  848 	dec	sp
                                    849 ;E:\Dropbox\FAUSTO\SVILUPPI\MSX\CODE\C\MSXgl\projects\soccerlgSCC/soccerlg_s4_b3.c:121: V9_SetScreenMode(V9_MODE_B1);
    00000148 3E 03            [ 7]  850 	ld	a, #0x03
    0000014A CDr00r00         [17]  851 	call	_V9_SetScreenMode
                                    852 ;E:/Dropbox/FAUSTO/SVILUPPI/MSX/CODE/C/MSXgl/engine/src/v9990.h:258: inline void V9_SetFlag(u8 reg, u8 mask, u8 flag) { V9_SetRegister(reg, V9_GetRegister(reg) & (~mask) | flag); }
    0000014D 3E 08            [ 7]  853 	ld	a, #0x08
    0000014F CDr00r00         [17]  854 	call	_V9_GetRegister
    00000152 6F               [ 4]  855 	ld	l, a
                                    856 ;	spillPairReg hl
                                    857 ;	spillPairReg hl
    00000153 CB BD            [ 8]  858 	res	7, l
    00000155 3E 08            [ 7]  859 	ld	a, #0x08
    00000157 CDr00r00         [17]  860 	call	_V9_SetRegister
                                    861 ;E:\Dropbox\FAUSTO\SVILUPPI\MSX\CODE\C\MSXgl\projects\soccerlgSCC/soccerlg_s4_b3.c:123: V9_SetColorMode(V9_COLOR_BD8);
    0000015A 3E 03            [ 7]  862 	ld	a, #0x03
    0000015C CDr00r00         [17]  863 	call	_V9_SetColorMode
                                    864 ;E:\Dropbox\FAUSTO\SVILUPPI\MSX\CODE\C\MSXgl\projects\soccerlgSCC/soccerlg_s4_b3.c:124: const u8 colorBlack[3] = { 0, 0, 0 };
    0000015F 21 00 00         [10]  865 	ld	hl, #0
    00000162 39               [11]  866 	add	hl, sp
    00000163 EB               [ 4]  867 	ex	de, hl
    00000164 AF               [ 4]  868 	xor	a, a
    00000165 12               [ 7]  869 	ld	(de), a
    00000166 4B               [ 4]  870 	ld	c, e
    00000167 42               [ 4]  871 	ld	b, d
    00000168 03               [ 6]  872 	inc	bc
    00000169 AF               [ 4]  873 	xor	a, a
    0000016A 02               [ 7]  874 	ld	(bc), a
    0000016B 4B               [ 4]  875 	ld	c, e
    0000016C 42               [ 4]  876 	ld	b, d
    0000016D 03               [ 6]  877 	inc	bc
    0000016E 03               [ 6]  878 	inc	bc
    0000016F AF               [ 4]  879 	xor	a, a
    00000170 02               [ 7]  880 	ld	(bc), a
                                    881 ;E:\Dropbox\FAUSTO\SVILUPPI\MSX\CODE\C\MSXgl\projects\soccerlgSCC/soccerlg_s4_b3.c:125: V9_SetPaletteEntry(0, colorBlack);    
    00000171 AF               [ 4]  882 	xor	a, a
    00000172 CDr00r00         [17]  883 	call	_V9_SetPaletteEntry
                                    884 ;E:/Dropbox/FAUSTO/SVILUPPI/MSX/CODE/C/MSXgl/engine/src/v9990.h:480: inline void V9_SetBackgroundColor(u8 color) { V9_SetRegister(15, color); }
    00000175 2E 00            [ 7]  885 	ld	l, #0x00
                                    886 ;	spillPairReg hl
                                    887 ;	spillPairReg hl
    00000177 3E 0F            [ 7]  888 	ld	a, #0x0f
    00000179 CDr00r00         [17]  889 	call	_V9_SetRegister
                                    890 ;E:\Dropbox\FAUSTO\SVILUPPI\MSX\CODE\C\MSXgl\projects\soccerlgSCC/soccerlg_s4_b3.c:128: V9990_LoadImagePresentationData(); 
    0000017C CDr00r00         [17]  891 	call	_V9990_LoadImagePresentationData
                                    892 ;E:\Dropbox\FAUSTO\SVILUPPI\MSX\CODE\C\MSXgl\projects\soccerlgSCC/soccerlg_s4_b3.c:130: g_MatchStatus=MATCH_PRESENTATION;
    0000017F 21r00r00         [10]  893 	ld	hl, #_g_MatchStatus
    00000182 36 0F            [10]  894 	ld	(hl), #0x0f
                                    895 ;E:/Dropbox/FAUSTO/SVILUPPI/MSX/CODE/C/MSXgl/engine/src/v9990.h:574: inline void V9_SetInterrupt(u8 flags) { V9_SetRegister(9, flags); }
    00000184 2E 00            [ 7]  896 	ld	l, #0x00
                                    897 ;	spillPairReg hl
                                    898 ;	spillPairReg hl
    00000186 3E 09            [ 7]  899 	ld	a, #0x09
    00000188 CDr00r00         [17]  900 	call	_V9_SetRegister
                                    901 ;E:\Dropbox\FAUSTO\SVILUPPI\MSX\CODE\C\MSXgl\projects\soccerlgSCC/soccerlg_s4_b3.c:132: g_Timer=0;
    0000018B 21r00r00         [10]  902 	ld	hl, #_g_Timer
    0000018E 36 00            [10]  903 	ld	(hl), #0x00
                                    904 ;E:\Dropbox\FAUSTO\SVILUPPI\MSX\CODE\C\MSXgl\projects\soccerlgSCC/soccerlg_s4_b3.c:133: g_FieldCurrentYPosition = 0; // Ensure safe value before enabling ISR
    00000190 21 00 00         [10]  905 	ld	hl, #0x0000
    00000193 22r00r00         [16]  906 	ld	(_g_FieldCurrentYPosition), hl
                                    907 ;E:/Dropbox/FAUSTO/SVILUPPI/MSX/CODE/C/MSXgl/engine/src/v9990.h:258: inline void V9_SetFlag(u8 reg, u8 mask, u8 flag) { V9_SetRegister(reg, V9_GetRegister(reg) & (~mask) | flag); }
    00000196 3E 08            [ 7]  908 	ld	a, #0x08
    00000198 CDr00r00         [17]  909 	call	_V9_GetRegister
    0000019B CB BF            [ 8]  910 	res	7, a
    0000019D 6F               [ 4]  911 	ld	l, a
                                    912 ;	spillPairReg hl
                                    913 ;	spillPairReg hl
    0000019E CB FD            [ 8]  914 	set	7, l
    000001A0 3E 08            [ 7]  915 	ld	a, #0x08
    000001A2 CDr00r00         [17]  916 	call	_V9_SetRegister
                                    917 ;E:/Dropbox/FAUSTO/SVILUPPI/MSX/CODE/C/MSXgl/engine/src/v9990.h:606: inline void V9_SetInterruptLine(u16 line) { V9_SetRegister16(10, line); }
    000001A5 11 47 00         [10]  918 	ld	de, #0x0047
    000001A8 3E 0A            [ 7]  919 	ld	a, #0x0a
    000001AA CDr00r00         [17]  920 	call	_V9_SetRegister16
                                    921 ;E:/Dropbox/FAUSTO/SVILUPPI/MSX/CODE/C/MSXgl/engine/src/v9990.h:574: inline void V9_SetInterrupt(u8 flags) { V9_SetRegister(9, flags); }
    000001AD 2E 01            [ 7]  922 	ld	l, #0x01
                                    923 ;	spillPairReg hl
                                    924 ;	spillPairReg hl
    000001AF 3E 09            [ 7]  925 	ld	a, #0x09
    000001B1 CDr00r00         [17]  926 	call	_V9_SetRegister
                                    927 ;E:\Dropbox\FAUSTO\SVILUPPI\MSX\CODE\C\MSXgl\projects\soccerlgSCC/soccerlg_s4_b3.c:138: g_TimerActive=TRUE;
    000001B4 21r00r00         [10]  928 	ld	hl, #_g_TimerActive
    000001B7 36 01            [10]  929 	ld	(hl), #0x01
                                    930 ;E:\Dropbox\FAUSTO\SVILUPPI\MSX\CODE\C\MSXgl\projects\soccerlgSCC/soccerlg_s4_b3.c:139: while (g_Timer!=200)
    000001B9                        931 00101$:
    000001B9 3Ar00r00         [13]  932 	ld	a, (_g_Timer+0)
    000001BC D6 C8            [ 7]  933 	sub	a, #0xc8
    000001BE 20 F9            [12]  934 	jr	NZ, 00101$
                                    935 ;E:/Dropbox/FAUSTO/SVILUPPI/MSX/CODE/C/MSXgl/engine/src/rom_mapper.h:190: g_Bank0Segment[b] = s;
    000001C0 21 04 00         [10]  936 	ld	hl, #0x0004
    000001C3 22r06r00         [16]  937 	ld	((_g_Bank0Segment + 6)), hl
                                    938 ;E:/Dropbox/FAUSTO/SVILUPPI/MSX/CODE/C/MSXgl/engine/src/rom_mapper.h:191: Poke(YAMANOOTO_OFFR, (s >> 2) & 0xC0);
    000001C6 3E 01            [ 7]  939 	ld	a, #0x01
    000001C8 E6 C0            [ 7]  940 	and	a, #0xc0
                                    941 ;E:/Dropbox/FAUSTO/SVILUPPI/MSX/CODE/C/MSXgl/engine/src/system.h:101: inline void Poke(u16 addr, u8 val) { *(u8*)addr = val; }
    000001CA 32 FE 7F         [13]  942 	ld	(#0x7ffe),a
                                    943 ;E:/Dropbox/FAUSTO/SVILUPPI/MSX/CODE/C/MSXgl/engine/src/rom_mapper.h:195: else if (b == 3)	Poke(ADDR_BANK_3, s & 0xFF);
    000001CD 3E 04            [ 7]  944 	ld	a, #0x04
                                    945 ;E:/Dropbox/FAUSTO/SVILUPPI/MSX/CODE/C/MSXgl/engine/src/system.h:101: inline void Poke(u16 addr, u8 val) { *(u8*)addr = val; }
    000001CF 32 00 B0         [13]  946 	ld	(#0xb000),a
                                    947 ;E:\Dropbox\FAUSTO\SVILUPPI\MSX\CODE\C\MSXgl\projects\soccerlgSCC/soccerlg_s4_b3.c:144: g_TimerActive=FALSE;
    000001D2 21r00r00         [10]  948 	ld	hl, #_g_TimerActive
    000001D5 36 00            [10]  949 	ld	(hl), #0x00
                                    950 ;E:\Dropbox\FAUSTO\SVILUPPI\MSX\CODE\C\MSXgl\projects\soccerlgSCC/soccerlg_s4_b3.c:145: g_MatchStatus=MATCH_NOT_STARTED;
    000001D7 21r00r00         [10]  951 	ld	hl, #_g_MatchStatus
                                    952 ;E:/Dropbox/FAUSTO/SVILUPPI/MSX/CODE/C/MSXgl/engine/src/v9990.h:574: inline void V9_SetInterrupt(u8 flags) { V9_SetRegister(9, flags); }
    000001DA 36 00            [10]  953 	ld	(hl), #0x00
    000001DC 6E               [ 7]  954 	ld	l, (hl)
                                    955 ;	spillPairReg hl
                                    956 ;	spillPairReg hl
    000001DD 3E 09            [ 7]  957 	ld	a, #0x09
    000001DF CDr00r00         [17]  958 	call	_V9_SetRegister
                                    959 ;E:/Dropbox/FAUSTO/SVILUPPI/MSX/CODE/C/MSXgl/engine/src/v9990.h:258: inline void V9_SetFlag(u8 reg, u8 mask, u8 flag) { V9_SetRegister(reg, V9_GetRegister(reg) & (~mask) | flag); }
    000001E2 3E 08            [ 7]  960 	ld	a, #0x08
    000001E4 CDr00r00         [17]  961 	call	_V9_GetRegister
    000001E7 6F               [ 4]  962 	ld	l, a
                                    963 ;	spillPairReg hl
                                    964 ;	spillPairReg hl
    000001E8 CB BD            [ 8]  965 	res	7, l
    000001EA 3E 08            [ 7]  966 	ld	a, #0x08
    000001EC CDr00r00         [17]  967 	call	_V9_SetRegister
                                    968 ;E:\Dropbox\FAUSTO\SVILUPPI\MSX\CODE\C\MSXgl\projects\soccerlgSCC/soccerlg_s4_b3.c:147: V9_SetDisplayEnable(FALSE);
                                    969 ;E:\Dropbox\FAUSTO\SVILUPPI\MSX\CODE\C\MSXgl\projects\soccerlgSCC/soccerlg_s4_b3.c:148: }
    000001EF F1               [10]  970 	pop	af
    000001F0 33               [ 6]  971 	inc	sp
    000001F1 C9               [10]  972 	ret
                                    973 ;E:\Dropbox\FAUSTO\SVILUPPI\MSX\CODE\C\MSXgl\projects\soccerlgSCC/soccerlg_s4_b3.c:151: void TickGameFieldScrolling(){
                                    974 ;	---------------------------------
                                    975 ; Function TickGameFieldScrolling
                                    976 ; ---------------------------------
    000001F2                        977 _TickGameFieldScrolling::
                                    978 ;E:\Dropbox\FAUSTO\SVILUPPI\MSX\CODE\C\MSXgl\projects\soccerlgSCC/soccerlg_s4_b3.c:153: switch (g_FieldScrollingActionInProgress) {
    000001F2 3Ar00r00         [13]  979 	ld	a, (_g_FieldScrollingActionInProgress+0)
    000001F5 B7               [ 4]  980 	or	a, a
    000001F6 28 11            [12]  981 	jr	Z, 00101$
    000001F8 3Ar00r00         [13]  982 	ld	a, (_g_FieldScrollingActionInProgress+0)
    000001FB 3D               [ 4]  983 	dec	a
    000001FC 28 36            [12]  984 	jr	Z, 00104$
    000001FE 3Ar00r00         [13]  985 	ld	a, (_g_FieldScrollingActionInProgress+0)
    00000201 D6 02            [ 7]  986 	sub	a, #0x02
    00000203 CArB6r02         [10]  987 	jp	Z,00115$
    00000206 C3rEDr02         [10]  988 	jp	00118$
                                    989 ;E:\Dropbox\FAUSTO\SVILUPPI\MSX\CODE\C\MSXgl\projects\soccerlgSCC/soccerlg_s4_b3.c:154: case FIELD_NORTH_ZONE:
    00000209                        990 00101$:
                                    991 ;E:\Dropbox\FAUSTO\SVILUPPI\MSX\CODE\C\MSXgl\projects\soccerlgSCC/soccerlg_s4_b3.c:155: g_FieldCurrentYPosition = g_FieldCurrentYPosition - g_FieldScrollSpeed;
    00000209 3Ar00r00         [13]  992 	ld	a, (_g_FieldScrollSpeed+0)
    0000020C 4F               [ 4]  993 	ld	c, a
    0000020D 06 00            [ 7]  994 	ld	b, #0x00
    0000020F 21r00r00         [10]  995 	ld	hl, #_g_FieldCurrentYPosition
    00000212 7E               [ 7]  996 	ld	a, (hl)
    00000213 91               [ 4]  997 	sub	a, c
    00000214 77               [ 7]  998 	ld	(hl), a
    00000215 23               [ 6]  999 	inc	hl
    00000216 7E               [ 7] 1000 	ld	a, (hl)
    00000217 98               [ 4] 1001 	sbc	a, b
    00000218 77               [ 7] 1002 	ld	(hl), a
                                   1003 ;E:\Dropbox\FAUSTO\SVILUPPI\MSX\CODE\C\MSXgl\projects\soccerlgSCC/soccerlg_s4_b3.c:156: if (g_FieldCurrentYPosition < FIELD_TOP_Y) {
    00000219 3Ar01r00         [13] 1004 	ld	a, (_g_FieldCurrentYPosition+1)
    0000021C CB 7F            [ 8] 1005 	bit	7, a
    0000021E CArEDr02         [10] 1006 	jp	Z, 00118$
                                   1007 ;E:\Dropbox\FAUSTO\SVILUPPI\MSX\CODE\C\MSXgl\projects\soccerlgSCC/soccerlg_s4_b3.c:157: g_FieldCurrentYPosition = FIELD_TOP_Y;
    00000221 21 00 00         [10] 1008 	ld	hl, #0x0000
    00000224 22r00r00         [16] 1009 	ld	(_g_FieldCurrentYPosition), hl
                                   1010 ;E:\Dropbox\FAUSTO\SVILUPPI\MSX\CODE\C\MSXgl\projects\soccerlgSCC/soccerlg_s4_b3.c:158: g_FieldScrollingActionInProgress = NO_VALUE;
    00000227 21r00r00         [10] 1011 	ld	hl, #_g_FieldScrollingActionInProgress
    0000022A 36 FF            [10] 1012 	ld	(hl), #0xff
                                   1013 ;E:\Dropbox\FAUSTO\SVILUPPI\MSX\CODE\C\MSXgl\projects\soccerlgSCC/soccerlg_s4_b3.c:159: g_ActiveFieldZone = FIELD_NORTH_ZONE;
    0000022C 21r00r00         [10] 1014 	ld	hl, #_g_ActiveFieldZone
    0000022F 36 00            [10] 1015 	ld	(hl), #0x00
                                   1016 ;E:\Dropbox\FAUSTO\SVILUPPI\MSX\CODE\C\MSXgl\projects\soccerlgSCC/soccerlg_s4_b3.c:161: break;
    00000231 C3rEDr02         [10] 1017 	jp	00118$
                                   1018 ;E:\Dropbox\FAUSTO\SVILUPPI\MSX\CODE\C\MSXgl\projects\soccerlgSCC/soccerlg_s4_b3.c:162: case FIELD_CENTRAL_ZONE:
    00000234                       1019 00104$:
                                   1020 ;E:\Dropbox\FAUSTO\SVILUPPI\MSX\CODE\C\MSXgl\projects\soccerlgSCC/soccerlg_s4_b3.c:163: if (g_FieldCurrentYPosition != FIELD_CENTRAL_Y) {
    00000234 3Ar00r00         [13] 1021 	ld	a, (_g_FieldCurrentYPosition+0)
    00000237 D6 89            [ 7] 1022 	sub	a, #0x89
    00000239 FD 21r00r00      [14] 1023 	ld	iy, #_g_FieldCurrentYPosition
    0000023D FD B6 01         [19] 1024 	or	a, 1 (iy)
    00000240 28 67            [12] 1025 	jr	Z, 00113$
                                   1026 ;E:\Dropbox\FAUSTO\SVILUPPI\MSX\CODE\C\MSXgl\projects\soccerlgSCC/soccerlg_s4_b3.c:155: g_FieldCurrentYPosition = g_FieldCurrentYPosition - g_FieldScrollSpeed;
    00000242 3Ar00r00         [13] 1027 	ld	a, (_g_FieldScrollSpeed+0)
    00000245 4F               [ 4] 1028 	ld	c, a
    00000246 06 00            [ 7] 1029 	ld	b, #0x00
                                   1030 ;E:\Dropbox\FAUSTO\SVILUPPI\MSX\CODE\C\MSXgl\projects\soccerlgSCC/soccerlg_s4_b3.c:164: if (g_FieldCurrentYPosition > FIELD_CENTRAL_Y) {
    00000248 3E 89            [ 7] 1031 	ld	a, #0x89
    0000024A FD BE 00         [19] 1032 	cp	a, 0 (iy)
    0000024D 3E 00            [ 7] 1033 	ld	a, #0x00
    0000024F FD 9E 01         [19] 1034 	sbc	a, 1 (iy)
    00000252 E2r57r02         [10] 1035 	jp	PO, 00185$
    00000255 EE 80            [ 7] 1036 	xor	a, #0x80
    00000257                       1037 00185$:
    00000257 F2r7Cr02         [10] 1038 	jp	P, 00110$
                                   1039 ;E:\Dropbox\FAUSTO\SVILUPPI\MSX\CODE\C\MSXgl\projects\soccerlgSCC/soccerlg_s4_b3.c:165: g_FieldCurrentYPosition = g_FieldCurrentYPosition - g_FieldScrollSpeed;
    0000025A 21r00r00         [10] 1040 	ld	hl, #_g_FieldCurrentYPosition
    0000025D 7E               [ 7] 1041 	ld	a, (hl)
    0000025E 91               [ 4] 1042 	sub	a, c
    0000025F 77               [ 7] 1043 	ld	(hl), a
    00000260 23               [ 6] 1044 	inc	hl
    00000261 7E               [ 7] 1045 	ld	a, (hl)
    00000262 98               [ 4] 1046 	sbc	a, b
    00000263 77               [ 7] 1047 	ld	(hl), a
                                   1048 ;E:\Dropbox\FAUSTO\SVILUPPI\MSX\CODE\C\MSXgl\projects\soccerlgSCC/soccerlg_s4_b3.c:166: if(g_FieldCurrentYPosition < FIELD_CENTRAL_Y) g_FieldCurrentYPosition = FIELD_CENTRAL_Y;
    00000264 3Ar00r00         [13] 1049 	ld	a, (_g_FieldCurrentYPosition+0)
    00000267 D6 89            [ 7] 1050 	sub	a, #0x89
    00000269 3Ar01r00         [13] 1051 	ld	a, (_g_FieldCurrentYPosition+1)
    0000026C 17               [ 4] 1052 	rla
    0000026D 3F               [ 4] 1053 	ccf
    0000026E 1F               [ 4] 1054 	rra
    0000026F DE 80            [ 7] 1055 	sbc	a, #0x80
    00000271 30 7A            [12] 1056 	jr	NC, 00118$
    00000273 21 89 00         [10] 1057 	ld	hl, #0x0089
    00000276 22r00r00         [16] 1058 	ld	(_g_FieldCurrentYPosition), hl
    00000279 C3rEDr02         [10] 1059 	jp	00118$
    0000027C                       1060 00110$:
                                   1061 ;E:\Dropbox\FAUSTO\SVILUPPI\MSX\CODE\C\MSXgl\projects\soccerlgSCC/soccerlg_s4_b3.c:169: g_FieldCurrentYPosition = g_FieldCurrentYPosition + g_FieldScrollSpeed;
    0000027C 79               [ 4] 1062 	ld	a, c
    0000027D FD 21r00r00      [14] 1063 	ld	iy, #_g_FieldCurrentYPosition
    00000281 FD 86 00         [19] 1064 	add	a, 0 (iy)
    00000284 32r00r00         [13] 1065 	ld	(_g_FieldCurrentYPosition+0), a
    00000287 78               [ 4] 1066 	ld	a, b
    00000288 FD 8E 01         [19] 1067 	adc	a, 1 (iy)
    0000028B 32r01r00         [13] 1068 	ld	(_g_FieldCurrentYPosition+1), a
                                   1069 ;E:\Dropbox\FAUSTO\SVILUPPI\MSX\CODE\C\MSXgl\projects\soccerlgSCC/soccerlg_s4_b3.c:170: if(g_FieldCurrentYPosition > FIELD_CENTRAL_Y) g_FieldCurrentYPosition = FIELD_CENTRAL_Y;
    0000028E 3E 89            [ 7] 1070 	ld	a, #0x89
    00000290 FD BE 00         [19] 1071 	cp	a, 0 (iy)
    00000293 3E 00            [ 7] 1072 	ld	a, #0x00
    00000295 FD 9E 01         [19] 1073 	sbc	a, 1 (iy)
    00000298 E2r9Dr02         [10] 1074 	jp	PO, 00186$
    0000029B EE 80            [ 7] 1075 	xor	a, #0x80
    0000029D                       1076 00186$:
    0000029D F2rEDr02         [10] 1077 	jp	P, 00118$
    000002A0 21 89 00         [10] 1078 	ld	hl, #0x0089
    000002A3 22r00r00         [16] 1079 	ld	(_g_FieldCurrentYPosition), hl
    000002A6 C3rEDr02         [10] 1080 	jp	00118$
    000002A9                       1081 00113$:
                                   1082 ;E:\Dropbox\FAUSTO\SVILUPPI\MSX\CODE\C\MSXgl\projects\soccerlgSCC/soccerlg_s4_b3.c:175: g_FieldScrollingActionInProgress = NO_VALUE;
    000002A9 21r00r00         [10] 1083 	ld	hl, #_g_FieldScrollingActionInProgress
    000002AC 36 FF            [10] 1084 	ld	(hl), #0xff
                                   1085 ;E:\Dropbox\FAUSTO\SVILUPPI\MSX\CODE\C\MSXgl\projects\soccerlgSCC/soccerlg_s4_b3.c:176: g_ActiveFieldZone = FIELD_CENTRAL_ZONE;
    000002AE 21r00r00         [10] 1086 	ld	hl, #_g_ActiveFieldZone
    000002B1 36 01            [10] 1087 	ld	(hl), #0x01
                                   1088 ;E:\Dropbox\FAUSTO\SVILUPPI\MSX\CODE\C\MSXgl\projects\soccerlgSCC/soccerlg_s4_b3.c:178: break;
    000002B3 C3rEDr02         [10] 1089 	jp	00118$
                                   1090 ;E:\Dropbox\FAUSTO\SVILUPPI\MSX\CODE\C\MSXgl\projects\soccerlgSCC/soccerlg_s4_b3.c:179: case FIELD_SOUTH_ZONE:
    000002B6                       1091 00115$:
                                   1092 ;E:\Dropbox\FAUSTO\SVILUPPI\MSX\CODE\C\MSXgl\projects\soccerlgSCC/soccerlg_s4_b3.c:180: g_FieldCurrentYPosition = g_FieldCurrentYPosition + g_FieldScrollSpeed;
    000002B6 3Ar00r00         [13] 1093 	ld	a, (_g_FieldScrollSpeed+0)
    000002B9 4F               [ 4] 1094 	ld	c, a
    000002BA 06 00            [ 7] 1095 	ld	b, #0x00
    000002BC 79               [ 4] 1096 	ld	a, c
    000002BD FD 21r00r00      [14] 1097 	ld	iy, #_g_FieldCurrentYPosition
    000002C1 FD 86 00         [19] 1098 	add	a, 0 (iy)
    000002C4 32r00r00         [13] 1099 	ld	(_g_FieldCurrentYPosition+0), a
    000002C7 78               [ 4] 1100 	ld	a, b
    000002C8 FD 8E 01         [19] 1101 	adc	a, 1 (iy)
    000002CB 32r01r00         [13] 1102 	ld	(_g_FieldCurrentYPosition+1), a
                                   1103 ;E:\Dropbox\FAUSTO\SVILUPPI\MSX\CODE\C\MSXgl\projects\soccerlgSCC/soccerlg_s4_b3.c:181: if (g_FieldCurrentYPosition >= FIELD_BOTTOM_Y) {
    000002CE 3Ar00r00         [13] 1104 	ld	a, (_g_FieldCurrentYPosition+0)
    000002D1 D6 18            [ 7] 1105 	sub	a, #0x18
    000002D3 3Ar01r00         [13] 1106 	ld	a, (_g_FieldCurrentYPosition+1)
    000002D6 17               [ 4] 1107 	rla
    000002D7 3F               [ 4] 1108 	ccf
    000002D8 1F               [ 4] 1109 	rra
    000002D9 DE 81            [ 7] 1110 	sbc	a, #0x81
    000002DB 38 10            [12] 1111 	jr	C, 00118$
                                   1112 ;E:\Dropbox\FAUSTO\SVILUPPI\MSX\CODE\C\MSXgl\projects\soccerlgSCC/soccerlg_s4_b3.c:182: g_FieldCurrentYPosition = FIELD_BOTTOM_Y;
    000002DD 21 18 01         [10] 1113 	ld	hl, #0x0118
    000002E0 22r00r00         [16] 1114 	ld	(_g_FieldCurrentYPosition), hl
                                   1115 ;E:\Dropbox\FAUSTO\SVILUPPI\MSX\CODE\C\MSXgl\projects\soccerlgSCC/soccerlg_s4_b3.c:183: g_ActiveFieldZone = FIELD_SOUTH_ZONE;
    000002E3 21r00r00         [10] 1116 	ld	hl, #_g_ActiveFieldZone
    000002E6 36 02            [10] 1117 	ld	(hl), #0x02
                                   1118 ;E:\Dropbox\FAUSTO\SVILUPPI\MSX\CODE\C\MSXgl\projects\soccerlgSCC/soccerlg_s4_b3.c:184: g_FieldScrollingActionInProgress = NO_VALUE;
    000002E8 21r00r00         [10] 1119 	ld	hl, #_g_FieldScrollingActionInProgress
    000002EB 36 FF            [10] 1120 	ld	(hl), #0xff
                                   1121 ;E:\Dropbox\FAUSTO\SVILUPPI\MSX\CODE\C\MSXgl\projects\soccerlgSCC/soccerlg_s4_b3.c:187: }
    000002ED                       1122 00118$:
                                   1123 ;E:\Dropbox\FAUSTO\SVILUPPI\MSX\CODE\C\MSXgl\projects\soccerlgSCC/soccerlg_s4_b3.c:188: V9_SetScrollingBY(g_FieldCurrentYPosition);
    000002ED 2Ar00r00         [16] 1124 	ld	hl, (_g_FieldCurrentYPosition)
    000002F0 CDr00r00         [17] 1125 	call	_V9_SetScrollingBY
                                   1126 ;E:\Dropbox\FAUSTO\SVILUPPI\MSX\CODE\C\MSXgl\projects\soccerlgSCC/soccerlg_s4_b3.c:189: for(u8 i=0;i<6;i++){
    000002F3 06 00            [ 7] 1127 	ld	b, #0x00
    000002F5                       1128 00121$:
    000002F5 78               [ 4] 1129 	ld	a, b
    000002F6 D6 06            [ 7] 1130 	sub	a, #0x06
    000002F8 D0               [11] 1131 	ret	NC
                                   1132 ;E:\Dropbox\FAUSTO\SVILUPPI\MSX\CODE\C\MSXgl\projects\soccerlgSCC/soccerlg_s4_b3.c:190: CallFnc_VOID_P1(7,PutPonPonGirlSprite,i);
    000002F9 C5               [11] 1133 	push	bc
    000002FA C5               [11] 1134 	push	bc
    000002FB 33               [ 6] 1135 	inc	sp
    000002FC 11r00r00         [10] 1136 	ld	de, #_PutPonPonGirlSprite
    000002FF 3E 07            [ 7] 1137 	ld	a, #0x07
    00000301 CDr00r00         [17] 1138 	call	_CallFnc_VOID_P1
    00000304 C1               [10] 1139 	pop	bc
                                   1140 ;E:\Dropbox\FAUSTO\SVILUPPI\MSX\CODE\C\MSXgl\projects\soccerlgSCC/soccerlg_s4_b3.c:189: for(u8 i=0;i<6;i++){
    00000305 04               [ 4] 1141 	inc	b
                                   1142 ;E:\Dropbox\FAUSTO\SVILUPPI\MSX\CODE\C\MSXgl\projects\soccerlgSCC/soccerlg_s4_b3.c:192: }
    00000306 C3rF5r02         [10] 1143 	jp	00121$
                                   1144 ;E:\Dropbox\FAUSTO\SVILUPPI\MSX\CODE\C\MSXgl\projects\soccerlgSCC/soccerlg_s4_b3.c:195: void MainSub(){
                                   1145 ;	---------------------------------
                                   1146 ; Function MainSub
                                   1147 ; ---------------------------------
    00000309                       1148 _MainSub::
    00000309 DD E5            [15] 1149 	push	ix
    0000030B DD 21 00 00      [14] 1150 	ld	ix,#0
    0000030F DD 39            [15] 1151 	add	ix,sp
    00000311 3B               [ 6] 1152 	dec	sp
                                   1153 ;E:\Dropbox\FAUSTO\SVILUPPI\MSX\CODE\C\MSXgl\projects\soccerlgSCC/soccerlg_s4_b3.c:197: DEBUG_INIT();
    00000312 CDr00r00         [17] 1154 	call	_DEBUG_INIT
                                   1155 ;E:\Dropbox\FAUSTO\SVILUPPI\MSX\CODE\C\MSXgl\projects\soccerlgSCC/soccerlg_s4_b3.c:200: InitVariables();
    00000315 CDr17r01         [17] 1156 	call	_InitVariables
                                   1157 ;E:\Dropbox\FAUSTO\SVILUPPI\MSX\CODE\C\MSXgl\projects\soccerlgSCC/soccerlg_s4_b3.c:202: V9_SetPort(V9_P15, 0);
    00000318 2E 00            [ 7] 1158 	ld	l, #0x00
                                   1159 ;	spillPairReg hl
                                   1160 ;	spillPairReg hl
    0000031A 3E 6F            [ 7] 1161 	ld	a, #0x6f
    0000031C CDr00r00         [17] 1162 	call	_V9_SetPort
                                   1163 ;E:\Dropbox\FAUSTO\SVILUPPI\MSX\CODE\C\MSXgl\projects\soccerlgSCC/soccerlg_s4_b3.c:204: VDP_SetMode(VDP_MODE_SCREEN0);
    0000031F AF               [ 4] 1164 	xor	a, a
    00000320 CDr00r00         [17] 1165 	call	_VDP_SetMode
                                   1166 ;E:/Dropbox/FAUSTO/SVILUPPI/MSX/CODE/C/MSXgl/engine/src/vdp.h:712: inline void VDP_EnableVBlank(bool enable) { VDP_RegWriteBakMask(1, (u8)~R01_IE0, enable ? R01_IE0 : 0); }
    00000323 AF               [ 4] 1167 	xor	a, a
    00000324 F5               [11] 1168 	push	af
    00000325 33               [ 6] 1169 	inc	sp
    00000326 2E DF            [ 7] 1170 	ld	l, #0xdf
                                   1171 ;	spillPairReg hl
                                   1172 ;	spillPairReg hl
    00000328 3E 01            [ 7] 1173 	ld	a, #0x01
    0000032A CDr00r00         [17] 1174 	call	_VDP_RegWriteBakMask
                                   1175 ;E:\Dropbox\FAUSTO\SVILUPPI\MSX\CODE\C\MSXgl\projects\soccerlgSCC/soccerlg_s4_b3.c:206: VDP_ClearVRAM();
    0000032D CDr00r00         [17] 1176 	call	_VDP_ClearVRAM
                                   1177 ;E:\Dropbox\FAUSTO\SVILUPPI\MSX\CODE\C\MSXgl\projects\soccerlgSCC/soccerlg_s4_b3.c:209: LoadMsxVdpFonts();
    00000330 CDr00r00         [17] 1178 	call	_LoadMsxVdpFonts
                                   1179 ;E:\Dropbox\FAUSTO\SVILUPPI\MSX\CODE\C\MSXgl\projects\soccerlgSCC/soccerlg_s4_b3.c:211: Print_SetColor(15, 1);
    00000333 2E 01            [ 7] 1180 	ld	l, #0x01
                                   1181 ;	spillPairReg hl
                                   1182 ;	spillPairReg hl
    00000335 3E 0F            [ 7] 1183 	ld	a, #0x0f
    00000337 CDr00r00         [17] 1184 	call	_Print_SetColor
                                   1185 ;E:/Dropbox/FAUSTO/SVILUPPI/MSX/CODE/C/MSXgl/engine/src/print.h:223: g_PrintData.CursorX = x;
    0000033A 01r05r00         [10] 1186 	ld	bc, #_g_PrintData + 5
    0000033D AF               [ 4] 1187 	xor	a, a
    0000033E 02               [ 7] 1188 	ld	(bc), a
                                   1189 ;E:/Dropbox/FAUSTO/SVILUPPI/MSX/CODE/C/MSXgl/engine/src/print.h:224: g_PrintData.CursorY = y;
    0000033F 21r06r00         [10] 1190 	ld	hl, #(_g_PrintData + 6)
    00000342 36 00            [10] 1191 	ld	(hl), #0x00
                                   1192 ;E:\Dropbox\FAUSTO\SVILUPPI\MSX\CODE\C\MSXgl\projects\soccerlgSCC/soccerlg_s4_b3.c:213: Print_DrawText("Soccer League - 2026 Fausto Pracek");
    00000344 C5               [11] 1193 	push	bc
    00000345 21rCCr03         [10] 1194 	ld	hl, #___str_1
    00000348 CDr00r00         [17] 1195 	call	_Print_DrawText
    0000034B C1               [10] 1196 	pop	bc
                                   1197 ;E:/Dropbox/FAUSTO/SVILUPPI/MSX/CODE/C/MSXgl/engine/src/print.h:223: g_PrintData.CursorX = x;
    0000034C AF               [ 4] 1198 	xor	a, a
    0000034D 02               [ 7] 1199 	ld	(bc), a
                                   1200 ;E:/Dropbox/FAUSTO/SVILUPPI/MSX/CODE/C/MSXgl/engine/src/print.h:224: g_PrintData.CursorY = y;
    0000034E 21r06r00         [10] 1201 	ld	hl, #(_g_PrintData + 6)
    00000351 36 01            [10] 1202 	ld	(hl), #0x01
                                   1203 ;E:\Dropbox\FAUSTO\SVILUPPI\MSX\CODE\C\MSXgl\projects\soccerlgSCC/soccerlg_s4_b3.c:215: Print_DrawText("fpracek@gmail.com");
    00000353 C5               [11] 1204 	push	bc
    00000354 21rEFr03         [10] 1205 	ld	hl, #___str_2
    00000357 CDr00r00         [17] 1206 	call	_Print_DrawText
    0000035A C1               [10] 1207 	pop	bc
                                   1208 ;E:\Dropbox\FAUSTO\SVILUPPI\MSX\CODE\C\MSXgl\projects\soccerlgSCC/soccerlg_s4_b3.c:217: const c8* str = "V9990 not found!";
    0000035B 11rBBr03         [10] 1209 	ld	de, #___str_0
                                   1210 ;E:\Dropbox\FAUSTO\SVILUPPI\MSX\CODE\C\MSXgl\projects\soccerlgSCC/soccerlg_s4_b3.c:218: bool v9990IsFound=V9_Detect();
    0000035E C5               [11] 1211 	push	bc
    0000035F D5               [11] 1212 	push	de
    00000360 CDr00r00         [17] 1213 	call	_V9_Detect
    00000363 D1               [10] 1214 	pop	de
    00000364 C1               [10] 1215 	pop	bc
    00000365 DD 77 FF         [19] 1216 	ld	-1 (ix), a
                                   1217 ;E:\Dropbox\FAUSTO\SVILUPPI\MSX\CODE\C\MSXgl\projects\soccerlgSCC/soccerlg_s4_b3.c:220: if (v9990IsFound){
    00000368 B7               [ 4] 1218 	or	a, a
    00000369 28 14            [12] 1219 	jr	Z, 00102$
                                   1220 ;E:\Dropbox\FAUSTO\SVILUPPI\MSX\CODE\C\MSXgl\projects\soccerlgSCC/soccerlg_s4_b3.c:221: str = "V9990 found!";
    0000036B 11r01r04         [10] 1221 	ld	de, #___str_3
                                   1222 ;E:/Dropbox/FAUSTO/SVILUPPI/MSX/CODE/C/MSXgl/engine/src/print.h:223: g_PrintData.CursorX = x;
    0000036E AF               [ 4] 1223 	xor	a, a
    0000036F 02               [ 7] 1224 	ld	(bc), a
                                   1225 ;E:/Dropbox/FAUSTO/SVILUPPI/MSX/CODE/C/MSXgl/engine/src/print.h:224: g_PrintData.CursorY = y;
    00000370 21r06r00         [10] 1226 	ld	hl, #(_g_PrintData + 6)
    00000373 36 07            [10] 1227 	ld	(hl), #0x07
                                   1228 ;E:\Dropbox\FAUSTO\SVILUPPI\MSX\CODE\C\MSXgl\projects\soccerlgSCC/soccerlg_s4_b3.c:223: Print_DrawText("The game is running on V9990 monitor.");
    00000375 C5               [11] 1229 	push	bc
    00000376 D5               [11] 1230 	push	de
    00000377 21r0Er04         [10] 1231 	ld	hl, #___str_4
    0000037A CDr00r00         [17] 1232 	call	_Print_DrawText
    0000037D D1               [10] 1233 	pop	de
    0000037E C1               [10] 1234 	pop	bc
    0000037F                       1235 00102$:
    0000037F AF               [ 4] 1236 	xor	a, a
    00000380 02               [ 7] 1237 	ld	(bc), a
                                   1238 ;E:/Dropbox/FAUSTO/SVILUPPI/MSX/CODE/C/MSXgl/engine/src/print.h:224: g_PrintData.CursorY = y;
    00000381 21r06r00         [10] 1239 	ld	hl, #(_g_PrintData + 6)
    00000384 36 03            [10] 1240 	ld	(hl), #0x03
                                   1241 ;E:\Dropbox\FAUSTO\SVILUPPI\MSX\CODE\C\MSXgl\projects\soccerlgSCC/soccerlg_s4_b3.c:226: Print_DrawText(str);
    00000386 EB               [ 4] 1242 	ex	de, hl
    00000387 CDr00r00         [17] 1243 	call	_Print_DrawText
                                   1244 ;E:\Dropbox\FAUSTO\SVILUPPI\MSX\CODE\C\MSXgl\projects\soccerlgSCC/soccerlg_s4_b3.c:227: if(!v9990IsFound){
    0000038A DD 7E FF         [19] 1245 	ld	a, -1 (ix)
    0000038D B7               [ 4] 1246 	or	a, a
    0000038E 20 03            [12] 1247 	jr	NZ, 00105$
    00000390                       1248 00113$:
    00000390 C3r90r03         [10] 1249 	jp	00113$
    00000393                       1250 00105$:
                                   1251 ;E:/Dropbox/FAUSTO/SVILUPPI/MSX/CODE/C/MSXgl/engine/src/v9990.h:574: inline void V9_SetInterrupt(u8 flags) { V9_SetRegister(9, flags); }
    00000393 2E 00            [ 7] 1252 	ld	l, #0x00
                                   1253 ;	spillPairReg hl
                                   1254 ;	spillPairReg hl
    00000395 3E 09            [ 7] 1255 	ld	a, #0x09
    00000397 CDr00r00         [17] 1256 	call	_V9_SetRegister
                                   1257 ;E:\Dropbox\FAUSTO\SVILUPPI\MSX\CODE\C\MSXgl\projects\soccerlgSCC/soccerlg_s4_b3.c:234: LoadPresentation();
    0000039A CDr46r01         [17] 1258 	call	_LoadPresentation
                                   1259 ;E:\Dropbox\FAUSTO\SVILUPPI\MSX\CODE\C\MSXgl\projects\soccerlgSCC/soccerlg_s4_b3.c:235: CallFnc_VOID(6,V9990_InitMenuLayers);
    0000039D 11r00r00         [10] 1260 	ld	de, #_V9990_InitMenuLayers
    000003A0 3E 06            [ 7] 1261 	ld	a, #0x06
    000003A2 CDr00r00         [17] 1262 	call	_CallFnc_VOID
                                   1263 ;E:\Dropbox\FAUSTO\SVILUPPI\MSX\CODE\C\MSXgl\projects\soccerlgSCC/soccerlg_s4_b3.c:237: CallFnc_VOID(8,ShowMenu);
    000003A5 11r00r00         [10] 1264 	ld	de, #_ShowMenu
    000003A8 3E 08            [ 7] 1265 	ld	a, #0x08
    000003AA CDr00r00         [17] 1266 	call	_CallFnc_VOID
                                   1267 ;E:\Dropbox\FAUSTO\SVILUPPI\MSX\CODE\C\MSXgl\projects\soccerlgSCC/soccerlg_s4_b3.c:238: MainGameLoop();
    000003AD CDr34r04         [17] 1268 	call	_MainGameLoop
                                   1269 ;E:\Dropbox\FAUSTO\SVILUPPI\MSX\CODE\C\MSXgl\projects\soccerlgSCC/soccerlg_s4_b3.c:239: V9_SetPort(V9_P15, 0x10);	
    000003B0 2E 10            [ 7] 1270 	ld	l, #0x10
                                   1271 ;	spillPairReg hl
                                   1272 ;	spillPairReg hl
    000003B2 3E 6F            [ 7] 1273 	ld	a, #0x6f
    000003B4 CDr00r00         [17] 1274 	call	_V9_SetPort
                                   1275 ;E:\Dropbox\FAUSTO\SVILUPPI\MSX\CODE\C\MSXgl\projects\soccerlgSCC/soccerlg_s4_b3.c:240: } 
    000003B7 33               [ 6] 1276 	inc	sp
    000003B8 DD E1            [14] 1277 	pop	ix
    000003BA C9               [10] 1278 	ret
    000003BB                       1279 ___str_0:
    000003BB 56 39 39 39 30 20 6E  1280 	.ascii "V9990 not found!"
             6F 74 20 66 6F 75 6E
             64 21
    000003CB 00                    1281 	.db 0x00
    000003CC                       1282 ___str_1:
    000003CC 53 6F 63 63 65 72 20  1283 	.ascii "Soccer League - 2026 Fausto Pracek"
             4C 65 61 67 75 65 20
             2D 20 32 30 32 36 20
             46 61 75 73 74 6F 20
             50 72 61 63 65 6B
    000003EE 00                    1284 	.db 0x00
    000003EF                       1285 ___str_2:
    000003EF 66 70 72 61 63 65 6B  1286 	.ascii "fpracek@gmail.com"
             40 67 6D 61 69 6C 2E
             63 6F 6D
    00000400 00                    1287 	.db 0x00
    00000401                       1288 ___str_3:
    00000401 56 39 39 39 30 20 66  1289 	.ascii "V9990 found!"
             6F 75 6E 64 21
    0000040D 00                    1290 	.db 0x00
    0000040E                       1291 ___str_4:
    0000040E 54 68 65 20 67 61 6D  1292 	.ascii "The game is running on V9990 monitor."
             65 20 69 73 20 72 75
             6E 6E 69 6E 67 20 6F
             6E 20 56 39 39 39 30
             20 6D 6F 6E 69 74 6F
             72 2E
    00000433 00                    1293 	.db 0x00
                                   1294 ;E:\Dropbox\FAUSTO\SVILUPPI\MSX\CODE\C\MSXgl\projects\soccerlgSCC/soccerlg_s4_b3.c:243: void MainGameLoop(){
                                   1295 ;	---------------------------------
                                   1296 ; Function MainGameLoop
                                   1297 ; ---------------------------------
    00000434                       1298 _MainGameLoop::
    00000434 DD E5            [15] 1299 	push	ix
    00000436 DD 21 00 00      [14] 1300 	ld	ix,#0
    0000043A DD 39            [15] 1301 	add	ix,sp
    0000043C F5               [11] 1302 	push	af
    0000043D F5               [11] 1303 	push	af
                                   1304 ;E:\Dropbox\FAUSTO\SVILUPPI\MSX\CODE\C\MSXgl\projects\soccerlgSCC/soccerlg_s4_b3.c:244: u8 TickAiPlayerId=0;
    0000043E DD 36 FE 00      [19] 1305 	ld	-2 (ix), #0x00
                                   1306 ;E:\Dropbox\FAUSTO\SVILUPPI\MSX\CODE\C\MSXgl\projects\soccerlgSCC/soccerlg_s4_b3.c:245: u8 AiTickSpeed=0;
    00000442 DD 36 FF 00      [19] 1307 	ld	-1 (ix), #0x00
    00000446                       1308 00175$:
                                   1309 ;E:\Dropbox\FAUSTO\SVILUPPI\MSX\CODE\C\MSXgl\projects\soccerlgSCC/soccerlg_s4_b3.c:248: if(g_MatchStatus==MATCH_IN_ACTION){
    00000446 3Ar00r00         [13] 1310 	ld	a, (_g_MatchStatus+0)
    00000449 D6 0C            [ 7] 1311 	sub	a, #0x0c
    0000044B 20 08            [12] 1312 	jr	NZ, 00102$
                                   1313 ;E:\Dropbox\FAUSTO\SVILUPPI\MSX\CODE\C\MSXgl\projects\soccerlgSCC/soccerlg_s4_b3.c:249: CallFnc_VOID(8,TickUpdateTime);
    0000044D 11r00r00         [10] 1314 	ld	de, #_TickUpdateTime
    00000450 3E 08            [ 7] 1315 	ld	a, #0x08
    00000452 CDr00r00         [17] 1316 	call	_CallFnc_VOID
    00000455                       1317 00102$:
                                   1318 ;E:\Dropbox\FAUSTO\SVILUPPI\MSX\CODE\C\MSXgl\projects\soccerlgSCC/soccerlg_s4_b3.c:251: V9990_WaitSynch();
    00000455 CDr00r00         [17] 1319 	call	_V9990_WaitSynch
                                   1320 ;E:\Dropbox\FAUSTO\SVILUPPI\MSX\CODE\C\MSXgl\projects\soccerlgSCC/soccerlg_s4_b3.c:253: if(g_PcmStartPlaying){
    00000458 3Ar00r00         [13] 1321 	ld	a, (_g_PcmStartPlaying+0)
    0000045B B7               [ 4] 1322 	or	a, a
    0000045C 28 0B            [12] 1323 	jr	Z, 00104$
                                   1324 ;E:\Dropbox\FAUSTO\SVILUPPI\MSX\CODE\C\MSXgl\projects\soccerlgSCC/soccerlg_s4_b3.c:254: g_PcmStartPlaying=false;
    0000045E 21r00r00         [10] 1325 	ld	hl, #_g_PcmStartPlaying
    00000461 36 00            [10] 1326 	ld	(hl), #0x00
                                   1327 ;E:\Dropbox\FAUSTO\SVILUPPI\MSX\CODE\C\MSXgl\projects\soccerlgSCC/soccerlg_s4_b3.c:255: PlayPCM(g_PmcSoundPlaying);
    00000463 3Ar00r00         [13] 1328 	ld	a, (_g_PmcSoundPlaying+0)
    00000466 CDr00r00         [17] 1329 	call	_PlayPCM
    00000469                       1330 00104$:
                                   1331 ;E:\Dropbox\FAUSTO\SVILUPPI\MSX\CODE\C\MSXgl\projects\soccerlgSCC/soccerlg_s4_b3.c:258: if(g_MatchStatus==MATCH_NOT_STARTED && g_FieldScrollingActionInProgress==NO_VALUE && g_ActiveFieldZone==FIELD_CENTRAL_ZONE){
    00000469 3Ar00r00         [13] 1332 	ld	a, (_g_MatchStatus+0)
    0000046C B7               [ 4] 1333 	or	a, a
    0000046D 20 5C            [12] 1334 	jr	NZ, 00115$
    0000046F 3Ar00r00         [13] 1335 	ld	a, (_g_FieldScrollingActionInProgress+0)
    00000472 3C               [ 4] 1336 	inc	a
    00000473 20 56            [12] 1337 	jr	NZ, 00115$
    00000475 3Ar00r00         [13] 1338 	ld	a, (_g_ActiveFieldZone+0)
    00000478 3D               [ 4] 1339 	dec	a
    00000479 20 50            [12] 1340 	jr	NZ, 00115$
                                   1341 ;E:\Dropbox\FAUSTO\SVILUPPI\MSX\CODE\C\MSXgl\projects\soccerlgSCC/soccerlg_s4_b3.c:260: g_MatchStatus=MATCH_BEFORE_KICK_OFF;
    0000047B 21r00r00         [10] 1342 	ld	hl, #_g_MatchStatus
    0000047E 36 01            [10] 1343 	ld	(hl), #0x01
                                   1344 ;E:\Dropbox\FAUSTO\SVILUPPI\MSX\CODE\C\MSXgl\projects\soccerlgSCC/soccerlg_s4_b3.c:261: if(g_FirstKickOff){
    00000480 3Ar00r00         [13] 1345 	ld	a, (_g_FirstKickOff+0)
    00000483 B7               [ 4] 1346 	or	a, a
    00000484 28 18            [12] 1347 	jr	Z, 00109$
                                   1348 ;E:\Dropbox\FAUSTO\SVILUPPI\MSX\CODE\C\MSXgl\projects\soccerlgSCC/soccerlg_s4_b3.c:262: g_FirstKickOff=FALSE;
    00000486 21r00r00         [10] 1349 	ld	hl, #_g_FirstKickOff
    00000489 36 00            [10] 1350 	ld	(hl), #0x00
                                   1351 ;E:\Dropbox\FAUSTO\SVILUPPI\MSX\CODE\C\MSXgl\projects\soccerlgSCC/soccerlg_s4_b3.c:263: g_Timer=0;
    0000048B 21r00r00         [10] 1352 	ld	hl, #_g_Timer
    0000048E 36 00            [10] 1353 	ld	(hl), #0x00
                                   1354 ;E:\Dropbox\FAUSTO\SVILUPPI\MSX\CODE\C\MSXgl\projects\soccerlgSCC/soccerlg_s4_b3.c:264: g_VgmPublicPresentationEnded=FALSE;
    00000490 21r00r00         [10] 1355 	ld	hl, #_g_VgmPublicPresentationEnded
    00000493 36 00            [10] 1356 	ld	(hl), #0x00
                                   1357 ;E:\Dropbox\FAUSTO\SVILUPPI\MSX\CODE\C\MSXgl\projects\soccerlgSCC/soccerlg_s4_b3.c:267: while(!g_VgmPublicPresentationEnded){
    00000495                       1358 00105$:
    00000495 3Ar00r00         [13] 1359 	ld	a, (_g_VgmPublicPresentationEnded+0)
    00000498 B7               [ 4] 1360 	or	a, a
    00000499 28 FA            [12] 1361 	jr	Z, 00105$
                                   1362 ;E:\Dropbox\FAUSTO\SVILUPPI\MSX\CODE\C\MSXgl\projects\soccerlgSCC/soccerlg_s4_b3.c:271: VGM_Stop();
    0000049B CDr00r00         [17] 1363 	call	_VGM_Stop
    0000049E                       1364 00109$:
                                   1365 ;E:\Dropbox\FAUSTO\SVILUPPI\MSX\CODE\C\MSXgl\projects\soccerlgSCC/soccerlg_s4_b3.c:275: PlayVGM(VGM_PLAYERS_PRESENTATION);
    0000049E 3E 01            [ 7] 1366 	ld	a, #0x01
    000004A0 CDr00r00         [17] 1367 	call	_PlayVGM
                                   1368 ;E:\Dropbox\FAUSTO\SVILUPPI\MSX\CODE\C\MSXgl\projects\soccerlgSCC/soccerlg_s4_b3.c:276: g_Timer=0;
    000004A3 21r00r00         [10] 1369 	ld	hl, #_g_Timer
    000004A6 36 00            [10] 1370 	ld	(hl), #0x00
                                   1371 ;E:\Dropbox\FAUSTO\SVILUPPI\MSX\CODE\C\MSXgl\projects\soccerlgSCC/soccerlg_s4_b3.c:278: while (g_Timer!=45)
    000004A8                       1372 00111$:
    000004A8 3Ar00r00         [13] 1373 	ld	a, (_g_Timer+0)
    000004AB D6 2D            [ 7] 1374 	sub	a, #0x2d
    000004AD 28 17            [12] 1375 	jr	Z, 00113$
                                   1376 ;E:\Dropbox\FAUSTO\SVILUPPI\MSX\CODE\C\MSXgl\projects\soccerlgSCC/soccerlg_s4_b3.c:280: for(u8 i=0;i<15;i++){
    000004AF 06 00            [ 7] 1377 	ld	b, #0x00
    000004B1                       1378 00173$:
    000004B1 78               [ 4] 1379 	ld	a, b
    000004B2 D6 0F            [ 7] 1380 	sub	a, #0x0f
    000004B4 30 F2            [12] 1381 	jr	NC, 00111$
                                   1382 ;E:\Dropbox\FAUSTO\SVILUPPI\MSX\CODE\C\MSXgl\projects\soccerlgSCC/soccerlg_s4_b3.c:281: CallFnc_VOID_P1(9,SetPlayerTarget,i);
    000004B6 C5               [11] 1383 	push	bc
    000004B7 C5               [11] 1384 	push	bc
    000004B8 33               [ 6] 1385 	inc	sp
    000004B9 11r00r00         [10] 1386 	ld	de, #_SetPlayerTarget
    000004BC 3E 09            [ 7] 1387 	ld	a, #0x09
    000004BE CDr00r00         [17] 1388 	call	_CallFnc_VOID_P1
    000004C1 C1               [10] 1389 	pop	bc
                                   1390 ;E:\Dropbox\FAUSTO\SVILUPPI\MSX\CODE\C\MSXgl\projects\soccerlgSCC/soccerlg_s4_b3.c:280: for(u8 i=0;i<15;i++){
    000004C2 04               [ 4] 1391 	inc	b
    000004C3 C3rB1r04         [10] 1392 	jp	00173$
    000004C6                       1393 00113$:
                                   1394 ;E:\Dropbox\FAUSTO\SVILUPPI\MSX\CODE\C\MSXgl\projects\soccerlgSCC/soccerlg_s4_b3.c:286: g_Timer=0;
    000004C6 21r00r00         [10] 1395 	ld	hl, #_g_Timer
    000004C9 36 00            [10] 1396 	ld	(hl), #0x00
    000004CB                       1397 00115$:
                                   1398 ;E:\Dropbox\FAUSTO\SVILUPPI\MSX\CODE\C\MSXgl\projects\soccerlgSCC/soccerlg_s4_b3.c:290: if(g_MatchStatus==MATCH_NOT_STARTED){
    000004CB 3Ar00r00         [13] 1399 	ld	a, (_g_MatchStatus+0)
    000004CE B7               [ 4] 1400 	or	a, a
    000004CF 20 15            [12] 1401 	jr	NZ, 00123$
                                   1402 ;E:\Dropbox\FAUSTO\SVILUPPI\MSX\CODE\C\MSXgl\projects\soccerlgSCC/soccerlg_s4_b3.c:291: if(g_currentVGMPlayingSegment==VGM_PLAYERS_PRESENTATION_VGM_SEG && g_TimerActive && g_Timer<30){
    000004D1 3Ar00r00         [13] 1403 	ld	a, (_g_currentVGMPlayingSegment+0)
    000004D4 D6 50            [ 7] 1404 	sub	a, #0x50
    000004D6 20 0E            [12] 1405 	jr	NZ, 00123$
    000004D8 3Ar00r00         [13] 1406 	ld	a, (_g_TimerActive+0)
    000004DB B7               [ 4] 1407 	or	a, a
    000004DC 28 08            [12] 1408 	jr	Z, 00123$
    000004DE 3Ar00r00         [13] 1409 	ld	a, (_g_Timer+0)
    000004E1 D6 1E            [ 7] 1410 	sub	a, #0x1e
    000004E3 DAr46r04         [10] 1411 	jp	C, 00175$
                                   1412 ;E:\Dropbox\FAUSTO\SVILUPPI\MSX\CODE\C\MSXgl\projects\soccerlgSCC/soccerlg_s4_b3.c:292: continue;
    000004E6                       1413 00123$:
                                   1414 ;E:\Dropbox\FAUSTO\SVILUPPI\MSX\CODE\C\MSXgl\projects\soccerlgSCC/soccerlg_s4_b3.c:297: TickCornerKick(); 
    000004E6 CDr22r10         [17] 1415 	call	_TickCornerKick
                                   1416 ;E:\Dropbox\FAUSTO\SVILUPPI\MSX\CODE\C\MSXgl\projects\soccerlgSCC/soccerlg_s4_b3.c:298: if(g_MatchStatus == MATCH_BEFORE_GOAL_KICK){
    000004E9 3Ar00r00         [13] 1417 	ld	a, (_g_MatchStatus+0)
    000004EC D6 05            [ 7] 1418 	sub	a, #0x05
    000004EE 20 08            [12] 1419 	jr	NZ, 00125$
                                   1420 ;E:\Dropbox\FAUSTO\SVILUPPI\MSX\CODE\C\MSXgl\projects\soccerlgSCC/soccerlg_s4_b3.c:299: CallFnc_VOID(5,TickGoalKick);
    000004F0 11r00r00         [10] 1421 	ld	de, #_TickGoalKick
    000004F3 3E 05            [ 7] 1422 	ld	a, #0x05
    000004F5 CDr00r00         [17] 1423 	call	_CallFnc_VOID
    000004F8                       1424 00125$:
                                   1425 ;E:\Dropbox\FAUSTO\SVILUPPI\MSX\CODE\C\MSXgl\projects\soccerlgSCC/soccerlg_s4_b3.c:301: CallFnc_VOID(7,TickThrowIn);
    000004F8 11r00r00         [10] 1426 	ld	de, #_TickThrowIn
    000004FB 3E 07            [ 7] 1427 	ld	a, #0x07
    000004FD CDr00r00         [17] 1428 	call	_CallFnc_VOID
                                   1429 ;E:\Dropbox\FAUSTO\SVILUPPI\MSX\CODE\C\MSXgl\projects\soccerlgSCC/soccerlg_s4_b3.c:303: CallFnc_VOID(6,TickPonPonGirlsAnimation);
    00000500 11r00r00         [10] 1430 	ld	de, #_TickPonPonGirlsAnimation
    00000503 3E 06            [ 7] 1431 	ld	a, #0x06
    00000505 CDr00r00         [17] 1432 	call	_CallFnc_VOID
                                   1433 ;E:\Dropbox\FAUSTO\SVILUPPI\MSX\CODE\C\MSXgl\projects\soccerlgSCC/soccerlg_s4_b3.c:304: CallFnc_VOID(5,TickPlayerToOwnTarget);
    00000508 11r00r00         [10] 1434 	ld	de, #_TickPlayerToOwnTarget
    0000050B 3E 05            [ 7] 1435 	ld	a, #0x05
    0000050D CDr00r00         [17] 1436 	call	_CallFnc_VOID
                                   1437 ;E:\Dropbox\FAUSTO\SVILUPPI\MSX\CODE\C\MSXgl\projects\soccerlgSCC/soccerlg_s4_b3.c:305: if (g_SoundRequest != NO_VALUE) {
    00000510 3Ar00r00         [13] 1438 	ld	a, (_g_SoundRequest+0)
    00000513 3C               [ 4] 1439 	inc	a
    00000514 28 0B            [12] 1440 	jr	Z, 00127$
                                   1441 ;E:\Dropbox\FAUSTO\SVILUPPI\MSX\CODE\C\MSXgl\projects\soccerlgSCC/soccerlg_s4_b3.c:306: PlayPCM(g_SoundRequest);
    00000516 3Ar00r00         [13] 1442 	ld	a, (_g_SoundRequest+0)
    00000519 CDr00r00         [17] 1443 	call	_PlayPCM
                                   1444 ;E:\Dropbox\FAUSTO\SVILUPPI\MSX\CODE\C\MSXgl\projects\soccerlgSCC/soccerlg_s4_b3.c:307: g_SoundRequest = NO_VALUE;
    0000051C 21r00r00         [10] 1445 	ld	hl, #_g_SoundRequest
    0000051F 36 FF            [10] 1446 	ld	(hl), #0xff
    00000521                       1447 00127$:
                                   1448 ;E:\Dropbox\FAUSTO\SVILUPPI\MSX\CODE\C\MSXgl\projects\soccerlgSCC/soccerlg_s4_b3.c:309: CallFnc_VOID(6,TickGoalCelebration);
    00000521 11r00r00         [10] 1449 	ld	de, #_TickGoalCelebration
    00000524 3E 06            [ 7] 1450 	ld	a, #0x06
    00000526 CDr00r00         [17] 1451 	call	_CallFnc_VOID
                                   1452 ;E:\Dropbox\FAUSTO\SVILUPPI\MSX\CODE\C\MSXgl\projects\soccerlgSCC/soccerlg_s4_b3.c:310: CallFnc_VOID(8,TickActiveFieldZone);
    00000529 11r00r00         [10] 1453 	ld	de, #_TickActiveFieldZone
    0000052C 3E 08            [ 7] 1454 	ld	a, #0x08
    0000052E CDr00r00         [17] 1455 	call	_CallFnc_VOID
                                   1456 ;E:\Dropbox\FAUSTO\SVILUPPI\MSX\CODE\C\MSXgl\projects\soccerlgSCC/soccerlg_s4_b3.c:311: if(g_FieldScrollingActionInProgress==NO_VALUE){
    00000531 3Ar00r00         [13] 1457 	ld	a, (_g_FieldScrollingActionInProgress+0)
    00000534 3C               [ 4] 1458 	inc	a
    00000535 C2r48r06         [10] 1459 	jp	NZ,00155$
                                   1460 ;E:\Dropbox\FAUSTO\SVILUPPI\MSX\CODE\C\MSXgl\projects\soccerlgSCC/soccerlg_s4_b3.c:313: if(g_MatchStatus == MATCH_IN_ACTION || g_MatchStatus == MATCH_BALL_ON_GOALKEEPER) {
    00000538 3Ar00r00         [13] 1461 	ld	a,(_g_MatchStatus+0)
    0000053B FE 0C            [ 7] 1462 	cp	a,#0x0c
    0000053D 28 05            [12] 1463 	jr	Z, 00151$
    0000053F D6 0D            [ 7] 1464 	sub	a, #0x0d
    00000541 C2r48r06         [10] 1465 	jp	NZ,00155$
    00000544                       1466 00151$:
                                   1467 ;E:\Dropbox\FAUSTO\SVILUPPI\MSX\CODE\C\MSXgl\projects\soccerlgSCC/soccerlg_s4_b3.c:316: if (g_Ball.PossessionPlayerId != NO_VALUE) {
    00000544 21r06r00         [10] 1468 	ld	hl, #(_g_Ball + 6)
    00000547 4E               [ 7] 1469 	ld	c, (hl)
    00000548 79               [ 4] 1470 	ld	a, c
    00000549 3C               [ 4] 1471 	inc	a
    0000054A 28 36            [12] 1472 	jr	Z, 00131$
                                   1473 ;E:\Dropbox\FAUSTO\SVILUPPI\MSX\CODE\C\MSXgl\projects\soccerlgSCC/soccerlg_s4_b3.c:317: u8 carrierTeam = g_Players[g_Ball.PossessionPlayerId].TeamId;
    0000054C 11r00r00         [10] 1474 	ld	de, #_g_Players+0
    0000054F 06 00            [ 7] 1475 	ld	b, #0x00
    00000551 69               [ 4] 1476 	ld	l, c
    00000552 60               [ 4] 1477 	ld	h, b
    00000553 29               [11] 1478 	add	hl, hl
    00000554 29               [11] 1479 	add	hl, hl
    00000555 09               [11] 1480 	add	hl, bc
    00000556 29               [11] 1481 	add	hl, hl
    00000557 29               [11] 1482 	add	hl, hl
    00000558 09               [11] 1483 	add	hl, bc
    00000559 E3               [19] 1484 	ex	(sp), hl
    0000055A E1               [10] 1485 	pop	hl
    0000055B E5               [11] 1486 	push	hl
    0000055C 19               [11] 1487 	add	hl, de
    0000055D 11 09 00         [10] 1488 	ld	de, #0x0009
    00000560 19               [11] 1489 	add	hl, de
    00000561 7E               [ 7] 1490 	ld	a, (hl)
                                   1491 ;E:\Dropbox\FAUSTO\SVILUPPI\MSX\CODE\C\MSXgl\projects\soccerlgSCC/soccerlg_s4_b3.c:318: u8 chaserTeam = (carrierTeam == TEAM_1) ? TEAM_2 : TEAM_1;
    00000562 3D               [ 4] 1492 	dec	a
    00000563 20 06            [12] 1493 	jr	NZ, 00178$
    00000565 01 02 00         [10] 1494 	ld	bc, #0x0002
    00000568 C3r6Er05         [10] 1495 	jp	00179$
    0000056B                       1496 00178$:
    0000056B 01 01 00         [10] 1497 	ld	bc, #0x0001
    0000056E                       1498 00179$:
                                   1499 ;E:\Dropbox\FAUSTO\SVILUPPI\MSX\CODE\C\MSXgl\projects\soccerlgSCC/soccerlg_s4_b3.c:319: u8 chaserId = GetClosestPlayerToBall(chaserTeam, NO_VALUE);
    0000056E 2E FF            [ 7] 1500 	ld	l, #0xff
                                   1501 ;	spillPairReg hl
                                   1502 ;	spillPairReg hl
    00000570 79               [ 4] 1503 	ld	a, c
    00000571 CDrC2r09         [17] 1504 	call	_GetClosestPlayerToBall
                                   1505 ;E:\Dropbox\FAUSTO\SVILUPPI\MSX\CODE\C\MSXgl\projects\soccerlgSCC/soccerlg_s4_b3.c:320: if (chaserId != NO_VALUE) {
    00000574 FE FF            [ 7] 1506 	cp	a, #0xff
    00000576 28 0A            [12] 1507 	jr	Z, 00131$
                                   1508 ;E:\Dropbox\FAUSTO\SVILUPPI\MSX\CODE\C\MSXgl\projects\soccerlgSCC/soccerlg_s4_b3.c:321: CallFnc_VOID_P1(10,TickAI,chaserId);
    00000578 F5               [11] 1509 	push	af
    00000579 33               [ 6] 1510 	inc	sp
    0000057A 11r00r00         [10] 1511 	ld	de, #_TickAI
    0000057D 3E 0A            [ 7] 1512 	ld	a, #0x0a
    0000057F CDr00r00         [17] 1513 	call	_CallFnc_VOID_P1
    00000582                       1514 00131$:
                                   1515 ;E:\Dropbox\FAUSTO\SVILUPPI\MSX\CODE\C\MSXgl\projects\soccerlgSCC/soccerlg_s4_b3.c:326: if(AiTickSpeed >= 2){ // Speed up AI cycle (was 5)
    00000582 DD 7E FF         [19] 1516 	ld	a, -1 (ix)
    00000585 D6 02            [ 7] 1517 	sub	a, #0x02
    00000587 DAr48r06         [10] 1518 	jp	C, 00155$
                                   1519 ;E:\Dropbox\FAUSTO\SVILUPPI\MSX\CODE\C\MSXgl\projects\soccerlgSCC/soccerlg_s4_b3.c:327: AiTickSpeed=0;
    0000058A DD 36 FF 00      [19] 1520 	ld	-1 (ix), #0x00
                                   1521 ;E:\Dropbox\FAUSTO\SVILUPPI\MSX\CODE\C\MSXgl\projects\soccerlgSCC/soccerlg_s4_b3.c:328: CallFnc_VOID_P1(10,TickAI,REFEREE);
    0000058E 3E 0E            [ 7] 1522 	ld	a, #0x0e
    00000590 F5               [11] 1523 	push	af
    00000591 33               [ 6] 1524 	inc	sp
    00000592 11r00r00         [10] 1525 	ld	de, #_TickAI
    00000595 3E 0A            [ 7] 1526 	ld	a, #0x0a
    00000597 CDr00r00         [17] 1527 	call	_CallFnc_VOID_P1
                                   1528 ;E:\Dropbox\FAUSTO\SVILUPPI\MSX\CODE\C\MSXgl\projects\soccerlgSCC/soccerlg_s4_b3.c:329: CallFnc_VOID_P1(10,TickAI,TickAiPlayerId);
    0000059A DD 7E FE         [19] 1529 	ld	a, -2 (ix)
    0000059D F5               [11] 1530 	push	af
    0000059E 33               [ 6] 1531 	inc	sp
    0000059F 11r00r00         [10] 1532 	ld	de, #_TickAI
    000005A2 3E 0A            [ 7] 1533 	ld	a, #0x0a
    000005A4 CDr00r00         [17] 1534 	call	_CallFnc_VOID_P1
                                   1535 ;E:\Dropbox\FAUSTO\SVILUPPI\MSX\CODE\C\MSXgl\projects\soccerlgSCC/soccerlg_s4_b3.c:330: TickAiPlayerId++;
    000005A7 DD 34 FE         [23] 1536 	inc	-2 (ix)
                                   1537 ;E:\Dropbox\FAUSTO\SVILUPPI\MSX\CODE\C\MSXgl\projects\soccerlgSCC/soccerlg_s4_b3.c:331: if(TickAiPlayerId==14){ // Only iterate 0-13 (Players)
    000005AA DD 7E FE         [19] 1538 	ld	a, -2 (ix)
    000005AD D6 0E            [ 7] 1539 	sub	a, #0x0e
    000005AF 20 04            [12] 1540 	jr	NZ, 00133$
                                   1541 ;E:\Dropbox\FAUSTO\SVILUPPI\MSX\CODE\C\MSXgl\projects\soccerlgSCC/soccerlg_s4_b3.c:332: TickAiPlayerId=0;
    000005B1 DD 36 FE 00      [19] 1542 	ld	-2 (ix), #0x00
    000005B5                       1543 00133$:
                                   1544 ;E:\Dropbox\FAUSTO\SVILUPPI\MSX\CODE\C\MSXgl\projects\soccerlgSCC/soccerlg_s4_b3.c:336: if (g_Ball.PossessionPlayerId != NO_VALUE && g_Ball.PossessionPlayerId < 14) {
    000005B5 21r06r00         [10] 1545 	ld	hl, #(_g_Ball + 6)
    000005B8 46               [ 7] 1546 	ld	b, (hl)
    000005B9 78               [ 4] 1547 	ld	a, b
    000005BA 3C               [ 4] 1548 	inc	a
    000005BB 28 55            [12] 1549 	jr	Z, 00146$
    000005BD 78               [ 4] 1550 	ld	a, b
    000005BE D6 0E            [ 7] 1551 	sub	a, #0x0e
    000005C0 30 50            [12] 1552 	jr	NC, 00146$
                                   1553 ;E:\Dropbox\FAUSTO\SVILUPPI\MSX\CODE\C\MSXgl\projects\soccerlgSCC/soccerlg_s4_b3.c:338: if (g_Ball.PossessionPlayerId != TickAiPlayerId) {
    000005C2 DD 7E FE         [19] 1554 	ld	a, -2 (ix)
    000005C5 90               [ 4] 1555 	sub	a, b
    000005C6 28 0A            [12] 1556 	jr	Z, 00135$
                                   1557 ;E:\Dropbox\FAUSTO\SVILUPPI\MSX\CODE\C\MSXgl\projects\soccerlgSCC/soccerlg_s4_b3.c:339: CallFnc_VOID_P1(10,TickAI,g_Ball.PossessionPlayerId);
    000005C8 C5               [11] 1558 	push	bc
    000005C9 33               [ 6] 1559 	inc	sp
    000005CA 11r00r00         [10] 1560 	ld	de, #_TickAI
    000005CD 3E 0A            [ 7] 1561 	ld	a, #0x0a
    000005CF CDr00r00         [17] 1562 	call	_CallFnc_VOID_P1
    000005D2                       1563 00135$:
                                   1564 ;E:\Dropbox\FAUSTO\SVILUPPI\MSX\CODE\C\MSXgl\projects\soccerlgSCC/soccerlg_s4_b3.c:342: u8 carrierTeam = g_Players[g_Ball.PossessionPlayerId].TeamId;
    000005D2 01r00r00         [10] 1565 	ld	bc, #_g_Players+0
    000005D5 3Ar06r00         [13] 1566 	ld	a, (#(_g_Ball + 6) + 0)
    000005D8 5F               [ 4] 1567 	ld	e, a
    000005D9 16 00            [ 7] 1568 	ld	d, #0x00
    000005DB 6B               [ 4] 1569 	ld	l, e
    000005DC 62               [ 4] 1570 	ld	h, d
    000005DD 29               [11] 1571 	add	hl, hl
    000005DE 29               [11] 1572 	add	hl, hl
    000005DF 19               [11] 1573 	add	hl, de
    000005E0 29               [11] 1574 	add	hl, hl
    000005E1 29               [11] 1575 	add	hl, hl
    000005E2 19               [11] 1576 	add	hl, de
    000005E3 09               [11] 1577 	add	hl, bc
    000005E4 01 09 00         [10] 1578 	ld	bc,#9
    000005E7 09               [11] 1579 	add	hl,bc
    000005E8 7E               [ 7] 1580 	ld	a, (hl)
                                   1581 ;E:\Dropbox\FAUSTO\SVILUPPI\MSX\CODE\C\MSXgl\projects\soccerlgSCC/soccerlg_s4_b3.c:343: u8 chaserTeam = (carrierTeam == TEAM_1) ? TEAM_2 : TEAM_1;
    000005E9 3D               [ 4] 1582 	dec	a
    000005EA 20 06            [12] 1583 	jr	NZ, 00180$
    000005EC 01 02 00         [10] 1584 	ld	bc, #0x0002
    000005EF C3rF5r05         [10] 1585 	jp	00181$
    000005F2                       1586 00180$:
    000005F2 01 01 00         [10] 1587 	ld	bc, #0x0001
    000005F5                       1588 00181$:
                                   1589 ;E:\Dropbox\FAUSTO\SVILUPPI\MSX\CODE\C\MSXgl\projects\soccerlgSCC/soccerlg_s4_b3.c:344: u8 chaserId = GetClosestPlayerToBall(chaserTeam, NO_VALUE);
    000005F5 2E FF            [ 7] 1590 	ld	l, #0xff
                                   1591 ;	spillPairReg hl
                                   1592 ;	spillPairReg hl
    000005F7 79               [ 4] 1593 	ld	a, c
    000005F8 CDrC2r09         [17] 1594 	call	_GetClosestPlayerToBall
                                   1595 ;E:\Dropbox\FAUSTO\SVILUPPI\MSX\CODE\C\MSXgl\projects\soccerlgSCC/soccerlg_s4_b3.c:345: if (chaserId != NO_VALUE && chaserId != TickAiPlayerId) {
    000005FB 47               [ 4] 1596 	ld	b, a
    000005FC 3C               [ 4] 1597 	inc	a
    000005FD 28 49            [12] 1598 	jr	Z, 00155$
    000005FF DD 7E FE         [19] 1599 	ld	a, -2 (ix)
    00000602 90               [ 4] 1600 	sub	a, b
    00000603 28 43            [12] 1601 	jr	Z, 00155$
                                   1602 ;E:\Dropbox\FAUSTO\SVILUPPI\MSX\CODE\C\MSXgl\projects\soccerlgSCC/soccerlg_s4_b3.c:346: CallFnc_VOID_P1(10,TickAI,chaserId);
    00000605 C5               [11] 1603 	push	bc
    00000606 33               [ 6] 1604 	inc	sp
    00000607 11r00r00         [10] 1605 	ld	de, #_TickAI
    0000060A 3E 0A            [ 7] 1606 	ld	a, #0x0a
    0000060C CDr00r00         [17] 1607 	call	_CallFnc_VOID_P1
    0000060F C3r48r06         [10] 1608 	jp	00155$
    00000612                       1609 00146$:
                                   1610 ;E:\Dropbox\FAUSTO\SVILUPPI\MSX\CODE\C\MSXgl\projects\soccerlgSCC/soccerlg_s4_b3.c:350: u8 c1 = GetClosestPlayerToBall(TEAM_1, NO_VALUE);
    00000612 2E FF            [ 7] 1611 	ld	l, #0xff
                                   1612 ;	spillPairReg hl
                                   1613 ;	spillPairReg hl
    00000614 3E 01            [ 7] 1614 	ld	a, #0x01
    00000616 CDrC2r09         [17] 1615 	call	_GetClosestPlayerToBall
                                   1616 ;E:\Dropbox\FAUSTO\SVILUPPI\MSX\CODE\C\MSXgl\projects\soccerlgSCC/soccerlg_s4_b3.c:351: if (c1 != NO_VALUE && c1 != TickAiPlayerId) CallFnc_VOID_P1(10,TickAI,c1);
    00000619 47               [ 4] 1617 	ld	b, a
    0000061A 3C               [ 4] 1618 	inc	a
    0000061B 28 10            [12] 1619 	jr	Z, 00140$
    0000061D DD 7E FE         [19] 1620 	ld	a, -2 (ix)
    00000620 90               [ 4] 1621 	sub	a, b
    00000621 28 0A            [12] 1622 	jr	Z, 00140$
    00000623 C5               [11] 1623 	push	bc
    00000624 33               [ 6] 1624 	inc	sp
    00000625 11r00r00         [10] 1625 	ld	de, #_TickAI
    00000628 3E 0A            [ 7] 1626 	ld	a, #0x0a
    0000062A CDr00r00         [17] 1627 	call	_CallFnc_VOID_P1
    0000062D                       1628 00140$:
                                   1629 ;E:\Dropbox\FAUSTO\SVILUPPI\MSX\CODE\C\MSXgl\projects\soccerlgSCC/soccerlg_s4_b3.c:353: u8 c2 = GetClosestPlayerToBall(TEAM_2, NO_VALUE);
    0000062D 2E FF            [ 7] 1630 	ld	l, #0xff
                                   1631 ;	spillPairReg hl
                                   1632 ;	spillPairReg hl
    0000062F 3E 02            [ 7] 1633 	ld	a, #0x02
    00000631 CDrC2r09         [17] 1634 	call	_GetClosestPlayerToBall
                                   1635 ;E:\Dropbox\FAUSTO\SVILUPPI\MSX\CODE\C\MSXgl\projects\soccerlgSCC/soccerlg_s4_b3.c:354: if (c2 != NO_VALUE && c2 != TickAiPlayerId) CallFnc_VOID_P1(10,TickAI,c2);
    00000634 47               [ 4] 1636 	ld	b, a
    00000635 3C               [ 4] 1637 	inc	a
    00000636 28 10            [12] 1638 	jr	Z, 00155$
    00000638 DD 7E FE         [19] 1639 	ld	a, -2 (ix)
    0000063B 90               [ 4] 1640 	sub	a, b
    0000063C 28 0A            [12] 1641 	jr	Z, 00155$
    0000063E C5               [11] 1642 	push	bc
    0000063F 33               [ 6] 1643 	inc	sp
    00000640 11r00r00         [10] 1644 	ld	de, #_TickAI
    00000643 3E 0A            [ 7] 1645 	ld	a, #0x0a
    00000645 CDr00r00         [17] 1646 	call	_CallFnc_VOID_P1
    00000648                       1647 00155$:
                                   1648 ;E:\Dropbox\FAUSTO\SVILUPPI\MSX\CODE\C\MSXgl\projects\soccerlgSCC/soccerlg_s4_b3.c:360: EnforcePenaltyBoxRestriction();
    00000648 CDrB5r08         [17] 1649 	call	_EnforcePenaltyBoxRestriction
                                   1650 ;E:\Dropbox\FAUSTO\SVILUPPI\MSX\CODE\C\MSXgl\projects\soccerlgSCC/soccerlg_s4_b3.c:361: CallFnc_VOID(6,UpdateSpritesPositions);
    0000064B 11r00r00         [10] 1651 	ld	de, #_UpdateSpritesPositions
    0000064E 3E 06            [ 7] 1652 	ld	a, #0x06
    00000650 CDr00r00         [17] 1653 	call	_CallFnc_VOID
                                   1654 ;E:\Dropbox\FAUSTO\SVILUPPI\MSX\CODE\C\MSXgl\projects\soccerlgSCC/soccerlg_s4_b3.c:362: TickShotCursor();
    00000653 CDrD2r07         [17] 1655 	call	_TickShotCursor
                                   1656 ;E:\Dropbox\FAUSTO\SVILUPPI\MSX\CODE\C\MSXgl\projects\soccerlgSCC/soccerlg_s4_b3.c:364: TickShowKickOff();
    00000656 CDr0Ar07         [17] 1657 	call	_TickShowKickOff
                                   1658 ;E:\Dropbox\FAUSTO\SVILUPPI\MSX\CODE\C\MSXgl\projects\soccerlgSCC/soccerlg_s4_b3.c:365: u8 joyDir=GetJoystickDirection();
    00000659 CDr17r00         [17] 1659 	call	_GetJoystickDirection
                                   1660 ;E:\Dropbox\FAUSTO\SVILUPPI\MSX\CODE\C\MSXgl\projects\soccerlgSCC/soccerlg_s4_b3.c:366: CallFnc_VOID_P1(6,TickTeamJoystick,joyDir);
    0000065C F5               [11] 1661 	push	af
    0000065D 33               [ 6] 1662 	inc	sp
    0000065E 11r00r00         [10] 1663 	ld	de, #_TickTeamJoystick
    00000661 3E 06            [ 7] 1664 	ld	a, #0x06
    00000663 CDr00r00         [17] 1665 	call	_CallFnc_VOID_P1
                                   1666 ;E:\Dropbox\FAUSTO\SVILUPPI\MSX\CODE\C\MSXgl\projects\soccerlgSCC/soccerlg_s4_b3.c:367: if(g_FieldScrollingActionInProgress==NO_VALUE){
    00000666 3Ar00r00         [13] 1667 	ld	a, (_g_FieldScrollingActionInProgress+0)
    00000669 3C               [ 4] 1668 	inc	a
    0000066A 20 20            [12] 1669 	jr	NZ, 00157$
                                   1670 ;E:\Dropbox\FAUSTO\SVILUPPI\MSX\CODE\C\MSXgl\projects\soccerlgSCC/soccerlg_s4_b3.c:368: CallFnc_VOID(9,TickBallCollision);
    0000066C 11r00r00         [10] 1671 	ld	de, #_TickBallCollision
    0000066F 3E 09            [ 7] 1672 	ld	a, #0x09
    00000671 CDr00r00         [17] 1673 	call	_CallFnc_VOID
                                   1674 ;E:\Dropbox\FAUSTO\SVILUPPI\MSX\CODE\C\MSXgl\projects\soccerlgSCC/soccerlg_s4_b3.c:369: CallFnc_VOID(8,TickBallFlying);
    00000674 11r00r00         [10] 1675 	ld	de, #_TickBallFlying
    00000677 3E 08            [ 7] 1676 	ld	a, #0x08
    00000679 CDr00r00         [17] 1677 	call	_CallFnc_VOID
                                   1678 ;E:\Dropbox\FAUSTO\SVILUPPI\MSX\CODE\C\MSXgl\projects\soccerlgSCC/soccerlg_s4_b3.c:370: CallFnc_VOID(9,UpdatePassTarget);
    0000067C 11r00r00         [10] 1679 	ld	de, #_UpdatePassTarget
    0000067F 3E 09            [ 7] 1680 	ld	a, #0x09
    00000681 CDr00r00         [17] 1681 	call	_CallFnc_VOID
                                   1682 ;E:\Dropbox\FAUSTO\SVILUPPI\MSX\CODE\C\MSXgl\projects\soccerlgSCC/soccerlg_s4_b3.c:371: CallFnc_VOID(9,TickGoalkeeperAnimation);
    00000684 11r00r00         [10] 1683 	ld	de, #_TickGoalkeeperAnimation
    00000687 3E 09            [ 7] 1684 	ld	a, #0x09
    00000689 CDr00r00         [17] 1685 	call	_CallFnc_VOID
    0000068C                       1686 00157$:
                                   1687 ;E:\Dropbox\FAUSTO\SVILUPPI\MSX\CODE\C\MSXgl\projects\soccerlgSCC/soccerlg_s4_b3.c:373: CallFnc_VOID(9,TickCheckBallBoundaries);
    0000068C 11r00r00         [10] 1688 	ld	de, #_TickCheckBallBoundaries
    0000068F 3E 09            [ 7] 1689 	ld	a, #0x09
    00000691 CDr00r00         [17] 1690 	call	_CallFnc_VOID
                                   1691 ;E:\Dropbox\FAUSTO\SVILUPPI\MSX\CODE\C\MSXgl\projects\soccerlgSCC/soccerlg_s4_b3.c:376: AiTickSpeed++;
    00000694 DD 34 FF         [23] 1692 	inc	-1 (ix)
                                   1693 ;E:\Dropbox\FAUSTO\SVILUPPI\MSX\CODE\C\MSXgl\projects\soccerlgSCC/soccerlg_s4_b3.c:378: if (g_ActionCooldown > 0) {
    00000697 3Ar00r00         [13] 1694 	ld	a, (_g_ActionCooldown+0)
    0000069A B7               [ 4] 1695 	or	a, a
    0000069B 28 07            [12] 1696 	jr	Z, 00166$
                                   1697 ;E:\Dropbox\FAUSTO\SVILUPPI\MSX\CODE\C\MSXgl\projects\soccerlgSCC/soccerlg_s4_b3.c:379: g_ActionCooldown--;
    0000069D 21r00r00         [10] 1698 	ld	hl, #_g_ActionCooldown
    000006A0 35               [11] 1699 	dec	(hl)
    000006A1 C3rFCr06         [10] 1700 	jp	00167$
    000006A4                       1701 00166$:
                                   1702 ;E:\Dropbox\FAUSTO\SVILUPPI\MSX\CODE\C\MSXgl\projects\soccerlgSCC/soccerlg_s4_b3.c:382: if (g_Team1ActivePlayer != NO_VALUE && g_Players[g_Team1ActivePlayer].Status == PLAYER_STATUS_POSITIONED) 
    000006A4 3Ar00r00         [13] 1703 	ld	a, (_g_Team1ActivePlayer+0)
    000006A7 3C               [ 4] 1704 	inc	a
    000006A8 28 23            [12] 1705 	jr	Z, 00159$
    000006AA 01r00r00         [10] 1706 	ld	bc, #_g_Players+0
    000006AD ED 5Br00r00      [20] 1707 	ld	de, (_g_Team1ActivePlayer)
    000006B1 16 00            [ 7] 1708 	ld	d, #0x00
    000006B3 6B               [ 4] 1709 	ld	l, e
    000006B4 62               [ 4] 1710 	ld	h, d
    000006B5 29               [11] 1711 	add	hl, hl
    000006B6 29               [11] 1712 	add	hl, hl
    000006B7 19               [11] 1713 	add	hl, de
    000006B8 29               [11] 1714 	add	hl, hl
    000006B9 29               [11] 1715 	add	hl, hl
    000006BA 19               [11] 1716 	add	hl, de
    000006BB 09               [11] 1717 	add	hl, bc
    000006BC 01 12 00         [10] 1718 	ld	bc, #0x0012
    000006BF 09               [11] 1719 	add	hl, bc
    000006C0 4E               [ 7] 1720 	ld	c, (hl)
    000006C1 23               [ 6] 1721 	inc	hl
    000006C2 46               [ 7] 1722 	ld	b, (hl)
    000006C3 2B               [ 6] 1723 	dec	hl
    000006C4 79               [ 4] 1724 	ld	a, c
    000006C5 D6 04            [ 7] 1725 	sub	a, #0x04
                                   1726 ;E:\Dropbox\FAUSTO\SVILUPPI\MSX\CODE\C\MSXgl\projects\soccerlgSCC/soccerlg_s4_b3.c:383: g_Players[g_Team1ActivePlayer].Status = PLAYER_STATUS_NONE;
    000006C7 B0               [ 4] 1727 	or	a,b
    000006C8 20 03            [12] 1728 	jr	NZ, 00159$
    000006CA 77               [ 7] 1729 	ld	(hl), a
    000006CB 23               [ 6] 1730 	inc	hl
    000006CC 77               [ 7] 1731 	ld	(hl), a
    000006CD                       1732 00159$:
                                   1733 ;E:\Dropbox\FAUSTO\SVILUPPI\MSX\CODE\C\MSXgl\projects\soccerlgSCC/soccerlg_s4_b3.c:384: if (g_GameWith2Players && g_Team2ActivePlayer != NO_VALUE && g_Players[g_Team2ActivePlayer].Status == PLAYER_STATUS_POSITIONED)
    000006CD 3Ar00r00         [13] 1734 	ld	a, (_g_GameWith2Players+0)
    000006D0 B7               [ 4] 1735 	or	a, a
    000006D1 28 29            [12] 1736 	jr	Z, 00167$
    000006D3 3Ar00r00         [13] 1737 	ld	a, (_g_Team2ActivePlayer+0)
    000006D6 3C               [ 4] 1738 	inc	a
    000006D7 28 23            [12] 1739 	jr	Z, 00167$
    000006D9 01r00r00         [10] 1740 	ld	bc, #_g_Players+0
    000006DC ED 5Br00r00      [20] 1741 	ld	de, (_g_Team2ActivePlayer)
    000006E0 16 00            [ 7] 1742 	ld	d, #0x00
    000006E2 6B               [ 4] 1743 	ld	l, e
    000006E3 62               [ 4] 1744 	ld	h, d
    000006E4 29               [11] 1745 	add	hl, hl
    000006E5 29               [11] 1746 	add	hl, hl
    000006E6 19               [11] 1747 	add	hl, de
    000006E7 29               [11] 1748 	add	hl, hl
    000006E8 29               [11] 1749 	add	hl, hl
    000006E9 19               [11] 1750 	add	hl, de
    000006EA 09               [11] 1751 	add	hl, bc
    000006EB 01 12 00         [10] 1752 	ld	bc, #0x0012
    000006EE 09               [11] 1753 	add	hl, bc
    000006EF 4E               [ 7] 1754 	ld	c, (hl)
    000006F0 23               [ 6] 1755 	inc	hl
    000006F1 46               [ 7] 1756 	ld	b, (hl)
    000006F2 2B               [ 6] 1757 	dec	hl
    000006F3 79               [ 4] 1758 	ld	a, c
    000006F4 D6 04            [ 7] 1759 	sub	a, #0x04
                                   1760 ;E:\Dropbox\FAUSTO\SVILUPPI\MSX\CODE\C\MSXgl\projects\soccerlgSCC/soccerlg_s4_b3.c:385: g_Players[g_Team2ActivePlayer].Status = PLAYER_STATUS_NONE;
    000006F6 B0               [ 4] 1761 	or	a,b
    000006F7 20 03            [12] 1762 	jr	NZ, 00167$
    000006F9 77               [ 7] 1763 	ld	(hl), a
    000006FA 23               [ 6] 1764 	inc	hl
    000006FB 77               [ 7] 1765 	ld	(hl), a
    000006FC                       1766 00167$:
                                   1767 ;E:\Dropbox\FAUSTO\SVILUPPI\MSX\CODE\C\MSXgl\projects\soccerlgSCC/soccerlg_s4_b3.c:388: if (g_ShootCooldown > 0) {
    000006FC 3Ar00r00         [13] 1768 	ld	a, (_g_ShootCooldown+0)
    000006FF B7               [ 4] 1769 	or	a, a
    00000700 CAr46r04         [10] 1770 	jp	Z, 00175$
                                   1771 ;E:\Dropbox\FAUSTO\SVILUPPI\MSX\CODE\C\MSXgl\projects\soccerlgSCC/soccerlg_s4_b3.c:389: g_ShootCooldown--;
    00000703 21r00r00         [10] 1772 	ld	hl, #_g_ShootCooldown
    00000706 35               [11] 1773 	dec	(hl)
                                   1774 ;E:\Dropbox\FAUSTO\SVILUPPI\MSX\CODE\C\MSXgl\projects\soccerlgSCC/soccerlg_s4_b3.c:392: }
    00000707 C3r46r04         [10] 1775 	jp	00175$
                                   1776 ;E:\Dropbox\FAUSTO\SVILUPPI\MSX\CODE\C\MSXgl\projects\soccerlgSCC/soccerlg_s4_b3.c:395: void TickShowKickOff(){
                                   1777 ;	---------------------------------
                                   1778 ; Function TickShowKickOff
                                   1779 ; ---------------------------------
    0000070A                       1780 _TickShowKickOff::
                                   1781 ;E:\Dropbox\FAUSTO\SVILUPPI\MSX\CODE\C\MSXgl\projects\soccerlgSCC/soccerlg_s4_b3.c:396: if(g_MatchStatus==MATCH_KICK_OFF){
    0000070A 3Ar00r00         [13] 1782 	ld	a, (_g_MatchStatus+0)
    0000070D D6 07            [ 7] 1783 	sub	a, #0x07
    0000070F C2r92r07         [10] 1784 	jp	NZ,00114$
                                   1785 ;E:\Dropbox\FAUSTO\SVILUPPI\MSX\CODE\C\MSXgl\projects\soccerlgSCC/soccerlg_s4_b3.c:397: V9990_PrintLayerAStringAtPos(12,18,"KICK OFF");
    00000712 21rC9r07         [10] 1786 	ld	hl, #___str_5
    00000715 E5               [11] 1787 	push	hl
    00000716 2E 12            [ 7] 1788 	ld	l, #0x12
                                   1789 ;	spillPairReg hl
                                   1790 ;	spillPairReg hl
    00000718 3E 0C            [ 7] 1791 	ld	a, #0x0c
    0000071A CDr00r00         [17] 1792 	call	_V9990_PrintLayerAStringAtPos
                                   1793 ;E:\Dropbox\FAUSTO\SVILUPPI\MSX\CODE\C\MSXgl\projects\soccerlgSCC/soccerlg_s4_b3.c:398: PlayPCM(PCM_REFEREER);
    0000071D 3E 05            [ 7] 1794 	ld	a, #0x05
    0000071F CDr00r00         [17] 1795 	call	_PlayPCM
                                   1796 ;E:\Dropbox\FAUSTO\SVILUPPI\MSX\CODE\C\MSXgl\projects\soccerlgSCC/soccerlg_s4_b3.c:399: PlayPCM(PCM_KICKOFF);
    00000722 3E 01            [ 7] 1797 	ld	a, #0x01
    00000724 CDr00r00         [17] 1798 	call	_PlayPCM
                                   1799 ;E:\Dropbox\FAUSTO\SVILUPPI\MSX\CODE\C\MSXgl\projects\soccerlgSCC/soccerlg_s4_b3.c:404: V9990_ClearTextFromLayerA(12,18,9);
    00000727 3E 09            [ 7] 1800 	ld	a, #0x09
    00000729 F5               [11] 1801 	push	af
    0000072A 33               [ 6] 1802 	inc	sp
    0000072B 2E 12            [ 7] 1803 	ld	l, #0x12
                                   1804 ;	spillPairReg hl
                                   1805 ;	spillPairReg hl
    0000072D 3E 0C            [ 7] 1806 	ld	a, #0x0c
    0000072F CDr00r00         [17] 1807 	call	_V9990_ClearTextFromLayerA
                                   1808 ;E:\Dropbox\FAUSTO\SVILUPPI\MSX\CODE\C\MSXgl\projects\soccerlgSCC/soccerlg_s4_b3.c:405: g_Timer=NO_VALUE;
    00000732 21r00r00         [10] 1809 	ld	hl, #_g_Timer
    00000735 36 FF            [10] 1810 	ld	(hl), #0xff
                                   1811 ;E:\Dropbox\FAUSTO\SVILUPPI\MSX\CODE\C\MSXgl\projects\soccerlgSCC/soccerlg_s4_b3.c:407: if(g_RestartKickTeamId==TEAM_1){
    00000737 3Ar00r00         [13] 1812 	ld	a, (_g_RestartKickTeamId+0)
    0000073A 3D               [ 4] 1813 	dec	a
    0000073B 20 0B            [12] 1814 	jr	NZ, 00102$
                                   1815 ;E:\Dropbox\FAUSTO\SVILUPPI\MSX\CODE\C\MSXgl\projects\soccerlgSCC/soccerlg_s4_b3.c:408: playerId=GetPlayerIdByRole(TEAM_1,PLAYER_ROLE_RIGHT_HALFFIELDER);
    0000073D 2E 04            [ 7] 1816 	ld	l, #0x04
                                   1817 ;	spillPairReg hl
                                   1818 ;	spillPairReg hl
    0000073F 3E 01            [ 7] 1819 	ld	a, #0x01
    00000741 CDr67r09         [17] 1820 	call	_GetPlayerIdByRole
    00000744 4F               [ 4] 1821 	ld	c, a
    00000745 C3r50r07         [10] 1822 	jp	00103$
    00000748                       1823 00102$:
                                   1824 ;E:\Dropbox\FAUSTO\SVILUPPI\MSX\CODE\C\MSXgl\projects\soccerlgSCC/soccerlg_s4_b3.c:411: playerId=GetPlayerIdByRole(TEAM_2,PLAYER_ROLE_LEFT_HALFFIELDER);
    00000748 2E 03            [ 7] 1825 	ld	l, #0x03
                                   1826 ;	spillPairReg hl
                                   1827 ;	spillPairReg hl
    0000074A 3E 02            [ 7] 1828 	ld	a, #0x02
    0000074C CDr67r09         [17] 1829 	call	_GetPlayerIdByRole
    0000074F 4F               [ 4] 1830 	ld	c, a
    00000750                       1831 00103$:
                                   1832 ;E:\Dropbox\FAUSTO\SVILUPPI\MSX\CODE\C\MSXgl\projects\soccerlgSCC/soccerlg_s4_b3.c:413: PutBallOnPlayerFeet(playerId);
    00000750 79               [ 4] 1833 	ld	a, c
    00000751 CDr23r0B         [17] 1834 	call	_PutBallOnPlayerFeet
                                   1835 ;E:\Dropbox\FAUSTO\SVILUPPI\MSX\CODE\C\MSXgl\projects\soccerlgSCC/soccerlg_s4_b3.c:416: if (g_RestartKickTeamId != TEAM_1) {
    00000754 3Ar00r00         [13] 1836 	ld	a, (_g_RestartKickTeamId+0)
    00000757 3D               [ 4] 1837 	dec	a
    00000758 28 0E            [12] 1838 	jr	Z, 00107$
                                   1839 ;E:\Dropbox\FAUSTO\SVILUPPI\MSX\CODE\C\MSXgl\projects\soccerlgSCC/soccerlg_s4_b3.c:417: u8 closest = GetClosestPlayerToBall(TEAM_1, NO_VALUE);
    0000075A 2E FF            [ 7] 1840 	ld	l, #0xff
                                   1841 ;	spillPairReg hl
                                   1842 ;	spillPairReg hl
    0000075C 3E 01            [ 7] 1843 	ld	a, #0x01
    0000075E CDrC2r09         [17] 1844 	call	_GetClosestPlayerToBall
                                   1845 ;E:\Dropbox\FAUSTO\SVILUPPI\MSX\CODE\C\MSXgl\projects\soccerlgSCC/soccerlg_s4_b3.c:418: if (closest != NO_VALUE) g_Team1ActivePlayer = closest;
    00000761 FE FF            [ 7] 1846 	cp	a, #0xff
    00000763 28 03            [12] 1847 	jr	Z, 00107$
    00000765 32r00r00         [13] 1848 	ld	(_g_Team1ActivePlayer+0), a
    00000768                       1849 00107$:
                                   1850 ;E:\Dropbox\FAUSTO\SVILUPPI\MSX\CODE\C\MSXgl\projects\soccerlgSCC/soccerlg_s4_b3.c:420: if (g_GameWith2Players && g_RestartKickTeamId != TEAM_2) {
    00000768 3Ar00r00         [13] 1851 	ld	a, (_g_GameWith2Players+0)
    0000076B B7               [ 4] 1852 	or	a, a
    0000076C 28 15            [12] 1853 	jr	Z, 00111$
    0000076E 3Ar00r00         [13] 1854 	ld	a, (_g_RestartKickTeamId+0)
    00000771 D6 02            [ 7] 1855 	sub	a, #0x02
    00000773 28 0E            [12] 1856 	jr	Z, 00111$
                                   1857 ;E:\Dropbox\FAUSTO\SVILUPPI\MSX\CODE\C\MSXgl\projects\soccerlgSCC/soccerlg_s4_b3.c:421: u8 closest = GetClosestPlayerToBall(TEAM_2, NO_VALUE);
    00000775 2E FF            [ 7] 1858 	ld	l, #0xff
                                   1859 ;	spillPairReg hl
                                   1860 ;	spillPairReg hl
    00000777 3E 02            [ 7] 1861 	ld	a, #0x02
    00000779 CDrC2r09         [17] 1862 	call	_GetClosestPlayerToBall
                                   1863 ;E:\Dropbox\FAUSTO\SVILUPPI\MSX\CODE\C\MSXgl\projects\soccerlgSCC/soccerlg_s4_b3.c:422: if (closest != NO_VALUE) g_Team2ActivePlayer = closest;
    0000077C FE FF            [ 7] 1864 	cp	a, #0xff
    0000077E 28 03            [12] 1865 	jr	Z, 00111$
    00000780 32r00r00         [13] 1866 	ld	(_g_Team2ActivePlayer+0), a
    00000783                       1867 00111$:
                                   1868 ;E:\Dropbox\FAUSTO\SVILUPPI\MSX\CODE\C\MSXgl\projects\soccerlgSCC/soccerlg_s4_b3.c:425: g_MatchStatus=MATCH_IN_ACTION;
    00000783 21r00r00         [10] 1869 	ld	hl, #_g_MatchStatus
    00000786 36 0C            [10] 1870 	ld	(hl), #0x0c
                                   1871 ;E:\Dropbox\FAUSTO\SVILUPPI\MSX\CODE\C\MSXgl\projects\soccerlgSCC/soccerlg_s4_b3.c:426: g_TimerActive=FALSE;
    00000788 21r00r00         [10] 1872 	ld	hl, #_g_TimerActive
    0000078B 36 00            [10] 1873 	ld	(hl), #0x00
                                   1874 ;E:\Dropbox\FAUSTO\SVILUPPI\MSX\CODE\C\MSXgl\projects\soccerlgSCC/soccerlg_s4_b3.c:427: PlayVGM(VGM_MATCH);
    0000078D 3E 02            [ 7] 1875 	ld	a, #0x02
    0000078F CDr00r00         [17] 1876 	call	_PlayVGM
    00000792                       1877 00114$:
                                   1878 ;E:\Dropbox\FAUSTO\SVILUPPI\MSX\CODE\C\MSXgl\projects\soccerlgSCC/soccerlg_s4_b3.c:430: if(g_MatchStatus==MATCH_BEFORE_OFFSIDE){
    00000792 3Ar00r00         [13] 1879 	ld	a, (_g_MatchStatus+0)
    00000795 D6 0E            [ 7] 1880 	sub	a, #0x0e
    00000797 C0               [11] 1881 	ret	NZ
                                   1882 ;E:\Dropbox\FAUSTO\SVILUPPI\MSX\CODE\C\MSXgl\projects\soccerlgSCC/soccerlg_s4_b3.c:431: if(g_Timer >= 2) { 
    00000798 3Ar00r00         [13] 1883 	ld	a, (_g_Timer+0)
    0000079B D6 02            [ 7] 1884 	sub	a, #0x02
    0000079D D8               [11] 1885 	ret	C
                                   1886 ;E:\Dropbox\FAUSTO\SVILUPPI\MSX\CODE\C\MSXgl\projects\soccerlgSCC/soccerlg_s4_b3.c:432: V9990_ClearTextFromLayerA(10,18,7);
    0000079E 3E 07            [ 7] 1887 	ld	a, #0x07
    000007A0 F5               [11] 1888 	push	af
    000007A1 33               [ 6] 1889 	inc	sp
    000007A2 2E 12            [ 7] 1890 	ld	l, #0x12
                                   1891 ;	spillPairReg hl
                                   1892 ;	spillPairReg hl
    000007A4 3E 0A            [ 7] 1893 	ld	a, #0x0a
    000007A6 CDr00r00         [17] 1894 	call	_V9990_ClearTextFromLayerA
                                   1895 ;E:\Dropbox\FAUSTO\SVILUPPI\MSX\CODE\C\MSXgl\projects\soccerlgSCC/soccerlg_s4_b3.c:433: g_Timer = NO_VALUE;
    000007A9 21r00r00         [10] 1896 	ld	hl, #_g_Timer
    000007AC 36 FF            [10] 1897 	ld	(hl), #0xff
                                   1898 ;E:\Dropbox\FAUSTO\SVILUPPI\MSX\CODE\C\MSXgl\projects\soccerlgSCC/soccerlg_s4_b3.c:435: u8 team = g_RestartKickTeamId; 
    000007AE 3Ar00r00         [13] 1899 	ld	a, (_g_RestartKickTeamId+0)
                                   1900 ;E:\Dropbox\FAUSTO\SVILUPPI\MSX\CODE\C\MSXgl\projects\soccerlgSCC/soccerlg_s4_b3.c:436: u8 newOwner = GetClosestPlayerToBall(team, NO_VALUE);
                                   1901 ;	spillPairReg hl
                                   1902 ;	spillPairReg hl
    000007B1 2E FF            [ 7] 1903 	ld	l, #0xff
    000007B3 CDrC2r09         [17] 1904 	call	_GetClosestPlayerToBall
                                   1905 ;E:\Dropbox\FAUSTO\SVILUPPI\MSX\CODE\C\MSXgl\projects\soccerlgSCC/soccerlg_s4_b3.c:437: if (newOwner != NO_VALUE) {
    000007B6 4F               [ 4] 1906 	ld	c, a
    000007B7 3C               [ 4] 1907 	inc	a
    000007B8 28 09            [12] 1908 	jr	Z, 00116$
                                   1909 ;E:\Dropbox\FAUSTO\SVILUPPI\MSX\CODE\C\MSXgl\projects\soccerlgSCC/soccerlg_s4_b3.c:438: PutBallOnPlayerFeet(newOwner);
    000007BA 79               [ 4] 1910 	ld	a, c
    000007BB CDr23r0B         [17] 1911 	call	_PutBallOnPlayerFeet
                                   1912 ;E:\Dropbox\FAUSTO\SVILUPPI\MSX\CODE\C\MSXgl\projects\soccerlgSCC/soccerlg_s4_b3.c:439: g_Ball.KickMoveState = NO_VALUE;
    000007BE 21r0Dr00         [10] 1913 	ld	hl, #(_g_Ball + 13)
    000007C1 36 FF            [10] 1914 	ld	(hl), #0xff
    000007C3                       1915 00116$:
                                   1916 ;E:\Dropbox\FAUSTO\SVILUPPI\MSX\CODE\C\MSXgl\projects\soccerlgSCC/soccerlg_s4_b3.c:442: g_MatchStatus = MATCH_IN_ACTION;
    000007C3 21r00r00         [10] 1917 	ld	hl, #_g_MatchStatus
    000007C6 36 0C            [10] 1918 	ld	(hl), #0x0c
                                   1919 ;E:\Dropbox\FAUSTO\SVILUPPI\MSX\CODE\C\MSXgl\projects\soccerlgSCC/soccerlg_s4_b3.c:445: }
    000007C8 C9               [10] 1920 	ret
    000007C9                       1921 ___str_5:
    000007C9 4B 49 43 4B 20 4F 46  1922 	.ascii "KICK OFF"
             46
    000007D1 00                    1923 	.db 0x00
                                   1924 ;E:\Dropbox\FAUSTO\SVILUPPI\MSX\CODE\C\MSXgl\projects\soccerlgSCC/soccerlg_s4_b3.c:448: void TickShotCursor() {
                                   1925 ;	---------------------------------
                                   1926 ; Function TickShotCursor
                                   1927 ; ---------------------------------
    000007D2                       1928 _TickShotCursor::
    000007D2 DD E5            [15] 1929 	push	ix
    000007D4 DD 21 00 00      [14] 1930 	ld	ix,#0
    000007D8 DD 39            [15] 1931 	add	ix,sp
    000007DA F5               [11] 1932 	push	af
    000007DB F5               [11] 1933 	push	af
                                   1934 ;E:\Dropbox\FAUSTO\SVILUPPI\MSX\CODE\C\MSXgl\projects\soccerlgSCC/soccerlg_s4_b3.c:450: g_ShotCursorX += g_ShotCursorDir;
    000007DC 3Ar00r00         [13] 1935 	ld	a, (_g_ShotCursorDir+0)
    000007DF 4F               [ 4] 1936 	ld	c, a
    000007E0 07               [ 4] 1937 	rlca
    000007E1 9F               [ 4] 1938 	sbc	a, a
    000007E2 47               [ 4] 1939 	ld	b, a
    000007E3 2Ar00r00         [16] 1940 	ld	hl, (_g_ShotCursorX)
    000007E6 09               [11] 1941 	add	hl, bc
    000007E7 22r00r00         [16] 1942 	ld	(_g_ShotCursorX), hl
                                   1943 ;E:\Dropbox\FAUSTO\SVILUPPI\MSX\CODE\C\MSXgl\projects\soccerlgSCC/soccerlg_s4_b3.c:451: if (g_ShotCursorX < (GOAL_X_MIN - 30)) {
    000007EA 11 42 00         [10] 1944 	ld	de, #0x0042
    000007ED 2Ar00r00         [16] 1945 	ld	hl, (_g_ShotCursorX)
    000007F0 BF               [ 4] 1946 	cp	a, a
    000007F1 ED 52            [15] 1947 	sbc	hl, de
    000007F3 30 0C            [12] 1948 	jr	NC, 00102$
                                   1949 ;E:\Dropbox\FAUSTO\SVILUPPI\MSX\CODE\C\MSXgl\projects\soccerlgSCC/soccerlg_s4_b3.c:452: g_ShotCursorX = (GOAL_X_MIN - 30);
    000007F5 21 42 00         [10] 1950 	ld	hl, #0x0042
    000007F8 22r00r00         [16] 1951 	ld	(_g_ShotCursorX), hl
                                   1952 ;E:\Dropbox\FAUSTO\SVILUPPI\MSX\CODE\C\MSXgl\projects\soccerlgSCC/soccerlg_s4_b3.c:453: g_ShotCursorDir = -g_ShotCursorDir;
    000007FB 21r00r00         [10] 1953 	ld	hl, #_g_ShotCursorDir
    000007FE AF               [ 4] 1954 	xor	a, a
    000007FF 96               [ 7] 1955 	sub	a, (hl)
    00000800 77               [ 7] 1956 	ld	(hl), a
    00000801                       1957 00102$:
                                   1958 ;E:\Dropbox\FAUSTO\SVILUPPI\MSX\CODE\C\MSXgl\projects\soccerlgSCC/soccerlg_s4_b3.c:455: if (g_ShotCursorX > (GOAL_X_MAX + 30)) {
    00000801 3E AE            [ 7] 1959 	ld	a, #0xae
    00000803 FD 21r00r00      [14] 1960 	ld	iy, #_g_ShotCursorX
    00000807 FD BE 00         [19] 1961 	cp	a, 0 (iy)
    0000080A 3E 00            [ 7] 1962 	ld	a, #0x00
    0000080C FD 9E 01         [19] 1963 	sbc	a, 1 (iy)
    0000080F 30 0C            [12] 1964 	jr	NC, 00104$
                                   1965 ;E:\Dropbox\FAUSTO\SVILUPPI\MSX\CODE\C\MSXgl\projects\soccerlgSCC/soccerlg_s4_b3.c:456: g_ShotCursorX = (GOAL_X_MAX + 30);
    00000811 21 AE 00         [10] 1966 	ld	hl, #0x00ae
    00000814 22r00r00         [16] 1967 	ld	(_g_ShotCursorX), hl
                                   1968 ;E:\Dropbox\FAUSTO\SVILUPPI\MSX\CODE\C\MSXgl\projects\soccerlgSCC/soccerlg_s4_b3.c:457: g_ShotCursorDir = -g_ShotCursorDir;
    00000817 21r00r00         [10] 1969 	ld	hl, #_g_ShotCursorDir
    0000081A AF               [ 4] 1970 	xor	a, a
    0000081B 96               [ 7] 1971 	sub	a, (hl)
    0000081C 77               [ 7] 1972 	ld	(hl), a
    0000081D                       1973 00104$:
                                   1974 ;E:\Dropbox\FAUSTO\SVILUPPI\MSX\CODE\C\MSXgl\projects\soccerlgSCC/soccerlg_s4_b3.c:461: bool show = false;
    0000081D 0E 00            [ 7] 1975 	ld	c, #0x00
                                   1976 ;E:\Dropbox\FAUSTO\SVILUPPI\MSX\CODE\C\MSXgl\projects\soccerlgSCC/soccerlg_s4_b3.c:462: if (g_MatchStatus == MATCH_IN_ACTION && g_ActiveFieldZone == FIELD_NORTH_ZONE) {
    0000081F 3Ar00r00         [13] 1977 	ld	a, (_g_MatchStatus+0)
    00000822 D6 0C            [ 7] 1978 	sub	a, #0x0c
    00000824 20 08            [12] 1979 	jr	NZ, 00106$
    00000826 3Ar00r00         [13] 1980 	ld	a, (_g_ActiveFieldZone+0)
    00000829 B7               [ 4] 1981 	or	a, a
    0000082A 20 02            [12] 1982 	jr	NZ, 00106$
                                   1983 ;E:\Dropbox\FAUSTO\SVILUPPI\MSX\CODE\C\MSXgl\projects\soccerlgSCC/soccerlg_s4_b3.c:463: show = true;
    0000082C 0E 01            [ 7] 1984 	ld	c, #0x01
    0000082E                       1985 00106$:
                                   1986 ;E:\Dropbox\FAUSTO\SVILUPPI\MSX\CODE\C\MSXgl\projects\soccerlgSCC/soccerlg_s4_b3.c:467: if (show) {
    0000082E 79               [ 4] 1987 	ld	a, c
    0000082F B7               [ 4] 1988 	or	a, a
    00000830 28 67            [12] 1989 	jr	Z, 00113$
                                   1990 ;E:\Dropbox\FAUSTO\SVILUPPI\MSX\CODE\C\MSXgl\projects\soccerlgSCC/soccerlg_s4_b3.c:469: int screenY = (FIELD_BOUND_Y_TOP + 14) - g_FieldCurrentYPosition;
    00000832 21r00r00         [10] 1991 	ld	hl, #_g_FieldCurrentYPosition
    00000835 3E 40            [ 7] 1992 	ld	a, #0x40
    00000837 96               [ 7] 1993 	sub	a, (hl)
    00000838 23               [ 6] 1994 	inc	hl
    00000839 4F               [ 4] 1995 	ld	c, a
    0000083A 9F               [ 4] 1996 	sbc	a, a
    0000083B 96               [ 7] 1997 	sub	a, (hl)
    0000083C 47               [ 4] 1998 	ld	b, a
                                   1999 ;E:\Dropbox\FAUSTO\SVILUPPI\MSX\CODE\C\MSXgl\projects\soccerlgSCC/soccerlg_s4_b3.c:472: if (screenY < -16 || screenY > 212) {
    0000083D 79               [ 4] 2000 	ld	a, c
    0000083E D6 F0            [ 7] 2001 	sub	a, #0xf0
    00000840 78               [ 4] 2002 	ld	a, b
    00000841 17               [ 4] 2003 	rla
    00000842 3F               [ 4] 2004 	ccf
    00000843 1F               [ 4] 2005 	rra
    00000844 DE 7F            [ 7] 2006 	sbc	a, #0x7f
    00000846 38 0E            [12] 2007 	jr	C, 00108$
    00000848 3E D4            [ 7] 2008 	ld	a, #0xd4
    0000084A B9               [ 4] 2009 	cp	a, c
    0000084B 3E 00            [ 7] 2010 	ld	a, #0x00
    0000084D 98               [ 4] 2011 	sbc	a, b
    0000084E E2r53r08         [10] 2012 	jp	PO, 00153$
    00000851 EE 80            [ 7] 2013 	xor	a, #0x80
    00000853                       2014 00153$:
    00000853 F2r5Dr08         [10] 2015 	jp	P, 00109$
    00000856                       2016 00108$:
                                   2017 ;E:\Dropbox\FAUSTO\SVILUPPI\MSX\CODE\C\MSXgl\projects\soccerlgSCC/soccerlg_s4_b3.c:473: attr.Y = 216; 
    00000856 DD 36 FC D8      [19] 2018 	ld	-4 (ix), #0xd8
    0000085A C3r60r08         [10] 2019 	jp	00110$
    0000085D                       2020 00109$:
                                   2021 ;E:\Dropbox\FAUSTO\SVILUPPI\MSX\CODE\C\MSXgl\projects\soccerlgSCC/soccerlg_s4_b3.c:475: attr.Y = (u8)screenY;
    0000085D DD 71 FC         [19] 2022 	ld	-4 (ix), c
    00000860                       2023 00110$:
                                   2024 ;E:\Dropbox\FAUSTO\SVILUPPI\MSX\CODE\C\MSXgl\projects\soccerlgSCC/soccerlg_s4_b3.c:478: attr.X = (u8)g_ShotCursorX;
    00000860 3Ar00r00         [13] 2025 	ld	a, (_g_ShotCursorX+0)
    00000863 4F               [ 4] 2026 	ld	c, a
    00000864 06 00            [ 7] 2027 	ld	b, #0x00
    00000866 21 02 00         [10] 2028 	ld	hl, #2
    00000869 39               [11] 2029 	add	hl, sp
    0000086A 71               [ 7] 2030 	ld	(hl), c
    0000086B 23               [ 6] 2031 	inc	hl
    0000086C 78               [ 4] 2032 	ld	a, b
    0000086D E6 03            [ 7] 2033 	and	a, #0x03
    0000086F 5F               [ 4] 2034 	ld	e,a
    00000870 7E               [ 7] 2035 	ld	a, (hl)
    00000871 E6 FC            [ 7] 2036 	and	a, #0xfc
    00000873 B3               [ 4] 2037 	or	a, e
    00000874 77               [ 7] 2038 	ld	(hl), a
                                   2039 ;E:\Dropbox\FAUSTO\SVILUPPI\MSX\CODE\C\MSXgl\projects\soccerlgSCC/soccerlg_s4_b3.c:479: attr.Pattern = SPRITE_UP_ARROW;
    00000875 DD 36 FD 75      [19] 2040 	ld	-3 (ix), #0x75
                                   2041 ;E:\Dropbox\FAUSTO\SVILUPPI\MSX\CODE\C\MSXgl\projects\soccerlgSCC/soccerlg_s4_b3.c:480: attr.P = 1; 
    00000879 21 03 00         [10] 2042 	ld	hl,#0x3
    0000087C 39               [11] 2043 	add	hl,sp
    0000087D CB EE            [15] 2044 	set	5, (hl)
                                   2045 ;E:\Dropbox\FAUSTO\SVILUPPI\MSX\CODE\C\MSXgl\projects\soccerlgSCC/soccerlg_s4_b3.c:481: attr.SC = 0; 
    0000087F 7E               [ 7] 2046 	ld	a, (hl)
    00000880 E6 3F            [ 7] 2047 	and	a, #0x3f
    00000882 77               [ 7] 2048 	ld	(hl), a
                                   2049 ;E:\Dropbox\FAUSTO\SVILUPPI\MSX\CODE\C\MSXgl\projects\soccerlgSCC/soccerlg_s4_b3.c:483: V9_SetSpriteP1(16, &attr);
                                   2050 ;E:/Dropbox/FAUSTO/SVILUPPI/MSX/CODE/C/MSXgl/engine/src/v9990.h:781: inline void V9_SetSpriteP1(u8 id, const V9_Sprite* attr) { V9_WriteVRAM(V9_P1_SPAT + (id * 4), (const u8*)attr, 4); }
                                   2051 ;E:/Dropbox/FAUSTO/SVILUPPI/MSX/CODE/C/MSXgl/engine/src/v9990.h:371: inline void V9_WriteVRAM(u32 addr, const u8* src, u16 count) { V9_SetWriteAddress(addr); V9_WriteVRAM_CurrentAddr(src, count); }
    00000883 11 40 FE         [10] 2052 	ld	de, #0xfe40
    00000886 21 03 00         [10] 2053 	ld	hl, #0x0003
    00000889 CDr00r00         [17] 2054 	call	_V9_SetWriteAddress
    0000088C 11 04 00         [10] 2055 	ld	de, #0x0004
    0000088F 21 00 00         [10] 2056 	ld	hl, #0
    00000892 39               [11] 2057 	add	hl, sp
    00000893 CDr00r00         [17] 2058 	call	_V9_WriteVRAM_CurrentAddr
                                   2059 ;E:\Dropbox\FAUSTO\SVILUPPI\MSX\CODE\C\MSXgl\projects\soccerlgSCC/soccerlg_s4_b3.c:483: V9_SetSpriteP1(16, &attr);
    00000896 C3rB0r08         [10] 2060 	jp	00119$
    00000899                       2061 00113$:
                                   2062 ;E:\Dropbox\FAUSTO\SVILUPPI\MSX\CODE\C\MSXgl\projects\soccerlgSCC/soccerlg_s4_b3.c:486: attr.Y = 216;
    00000899 DD 36 FC D8      [19] 2063 	ld	-4 (ix), #0xd8
                                   2064 ;E:\Dropbox\FAUSTO\SVILUPPI\MSX\CODE\C\MSXgl\projects\soccerlgSCC/soccerlg_s4_b3.c:487: V9_SetSpriteP1(16, &attr);
                                   2065 ;E:/Dropbox/FAUSTO/SVILUPPI/MSX/CODE/C/MSXgl/engine/src/v9990.h:781: inline void V9_SetSpriteP1(u8 id, const V9_Sprite* attr) { V9_WriteVRAM(V9_P1_SPAT + (id * 4), (const u8*)attr, 4); }
                                   2066 ;E:/Dropbox/FAUSTO/SVILUPPI/MSX/CODE/C/MSXgl/engine/src/v9990.h:371: inline void V9_WriteVRAM(u32 addr, const u8* src, u16 count) { V9_SetWriteAddress(addr); V9_WriteVRAM_CurrentAddr(src, count); }
    0000089D 11 40 FE         [10] 2067 	ld	de, #0xfe40
    000008A0 21 03 00         [10] 2068 	ld	hl, #0x0003
    000008A3 CDr00r00         [17] 2069 	call	_V9_SetWriteAddress
    000008A6 11 04 00         [10] 2070 	ld	de, #0x0004
    000008A9 21 00 00         [10] 2071 	ld	hl, #0
    000008AC 39               [11] 2072 	add	hl, sp
    000008AD CDr00r00         [17] 2073 	call	_V9_WriteVRAM_CurrentAddr
                                   2074 ;E:\Dropbox\FAUSTO\SVILUPPI\MSX\CODE\C\MSXgl\projects\soccerlgSCC/soccerlg_s4_b3.c:487: V9_SetSpriteP1(16, &attr);
    000008B0                       2075 00119$:
                                   2076 ;E:\Dropbox\FAUSTO\SVILUPPI\MSX\CODE\C\MSXgl\projects\soccerlgSCC/soccerlg_s4_b3.c:489: }
    000008B0 DD F9            [10] 2077 	ld	sp, ix
    000008B2 DD E1            [14] 2078 	pop	ix
    000008B4 C9               [10] 2079 	ret
                                   2080 ;E:\Dropbox\FAUSTO\SVILUPPI\MSX\CODE\C\MSXgl\projects\soccerlgSCC/soccerlg_s4_b3.c:492: void EnforcePenaltyBoxRestriction() {
                                   2081 ;	---------------------------------
                                   2082 ; Function EnforcePenaltyBoxRestriction
                                   2083 ; ---------------------------------
    000008B5                       2084 _EnforcePenaltyBoxRestriction::
    000008B5 DD E5            [15] 2085 	push	ix
    000008B7 DD 21 00 00      [14] 2086 	ld	ix,#0
    000008BB DD 39            [15] 2087 	add	ix,sp
    000008BD F5               [11] 2088 	push	af
    000008BE 3B               [ 6] 2089 	dec	sp
                                   2090 ;E:\Dropbox\FAUSTO\SVILUPPI\MSX\CODE\C\MSXgl\projects\soccerlgSCC/soccerlg_s4_b3.c:493: if (g_MatchStatus != MATCH_BALL_ON_GOALKEEPER) {
    000008BF 3Ar00r00         [13] 2091 	ld	a, (_g_MatchStatus+0)
    000008C2 D6 0D            [ 7] 2092 	sub	a, #0x0d
                                   2093 ;E:\Dropbox\FAUSTO\SVILUPPI\MSX\CODE\C\MSXgl\projects\soccerlgSCC/soccerlg_s4_b3.c:494: return;
    000008C4 C2r62r09         [10] 2094 	jp	NZ,00119$
                                   2095 ;E:\Dropbox\FAUSTO\SVILUPPI\MSX\CODE\C\MSXgl\projects\soccerlgSCC/soccerlg_s4_b3.c:497: u8 gkOwnerId = g_Ball.PossessionPlayerId;
    000008C7 21r06r00         [10] 2096 	ld	hl, #_g_Ball+6
    000008CA 4E               [ 7] 2097 	ld	c, (hl)
                                   2098 ;E:\Dropbox\FAUSTO\SVILUPPI\MSX\CODE\C\MSXgl\projects\soccerlgSCC/soccerlg_s4_b3.c:499: if (gkOwnerId == NO_VALUE || g_Players[gkOwnerId].Role != PLAYER_ROLE_GOALKEEPER) {
    000008CB 79               [ 4] 2099 	ld	a, c
    000008CC 3C               [ 4] 2100 	inc	a
    000008CD CAr62r09         [10] 2101 	jp	Z,00119$
    000008D0 06 00            [ 7] 2102 	ld	b, #0x00
    000008D2 69               [ 4] 2103 	ld	l, c
    000008D3 60               [ 4] 2104 	ld	h, b
    000008D4 29               [11] 2105 	add	hl, hl
    000008D5 29               [11] 2106 	add	hl, hl
    000008D6 09               [11] 2107 	add	hl, bc
    000008D7 29               [11] 2108 	add	hl, hl
    000008D8 29               [11] 2109 	add	hl, hl
    000008D9 09               [11] 2110 	add	hl, bc
    000008DA EB               [ 4] 2111 	ex	de, hl
    000008DB 21r00r00         [10] 2112 	ld	hl, #_g_Players
    000008DE 19               [11] 2113 	add	hl, de
    000008DF EB               [ 4] 2114 	ex	de, hl
    000008E0 D5               [11] 2115 	push	de
    000008E1 FD E1            [14] 2116 	pop	iy
    000008E3 FD 7E 0D         [19] 2117 	ld	a, 13 (iy)
    000008E6 B7               [ 4] 2118 	or	a, a
                                   2119 ;E:\Dropbox\FAUSTO\SVILUPPI\MSX\CODE\C\MSXgl\projects\soccerlgSCC/soccerlg_s4_b3.c:500: return;
    000008E7 20 79            [12] 2120 	jr	NZ, 00119$
                                   2121 ;E:\Dropbox\FAUSTO\SVILUPPI\MSX\CODE\C\MSXgl\projects\soccerlgSCC/soccerlg_s4_b3.c:503: u8 gkTeamId = g_Players[gkOwnerId].TeamId;
    000008E9 21 09 00         [10] 2122 	ld	hl, #9
    000008EC 19               [11] 2123 	add	hl, de
    000008ED 7E               [ 7] 2124 	ld	a, (hl)
                                   2125 ;E:\Dropbox\FAUSTO\SVILUPPI\MSX\CODE\C\MSXgl\projects\soccerlgSCC/soccerlg_s4_b3.c:506: for (u8 i = 0; i < 14; i++) { 
    000008EE 3D               [ 4] 2126 	dec	a
    000008EF 3E 01            [ 7] 2127 	ld	a, #0x01
    000008F1 28 01            [12] 2128 	jr	Z, 00165$
    000008F3 AF               [ 4] 2129 	xor	a, a
    000008F4                       2130 00165$:
    000008F4 DD 77 FD         [19] 2131 	ld	-3 (ix), a
    000008F7 06 00            [ 7] 2132 	ld	b, #0x00
    000008F9                       2133 00118$:
    000008F9 78               [ 4] 2134 	ld	a, b
    000008FA D6 0E            [ 7] 2135 	sub	a, #0x0e
    000008FC 30 64            [12] 2136 	jr	NC, 00119$
                                   2137 ;E:\Dropbox\FAUSTO\SVILUPPI\MSX\CODE\C\MSXgl\projects\soccerlgSCC/soccerlg_s4_b3.c:507: if (i == gkOwnerId) continue; // Skip the GK himself
    000008FE 79               [ 4] 2138 	ld	a, c
    000008FF 90               [ 4] 2139 	sub	a, b
    00000900 28 5C            [12] 2140 	jr	Z, 00115$
                                   2141 ;E:\Dropbox\FAUSTO\SVILUPPI\MSX\CODE\C\MSXgl\projects\soccerlgSCC/soccerlg_s4_b3.c:510: if (g_Players[i].TargetY > PENALTY_BOX_Y_BOTTOM) {
    00000902 58               [ 4] 2142 	ld	e, b
    00000903 16 00            [ 7] 2143 	ld	d, #0x00
    00000905 6B               [ 4] 2144 	ld	l, e
    00000906 62               [ 4] 2145 	ld	h, d
    00000907 29               [11] 2146 	add	hl, hl
    00000908 29               [11] 2147 	add	hl, hl
    00000909 19               [11] 2148 	add	hl, de
    0000090A 29               [11] 2149 	add	hl, hl
    0000090B 29               [11] 2150 	add	hl, hl
    0000090C 19               [11] 2151 	add	hl, de
    0000090D 11r00r00         [10] 2152 	ld	de, #_g_Players
    00000910 19               [11] 2153 	add	hl, de
    00000911 DD 75 FE         [19] 2154 	ld	-2 (ix), l
    00000914 DD 74 FF         [19] 2155 	ld	-1 (ix), h
    00000917 11 0E 00         [10] 2156 	ld	de, #0x000e
    0000091A 19               [11] 2157 	add	hl, de
    0000091B 5E               [ 7] 2158 	ld	e, (hl)
    0000091C 23               [ 6] 2159 	inc	hl
    0000091D 56               [ 7] 2160 	ld	d, (hl)
    0000091E 2B               [ 6] 2161 	dec	hl
                                   2162 ;E:\Dropbox\FAUSTO\SVILUPPI\MSX\CODE\C\MSXgl\projects\soccerlgSCC/soccerlg_s4_b3.c:509: if (gkTeamId == TEAM_1) { // Bottom GK has ball, players can't be in y > PENALTY_BOX_Y_BOTTOM
    0000091F DD 7E FD         [19] 2163 	ld	a, -3 (ix)
    00000922 B7               [ 4] 2164 	or	a, a
    00000923 28 1E            [12] 2165 	jr	Z, 00113$
                                   2166 ;E:\Dropbox\FAUSTO\SVILUPPI\MSX\CODE\C\MSXgl\projects\soccerlgSCC/soccerlg_s4_b3.c:510: if (g_Players[i].TargetY > PENALTY_BOX_Y_BOTTOM) {
    00000925 3E 5E            [ 7] 2167 	ld	a, #0x5e
    00000927 BB               [ 4] 2168 	cp	a, e
    00000928 3E 01            [ 7] 2169 	ld	a, #0x01
    0000092A 9A               [ 4] 2170 	sbc	a, d
    0000092B 30 31            [12] 2171 	jr	NC, 00115$
                                   2172 ;E:\Dropbox\FAUSTO\SVILUPPI\MSX\CODE\C\MSXgl\projects\soccerlgSCC/soccerlg_s4_b3.c:511: g_Players[i].TargetY = PENALTY_BOX_Y_BOTTOM;
    0000092D 36 5E            [10] 2173 	ld	(hl), #0x5e
    0000092F 23               [ 6] 2174 	inc	hl
    00000930 36 01            [10] 2175 	ld	(hl), #0x01
                                   2176 ;E:\Dropbox\FAUSTO\SVILUPPI\MSX\CODE\C\MSXgl\projects\soccerlgSCC/soccerlg_s4_b3.c:512: g_Players[i].Status = PLAYER_STATUS_NONE;
    00000932 DD 6E FE         [19] 2177 	ld	l, -2 (ix)
    00000935 DD 66 FF         [19] 2178 	ld	h, -1 (ix)
    00000938 11 12 00         [10] 2179 	ld	de, #0x0012
    0000093B 19               [11] 2180 	add	hl, de
    0000093C AF               [ 4] 2181 	xor	a, a
    0000093D 77               [ 7] 2182 	ld	(hl), a
    0000093E 23               [ 6] 2183 	inc	hl
    0000093F 77               [ 7] 2184 	ld	(hl), a
    00000940 C3r5Er09         [10] 2185 	jp	00115$
    00000943                       2186 00113$:
                                   2187 ;E:\Dropbox\FAUSTO\SVILUPPI\MSX\CODE\C\MSXgl\projects\soccerlgSCC/soccerlg_s4_b3.c:515: if (g_Players[i].TargetY < PENALTY_BOX_Y_TOP) {
    00000943 7B               [ 4] 2188 	ld	a, e
    00000944 D6 82            [ 7] 2189 	sub	a, #0x82
    00000946 7A               [ 4] 2190 	ld	a, d
    00000947 DE 00            [ 7] 2191 	sbc	a, #0x00
    00000949 30 13            [12] 2192 	jr	NC, 00115$
                                   2193 ;E:\Dropbox\FAUSTO\SVILUPPI\MSX\CODE\C\MSXgl\projects\soccerlgSCC/soccerlg_s4_b3.c:516: g_Players[i].TargetY = PENALTY_BOX_Y_TOP;
    0000094B 36 82            [10] 2194 	ld	(hl), #0x82
    0000094D 23               [ 6] 2195 	inc	hl
    0000094E 36 00            [10] 2196 	ld	(hl), #0x00
                                   2197 ;E:\Dropbox\FAUSTO\SVILUPPI\MSX\CODE\C\MSXgl\projects\soccerlgSCC/soccerlg_s4_b3.c:517: g_Players[i].Status = PLAYER_STATUS_NONE;
    00000950 DD 6E FE         [19] 2198 	ld	l, -2 (ix)
    00000953 DD 66 FF         [19] 2199 	ld	h, -1 (ix)
    00000956 11 12 00         [10] 2200 	ld	de, #0x0012
    00000959 19               [11] 2201 	add	hl, de
    0000095A AF               [ 4] 2202 	xor	a, a
    0000095B 77               [ 7] 2203 	ld	(hl), a
    0000095C 23               [ 6] 2204 	inc	hl
    0000095D 77               [ 7] 2205 	ld	(hl), a
    0000095E                       2206 00115$:
                                   2207 ;E:\Dropbox\FAUSTO\SVILUPPI\MSX\CODE\C\MSXgl\projects\soccerlgSCC/soccerlg_s4_b3.c:506: for (u8 i = 0; i < 14; i++) { 
    0000095E 04               [ 4] 2208 	inc	b
    0000095F C3rF9r08         [10] 2209 	jp	00118$
    00000962                       2210 00119$:
                                   2211 ;E:\Dropbox\FAUSTO\SVILUPPI\MSX\CODE\C\MSXgl\projects\soccerlgSCC/soccerlg_s4_b3.c:521: }
    00000962 DD F9            [10] 2212 	ld	sp, ix
    00000964 DD E1            [14] 2213 	pop	ix
    00000966 C9               [10] 2214 	ret
                                   2215 ;E:\Dropbox\FAUSTO\SVILUPPI\MSX\CODE\C\MSXgl\projects\soccerlgSCC/soccerlg_s4_b3.c:524: u8 GetPlayerIdByRole(u8 teamId, u8 role){
                                   2216 ;	---------------------------------
                                   2217 ; Function GetPlayerIdByRole
                                   2218 ; ---------------------------------
    00000967                       2219 _GetPlayerIdByRole::
    00000967 DD E5            [15] 2220 	push	ix
    00000969 DD 21 00 00      [14] 2221 	ld	ix,#0
    0000096D DD 39            [15] 2222 	add	ix,sp
    0000096F F5               [11] 2223 	push	af
    00000970 3B               [ 6] 2224 	dec	sp
    00000971 4F               [ 4] 2225 	ld	c, a
    00000972 DD 75 FF         [19] 2226 	ld	-1 (ix), l
                                   2227 ;E:\Dropbox\FAUSTO\SVILUPPI\MSX\CODE\C\MSXgl\projects\soccerlgSCC/soccerlg_s4_b3.c:525: u8 playerId=NO_VALUE;
    00000975 DD 36 FD FF      [19] 2228 	ld	-3 (ix), #0xff
                                   2229 ;E:\Dropbox\FAUSTO\SVILUPPI\MSX\CODE\C\MSXgl\projects\soccerlgSCC/soccerlg_s4_b3.c:526: for(u8 i=0;i<14;i++){
    00000979 DD 36 FE 00      [19] 2230 	ld	-2 (ix), #0x00
    0000097D 06 00            [ 7] 2231 	ld	b, #0x00
    0000097F                       2232 00106$:
    0000097F 78               [ 4] 2233 	ld	a, b
    00000980 D6 0E            [ 7] 2234 	sub	a, #0x0e
    00000982 30 36            [12] 2235 	jr	NC, 00104$
                                   2236 ;E:\Dropbox\FAUSTO\SVILUPPI\MSX\CODE\C\MSXgl\projects\soccerlgSCC/soccerlg_s4_b3.c:527: if(g_Players[i].Role==role && g_Players[i].TeamId==teamId){
    00000984 58               [ 4] 2237 	ld	e, b
    00000985 16 00            [ 7] 2238 	ld	d, #0x00
    00000987 6B               [ 4] 2239 	ld	l, e
    00000988 62               [ 4] 2240 	ld	h, d
    00000989 29               [11] 2241 	add	hl, hl
    0000098A 29               [11] 2242 	add	hl, hl
    0000098B 19               [11] 2243 	add	hl, de
    0000098C 29               [11] 2244 	add	hl, hl
    0000098D 29               [11] 2245 	add	hl, hl
    0000098E 19               [11] 2246 	add	hl, de
    0000098F 11r00r00         [10] 2247 	ld	de, #_g_Players
    00000992 19               [11] 2248 	add	hl, de
                                   2249 ;	spillPairReg hl
                                   2250 ;	spillPairReg hl
    00000993 5D               [ 4] 2251 	ld	e, l
    00000994 54               [ 4] 2252 	ld	d, h
                                   2253 ;	spillPairReg hl
                                   2254 ;	spillPairReg hl
    00000995 C5               [11] 2255 	push	bc
    00000996 01 0D 00         [10] 2256 	ld	bc, #0x000d
    00000999 09               [11] 2257 	add	hl, bc
    0000099A C1               [10] 2258 	pop	bc
                                   2259 ;	spillPairReg hl
    0000099B DD 7E FF         [19] 2260 	ld	a,-1 (ix)
    0000099E 96               [ 7] 2261 	sub	a,(hl)
    0000099F 20 12            [12] 2262 	jr	NZ, 00107$
    000009A1 21 09 00         [10] 2263 	ld	hl, #9
    000009A4 19               [11] 2264 	add	hl, de
    000009A5 5E               [ 7] 2265 	ld	e, (hl)
    000009A6 79               [ 4] 2266 	ld	a, c
    000009A7 93               [ 4] 2267 	sub	a, e
    000009A8 20 09            [12] 2268 	jr	NZ, 00107$
                                   2269 ;E:\Dropbox\FAUSTO\SVILUPPI\MSX\CODE\C\MSXgl\projects\soccerlgSCC/soccerlg_s4_b3.c:528: playerId=i;
    000009AA DD 7E FE         [19] 2270 	ld	a, -2 (ix)
    000009AD DD 77 FD         [19] 2271 	ld	-3 (ix), a
                                   2272 ;E:\Dropbox\FAUSTO\SVILUPPI\MSX\CODE\C\MSXgl\projects\soccerlgSCC/soccerlg_s4_b3.c:529: break;
    000009B0 C3rBAr09         [10] 2273 	jp	00104$
    000009B3                       2274 00107$:
                                   2275 ;E:\Dropbox\FAUSTO\SVILUPPI\MSX\CODE\C\MSXgl\projects\soccerlgSCC/soccerlg_s4_b3.c:526: for(u8 i=0;i<14;i++){
    000009B3 04               [ 4] 2276 	inc	b
    000009B4 DD 70 FE         [19] 2277 	ld	-2 (ix), b
    000009B7 C3r7Fr09         [10] 2278 	jp	00106$
    000009BA                       2279 00104$:
                                   2280 ;E:\Dropbox\FAUSTO\SVILUPPI\MSX\CODE\C\MSXgl\projects\soccerlgSCC/soccerlg_s4_b3.c:532: return playerId;
    000009BA DD 7E FD         [19] 2281 	ld	a, -3 (ix)
                                   2282 ;E:\Dropbox\FAUSTO\SVILUPPI\MSX\CODE\C\MSXgl\projects\soccerlgSCC/soccerlg_s4_b3.c:533: }
    000009BD DD F9            [10] 2283 	ld	sp, ix
    000009BF DD E1            [14] 2284 	pop	ix
    000009C1 C9               [10] 2285 	ret
                                   2286 ;E:\Dropbox\FAUSTO\SVILUPPI\MSX\CODE\C\MSXgl\projects\soccerlgSCC/soccerlg_s4_b3.c:536: u8 GetClosestPlayerToBall(u8 teamId, u8 excludePlayerId){
                                   2287 ;	---------------------------------
                                   2288 ; Function GetClosestPlayerToBall
                                   2289 ; ---------------------------------
    000009C2                       2290 _GetClosestPlayerToBall::
    000009C2 DD E5            [15] 2291 	push	ix
    000009C4 DD 21 00 00      [14] 2292 	ld	ix,#0
    000009C8 DD 39            [15] 2293 	add	ix,sp
    000009CA FD 21 F2 FF      [14] 2294 	ld	iy, #-14
    000009CE FD 39            [15] 2295 	add	iy, sp
    000009D0 FD F9            [10] 2296 	ld	sp, iy
    000009D2 DD 77 FE         [19] 2297 	ld	-2 (ix), a
    000009D5 DD 75 FD         [19] 2298 	ld	-3 (ix), l
                                   2299 ;E:\Dropbox\FAUSTO\SVILUPPI\MSX\CODE\C\MSXgl\projects\soccerlgSCC/soccerlg_s4_b3.c:537: u8 closestId = NO_VALUE;
    000009D8 DD 36 F4 FF      [19] 2300 	ld	-12 (ix), #0xff
                                   2301 ;E:\Dropbox\FAUSTO\SVILUPPI\MSX\CODE\C\MSXgl\projects\soccerlgSCC/soccerlg_s4_b3.c:538: u16 minDist = 0xFFFF;
    000009DC DD 36 F5 FF      [19] 2302 	ld	-11 (ix), #0xff
    000009E0 DD 36 F6 FF      [19] 2303 	ld	-10 (ix), #0xff
                                   2304 ;E:\Dropbox\FAUSTO\SVILUPPI\MSX\CODE\C\MSXgl\projects\soccerlgSCC/soccerlg_s4_b3.c:540: for(u8 i=0;i<14;i++){
    000009E4 21r02r00         [10] 2305 	ld	hl, #_g_Ball + 2
    000009E7 7E               [ 7] 2306 	ld	a, (hl)
    000009E8 DD 77 F7         [19] 2307 	ld	-9 (ix), a
    000009EB 23               [ 6] 2308 	inc	hl
    000009EC 7E               [ 7] 2309 	ld	a, (hl)
    000009ED DD 77 F8         [19] 2310 	ld	-8 (ix), a
    000009F0 DD 36 FF 00      [19] 2311 	ld	-1 (ix), #0x00
    000009F4                       2312 00110$:
    000009F4 DD 7E FF         [19] 2313 	ld	a, -1 (ix)
    000009F7 D6 0E            [ 7] 2314 	sub	a, #0x0e
    000009F9 D2rDDr0A         [10] 2315 	jp	NC, 00108$
                                   2316 ;E:\Dropbox\FAUSTO\SVILUPPI\MSX\CODE\C\MSXgl\projects\soccerlgSCC/soccerlg_s4_b3.c:541: if(g_Players[i].TeamId != teamId) continue;
    000009FC DD 4E FF         [19] 2317 	ld	c, -1 (ix)
    000009FF 06 00            [ 7] 2318 	ld	b, #0x00
    00000A01 69               [ 4] 2319 	ld	l, c
    00000A02 60               [ 4] 2320 	ld	h, b
    00000A03 29               [11] 2321 	add	hl, hl
    00000A04 29               [11] 2322 	add	hl, hl
    00000A05 09               [11] 2323 	add	hl, bc
    00000A06 29               [11] 2324 	add	hl, hl
    00000A07 29               [11] 2325 	add	hl, hl
    00000A08 09               [11] 2326 	add	hl, bc
    00000A09 DD 75 FB         [19] 2327 	ld	-5 (ix), l
    00000A0C DD 74 FC         [19] 2328 	ld	-4 (ix), h
    00000A0F DD 7E FB         [19] 2329 	ld	a, -5 (ix)
    00000A12 C6r00            [ 7] 2330 	add	a, #<(_g_Players)
    00000A14 DD 77 F9         [19] 2331 	ld	-7 (ix), a
    00000A17 DD 7E FC         [19] 2332 	ld	a, -4 (ix)
    00000A1A CEs00            [ 7] 2333 	adc	a, #>(_g_Players)
    00000A1C DD 77 FA         [19] 2334 	ld	-6 (ix), a
    00000A1F DD 7E F9         [19] 2335 	ld	a, -7 (ix)
    00000A22 DD 77 FB         [19] 2336 	ld	-5 (ix), a
    00000A25 DD 7E FA         [19] 2337 	ld	a, -6 (ix)
    00000A28 DD 77 FC         [19] 2338 	ld	-4 (ix), a
    00000A2B DD 6E FB         [19] 2339 	ld	l, -5 (ix)
    00000A2E DD 66 FC         [19] 2340 	ld	h, -4 (ix)
    00000A31 11 09 00         [10] 2341 	ld	de, #0x0009
    00000A34 19               [11] 2342 	add	hl, de
    00000A35 DD 7E FE         [19] 2343 	ld	a,-2 (ix)
    00000A38 96               [ 7] 2344 	sub	a,(hl)
    00000A39 C2rD7r0A         [10] 2345 	jp	NZ,00107$
                                   2346 ;E:\Dropbox\FAUSTO\SVILUPPI\MSX\CODE\C\MSXgl\projects\soccerlgSCC/soccerlg_s4_b3.c:542: if(i == excludePlayerId) continue;
    00000A3C DD 7E FD         [19] 2347 	ld	a, -3 (ix)
    00000A3F DD 96 FF         [19] 2348 	sub	a, -1 (ix)
    00000A42 CArD7r0A         [10] 2349 	jp	Z,00107$
                                   2350 ;E:\Dropbox\FAUSTO\SVILUPPI\MSX\CODE\C\MSXgl\projects\soccerlgSCC/soccerlg_s4_b3.c:544: u16 distX = (g_Players[i].X > g_Ball.X) ? (g_Players[i].X - g_Ball.X) : (g_Ball.X - g_Players[i].X);
    00000A45 DD 6E F9         [19] 2351 	ld	l, -7 (ix)
                                   2352 ;	spillPairReg hl
                                   2353 ;	spillPairReg hl
    00000A48 DD 66 FA         [19] 2354 	ld	h, -6 (ix)
                                   2355 ;	spillPairReg hl
                                   2356 ;	spillPairReg hl
    00000A4B 23               [ 6] 2357 	inc	hl
    00000A4C 23               [ 6] 2358 	inc	hl
    00000A4D 7E               [ 7] 2359 	ld	a, (hl)
    00000A4E DD 77 F2         [19] 2360 	ld	-14 (ix), a
    00000A51 23               [ 6] 2361 	inc	hl
    00000A52 7E               [ 7] 2362 	ld	a, (hl)
    00000A53 DD 77 F3         [19] 2363 	ld	-13 (ix), a
    00000A56 DD 7E F7         [19] 2364 	ld	a, -9 (ix)
    00000A59 DD 96 F2         [19] 2365 	sub	a, -14 (ix)
    00000A5C DD 7E F8         [19] 2366 	ld	a, -8 (ix)
    00000A5F DD 9E F3         [19] 2367 	sbc	a, -13 (ix)
    00000A62 30 15            [12] 2368 	jr	NC, 00113$
    00000A64 DD 7E F2         [19] 2369 	ld	a, -14 (ix)
    00000A67 DD 96 F7         [19] 2370 	sub	a, -9 (ix)
    00000A6A DD 77 FB         [19] 2371 	ld	-5 (ix), a
    00000A6D DD 7E F3         [19] 2372 	ld	a, -13 (ix)
    00000A70 DD 9E F8         [19] 2373 	sbc	a, -8 (ix)
    00000A73 DD 77 FC         [19] 2374 	ld	-4 (ix), a
    00000A76 C3r8Br0A         [10] 2375 	jp	00114$
    00000A79                       2376 00113$:
    00000A79 DD 7E F7         [19] 2377 	ld	a, -9 (ix)
    00000A7C DD 96 F2         [19] 2378 	sub	a, -14 (ix)
    00000A7F DD 77 FB         [19] 2379 	ld	-5 (ix), a
    00000A82 DD 7E F8         [19] 2380 	ld	a, -8 (ix)
    00000A85 DD 9E F3         [19] 2381 	sbc	a, -13 (ix)
    00000A88 DD 77 FC         [19] 2382 	ld	-4 (ix), a
    00000A8B                       2383 00114$:
                                   2384 ;E:\Dropbox\FAUSTO\SVILUPPI\MSX\CODE\C\MSXgl\projects\soccerlgSCC/soccerlg_s4_b3.c:545: u16 distY = (g_Players[i].Y > g_Ball.Y) ? (g_Players[i].Y - g_Ball.Y) : (g_Ball.Y - g_Players[i].Y);
    00000A8B DD 6E F9         [19] 2385 	ld	l, -7 (ix)
    00000A8E DD 66 FA         [19] 2386 	ld	h, -6 (ix)
    00000A91 4E               [ 7] 2387 	ld	c, (hl)
    00000A92 23               [ 6] 2388 	inc	hl
    00000A93 46               [ 7] 2389 	ld	b, (hl)
    00000A94 2Ar00r00         [16] 2390 	ld	hl, (#_g_Ball + 0)
    00000A97 7D               [ 4] 2391 	ld	a, l
    00000A98 91               [ 4] 2392 	sub	a, c
    00000A99 7C               [ 4] 2393 	ld	a, h
    00000A9A 98               [ 4] 2394 	sbc	a, b
    00000A9B 30 0D            [12] 2395 	jr	NC, 00115$
    00000A9D 79               [ 4] 2396 	ld	a, c
    00000A9E 95               [ 4] 2397 	sub	a, l
    00000A9F DD 77 F9         [19] 2398 	ld	-7 (ix), a
    00000AA2 78               [ 4] 2399 	ld	a, b
    00000AA3 9C               [ 4] 2400 	sbc	a, h
    00000AA4 DD 77 FA         [19] 2401 	ld	-6 (ix), a
    00000AA7 C3rB4r0A         [10] 2402 	jp	00116$
    00000AAA                       2403 00115$:
    00000AAA 7D               [ 4] 2404 	ld	a, l
    00000AAB 91               [ 4] 2405 	sub	a, c
    00000AAC DD 77 F9         [19] 2406 	ld	-7 (ix), a
    00000AAF 7C               [ 4] 2407 	ld	a, h
    00000AB0 98               [ 4] 2408 	sbc	a, b
    00000AB1 DD 77 FA         [19] 2409 	ld	-6 (ix), a
    00000AB4                       2410 00116$:
    00000AB4 DD 4E F9         [19] 2411 	ld	c, -7 (ix)
    00000AB7 DD 46 FA         [19] 2412 	ld	b, -6 (ix)
                                   2413 ;E:\Dropbox\FAUSTO\SVILUPPI\MSX\CODE\C\MSXgl\projects\soccerlgSCC/soccerlg_s4_b3.c:547: u16 totalDist = distX + distY;
    00000ABA DD 6E FB         [19] 2414 	ld	l, -5 (ix)
    00000ABD DD 66 FC         [19] 2415 	ld	h, -4 (ix)
    00000AC0 09               [11] 2416 	add	hl, bc
                                   2417 ;E:\Dropbox\FAUSTO\SVILUPPI\MSX\CODE\C\MSXgl\projects\soccerlgSCC/soccerlg_s4_b3.c:549: if(totalDist < minDist){
    00000AC1 7D               [ 4] 2418 	ld	a, l
    00000AC2 DD 96 F5         [19] 2419 	sub	a, -11 (ix)
    00000AC5 7C               [ 4] 2420 	ld	a, h
    00000AC6 DD 9E F6         [19] 2421 	sbc	a, -10 (ix)
    00000AC9 30 0C            [12] 2422 	jr	NC, 00107$
                                   2423 ;E:\Dropbox\FAUSTO\SVILUPPI\MSX\CODE\C\MSXgl\projects\soccerlgSCC/soccerlg_s4_b3.c:550: minDist = totalDist;
    00000ACB DD 75 F5         [19] 2424 	ld	-11 (ix), l
    00000ACE DD 74 F6         [19] 2425 	ld	-10 (ix), h
                                   2426 ;E:\Dropbox\FAUSTO\SVILUPPI\MSX\CODE\C\MSXgl\projects\soccerlgSCC/soccerlg_s4_b3.c:551: closestId = i;
    00000AD1 DD 7E FF         [19] 2427 	ld	a, -1 (ix)
    00000AD4 DD 77 F4         [19] 2428 	ld	-12 (ix), a
    00000AD7                       2429 00107$:
                                   2430 ;E:\Dropbox\FAUSTO\SVILUPPI\MSX\CODE\C\MSXgl\projects\soccerlgSCC/soccerlg_s4_b3.c:540: for(u8 i=0;i<14;i++){
    00000AD7 DD 34 FF         [23] 2431 	inc	-1 (ix)
    00000ADA C3rF4r09         [10] 2432 	jp	00110$
    00000ADD                       2433 00108$:
                                   2434 ;E:\Dropbox\FAUSTO\SVILUPPI\MSX\CODE\C\MSXgl\projects\soccerlgSCC/soccerlg_s4_b3.c:554: return closestId;
    00000ADD DD 7E F4         [19] 2435 	ld	a, -12 (ix)
                                   2436 ;E:\Dropbox\FAUSTO\SVILUPPI\MSX\CODE\C\MSXgl\projects\soccerlgSCC/soccerlg_s4_b3.c:555: }
    00000AE0 DD F9            [10] 2437 	ld	sp, ix
    00000AE2 DD E1            [14] 2438 	pop	ix
    00000AE4 C9               [10] 2439 	ret
                                   2440 ;E:\Dropbox\FAUSTO\SVILUPPI\MSX\CODE\C\MSXgl\projects\soccerlgSCC/soccerlg_s4_b3.c:558: void SetPlayerBallPossession(u8 playerId){
                                   2441 ;	---------------------------------
                                   2442 ; Function SetPlayerBallPossession
                                   2443 ; ---------------------------------
    00000AE5                       2444 _SetPlayerBallPossession::
                                   2445 ;E:\Dropbox\FAUSTO\SVILUPPI\MSX\CODE\C\MSXgl\projects\soccerlgSCC/soccerlg_s4_b3.c:559: if (playerId == NO_VALUE) {
    00000AE5 4F               [ 4] 2446 	ld	c, a
    00000AE6 3C               [ 4] 2447 	inc	a
    00000AE7 C8               [11] 2448 	ret	Z
                                   2449 ;E:\Dropbox\FAUSTO\SVILUPPI\MSX\CODE\C\MSXgl\projects\soccerlgSCC/soccerlg_s4_b3.c:560: return;
    00000AE8 C3rEBr0A         [10] 2450 	jp	00102$
    00000AEB                       2451 00102$:
                                   2452 ;E:\Dropbox\FAUSTO\SVILUPPI\MSX\CODE\C\MSXgl\projects\soccerlgSCC/soccerlg_s4_b3.c:563: if(g_Players[playerId].TeamId==TEAM_1){
    00000AEB 11r00r00         [10] 2453 	ld	de, #_g_Players+0
    00000AEE 06 00            [ 7] 2454 	ld	b, #0x00
    00000AF0 69               [ 4] 2455 	ld	l, c
    00000AF1 60               [ 4] 2456 	ld	h, b
    00000AF2 29               [11] 2457 	add	hl, hl
    00000AF3 29               [11] 2458 	add	hl, hl
    00000AF4 09               [11] 2459 	add	hl, bc
    00000AF5 29               [11] 2460 	add	hl, hl
    00000AF6 29               [11] 2461 	add	hl, hl
    00000AF7 09               [11] 2462 	add	hl, bc
    00000AF8 19               [11] 2463 	add	hl, de
                                   2464 ;	spillPairReg hl
                                   2465 ;	spillPairReg hl
    00000AF9 5D               [ 4] 2466 	ld	e, l
    00000AFA 54               [ 4] 2467 	ld	d, h
                                   2468 ;	spillPairReg hl
                                   2469 ;	spillPairReg hl
    00000AFB C5               [11] 2470 	push	bc
    00000AFC 01 09 00         [10] 2471 	ld	bc, #0x0009
    00000AFF 09               [11] 2472 	add	hl, bc
    00000B00 C1               [10] 2473 	pop	bc
    00000B01 7E               [ 7] 2474 	ld	a, (hl)
                                   2475 ;E:\Dropbox\FAUSTO\SVILUPPI\MSX\CODE\C\MSXgl\projects\soccerlgSCC/soccerlg_s4_b3.c:564: if (g_Players[playerId].Role != PLAYER_ROLE_GOALKEEPER) g_Team1ActivePlayer=playerId;
    00000B02 21 0D 00         [10] 2476 	ld	hl, #13
    00000B05 19               [11] 2477 	add	hl, de
    00000B06 46               [ 7] 2478 	ld	b, (hl)
                                   2479 ;E:\Dropbox\FAUSTO\SVILUPPI\MSX\CODE\C\MSXgl\projects\soccerlgSCC/soccerlg_s4_b3.c:563: if(g_Players[playerId].TeamId==TEAM_1){
    00000B07 3D               [ 4] 2480 	dec	a
    00000B08 20 0B            [12] 2481 	jr	NZ, 00108$
                                   2482 ;E:\Dropbox\FAUSTO\SVILUPPI\MSX\CODE\C\MSXgl\projects\soccerlgSCC/soccerlg_s4_b3.c:564: if (g_Players[playerId].Role != PLAYER_ROLE_GOALKEEPER) g_Team1ActivePlayer=playerId;
    00000B0A 78               [ 4] 2483 	ld	a, b
    00000B0B B7               [ 4] 2484 	or	a, a
    00000B0C 28 0F            [12] 2485 	jr	Z, 00109$
    00000B0E 21r00r00         [10] 2486 	ld	hl, #_g_Team1ActivePlayer
    00000B11 71               [ 7] 2487 	ld	(hl), c
    00000B12 C3r1Dr0B         [10] 2488 	jp	00109$
    00000B15                       2489 00108$:
                                   2490 ;E:\Dropbox\FAUSTO\SVILUPPI\MSX\CODE\C\MSXgl\projects\soccerlgSCC/soccerlg_s4_b3.c:567: if (g_Players[playerId].Role != PLAYER_ROLE_GOALKEEPER) g_Team2ActivePlayer=playerId;
    00000B15 78               [ 4] 2491 	ld	a, b
    00000B16 B7               [ 4] 2492 	or	a, a
    00000B17 28 04            [12] 2493 	jr	Z, 00109$
    00000B19 21r00r00         [10] 2494 	ld	hl, #_g_Team2ActivePlayer
    00000B1C 71               [ 7] 2495 	ld	(hl), c
    00000B1D                       2496 00109$:
                                   2497 ;E:\Dropbox\FAUSTO\SVILUPPI\MSX\CODE\C\MSXgl\projects\soccerlgSCC/soccerlg_s4_b3.c:570: g_Ball.PossessionTimer = 0; // Reset hold timer
    00000B1D 21r1Cr00         [10] 2498 	ld	hl, #(_g_Ball + 28)
    00000B20 36 00            [10] 2499 	ld	(hl), #0x00
                                   2500 ;E:\Dropbox\FAUSTO\SVILUPPI\MSX\CODE\C\MSXgl\projects\soccerlgSCC/soccerlg_s4_b3.c:571: }
    00000B22 C9               [10] 2501 	ret
                                   2502 ;E:\Dropbox\FAUSTO\SVILUPPI\MSX\CODE\C\MSXgl\projects\soccerlgSCC/soccerlg_s4_b3.c:574: void PutBallOnPlayerFeet(u8 playerId){
                                   2503 ;	---------------------------------
                                   2504 ; Function PutBallOnPlayerFeet
                                   2505 ; ---------------------------------
    00000B23                       2506 _PutBallOnPlayerFeet::
    00000B23 DD E5            [15] 2507 	push	ix
    00000B25 DD 21 00 00      [14] 2508 	ld	ix,#0
    00000B29 DD 39            [15] 2509 	add	ix,sp
    00000B2B 21 C9 FF         [10] 2510 	ld	hl, #-55
    00000B2E 39               [11] 2511 	add	hl, sp
    00000B2F F9               [ 6] 2512 	ld	sp, hl
    00000B30 4F               [ 4] 2513 	ld	c, a
                                   2514 ;E:\Dropbox\FAUSTO\SVILUPPI\MSX\CODE\C\MSXgl\projects\soccerlgSCC/soccerlg_s4_b3.c:576: if (g_Ball.PossessionPlayerId != playerId) {
    00000B31 21r06r00         [10] 2515 	ld	hl, #(_g_Ball + 6)
    00000B34 46               [ 7] 2516 	ld	b, (hl)
                                   2517 ;E:\Dropbox\FAUSTO\SVILUPPI\MSX\CODE\C\MSXgl\projects\soccerlgSCC/soccerlg_s4_b3.c:578: g_Ball.LastTouchTeamId=g_Players[playerId].TeamId;
    00000B35 59               [ 4] 2518 	ld	e, c
    00000B36 16 00            [ 7] 2519 	ld	d, #0x00
    00000B38 6B               [ 4] 2520 	ld	l, e
    00000B39 62               [ 4] 2521 	ld	h, d
    00000B3A 29               [11] 2522 	add	hl, hl
    00000B3B 29               [11] 2523 	add	hl, hl
    00000B3C 19               [11] 2524 	add	hl, de
    00000B3D 29               [11] 2525 	add	hl, hl
    00000B3E 29               [11] 2526 	add	hl, hl
    00000B3F 19               [11] 2527 	add	hl, de
    00000B40 EB               [ 4] 2528 	ex	de, hl
                                   2529 ;E:\Dropbox\FAUSTO\SVILUPPI\MSX\CODE\C\MSXgl\projects\soccerlgSCC/soccerlg_s4_b3.c:576: if (g_Ball.PossessionPlayerId != playerId) {
    00000B41 79               [ 4] 2530 	ld	a, c
    00000B42 90               [ 4] 2531 	sub	a, b
    00000B43 28 39            [12] 2532 	jr	Z, 00104$
                                   2533 ;E:\Dropbox\FAUSTO\SVILUPPI\MSX\CODE\C\MSXgl\projects\soccerlgSCC/soccerlg_s4_b3.c:577: g_Ball.PossessionPlayerId=playerId;
    00000B45 21r06r00         [10] 2534 	ld	hl, #(_g_Ball + 6)
    00000B48 71               [ 7] 2535 	ld	(hl), c
                                   2536 ;E:\Dropbox\FAUSTO\SVILUPPI\MSX\CODE\C\MSXgl\projects\soccerlgSCC/soccerlg_s4_b3.c:578: g_Ball.LastTouchTeamId=g_Players[playerId].TeamId;
    00000B49 FD 21r00r00      [14] 2537 	ld	iy, #_g_Players
    00000B4D FD 19            [15] 2538 	add	iy, de
    00000B4F FD 7E 09         [19] 2539 	ld	a, 9 (iy)
    00000B52 32r0Er00         [13] 2540 	ld	(#(_g_Ball + 14)),a
                                   2541 ;E:\Dropbox\FAUSTO\SVILUPPI\MSX\CODE\C\MSXgl\projects\soccerlgSCC/soccerlg_s4_b3.c:579: g_Ball.PassTargetPlayerId = NO_VALUE; // Clear any pending pass
    00000B55 21r10r00         [10] 2542 	ld	hl, #(_g_Ball + 16)
    00000B58 36 FF            [10] 2543 	ld	(hl), #0xff
                                   2544 ;E:\Dropbox\FAUSTO\SVILUPPI\MSX\CODE\C\MSXgl\projects\soccerlgSCC/soccerlg_s4_b3.c:580: g_Ball.ShotActive = 0; // Clear any pending shot
    00000B5A 21r1Br00         [10] 2545 	ld	hl, #(_g_Ball + 27)
    00000B5D 36 00            [10] 2546 	ld	(hl), #0x00
                                   2547 ;E:\Dropbox\FAUSTO\SVILUPPI\MSX\CODE\C\MSXgl\projects\soccerlgSCC/soccerlg_s4_b3.c:581: SetPlayerBallPossession(g_Ball.PossessionPlayerId);
    00000B5F D5               [11] 2548 	push	de
    00000B60 79               [ 4] 2549 	ld	a, c
    00000B61 CDrE5r0A         [17] 2550 	call	_SetPlayerBallPossession
    00000B64 D1               [10] 2551 	pop	de
                                   2552 ;E:\Dropbox\FAUSTO\SVILUPPI\MSX\CODE\C\MSXgl\projects\soccerlgSCC/soccerlg_s4_b3.c:584: g_ActionCooldown = 8;
    00000B65 FD 21r00r00      [14] 2553 	ld	iy, #_g_ActionCooldown
    00000B69 FD 36 00 08      [19] 2554 	ld	0 (iy), #0x08
                                   2555 ;E:\Dropbox\FAUSTO\SVILUPPI\MSX\CODE\C\MSXgl\projects\soccerlgSCC/soccerlg_s4_b3.c:586: if (g_Ball.ComingFromRestart) {
    00000B6D 01r1Dr00         [10] 2556 	ld	bc, #_g_Ball + 29
    00000B70 0A               [ 7] 2557 	ld	a, (bc)
    00000B71 B7               [ 4] 2558 	or	a, a
    00000B72 28 0A            [12] 2559 	jr	Z, 00104$
                                   2560 ;E:\Dropbox\FAUSTO\SVILUPPI\MSX\CODE\C\MSXgl\projects\soccerlgSCC/soccerlg_s4_b3.c:587: g_ShootCooldown = 45; // 0.75s ban on shooting after restart
    00000B74 FD 21r00r00      [14] 2561 	ld	iy, #_g_ShootCooldown
    00000B78 FD 36 00 2D      [19] 2562 	ld	0 (iy), #0x2d
                                   2563 ;E:\Dropbox\FAUSTO\SVILUPPI\MSX\CODE\C\MSXgl\projects\soccerlgSCC/soccerlg_s4_b3.c:588: g_Ball.ComingFromRestart = 0;
    00000B7C AF               [ 4] 2564 	xor	a, a
    00000B7D 02               [ 7] 2565 	ld	(bc), a
    00000B7E                       2566 00104$:
                                   2567 ;E:\Dropbox\FAUSTO\SVILUPPI\MSX\CODE\C\MSXgl\projects\soccerlgSCC/soccerlg_s4_b3.c:594: const u8 BallBaseDistX[] = { 0, 0, 4, 6, 4, 0, 4, 6, 4 };
    00000B7E DD 36 C9 00      [19] 2568 	ld	-55 (ix), #0x00
    00000B82 DD 36 CA 00      [19] 2569 	ld	-54 (ix), #0x00
    00000B86 DD 36 CB 04      [19] 2570 	ld	-53 (ix), #0x04
    00000B8A DD 36 CC 06      [19] 2571 	ld	-52 (ix), #0x06
    00000B8E DD 36 CD 04      [19] 2572 	ld	-51 (ix), #0x04
    00000B92 DD 36 CE 00      [19] 2573 	ld	-50 (ix), #0x00
    00000B96 DD 36 CF 04      [19] 2574 	ld	-49 (ix), #0x04
    00000B9A DD 36 D0 06      [19] 2575 	ld	-48 (ix), #0x06
    00000B9E DD 36 D1 04      [19] 2576 	ld	-47 (ix), #0x04
                                   2577 ;E:\Dropbox\FAUSTO\SVILUPPI\MSX\CODE\C\MSXgl\projects\soccerlgSCC/soccerlg_s4_b3.c:595: const u8 BallBaseDistY[] = { 0, 6, 4, 0, 4, 6, 4, 2, 4 };
    00000BA2 21 09 00         [10] 2578 	ld	hl, #9
    00000BA5 39               [11] 2579 	add	hl, sp
    00000BA6 4D               [ 4] 2580 	ld	c, l
    00000BA7 44               [ 4] 2581 	ld	b, h
    00000BA8 AF               [ 4] 2582 	xor	a, a
    00000BA9 02               [ 7] 2583 	ld	(bc), a
    00000BAA DD 36 D3 06      [19] 2584 	ld	-45 (ix), #0x06
    00000BAE DD 36 D4 04      [19] 2585 	ld	-44 (ix), #0x04
    00000BB2 DD 36 D5 00      [19] 2586 	ld	-43 (ix), #0x00
    00000BB6 DD 36 D6 04      [19] 2587 	ld	-42 (ix), #0x04
    00000BBA DD 36 D7 06      [19] 2588 	ld	-41 (ix), #0x06
    00000BBE DD 36 D8 04      [19] 2589 	ld	-40 (ix), #0x04
    00000BC2 DD 36 D9 02      [19] 2590 	ld	-39 (ix), #0x02
    00000BC6 DD 36 DA 04      [19] 2591 	ld	-38 (ix), #0x04
                                   2592 ;E:\Dropbox\FAUSTO\SVILUPPI\MSX\CODE\C\MSXgl\projects\soccerlgSCC/soccerlg_s4_b3.c:597: const u8 DribbleAnimOffsets[] = {5, 4, 2, 0};
    00000BCA DD 36 DB 05      [19] 2593 	ld	-37 (ix), #0x05
    00000BCE DD 36 DC 04      [19] 2594 	ld	-36 (ix), #0x04
    00000BD2 DD 36 DD 02      [19] 2595 	ld	-35 (ix), #0x02
    00000BD6 DD 36 DE 00      [19] 2596 	ld	-34 (ix), #0x00
                                   2597 ;E:\Dropbox\FAUSTO\SVILUPPI\MSX\CODE\C\MSXgl\projects\soccerlgSCC/soccerlg_s4_b3.c:598: const u8 DribbleAnimOffsetsDiag[] = {3, 3, 1, 0};
    00000BDA DD 36 DF 03      [19] 2598 	ld	-33 (ix), #0x03
    00000BDE DD 36 E0 03      [19] 2599 	ld	-32 (ix), #0x03
    00000BE2 DD 36 E1 01      [19] 2600 	ld	-31 (ix), #0x01
    00000BE6 DD 36 E2 00      [19] 2601 	ld	-30 (ix), #0x00
                                   2602 ;E:\Dropbox\FAUSTO\SVILUPPI\MSX\CODE\C\MSXgl\projects\soccerlgSCC/soccerlg_s4_b3.c:602: const i8 BallAlignCorrectX[] = { 0, 0, 0, 0, 2, 0, -2, 0, 0 };
    00000BEA DD 36 E3 00      [19] 2603 	ld	-29 (ix), #0x00
    00000BEE DD 36 E4 00      [19] 2604 	ld	-28 (ix), #0x00
    00000BF2 DD 36 E5 00      [19] 2605 	ld	-27 (ix), #0x00
    00000BF6 DD 36 E6 00      [19] 2606 	ld	-26 (ix), #0x00
    00000BFA DD 36 E7 02      [19] 2607 	ld	-25 (ix), #0x02
    00000BFE DD 36 E8 00      [19] 2608 	ld	-24 (ix), #0x00
    00000C02 DD 36 E9 FE      [19] 2609 	ld	-23 (ix), #0xfe
    00000C06 DD 36 EA 00      [19] 2610 	ld	-22 (ix), #0x00
    00000C0A DD 36 EB 00      [19] 2611 	ld	-21 (ix), #0x00
                                   2612 ;E:\Dropbox\FAUSTO\SVILUPPI\MSX\CODE\C\MSXgl\projects\soccerlgSCC/soccerlg_s4_b3.c:603: const i8 BallAlignCorrectY[] = { 0, 0, 0, 4, 2, 4, 2, 4, 0 };
    00000C0E DD 36 EC 00      [19] 2613 	ld	-20 (ix), #0x00
    00000C12 DD 36 ED 00      [19] 2614 	ld	-19 (ix), #0x00
    00000C16 DD 36 EE 00      [19] 2615 	ld	-18 (ix), #0x00
    00000C1A DD 36 EF 04      [19] 2616 	ld	-17 (ix), #0x04
    00000C1E DD 36 F0 02      [19] 2617 	ld	-16 (ix), #0x02
    00000C22 DD 36 F1 04      [19] 2618 	ld	-15 (ix), #0x04
    00000C26 DD 36 F2 02      [19] 2619 	ld	-14 (ix), #0x02
    00000C2A DD 36 F3 04      [19] 2620 	ld	-13 (ix), #0x04
    00000C2E DD 36 F4 00      [19] 2621 	ld	-12 (ix), #0x00
                                   2622 ;E:\Dropbox\FAUSTO\SVILUPPI\MSX\CODE\C\MSXgl\projects\soccerlgSCC/soccerlg_s4_b3.c:605: u8 dir = g_Players[playerId].Direction;
    00000C32 21r00r00         [10] 2623 	ld	hl, #_g_Players
    00000C35 19               [11] 2624 	add	hl, de
    00000C36 DD 75 F5         [19] 2625 	ld	-11 (ix), l
    00000C39 DD 74 F6         [19] 2626 	ld	-10 (ix), h
    00000C3C 11 0A 00         [10] 2627 	ld	de, #10
    00000C3F 19               [11] 2628 	add	hl, de
    00000C40 7E               [ 7] 2629 	ld	a, (hl)
                                   2630 ;E:\Dropbox\FAUSTO\SVILUPPI\MSX\CODE\C\MSXgl\projects\soccerlgSCC/soccerlg_s4_b3.c:606: if(dir == DIRECTION_NONE) dir = g_Players[playerId].PreviousDirection; // Fallback se fermo
    00000C41 DD 77 F7         [19] 2631 	ld	-9 (ix), a
    00000C44 B7               [ 4] 2632 	or	a, a
    00000C45 20 0E            [12] 2633 	jr	NZ, 00106$
    00000C47 DD 5E F5         [19] 2634 	ld	e, -11 (ix)
    00000C4A DD 56 F6         [19] 2635 	ld	d, -10 (ix)
    00000C4D 21 0B 00         [10] 2636 	ld	hl, #11
    00000C50 19               [11] 2637 	add	hl, de
    00000C51 7E               [ 7] 2638 	ld	a, (hl)
    00000C52 DD 77 F7         [19] 2639 	ld	-9 (ix), a
    00000C55                       2640 00106$:
                                   2641 ;E:\Dropbox\FAUSTO\SVILUPPI\MSX\CODE\C\MSXgl\projects\soccerlgSCC/soccerlg_s4_b3.c:609: u8 calcDir = dir;
    00000C55 DD 7E F7         [19] 2642 	ld	a, -9 (ix)
    00000C58 DD 77 F8         [19] 2643 	ld	-8 (ix), a
                                   2644 ;E:\Dropbox\FAUSTO\SVILUPPI\MSX\CODE\C\MSXgl\projects\soccerlgSCC/soccerlg_s4_b3.c:611: if (g_Players[playerId].Role == PLAYER_ROLE_GOALKEEPER && (dir == DIRECTION_LEFT || dir == DIRECTION_RIGHT)) {
    00000C5B DD 5E F5         [19] 2645 	ld	e, -11 (ix)
    00000C5E DD 56 F6         [19] 2646 	ld	d, -10 (ix)
    00000C61 21 0D 00         [10] 2647 	ld	hl, #13
    00000C64 19               [11] 2648 	add	hl, de
    00000C65 7E               [ 7] 2649 	ld	a, (hl)
    00000C66 DD 77 F9         [19] 2650 	ld	-7 (ix), a
    00000C69 B7               [ 4] 2651 	or	a, a
    00000C6A 20 27            [12] 2652 	jr	NZ, 00111$
    00000C6C DD 7E F7         [19] 2653 	ld	a, -9 (ix)
    00000C6F D6 07            [ 7] 2654 	sub	a, #0x07
    00000C71 28 07            [12] 2655 	jr	Z, 00110$
    00000C73 DD 7E F7         [19] 2656 	ld	a, -9 (ix)
    00000C76 D6 03            [ 7] 2657 	sub	a, #0x03
    00000C78 20 19            [12] 2658 	jr	NZ, 00111$
    00000C7A                       2659 00110$:
                                   2660 ;E:\Dropbox\FAUSTO\SVILUPPI\MSX\CODE\C\MSXgl\projects\soccerlgSCC/soccerlg_s4_b3.c:613: if (g_Players[playerId].TeamId == TEAM_1) calcDir = DIRECTION_UP;
    00000C7A DD 5E F5         [19] 2661 	ld	e, -11 (ix)
    00000C7D DD 56 F6         [19] 2662 	ld	d, -10 (ix)
    00000C80 21 09 00         [10] 2663 	ld	hl, #9
    00000C83 19               [11] 2664 	add	hl, de
    00000C84 7E               [ 7] 2665 	ld	a, (hl)
    00000C85 3D               [ 4] 2666 	dec	a
    00000C86 20 07            [12] 2667 	jr	NZ, 00108$
    00000C88 DD 36 F8 01      [19] 2668 	ld	-8 (ix), #0x01
    00000C8C C3r93r0C         [10] 2669 	jp	00111$
    00000C8F                       2670 00108$:
                                   2671 ;E:\Dropbox\FAUSTO\SVILUPPI\MSX\CODE\C\MSXgl\projects\soccerlgSCC/soccerlg_s4_b3.c:614: else calcDir = DIRECTION_DOWN;
    00000C8F DD 36 F8 05      [19] 2672 	ld	-8 (ix), #0x05
    00000C93                       2673 00111$:
                                   2674 ;E:\Dropbox\FAUSTO\SVILUPPI\MSX\CODE\C\MSXgl\projects\soccerlgSCC/soccerlg_s4_b3.c:618: u8 animStep = g_Ball.KickMoveState;
    00000C93 21r0Dr00         [10] 2675 	ld	hl, #_g_Ball + 13
    00000C96 5E               [ 7] 2676 	ld	e, (hl)
                                   2677 ;E:\Dropbox\FAUSTO\SVILUPPI\MSX\CODE\C\MSXgl\projects\soccerlgSCC/soccerlg_s4_b3.c:619: if (animStep > 3) animStep = 4; // Default/Reset to 3 (Close) if NO_VALUE (255)
    00000C97 3E 03            [ 7] 2678 	ld	a, #0x03
    00000C99 93               [ 4] 2679 	sub	a, e
    00000C9A 30 02            [12] 2680 	jr	NC, 00115$
    00000C9C 1E 04            [ 7] 2681 	ld	e, #0x04
    00000C9E                       2682 00115$:
                                   2683 ;E:\Dropbox\FAUSTO\SVILUPPI\MSX\CODE\C\MSXgl\projects\soccerlgSCC/soccerlg_s4_b3.c:621: u8 currentOffset = DribbleAnimOffsets[animStep];
    00000C9E D5               [11] 2684 	push	de
    00000C9F 16 00            [ 7] 2685 	ld	d, #0x00
    00000CA1 21 14 00         [10] 2686 	ld	hl, #20
    00000CA4 39               [11] 2687 	add	hl, sp
    00000CA5 19               [11] 2688 	add	hl, de
    00000CA6 D1               [10] 2689 	pop	de
    00000CA7 7E               [ 7] 2690 	ld	a, (hl)
    00000CA8 DD 77 FA         [19] 2691 	ld	-6 (ix), a
                                   2692 ;E:\Dropbox\FAUSTO\SVILUPPI\MSX\CODE\C\MSXgl\projects\soccerlgSCC/soccerlg_s4_b3.c:622: u8 currentOffsetDiag = DribbleAnimOffsetsDiag[animStep];
    00000CAB 16 00            [ 7] 2693 	ld	d, #0x00
    00000CAD 21 16 00         [10] 2694 	ld	hl, #22
    00000CB0 39               [11] 2695 	add	hl, sp
    00000CB1 19               [11] 2696 	add	hl, de
    00000CB2 7E               [ 7] 2697 	ld	a, (hl)
    00000CB3 DD 77 FB         [19] 2698 	ld	-5 (ix), a
                                   2699 ;E:\Dropbox\FAUSTO\SVILUPPI\MSX\CODE\C\MSXgl\projects\soccerlgSCC/soccerlg_s4_b3.c:624: u8 distX = BallBaseDistX[calcDir] + ((calcDir==DIRECTION_UP || calcDir==DIRECTION_DOWN) ? 0 : (calcDir == DIRECTION_LEFT || calcDir == DIRECTION_RIGHT ? currentOffset : currentOffsetDiag));
    00000CB6 DD 5E F8         [19] 2700 	ld	e, -8 (ix)
    00000CB9 16 00            [ 7] 2701 	ld	d, #0x00
    00000CBB 21 00 00         [10] 2702 	ld	hl, #0
    00000CBE 39               [11] 2703 	add	hl, sp
    00000CBF 19               [11] 2704 	add	hl, de
    00000CC0 5E               [ 7] 2705 	ld	e, (hl)
    00000CC1 DD 7E F8         [19] 2706 	ld	a, -8 (ix)
    00000CC4 3D               [ 4] 2707 	dec	a
    00000CC5 3E 01            [ 7] 2708 	ld	a, #0x01
    00000CC7 28 01            [12] 2709 	jr	Z, 00232$
    00000CC9 AF               [ 4] 2710 	xor	a, a
    00000CCA                       2711 00232$:
    00000CCA DD 77 FC         [19] 2712 	ld	-4 (ix), a
    00000CCD DD 7E F8         [19] 2713 	ld	a, -8 (ix)
    00000CD0 D6 07            [ 7] 2714 	sub	a, #0x07
    00000CD2 3E 01            [ 7] 2715 	ld	a, #0x01
    00000CD4 28 01            [12] 2716 	jr	Z, 00234$
    00000CD6 AF               [ 4] 2717 	xor	a, a
    00000CD7                       2718 00234$:
    00000CD7 DD 77 FD         [19] 2719 	ld	-3 (ix), a
    00000CDA DD CB FC 46      [20] 2720 	bit	0, -4 (ix)
    00000CDE 20 07            [12] 2721 	jr	NZ, 00132$
    00000CE0 DD 7E F8         [19] 2722 	ld	a, -8 (ix)
    00000CE3 D6 05            [ 7] 2723 	sub	a, #0x05
    00000CE5 20 05            [12] 2724 	jr	NZ, 00129$
    00000CE7                       2725 00132$:
    00000CE7 AF               [ 4] 2726 	xor	a, a
    00000CE8 57               [ 4] 2727 	ld	d, a
    00000CE9 C3r04r0D         [10] 2728 	jp	00130$
    00000CEC                       2729 00129$:
    00000CEC DD CB FD 46      [20] 2730 	bit	0, -3 (ix)
    00000CF0 20 07            [12] 2731 	jr	NZ, 00137$
    00000CF2 DD 7E F8         [19] 2732 	ld	a, -8 (ix)
    00000CF5 D6 03            [ 7] 2733 	sub	a, #0x03
    00000CF7 20 06            [12] 2734 	jr	NZ, 00134$
    00000CF9                       2735 00137$:
    00000CF9 DD 7E FA         [19] 2736 	ld	a, -6 (ix)
    00000CFC C3r02r0D         [10] 2737 	jp	00135$
    00000CFF                       2738 00134$:
    00000CFF DD 7E FB         [19] 2739 	ld	a, -5 (ix)
    00000D02                       2740 00135$:
    00000D02 16 00            [ 7] 2741 	ld	d, #0x00
    00000D04                       2742 00130$:
    00000D04 83               [ 4] 2743 	add	a, e
    00000D05 DD 77 FE         [19] 2744 	ld	-2 (ix), a
                                   2745 ;E:\Dropbox\FAUSTO\SVILUPPI\MSX\CODE\C\MSXgl\projects\soccerlgSCC/soccerlg_s4_b3.c:625: u8 distY = BallBaseDistY[calcDir] + ((calcDir==DIRECTION_LEFT || calcDir==DIRECTION_RIGHT) ? 0 : (calcDir == DIRECTION_UP || calcDir == DIRECTION_DOWN ? currentOffset : currentOffsetDiag));
    00000D08 DD 6E F8         [19] 2746 	ld	l, -8 (ix)
    00000D0B 26 00            [ 7] 2747 	ld	h, #0x00
    00000D0D 09               [11] 2748 	add	hl, bc
    00000D0E 7E               [ 7] 2749 	ld	a, (hl)
    00000D0F DD 77 FF         [19] 2750 	ld	-1 (ix), a
    00000D12 DD CB FD 46      [20] 2751 	bit	0, -3 (ix)
    00000D16 20 07            [12] 2752 	jr	NZ, 00142$
    00000D18 DD 7E F8         [19] 2753 	ld	a, -8 (ix)
    00000D1B D6 03            [ 7] 2754 	sub	a, #0x03
    00000D1D 20 0A            [12] 2755 	jr	NZ, 00139$
    00000D1F                       2756 00142$:
    00000D1F AF               [ 4] 2757 	xor	a, a
    00000D20 DD 77 FC         [19] 2758 	ld	-4 (ix), a
    00000D23 DD 77 FD         [19] 2759 	ld	-3 (ix), a
    00000D26 C3r46r0D         [10] 2760 	jp	00140$
    00000D29                       2761 00139$:
    00000D29 DD CB FC 46      [20] 2762 	bit	0, -4 (ix)
    00000D2D 20 07            [12] 2763 	jr	NZ, 00147$
    00000D2F DD 7E F8         [19] 2764 	ld	a, -8 (ix)
    00000D32 D6 05            [ 7] 2765 	sub	a, #0x05
    00000D34 20 06            [12] 2766 	jr	NZ, 00144$
    00000D36                       2767 00147$:
    00000D36 DD 7E FA         [19] 2768 	ld	a, -6 (ix)
    00000D39 C3r3Fr0D         [10] 2769 	jp	00145$
    00000D3C                       2770 00144$:
    00000D3C DD 7E FB         [19] 2771 	ld	a, -5 (ix)
    00000D3F                       2772 00145$:
    00000D3F DD 77 FC         [19] 2773 	ld	-4 (ix), a
    00000D42 DD 36 FD 00      [19] 2774 	ld	-3 (ix), #0x00
    00000D46                       2775 00140$:
    00000D46 DD 7E FC         [19] 2776 	ld	a, -4 (ix)
    00000D49 DD 77 FD         [19] 2777 	ld	-3 (ix), a
    00000D4C DD 7E FF         [19] 2778 	ld	a, -1 (ix)
    00000D4F DD 86 FD         [19] 2779 	add	a, -3 (ix)
    00000D52 DD 77 FF         [19] 2780 	ld	-1 (ix), a
                                   2781 ;E:\Dropbox\FAUSTO\SVILUPPI\MSX\CODE\C\MSXgl\projects\soccerlgSCC/soccerlg_s4_b3.c:628: if (g_Players[playerId].Role == PLAYER_ROLE_GOALKEEPER) {
    00000D55 DD 7E F9         [19] 2782 	ld	a, -7 (ix)
    00000D58 B7               [ 4] 2783 	or	a, a
    00000D59 20 15            [12] 2784 	jr	NZ, 00117$
                                   2785 ;E:\Dropbox\FAUSTO\SVILUPPI\MSX\CODE\C\MSXgl\projects\soccerlgSCC/soccerlg_s4_b3.c:629: distY = (distY > 2) ? (distY - 2) : distY; // bring ball 2px closer vertically
    00000D5B 3E 02            [ 7] 2786 	ld	a, #0x02
    00000D5D DD 96 FF         [19] 2787 	sub	a, -1 (ix)
    00000D60 30 08            [12] 2788 	jr	NC, 00149$
    00000D62 DD 7E FF         [19] 2789 	ld	a, -1 (ix)
    00000D65 3D               [ 4] 2790 	dec	a
    00000D66 3D               [ 4] 2791 	dec	a
    00000D67 C3r6Dr0D         [10] 2792 	jp	00150$
    00000D6A                       2793 00149$:
    00000D6A DD 7E FF         [19] 2794 	ld	a, -1 (ix)
    00000D6D                       2795 00150$:
    00000D6D DD 77 FF         [19] 2796 	ld	-1 (ix), a
    00000D70                       2797 00117$:
                                   2798 ;E:\Dropbox\FAUSTO\SVILUPPI\MSX\CODE\C\MSXgl\projects\soccerlgSCC/soccerlg_s4_b3.c:634: switch (calcDir){
    00000D70 3E 08            [ 7] 2799 	ld	a, #0x08
    00000D72 DD 96 F8         [19] 2800 	sub	a, -8 (ix)
    00000D75 DAr16r10         [10] 2801 	jp	C, 00126$
    00000D78 DD 4E F8         [19] 2802 	ld	c, -8 (ix)
    00000D7B 06 00            [ 7] 2803 	ld	b, #0x00
    00000D7D 21r84r0D         [10] 2804 	ld	hl, #00243$
    00000D80 09               [11] 2805 	add	hl, bc
    00000D81 09               [11] 2806 	add	hl, bc
    00000D82 09               [11] 2807 	add	hl, bc
    00000D83 E9               [ 4] 2808 	jp	(hl)
    00000D84                       2809 00243$:
    00000D84 C3r16r10         [10] 2810 	jp	00126$
    00000D87 C3r9Fr0D         [10] 2811 	jp	00118$
    00000D8A C3r20r0F         [10] 2812 	jp	00123$
    00000D8D C3r80r0E         [10] 2813 	jp	00121$
    00000D90 C3rC8r0F         [10] 2814 	jp	00125$
    00000D93 C3rEBr0D         [10] 2815 	jp	00119$
    00000D96 C3r74r0F         [10] 2816 	jp	00124$
    00000D99 C3r34r0E         [10] 2817 	jp	00120$
    00000D9C C3rC9r0E         [10] 2818 	jp	00122$
                                   2819 ;E:\Dropbox\FAUSTO\SVILUPPI\MSX\CODE\C\MSXgl\projects\soccerlgSCC/soccerlg_s4_b3.c:635: case DIRECTION_UP:
    00000D9F                       2820 00118$:
                                   2821 ;E:\Dropbox\FAUSTO\SVILUPPI\MSX\CODE\C\MSXgl\projects\soccerlgSCC/soccerlg_s4_b3.c:636: g_Ball.X=g_Players[playerId].X + BallAlignCorrectX[calcDir] + extraX;
    00000D9F DD 6E F5         [19] 2822 	ld	l, -11 (ix)
                                   2823 ;	spillPairReg hl
                                   2824 ;	spillPairReg hl
    00000DA2 DD 66 F6         [19] 2825 	ld	h, -10 (ix)
                                   2826 ;	spillPairReg hl
                                   2827 ;	spillPairReg hl
    00000DA5 23               [ 6] 2828 	inc	hl
    00000DA6 23               [ 6] 2829 	inc	hl
    00000DA7 4E               [ 7] 2830 	ld	c, (hl)
    00000DA8 23               [ 6] 2831 	inc	hl
    00000DA9 46               [ 7] 2832 	ld	b, (hl)
    00000DAA DD 5E F8         [19] 2833 	ld	e, -8 (ix)
    00000DAD 16 00            [ 7] 2834 	ld	d, #0x00
    00000DAF 21 1A 00         [10] 2835 	ld	hl, #26
    00000DB2 39               [11] 2836 	add	hl, sp
    00000DB3 19               [11] 2837 	add	hl, de
    00000DB4 7E               [ 7] 2838 	ld	a, (hl)
    00000DB5 6F               [ 4] 2839 	ld	l, a
                                   2840 ;	spillPairReg hl
                                   2841 ;	spillPairReg hl
    00000DB6 07               [ 4] 2842 	rlca
    00000DB7 9F               [ 4] 2843 	sbc	a, a
    00000DB8 67               [ 4] 2844 	ld	h, a
                                   2845 ;	spillPairReg hl
                                   2846 ;	spillPairReg hl
    00000DB9 09               [11] 2847 	add	hl, bc
    00000DBA EB               [ 4] 2848 	ex	de, hl
    00000DBB ED 53r02r00      [20] 2849 	ld	((_g_Ball + 2)), de
                                   2850 ;E:\Dropbox\FAUSTO\SVILUPPI\MSX\CODE\C\MSXgl\projects\soccerlgSCC/soccerlg_s4_b3.c:637: g_Ball.Y=g_Players[playerId].Y - distY + BallAlignCorrectY[calcDir];
    00000DBF DD 6E F5         [19] 2851 	ld	l, -11 (ix)
    00000DC2 DD 66 F6         [19] 2852 	ld	h, -10 (ix)
    00000DC5 4E               [ 7] 2853 	ld	c, (hl)
    00000DC6 23               [ 6] 2854 	inc	hl
    00000DC7 46               [ 7] 2855 	ld	b, (hl)
    00000DC8 DD 5E FF         [19] 2856 	ld	e, -1 (ix)
    00000DCB 16 00            [ 7] 2857 	ld	d, #0x00
    00000DCD 79               [ 4] 2858 	ld	a, c
    00000DCE 93               [ 4] 2859 	sub	a, e
    00000DCF 4F               [ 4] 2860 	ld	c, a
    00000DD0 78               [ 4] 2861 	ld	a, b
    00000DD1 9A               [ 4] 2862 	sbc	a, d
    00000DD2 47               [ 4] 2863 	ld	b, a
    00000DD3 DD 5E F8         [19] 2864 	ld	e, -8 (ix)
    00000DD6 16 00            [ 7] 2865 	ld	d, #0x00
    00000DD8 21 23 00         [10] 2866 	ld	hl, #35
    00000DDB 39               [11] 2867 	add	hl, sp
    00000DDC 19               [11] 2868 	add	hl, de
    00000DDD 7E               [ 7] 2869 	ld	a, (hl)
    00000DDE 6F               [ 4] 2870 	ld	l, a
                                   2871 ;	spillPairReg hl
                                   2872 ;	spillPairReg hl
    00000DDF 07               [ 4] 2873 	rlca
    00000DE0 9F               [ 4] 2874 	sbc	a, a
    00000DE1 67               [ 4] 2875 	ld	h, a
                                   2876 ;	spillPairReg hl
                                   2877 ;	spillPairReg hl
    00000DE2 09               [11] 2878 	add	hl, bc
    00000DE3 EB               [ 4] 2879 	ex	de, hl
    00000DE4 ED 53r00r00      [20] 2880 	ld	(_g_Ball), de
                                   2881 ;E:\Dropbox\FAUSTO\SVILUPPI\MSX\CODE\C\MSXgl\projects\soccerlgSCC/soccerlg_s4_b3.c:638: break;
    00000DE8 C3r16r10         [10] 2882 	jp	00126$
                                   2883 ;E:\Dropbox\FAUSTO\SVILUPPI\MSX\CODE\C\MSXgl\projects\soccerlgSCC/soccerlg_s4_b3.c:639: case DIRECTION_DOWN:
    00000DEB                       2884 00119$:
                                   2885 ;E:\Dropbox\FAUSTO\SVILUPPI\MSX\CODE\C\MSXgl\projects\soccerlgSCC/soccerlg_s4_b3.c:640: g_Ball.X=g_Players[playerId].X + BallAlignCorrectX[calcDir];
    00000DEB DD 6E F5         [19] 2886 	ld	l, -11 (ix)
                                   2887 ;	spillPairReg hl
                                   2888 ;	spillPairReg hl
    00000DEE DD 66 F6         [19] 2889 	ld	h, -10 (ix)
                                   2890 ;	spillPairReg hl
                                   2891 ;	spillPairReg hl
    00000DF1 23               [ 6] 2892 	inc	hl
    00000DF2 23               [ 6] 2893 	inc	hl
    00000DF3 4E               [ 7] 2894 	ld	c, (hl)
    00000DF4 23               [ 6] 2895 	inc	hl
    00000DF5 46               [ 7] 2896 	ld	b, (hl)
    00000DF6 DD 5E F8         [19] 2897 	ld	e, -8 (ix)
    00000DF9 16 00            [ 7] 2898 	ld	d, #0x00
    00000DFB 21 1A 00         [10] 2899 	ld	hl, #26
    00000DFE 39               [11] 2900 	add	hl, sp
    00000DFF 19               [11] 2901 	add	hl, de
    00000E00 7E               [ 7] 2902 	ld	a, (hl)
    00000E01 6F               [ 4] 2903 	ld	l, a
                                   2904 ;	spillPairReg hl
                                   2905 ;	spillPairReg hl
    00000E02 07               [ 4] 2906 	rlca
    00000E03 9F               [ 4] 2907 	sbc	a, a
    00000E04 67               [ 4] 2908 	ld	h, a
                                   2909 ;	spillPairReg hl
                                   2910 ;	spillPairReg hl
    00000E05 09               [11] 2911 	add	hl, bc
    00000E06 EB               [ 4] 2912 	ex	de, hl
    00000E07 ED 53r02r00      [20] 2913 	ld	((_g_Ball + 2)), de
                                   2914 ;E:\Dropbox\FAUSTO\SVILUPPI\MSX\CODE\C\MSXgl\projects\soccerlgSCC/soccerlg_s4_b3.c:641: g_Ball.Y=g_Players[playerId].Y + distY + BallAlignCorrectY[calcDir];
    00000E0B DD 6E F5         [19] 2915 	ld	l, -11 (ix)
    00000E0E DD 66 F6         [19] 2916 	ld	h, -10 (ix)
    00000E11 4E               [ 7] 2917 	ld	c, (hl)
    00000E12 23               [ 6] 2918 	inc	hl
    00000E13 46               [ 7] 2919 	ld	b, (hl)
    00000E14 DD 6E FF         [19] 2920 	ld	l, -1 (ix)
                                   2921 ;	spillPairReg hl
                                   2922 ;	spillPairReg hl
    00000E17 26 00            [ 7] 2923 	ld	h, #0x00
                                   2924 ;	spillPairReg hl
                                   2925 ;	spillPairReg hl
    00000E19 09               [11] 2926 	add	hl, bc
    00000E1A 4D               [ 4] 2927 	ld	c, l
    00000E1B 44               [ 4] 2928 	ld	b, h
    00000E1C DD 5E F8         [19] 2929 	ld	e, -8 (ix)
    00000E1F 16 00            [ 7] 2930 	ld	d, #0x00
    00000E21 21 23 00         [10] 2931 	ld	hl, #35
    00000E24 39               [11] 2932 	add	hl, sp
    00000E25 19               [11] 2933 	add	hl, de
    00000E26 7E               [ 7] 2934 	ld	a, (hl)
    00000E27 6F               [ 4] 2935 	ld	l, a
                                   2936 ;	spillPairReg hl
                                   2937 ;	spillPairReg hl
    00000E28 07               [ 4] 2938 	rlca
    00000E29 9F               [ 4] 2939 	sbc	a, a
    00000E2A 67               [ 4] 2940 	ld	h, a
                                   2941 ;	spillPairReg hl
                                   2942 ;	spillPairReg hl
    00000E2B 09               [11] 2943 	add	hl, bc
    00000E2C EB               [ 4] 2944 	ex	de, hl
    00000E2D ED 53r00r00      [20] 2945 	ld	(_g_Ball), de
                                   2946 ;E:\Dropbox\FAUSTO\SVILUPPI\MSX\CODE\C\MSXgl\projects\soccerlgSCC/soccerlg_s4_b3.c:642: break;
    00000E31 C3r16r10         [10] 2947 	jp	00126$
                                   2948 ;E:\Dropbox\FAUSTO\SVILUPPI\MSX\CODE\C\MSXgl\projects\soccerlgSCC/soccerlg_s4_b3.c:643: case DIRECTION_LEFT:
    00000E34                       2949 00120$:
                                   2950 ;E:\Dropbox\FAUSTO\SVILUPPI\MSX\CODE\C\MSXgl\projects\soccerlgSCC/soccerlg_s4_b3.c:644: g_Ball.X=g_Players[playerId].X - distX + BallAlignCorrectX[calcDir];
    00000E34 DD 6E F5         [19] 2951 	ld	l, -11 (ix)
                                   2952 ;	spillPairReg hl
                                   2953 ;	spillPairReg hl
    00000E37 DD 66 F6         [19] 2954 	ld	h, -10 (ix)
                                   2955 ;	spillPairReg hl
                                   2956 ;	spillPairReg hl
    00000E3A 23               [ 6] 2957 	inc	hl
    00000E3B 23               [ 6] 2958 	inc	hl
    00000E3C 4E               [ 7] 2959 	ld	c, (hl)
    00000E3D 23               [ 6] 2960 	inc	hl
    00000E3E 46               [ 7] 2961 	ld	b, (hl)
    00000E3F DD 5E FE         [19] 2962 	ld	e, -2 (ix)
    00000E42 16 00            [ 7] 2963 	ld	d, #0x00
    00000E44 79               [ 4] 2964 	ld	a, c
    00000E45 93               [ 4] 2965 	sub	a, e
    00000E46 4F               [ 4] 2966 	ld	c, a
    00000E47 78               [ 4] 2967 	ld	a, b
    00000E48 9A               [ 4] 2968 	sbc	a, d
    00000E49 47               [ 4] 2969 	ld	b, a
    00000E4A DD 5E F8         [19] 2970 	ld	e, -8 (ix)
    00000E4D 16 00            [ 7] 2971 	ld	d, #0x00
    00000E4F 21 1A 00         [10] 2972 	ld	hl, #26
    00000E52 39               [11] 2973 	add	hl, sp
    00000E53 19               [11] 2974 	add	hl, de
    00000E54 7E               [ 7] 2975 	ld	a, (hl)
    00000E55 6F               [ 4] 2976 	ld	l, a
                                   2977 ;	spillPairReg hl
                                   2978 ;	spillPairReg hl
    00000E56 07               [ 4] 2979 	rlca
    00000E57 9F               [ 4] 2980 	sbc	a, a
    00000E58 67               [ 4] 2981 	ld	h, a
                                   2982 ;	spillPairReg hl
                                   2983 ;	spillPairReg hl
    00000E59 09               [11] 2984 	add	hl, bc
    00000E5A EB               [ 4] 2985 	ex	de, hl
    00000E5B ED 53r02r00      [20] 2986 	ld	((_g_Ball + 2)), de
                                   2987 ;E:\Dropbox\FAUSTO\SVILUPPI\MSX\CODE\C\MSXgl\projects\soccerlgSCC/soccerlg_s4_b3.c:645: g_Ball.Y=g_Players[playerId].Y + BallAlignCorrectY[calcDir];
    00000E5F DD 6E F5         [19] 2988 	ld	l, -11 (ix)
    00000E62 DD 66 F6         [19] 2989 	ld	h, -10 (ix)
    00000E65 4E               [ 7] 2990 	ld	c, (hl)
    00000E66 23               [ 6] 2991 	inc	hl
    00000E67 46               [ 7] 2992 	ld	b, (hl)
    00000E68 DD 5E F8         [19] 2993 	ld	e, -8 (ix)
    00000E6B 16 00            [ 7] 2994 	ld	d, #0x00
    00000E6D 21 23 00         [10] 2995 	ld	hl, #35
    00000E70 39               [11] 2996 	add	hl, sp
    00000E71 19               [11] 2997 	add	hl, de
    00000E72 7E               [ 7] 2998 	ld	a, (hl)
    00000E73 6F               [ 4] 2999 	ld	l, a
                                   3000 ;	spillPairReg hl
                                   3001 ;	spillPairReg hl
    00000E74 07               [ 4] 3002 	rlca
    00000E75 9F               [ 4] 3003 	sbc	a, a
    00000E76 67               [ 4] 3004 	ld	h, a
                                   3005 ;	spillPairReg hl
                                   3006 ;	spillPairReg hl
    00000E77 09               [11] 3007 	add	hl, bc
    00000E78 EB               [ 4] 3008 	ex	de, hl
    00000E79 ED 53r00r00      [20] 3009 	ld	(_g_Ball), de
                                   3010 ;E:\Dropbox\FAUSTO\SVILUPPI\MSX\CODE\C\MSXgl\projects\soccerlgSCC/soccerlg_s4_b3.c:646: break;
    00000E7D C3r16r10         [10] 3011 	jp	00126$
                                   3012 ;E:\Dropbox\FAUSTO\SVILUPPI\MSX\CODE\C\MSXgl\projects\soccerlgSCC/soccerlg_s4_b3.c:647: case DIRECTION_RIGHT:
    00000E80                       3013 00121$:
                                   3014 ;E:\Dropbox\FAUSTO\SVILUPPI\MSX\CODE\C\MSXgl\projects\soccerlgSCC/soccerlg_s4_b3.c:648: g_Ball.X=g_Players[playerId].X + distX + BallAlignCorrectX[calcDir];
    00000E80 DD 6E F5         [19] 3015 	ld	l, -11 (ix)
                                   3016 ;	spillPairReg hl
                                   3017 ;	spillPairReg hl
    00000E83 DD 66 F6         [19] 3018 	ld	h, -10 (ix)
                                   3019 ;	spillPairReg hl
                                   3020 ;	spillPairReg hl
    00000E86 23               [ 6] 3021 	inc	hl
    00000E87 23               [ 6] 3022 	inc	hl
    00000E88 4E               [ 7] 3023 	ld	c, (hl)
    00000E89 23               [ 6] 3024 	inc	hl
    00000E8A 46               [ 7] 3025 	ld	b, (hl)
    00000E8B DD 6E FE         [19] 3026 	ld	l, -2 (ix)
                                   3027 ;	spillPairReg hl
                                   3028 ;	spillPairReg hl
    00000E8E 26 00            [ 7] 3029 	ld	h, #0x00
                                   3030 ;	spillPairReg hl
                                   3031 ;	spillPairReg hl
    00000E90 09               [11] 3032 	add	hl, bc
    00000E91 4D               [ 4] 3033 	ld	c, l
    00000E92 44               [ 4] 3034 	ld	b, h
    00000E93 DD 5E F8         [19] 3035 	ld	e, -8 (ix)
    00000E96 16 00            [ 7] 3036 	ld	d, #0x00
    00000E98 21 1A 00         [10] 3037 	ld	hl, #26
    00000E9B 39               [11] 3038 	add	hl, sp
    00000E9C 19               [11] 3039 	add	hl, de
    00000E9D 7E               [ 7] 3040 	ld	a, (hl)
    00000E9E 6F               [ 4] 3041 	ld	l, a
                                   3042 ;	spillPairReg hl
                                   3043 ;	spillPairReg hl
    00000E9F 07               [ 4] 3044 	rlca
    00000EA0 9F               [ 4] 3045 	sbc	a, a
    00000EA1 67               [ 4] 3046 	ld	h, a
                                   3047 ;	spillPairReg hl
                                   3048 ;	spillPairReg hl
    00000EA2 09               [11] 3049 	add	hl, bc
    00000EA3 EB               [ 4] 3050 	ex	de, hl
    00000EA4 ED 53r02r00      [20] 3051 	ld	((_g_Ball + 2)), de
                                   3052 ;E:\Dropbox\FAUSTO\SVILUPPI\MSX\CODE\C\MSXgl\projects\soccerlgSCC/soccerlg_s4_b3.c:649: g_Ball.Y=g_Players[playerId].Y + BallAlignCorrectY[calcDir];
    00000EA8 DD 6E F5         [19] 3053 	ld	l, -11 (ix)
    00000EAB DD 66 F6         [19] 3054 	ld	h, -10 (ix)
    00000EAE 4E               [ 7] 3055 	ld	c, (hl)
    00000EAF 23               [ 6] 3056 	inc	hl
    00000EB0 46               [ 7] 3057 	ld	b, (hl)
    00000EB1 DD 5E F8         [19] 3058 	ld	e, -8 (ix)
    00000EB4 16 00            [ 7] 3059 	ld	d, #0x00
    00000EB6 21 23 00         [10] 3060 	ld	hl, #35
    00000EB9 39               [11] 3061 	add	hl, sp
    00000EBA 19               [11] 3062 	add	hl, de
    00000EBB 7E               [ 7] 3063 	ld	a, (hl)
    00000EBC 6F               [ 4] 3064 	ld	l, a
                                   3065 ;	spillPairReg hl
                                   3066 ;	spillPairReg hl
    00000EBD 07               [ 4] 3067 	rlca
    00000EBE 9F               [ 4] 3068 	sbc	a, a
    00000EBF 67               [ 4] 3069 	ld	h, a
                                   3070 ;	spillPairReg hl
                                   3071 ;	spillPairReg hl
    00000EC0 09               [11] 3072 	add	hl, bc
    00000EC1 EB               [ 4] 3073 	ex	de, hl
    00000EC2 ED 53r00r00      [20] 3074 	ld	(_g_Ball), de
                                   3075 ;E:\Dropbox\FAUSTO\SVILUPPI\MSX\CODE\C\MSXgl\projects\soccerlgSCC/soccerlg_s4_b3.c:650: break;
    00000EC6 C3r16r10         [10] 3076 	jp	00126$
                                   3077 ;E:\Dropbox\FAUSTO\SVILUPPI\MSX\CODE\C\MSXgl\projects\soccerlgSCC/soccerlg_s4_b3.c:651: case DIRECTION_UP_LEFT:
    00000EC9                       3078 00122$:
                                   3079 ;E:\Dropbox\FAUSTO\SVILUPPI\MSX\CODE\C\MSXgl\projects\soccerlgSCC/soccerlg_s4_b3.c:652: g_Ball.X=g_Players[playerId].X - distX + BallAlignCorrectX[calcDir];
    00000EC9 DD 6E F5         [19] 3080 	ld	l, -11 (ix)
                                   3081 ;	spillPairReg hl
                                   3082 ;	spillPairReg hl
    00000ECC DD 66 F6         [19] 3083 	ld	h, -10 (ix)
                                   3084 ;	spillPairReg hl
                                   3085 ;	spillPairReg hl
    00000ECF 23               [ 6] 3086 	inc	hl
    00000ED0 23               [ 6] 3087 	inc	hl
    00000ED1 4E               [ 7] 3088 	ld	c, (hl)
    00000ED2 23               [ 6] 3089 	inc	hl
    00000ED3 46               [ 7] 3090 	ld	b, (hl)
    00000ED4 DD 5E FE         [19] 3091 	ld	e, -2 (ix)
    00000ED7 16 00            [ 7] 3092 	ld	d, #0x00
    00000ED9 79               [ 4] 3093 	ld	a, c
    00000EDA 93               [ 4] 3094 	sub	a, e
    00000EDB 4F               [ 4] 3095 	ld	c, a
    00000EDC 78               [ 4] 3096 	ld	a, b
    00000EDD 9A               [ 4] 3097 	sbc	a, d
    00000EDE 47               [ 4] 3098 	ld	b, a
    00000EDF DD 5E F8         [19] 3099 	ld	e, -8 (ix)
    00000EE2 16 00            [ 7] 3100 	ld	d, #0x00
    00000EE4 21 1A 00         [10] 3101 	ld	hl, #26
    00000EE7 39               [11] 3102 	add	hl, sp
    00000EE8 19               [11] 3103 	add	hl, de
    00000EE9 7E               [ 7] 3104 	ld	a, (hl)
    00000EEA 6F               [ 4] 3105 	ld	l, a
                                   3106 ;	spillPairReg hl
                                   3107 ;	spillPairReg hl
    00000EEB 07               [ 4] 3108 	rlca
    00000EEC 9F               [ 4] 3109 	sbc	a, a
    00000EED 67               [ 4] 3110 	ld	h, a
                                   3111 ;	spillPairReg hl
                                   3112 ;	spillPairReg hl
    00000EEE 09               [11] 3113 	add	hl, bc
    00000EEF EB               [ 4] 3114 	ex	de, hl
    00000EF0 ED 53r02r00      [20] 3115 	ld	((_g_Ball + 2)), de
                                   3116 ;E:\Dropbox\FAUSTO\SVILUPPI\MSX\CODE\C\MSXgl\projects\soccerlgSCC/soccerlg_s4_b3.c:653: g_Ball.Y=g_Players[playerId].Y - distY + BallAlignCorrectY[calcDir];
    00000EF4 DD 6E F5         [19] 3117 	ld	l, -11 (ix)
    00000EF7 DD 66 F6         [19] 3118 	ld	h, -10 (ix)
    00000EFA 4E               [ 7] 3119 	ld	c, (hl)
    00000EFB 23               [ 6] 3120 	inc	hl
    00000EFC 46               [ 7] 3121 	ld	b, (hl)
    00000EFD DD 5E FF         [19] 3122 	ld	e, -1 (ix)
    00000F00 16 00            [ 7] 3123 	ld	d, #0x00
    00000F02 79               [ 4] 3124 	ld	a, c
    00000F03 93               [ 4] 3125 	sub	a, e
    00000F04 4F               [ 4] 3126 	ld	c, a
    00000F05 78               [ 4] 3127 	ld	a, b
    00000F06 9A               [ 4] 3128 	sbc	a, d
    00000F07 47               [ 4] 3129 	ld	b, a
    00000F08 DD 5E F8         [19] 3130 	ld	e, -8 (ix)
    00000F0B 16 00            [ 7] 3131 	ld	d, #0x00
    00000F0D 21 23 00         [10] 3132 	ld	hl, #35
    00000F10 39               [11] 3133 	add	hl, sp
    00000F11 19               [11] 3134 	add	hl, de
    00000F12 7E               [ 7] 3135 	ld	a, (hl)
    00000F13 6F               [ 4] 3136 	ld	l, a
                                   3137 ;	spillPairReg hl
                                   3138 ;	spillPairReg hl
    00000F14 07               [ 4] 3139 	rlca
    00000F15 9F               [ 4] 3140 	sbc	a, a
    00000F16 67               [ 4] 3141 	ld	h, a
                                   3142 ;	spillPairReg hl
                                   3143 ;	spillPairReg hl
    00000F17 09               [11] 3144 	add	hl, bc
    00000F18 EB               [ 4] 3145 	ex	de, hl
    00000F19 ED 53r00r00      [20] 3146 	ld	(_g_Ball), de
                                   3147 ;E:\Dropbox\FAUSTO\SVILUPPI\MSX\CODE\C\MSXgl\projects\soccerlgSCC/soccerlg_s4_b3.c:654: break;
    00000F1D C3r16r10         [10] 3148 	jp	00126$
                                   3149 ;E:\Dropbox\FAUSTO\SVILUPPI\MSX\CODE\C\MSXgl\projects\soccerlgSCC/soccerlg_s4_b3.c:655: case DIRECTION_UP_RIGHT:
    00000F20                       3150 00123$:
                                   3151 ;E:\Dropbox\FAUSTO\SVILUPPI\MSX\CODE\C\MSXgl\projects\soccerlgSCC/soccerlg_s4_b3.c:656: g_Ball.X=g_Players[playerId].X + distX + BallAlignCorrectX[calcDir];
    00000F20 DD 6E F5         [19] 3152 	ld	l, -11 (ix)
                                   3153 ;	spillPairReg hl
                                   3154 ;	spillPairReg hl
    00000F23 DD 66 F6         [19] 3155 	ld	h, -10 (ix)
                                   3156 ;	spillPairReg hl
                                   3157 ;	spillPairReg hl
    00000F26 23               [ 6] 3158 	inc	hl
    00000F27 23               [ 6] 3159 	inc	hl
    00000F28 4E               [ 7] 3160 	ld	c, (hl)
    00000F29 23               [ 6] 3161 	inc	hl
    00000F2A 46               [ 7] 3162 	ld	b, (hl)
    00000F2B DD 6E FE         [19] 3163 	ld	l, -2 (ix)
                                   3164 ;	spillPairReg hl
                                   3165 ;	spillPairReg hl
    00000F2E 26 00            [ 7] 3166 	ld	h, #0x00
                                   3167 ;	spillPairReg hl
                                   3168 ;	spillPairReg hl
    00000F30 09               [11] 3169 	add	hl, bc
    00000F31 4D               [ 4] 3170 	ld	c, l
    00000F32 44               [ 4] 3171 	ld	b, h
    00000F33 DD 5E F8         [19] 3172 	ld	e, -8 (ix)
    00000F36 16 00            [ 7] 3173 	ld	d, #0x00
    00000F38 21 1A 00         [10] 3174 	ld	hl, #26
    00000F3B 39               [11] 3175 	add	hl, sp
    00000F3C 19               [11] 3176 	add	hl, de
    00000F3D 7E               [ 7] 3177 	ld	a, (hl)
    00000F3E 6F               [ 4] 3178 	ld	l, a
                                   3179 ;	spillPairReg hl
                                   3180 ;	spillPairReg hl
    00000F3F 07               [ 4] 3181 	rlca
    00000F40 9F               [ 4] 3182 	sbc	a, a
    00000F41 67               [ 4] 3183 	ld	h, a
                                   3184 ;	spillPairReg hl
                                   3185 ;	spillPairReg hl
    00000F42 09               [11] 3186 	add	hl, bc
    00000F43 EB               [ 4] 3187 	ex	de, hl
    00000F44 ED 53r02r00      [20] 3188 	ld	((_g_Ball + 2)), de
                                   3189 ;E:\Dropbox\FAUSTO\SVILUPPI\MSX\CODE\C\MSXgl\projects\soccerlgSCC/soccerlg_s4_b3.c:657: g_Ball.Y=g_Players[playerId].Y - distY + BallAlignCorrectY[calcDir];
    00000F48 DD 6E F5         [19] 3190 	ld	l, -11 (ix)
    00000F4B DD 66 F6         [19] 3191 	ld	h, -10 (ix)
    00000F4E 4E               [ 7] 3192 	ld	c, (hl)
    00000F4F 23               [ 6] 3193 	inc	hl
    00000F50 46               [ 7] 3194 	ld	b, (hl)
    00000F51 DD 5E FF         [19] 3195 	ld	e, -1 (ix)
    00000F54 16 00            [ 7] 3196 	ld	d, #0x00
    00000F56 79               [ 4] 3197 	ld	a, c
    00000F57 93               [ 4] 3198 	sub	a, e
    00000F58 4F               [ 4] 3199 	ld	c, a
    00000F59 78               [ 4] 3200 	ld	a, b
    00000F5A 9A               [ 4] 3201 	sbc	a, d
    00000F5B 47               [ 4] 3202 	ld	b, a
    00000F5C DD 5E F8         [19] 3203 	ld	e, -8 (ix)
    00000F5F 16 00            [ 7] 3204 	ld	d, #0x00
    00000F61 21 23 00         [10] 3205 	ld	hl, #35
    00000F64 39               [11] 3206 	add	hl, sp
    00000F65 19               [11] 3207 	add	hl, de
    00000F66 7E               [ 7] 3208 	ld	a, (hl)
    00000F67 6F               [ 4] 3209 	ld	l, a
                                   3210 ;	spillPairReg hl
                                   3211 ;	spillPairReg hl
    00000F68 07               [ 4] 3212 	rlca
    00000F69 9F               [ 4] 3213 	sbc	a, a
    00000F6A 67               [ 4] 3214 	ld	h, a
                                   3215 ;	spillPairReg hl
                                   3216 ;	spillPairReg hl
    00000F6B 09               [11] 3217 	add	hl, bc
    00000F6C EB               [ 4] 3218 	ex	de, hl
    00000F6D ED 53r00r00      [20] 3219 	ld	(_g_Ball), de
                                   3220 ;E:\Dropbox\FAUSTO\SVILUPPI\MSX\CODE\C\MSXgl\projects\soccerlgSCC/soccerlg_s4_b3.c:658: break;
    00000F71 C3r16r10         [10] 3221 	jp	00126$
                                   3222 ;E:\Dropbox\FAUSTO\SVILUPPI\MSX\CODE\C\MSXgl\projects\soccerlgSCC/soccerlg_s4_b3.c:659: case DIRECTION_DOWN_LEFT:
    00000F74                       3223 00124$:
                                   3224 ;E:\Dropbox\FAUSTO\SVILUPPI\MSX\CODE\C\MSXgl\projects\soccerlgSCC/soccerlg_s4_b3.c:660: g_Ball.X=g_Players[playerId].X - distX + BallAlignCorrectX[calcDir];
    00000F74 DD 6E F5         [19] 3225 	ld	l, -11 (ix)
                                   3226 ;	spillPairReg hl
                                   3227 ;	spillPairReg hl
    00000F77 DD 66 F6         [19] 3228 	ld	h, -10 (ix)
                                   3229 ;	spillPairReg hl
                                   3230 ;	spillPairReg hl
    00000F7A 23               [ 6] 3231 	inc	hl
    00000F7B 23               [ 6] 3232 	inc	hl
    00000F7C 4E               [ 7] 3233 	ld	c, (hl)
    00000F7D 23               [ 6] 3234 	inc	hl
    00000F7E 46               [ 7] 3235 	ld	b, (hl)
    00000F7F DD 5E FE         [19] 3236 	ld	e, -2 (ix)
    00000F82 16 00            [ 7] 3237 	ld	d, #0x00
    00000F84 79               [ 4] 3238 	ld	a, c
    00000F85 93               [ 4] 3239 	sub	a, e
    00000F86 4F               [ 4] 3240 	ld	c, a
    00000F87 78               [ 4] 3241 	ld	a, b
    00000F88 9A               [ 4] 3242 	sbc	a, d
    00000F89 47               [ 4] 3243 	ld	b, a
    00000F8A DD 5E F8         [19] 3244 	ld	e, -8 (ix)
    00000F8D 16 00            [ 7] 3245 	ld	d, #0x00
    00000F8F 21 1A 00         [10] 3246 	ld	hl, #26
    00000F92 39               [11] 3247 	add	hl, sp
    00000F93 19               [11] 3248 	add	hl, de
    00000F94 7E               [ 7] 3249 	ld	a, (hl)
    00000F95 6F               [ 4] 3250 	ld	l, a
                                   3251 ;	spillPairReg hl
                                   3252 ;	spillPairReg hl
    00000F96 07               [ 4] 3253 	rlca
    00000F97 9F               [ 4] 3254 	sbc	a, a
    00000F98 67               [ 4] 3255 	ld	h, a
                                   3256 ;	spillPairReg hl
                                   3257 ;	spillPairReg hl
    00000F99 09               [11] 3258 	add	hl, bc
    00000F9A EB               [ 4] 3259 	ex	de, hl
    00000F9B ED 53r02r00      [20] 3260 	ld	((_g_Ball + 2)), de
                                   3261 ;E:\Dropbox\FAUSTO\SVILUPPI\MSX\CODE\C\MSXgl\projects\soccerlgSCC/soccerlg_s4_b3.c:661: g_Ball.Y=g_Players[playerId].Y + distY + BallAlignCorrectY[calcDir];
    00000F9F DD 6E F5         [19] 3262 	ld	l, -11 (ix)
    00000FA2 DD 66 F6         [19] 3263 	ld	h, -10 (ix)
    00000FA5 4E               [ 7] 3264 	ld	c, (hl)
    00000FA6 23               [ 6] 3265 	inc	hl
    00000FA7 46               [ 7] 3266 	ld	b, (hl)
    00000FA8 DD 6E FF         [19] 3267 	ld	l, -1 (ix)
                                   3268 ;	spillPairReg hl
                                   3269 ;	spillPairReg hl
    00000FAB 26 00            [ 7] 3270 	ld	h, #0x00
                                   3271 ;	spillPairReg hl
                                   3272 ;	spillPairReg hl
    00000FAD 09               [11] 3273 	add	hl, bc
    00000FAE 4D               [ 4] 3274 	ld	c, l
    00000FAF 44               [ 4] 3275 	ld	b, h
    00000FB0 DD 5E F8         [19] 3276 	ld	e, -8 (ix)
    00000FB3 16 00            [ 7] 3277 	ld	d, #0x00
    00000FB5 21 23 00         [10] 3278 	ld	hl, #35
    00000FB8 39               [11] 3279 	add	hl, sp
    00000FB9 19               [11] 3280 	add	hl, de
    00000FBA 7E               [ 7] 3281 	ld	a, (hl)
    00000FBB 6F               [ 4] 3282 	ld	l, a
                                   3283 ;	spillPairReg hl
                                   3284 ;	spillPairReg hl
    00000FBC 07               [ 4] 3285 	rlca
    00000FBD 9F               [ 4] 3286 	sbc	a, a
    00000FBE 67               [ 4] 3287 	ld	h, a
                                   3288 ;	spillPairReg hl
                                   3289 ;	spillPairReg hl
    00000FBF 09               [11] 3290 	add	hl, bc
    00000FC0 EB               [ 4] 3291 	ex	de, hl
    00000FC1 ED 53r00r00      [20] 3292 	ld	(_g_Ball), de
                                   3293 ;E:\Dropbox\FAUSTO\SVILUPPI\MSX\CODE\C\MSXgl\projects\soccerlgSCC/soccerlg_s4_b3.c:662: break;
    00000FC5 C3r16r10         [10] 3294 	jp	00126$
                                   3295 ;E:\Dropbox\FAUSTO\SVILUPPI\MSX\CODE\C\MSXgl\projects\soccerlgSCC/soccerlg_s4_b3.c:663: case DIRECTION_DOWN_RIGHT:
    00000FC8                       3296 00125$:
                                   3297 ;E:\Dropbox\FAUSTO\SVILUPPI\MSX\CODE\C\MSXgl\projects\soccerlgSCC/soccerlg_s4_b3.c:664: g_Ball.X=g_Players[playerId].X + distX + BallAlignCorrectX[calcDir];
    00000FC8 DD 6E F5         [19] 3298 	ld	l, -11 (ix)
                                   3299 ;	spillPairReg hl
                                   3300 ;	spillPairReg hl
    00000FCB DD 66 F6         [19] 3301 	ld	h, -10 (ix)
                                   3302 ;	spillPairReg hl
                                   3303 ;	spillPairReg hl
    00000FCE 23               [ 6] 3304 	inc	hl
    00000FCF 23               [ 6] 3305 	inc	hl
    00000FD0 4E               [ 7] 3306 	ld	c, (hl)
    00000FD1 23               [ 6] 3307 	inc	hl
    00000FD2 46               [ 7] 3308 	ld	b, (hl)
    00000FD3 DD 6E FE         [19] 3309 	ld	l, -2 (ix)
                                   3310 ;	spillPairReg hl
                                   3311 ;	spillPairReg hl
    00000FD6 26 00            [ 7] 3312 	ld	h, #0x00
                                   3313 ;	spillPairReg hl
                                   3314 ;	spillPairReg hl
    00000FD8 09               [11] 3315 	add	hl, bc
    00000FD9 4D               [ 4] 3316 	ld	c, l
    00000FDA 44               [ 4] 3317 	ld	b, h
    00000FDB DD 5E F8         [19] 3318 	ld	e, -8 (ix)
    00000FDE 16 00            [ 7] 3319 	ld	d, #0x00
    00000FE0 21 1A 00         [10] 3320 	ld	hl, #26
    00000FE3 39               [11] 3321 	add	hl, sp
    00000FE4 19               [11] 3322 	add	hl, de
    00000FE5 7E               [ 7] 3323 	ld	a, (hl)
    00000FE6 6F               [ 4] 3324 	ld	l, a
                                   3325 ;	spillPairReg hl
                                   3326 ;	spillPairReg hl
    00000FE7 07               [ 4] 3327 	rlca
    00000FE8 9F               [ 4] 3328 	sbc	a, a
    00000FE9 67               [ 4] 3329 	ld	h, a
                                   3330 ;	spillPairReg hl
                                   3331 ;	spillPairReg hl
    00000FEA 09               [11] 3332 	add	hl, bc
    00000FEB EB               [ 4] 3333 	ex	de, hl
    00000FEC ED 53r02r00      [20] 3334 	ld	((_g_Ball + 2)), de
                                   3335 ;E:\Dropbox\FAUSTO\SVILUPPI\MSX\CODE\C\MSXgl\projects\soccerlgSCC/soccerlg_s4_b3.c:665: g_Ball.Y=g_Players[playerId].Y + distY + BallAlignCorrectY[calcDir];
    00000FF0 DD 6E F5         [19] 3336 	ld	l, -11 (ix)
    00000FF3 DD 66 F6         [19] 3337 	ld	h, -10 (ix)
    00000FF6 4E               [ 7] 3338 	ld	c, (hl)
    00000FF7 23               [ 6] 3339 	inc	hl
    00000FF8 46               [ 7] 3340 	ld	b, (hl)
    00000FF9 DD 6E FF         [19] 3341 	ld	l, -1 (ix)
                                   3342 ;	spillPairReg hl
                                   3343 ;	spillPairReg hl
    00000FFC 26 00            [ 7] 3344 	ld	h, #0x00
                                   3345 ;	spillPairReg hl
                                   3346 ;	spillPairReg hl
    00000FFE 09               [11] 3347 	add	hl, bc
    00000FFF 4D               [ 4] 3348 	ld	c, l
    00001000 44               [ 4] 3349 	ld	b, h
    00001001 DD 5E F8         [19] 3350 	ld	e, -8 (ix)
    00001004 16 00            [ 7] 3351 	ld	d, #0x00
    00001006 21 23 00         [10] 3352 	ld	hl, #35
    00001009 39               [11] 3353 	add	hl, sp
    0000100A 19               [11] 3354 	add	hl, de
    0000100B 7E               [ 7] 3355 	ld	a, (hl)
    0000100C 6F               [ 4] 3356 	ld	l, a
                                   3357 ;	spillPairReg hl
                                   3358 ;	spillPairReg hl
    0000100D 07               [ 4] 3359 	rlca
    0000100E 9F               [ 4] 3360 	sbc	a, a
    0000100F 67               [ 4] 3361 	ld	h, a
                                   3362 ;	spillPairReg hl
                                   3363 ;	spillPairReg hl
    00001010 09               [11] 3364 	add	hl, bc
    00001011 EB               [ 4] 3365 	ex	de, hl
    00001012 ED 53r00r00      [20] 3366 	ld	(_g_Ball), de
                                   3367 ;E:\Dropbox\FAUSTO\SVILUPPI\MSX\CODE\C\MSXgl\projects\soccerlgSCC/soccerlg_s4_b3.c:667: }
    00001016                       3368 00126$:
                                   3369 ;E:\Dropbox\FAUSTO\SVILUPPI\MSX\CODE\C\MSXgl\projects\soccerlgSCC/soccerlg_s4_b3.c:668: g_Ball.Direction=dir;
    00001016 21r05r00         [10] 3370 	ld	hl, #(_g_Ball + 5)
    00001019 DD 7E F7         [19] 3371 	ld	a, -9 (ix)
    0000101C 77               [ 7] 3372 	ld	(hl), a
                                   3373 ;E:\Dropbox\FAUSTO\SVILUPPI\MSX\CODE\C\MSXgl\projects\soccerlgSCC/soccerlg_s4_b3.c:669: }
    0000101D DD F9            [10] 3374 	ld	sp, ix
    0000101F DD E1            [14] 3375 	pop	ix
    00001021 C9               [10] 3376 	ret
                                   3377 ;E:\Dropbox\FAUSTO\SVILUPPI\MSX\CODE\C\MSXgl\projects\soccerlgSCC/soccerlg_s4_b3.c:672: void TickCornerKick() {
                                   3378 ;	---------------------------------
                                   3379 ; Function TickCornerKick
                                   3380 ; ---------------------------------
    00001022                       3381 _TickCornerKick::
    00001022 DD E5            [15] 3382 	push	ix
    00001024 DD 21 00 00      [14] 3383 	ld	ix,#0
    00001028 DD 39            [15] 3384 	add	ix,sp
    0000102A 21 E9 FF         [10] 3385 	ld	hl, #-23
    0000102D 39               [11] 3386 	add	hl, sp
    0000102E F9               [ 6] 3387 	ld	sp, hl
                                   3388 ;E:\Dropbox\FAUSTO\SVILUPPI\MSX\CODE\C\MSXgl\projects\soccerlgSCC/soccerlg_s4_b3.c:673: if (g_MatchStatus != MATCH_BEFORE_CORNER_KICK) return;
    0000102F 3Ar00r00         [13] 3389 	ld	a, (_g_MatchStatus+0)
    00001032 D6 02            [ 7] 3390 	sub	a, #0x02
    00001034 C2r13r1A         [10] 3391 	jp	NZ,00243$
                                   3392 ;E:\Dropbox\FAUSTO\SVILUPPI\MSX\CODE\C\MSXgl\projects\soccerlgSCC/soccerlg_s4_b3.c:676: if (g_Timer == 0) s_ForceKickTimer = 0;
    00001037 3Ar00r00         [13] 3393 	ld	a, (_g_Timer+0)
    0000103A B7               [ 4] 3394 	or	a, a
    0000103B 20 06            [12] 3395 	jr	NZ, 00104$
    0000103D 21 00 00         [10] 3396 	ld	hl, #0x0000
    00001040 22r00r00         [16] 3397 	ld	(_TickCornerKick_s_ForceKickTimer_65537_1432), hl
    00001043                       3398 00104$:
                                   3399 ;E:\Dropbox\FAUSTO\SVILUPPI\MSX\CODE\C\MSXgl\projects\soccerlgSCC/soccerlg_s4_b3.c:682: if (g_Ball.PossessionPlayerId != NO_VALUE) {
    00001043 3Ar06r00         [13] 3400 	ld	a, (#(_g_Ball + 6) + 0)
    00001046 FE FF            [ 7] 3401 	cp	a, #0xff
    00001048 28 06            [12] 3402 	jr	Z, 00109$
                                   3403 ;E:\Dropbox\FAUSTO\SVILUPPI\MSX\CODE\C\MSXgl\projects\soccerlgSCC/soccerlg_s4_b3.c:683: kickerId = g_Ball.PossessionPlayerId;
    0000104A DD 77 E9         [19] 3404 	ld	-23 (ix), a
    0000104D C3r6Fr10         [10] 3405 	jp	00110$
    00001050                       3406 00109$:
                                   3407 ;E:\Dropbox\FAUSTO\SVILUPPI\MSX\CODE\C\MSXgl\projects\soccerlgSCC/soccerlg_s4_b3.c:685: if (g_CornerKickSide == CORNER_SIDE_LEFT) kickerId = GetPlayerIdByRole(g_RestartKickTeamId, PLAYER_ROLE_LEFT_STRIKER);
    00001050 3Ar00r00         [13] 3408 	ld	a, (_g_CornerKickSide+0)
    00001053 B7               [ 4] 3409 	or	a, a
    00001054 20 0E            [12] 3410 	jr	NZ, 00106$
    00001056 2E 05            [ 7] 3411 	ld	l, #0x05
                                   3412 ;	spillPairReg hl
                                   3413 ;	spillPairReg hl
    00001058 3Ar00r00         [13] 3414 	ld	a, (_g_RestartKickTeamId+0)
    0000105B CDr67r09         [17] 3415 	call	_GetPlayerIdByRole
    0000105E DD 77 E9         [19] 3416 	ld	-23 (ix), a
    00001061 C3r6Fr10         [10] 3417 	jp	00110$
    00001064                       3418 00106$:
                                   3419 ;E:\Dropbox\FAUSTO\SVILUPPI\MSX\CODE\C\MSXgl\projects\soccerlgSCC/soccerlg_s4_b3.c:686: else kickerId = GetPlayerIdByRole(g_RestartKickTeamId, PLAYER_ROLE_RIGHT_STRIKER);
    00001064 2E 06            [ 7] 3420 	ld	l, #0x06
                                   3421 ;	spillPairReg hl
                                   3422 ;	spillPairReg hl
    00001066 3Ar00r00         [13] 3423 	ld	a, (_g_RestartKickTeamId+0)
    00001069 CDr67r09         [17] 3424 	call	_GetPlayerIdByRole
    0000106C DD 77 E9         [19] 3425 	ld	-23 (ix), a
    0000106F                       3426 00110$:
                                   3427 ;E:\Dropbox\FAUSTO\SVILUPPI\MSX\CODE\C\MSXgl\projects\soccerlgSCC/soccerlg_s4_b3.c:690: if (kickerId == NO_VALUE) {
    0000106F DD 7E E9         [19] 3428 	ld	a, -23 (ix)
    00001072 3C               [ 4] 3429 	inc	a
    00001073 20 0B            [12] 3430 	jr	NZ, 00112$
                                   3431 ;E:\Dropbox\FAUSTO\SVILUPPI\MSX\CODE\C\MSXgl\projects\soccerlgSCC/soccerlg_s4_b3.c:691: kickerId = GetClosestPlayerToBall(g_RestartKickTeamId, NO_VALUE);
    00001075 2E FF            [ 7] 3432 	ld	l, #0xff
                                   3433 ;	spillPairReg hl
                                   3434 ;	spillPairReg hl
    00001077 3Ar00r00         [13] 3435 	ld	a, (_g_RestartKickTeamId+0)
    0000107A CDrC2r09         [17] 3436 	call	_GetClosestPlayerToBall
    0000107D DD 77 E9         [19] 3437 	ld	-23 (ix), a
    00001080                       3438 00112$:
                                   3439 ;E:\Dropbox\FAUSTO\SVILUPPI\MSX\CODE\C\MSXgl\projects\soccerlgSCC/soccerlg_s4_b3.c:699: bool kickerArrived = false;
    00001080 DD 36 EA 00      [19] 3440 	ld	-22 (ix), #0x00
                                   3441 ;E:\Dropbox\FAUSTO\SVILUPPI\MSX\CODE\C\MSXgl\projects\soccerlgSCC/soccerlg_s4_b3.c:700: if (kickerId != NO_VALUE) {
    00001084 DD 7E E9         [19] 3442 	ld	a, -23 (ix)
    00001087 3C               [ 4] 3443 	inc	a
    00001088 3E 01            [ 7] 3444 	ld	a, #0x01
    0000108A 28 01            [12] 3445 	jr	Z, 00701$
    0000108C AF               [ 4] 3446 	xor	a, a
    0000108D                       3447 00701$:
    0000108D DD 77 EB         [19] 3448 	ld	-21 (ix), a
    00001090 DD CB EB 46      [20] 3449 	bit	0, -21 (ix)
    00001094 C2r1Dr12         [10] 3450 	jp	NZ, 00121$
                                   3451 ;E:\Dropbox\FAUSTO\SVILUPPI\MSX\CODE\C\MSXgl\projects\soccerlgSCC/soccerlg_s4_b3.c:701: i16 dx = (i16)g_Players[kickerId].X - (i16)g_Players[kickerId].TargetX;
    00001097 DD 4E E9         [19] 3452 	ld	c, -23 (ix)
    0000109A 06 00            [ 7] 3453 	ld	b, #0x00
    0000109C 69               [ 4] 3454 	ld	l, c
    0000109D 60               [ 4] 3455 	ld	h, b
    0000109E 29               [11] 3456 	add	hl, hl
    0000109F 29               [11] 3457 	add	hl, hl
    000010A0 09               [11] 3458 	add	hl, bc
    000010A1 29               [11] 3459 	add	hl, hl
    000010A2 29               [11] 3460 	add	hl, hl
    000010A3 09               [11] 3461 	add	hl, bc
    000010A4 DD 75 FE         [19] 3462 	ld	-2 (ix), l
    000010A7 DD 74 FF         [19] 3463 	ld	-1 (ix), h
    000010AA 3Er00            [ 7] 3464 	ld	a, #<(_g_Players)
    000010AC DD 86 FE         [19] 3465 	add	a, -2 (ix)
    000010AF DD 77 F0         [19] 3466 	ld	-16 (ix), a
    000010B2 3Es00            [ 7] 3467 	ld	a, #>(_g_Players)
    000010B4 DD 8E FF         [19] 3468 	adc	a, -1 (ix)
    000010B7 DD 77 F1         [19] 3469 	ld	-15 (ix), a
    000010BA DD 7E F0         [19] 3470 	ld	a, -16 (ix)
    000010BD C6 02            [ 7] 3471 	add	a, #0x02
    000010BF DD 77 F2         [19] 3472 	ld	-14 (ix), a
    000010C2 DD 7E F1         [19] 3473 	ld	a, -15 (ix)
    000010C5 CE 00            [ 7] 3474 	adc	a, #0x00
    000010C7 DD 77 F3         [19] 3475 	ld	-13 (ix), a
    000010CA DD 6E F2         [19] 3476 	ld	l, -14 (ix)
    000010CD DD 66 F3         [19] 3477 	ld	h, -13 (ix)
    000010D0 7E               [ 7] 3478 	ld	a, (hl)
    000010D1 DD 77 FE         [19] 3479 	ld	-2 (ix), a
    000010D4 23               [ 6] 3480 	inc	hl
    000010D5 7E               [ 7] 3481 	ld	a, (hl)
    000010D6 DD 77 FF         [19] 3482 	ld	-1 (ix), a
    000010D9 DD 7E FE         [19] 3483 	ld	a, -2 (ix)
    000010DC DD 77 FA         [19] 3484 	ld	-6 (ix), a
    000010DF DD 7E FF         [19] 3485 	ld	a, -1 (ix)
    000010E2 DD 77 FB         [19] 3486 	ld	-5 (ix), a
    000010E5 DD 7E F0         [19] 3487 	ld	a, -16 (ix)
    000010E8 DD 77 FE         [19] 3488 	ld	-2 (ix), a
    000010EB DD 7E F1         [19] 3489 	ld	a, -15 (ix)
    000010EE DD 77 FF         [19] 3490 	ld	-1 (ix), a
    000010F1 DD 6E FE         [19] 3491 	ld	l, -2 (ix)
    000010F4 DD 66 FF         [19] 3492 	ld	h, -1 (ix)
    000010F7 11 10 00         [10] 3493 	ld	de, #0x0010
    000010FA 19               [11] 3494 	add	hl, de
    000010FB 7E               [ 7] 3495 	ld	a, (hl)
    000010FC DD 77 F4         [19] 3496 	ld	-12 (ix), a
    000010FF 23               [ 6] 3497 	inc	hl
    00001100 7E               [ 7] 3498 	ld	a, (hl)
    00001101 DD 77 F5         [19] 3499 	ld	-11 (ix), a
    00001104 DD 7E F4         [19] 3500 	ld	a, -12 (ix)
    00001107 DD 77 FC         [19] 3501 	ld	-4 (ix), a
    0000110A DD 7E F5         [19] 3502 	ld	a, -11 (ix)
    0000110D DD 77 FD         [19] 3503 	ld	-3 (ix), a
    00001110 DD 7E FA         [19] 3504 	ld	a, -6 (ix)
    00001113 DD 96 FC         [19] 3505 	sub	a, -4 (ix)
    00001116 DD 77 FE         [19] 3506 	ld	-2 (ix), a
    00001119 DD 7E FB         [19] 3507 	ld	a, -5 (ix)
    0000111C DD 9E FD         [19] 3508 	sbc	a, -3 (ix)
    0000111F DD 77 FF         [19] 3509 	ld	-1 (ix), a
    00001122 DD 7E FE         [19] 3510 	ld	a, -2 (ix)
    00001125 DD 77 F6         [19] 3511 	ld	-10 (ix), a
    00001128 DD 7E FF         [19] 3512 	ld	a, -1 (ix)
    0000112B DD 77 F7         [19] 3513 	ld	-9 (ix), a
                                   3514 ;E:\Dropbox\FAUSTO\SVILUPPI\MSX\CODE\C\MSXgl\projects\soccerlgSCC/soccerlg_s4_b3.c:702: i16 dy = (i16)g_Players[kickerId].Y - (i16)g_Players[kickerId].TargetY;
    0000112E DD 6E F0         [19] 3515 	ld	l, -16 (ix)
    00001131 DD 66 F1         [19] 3516 	ld	h, -15 (ix)
    00001134 7E               [ 7] 3517 	ld	a, (hl)
    00001135 DD 77 FE         [19] 3518 	ld	-2 (ix), a
    00001138 23               [ 6] 3519 	inc	hl
    00001139 7E               [ 7] 3520 	ld	a, (hl)
    0000113A DD 77 FF         [19] 3521 	ld	-1 (ix), a
    0000113D DD 7E FE         [19] 3522 	ld	a, -2 (ix)
    00001140 DD 77 F8         [19] 3523 	ld	-8 (ix), a
    00001143 DD 7E FF         [19] 3524 	ld	a, -1 (ix)
    00001146 DD 77 F9         [19] 3525 	ld	-7 (ix), a
    00001149 DD 7E F0         [19] 3526 	ld	a, -16 (ix)
    0000114C C6 0E            [ 7] 3527 	add	a, #0x0e
    0000114E DD 77 FA         [19] 3528 	ld	-6 (ix), a
    00001151 DD 7E F1         [19] 3529 	ld	a, -15 (ix)
    00001154 CE 00            [ 7] 3530 	adc	a, #0x00
    00001156 DD 77 FB         [19] 3531 	ld	-5 (ix), a
    00001159 DD 6E FA         [19] 3532 	ld	l, -6 (ix)
    0000115C DD 66 FB         [19] 3533 	ld	h, -5 (ix)
    0000115F 7E               [ 7] 3534 	ld	a, (hl)
    00001160 DD 77 FE         [19] 3535 	ld	-2 (ix), a
    00001163 23               [ 6] 3536 	inc	hl
    00001164 7E               [ 7] 3537 	ld	a, (hl)
    00001165 DD 77 FF         [19] 3538 	ld	-1 (ix), a
    00001168 DD 7E FE         [19] 3539 	ld	a, -2 (ix)
    0000116B DD 77 FC         [19] 3540 	ld	-4 (ix), a
    0000116E DD 7E FF         [19] 3541 	ld	a, -1 (ix)
    00001171 DD 77 FD         [19] 3542 	ld	-3 (ix), a
    00001174 DD 7E F8         [19] 3543 	ld	a, -8 (ix)
    00001177 DD 96 FC         [19] 3544 	sub	a, -4 (ix)
    0000117A DD 77 FE         [19] 3545 	ld	-2 (ix), a
    0000117D DD 7E F9         [19] 3546 	ld	a, -7 (ix)
    00001180 DD 9E FD         [19] 3547 	sbc	a, -3 (ix)
    00001183 DD 77 FF         [19] 3548 	ld	-1 (ix), a
                                   3549 ;E:\Dropbox\FAUSTO\SVILUPPI\MSX\CODE\C\MSXgl\projects\soccerlgSCC/soccerlg_s4_b3.c:704: if (dx >= -2 && dx <= 2 && dy >= -2 && dy <= 2) {
    00001186 DD 7E F6         [19] 3550 	ld	a, -10 (ix)
    00001189 D6 FE            [ 7] 3551 	sub	a, #0xfe
    0000118B DD 7E F7         [19] 3552 	ld	a, -9 (ix)
    0000118E 17               [ 4] 3553 	rla
    0000118F 3F               [ 4] 3554 	ccf
    00001190 1F               [ 4] 3555 	rra
    00001191 DE 7F            [ 7] 3556 	sbc	a, #0x7f
    00001193 DAr1Dr12         [10] 3557 	jp	C, 00121$
    00001196 DD 4E F6         [19] 3558 	ld	c, -10 (ix)
    00001199 DD 46 F7         [19] 3559 	ld	b, -9 (ix)
    0000119C 3E 02            [ 7] 3560 	ld	a, #0x02
    0000119E B9               [ 4] 3561 	cp	a, c
    0000119F 3E 00            [ 7] 3562 	ld	a, #0x00
    000011A1 98               [ 4] 3563 	sbc	a, b
    000011A2 E2rA7r11         [10] 3564 	jp	PO, 00702$
    000011A5 EE 80            [ 7] 3565 	xor	a, #0x80
    000011A7                       3566 00702$:
    000011A7 FAr1Dr12         [10] 3567 	jp	M, 00121$
    000011AA DD 7E FE         [19] 3568 	ld	a, -2 (ix)
    000011AD D6 FE            [ 7] 3569 	sub	a, #0xfe
    000011AF DD 7E FF         [19] 3570 	ld	a, -1 (ix)
    000011B2 17               [ 4] 3571 	rla
    000011B3 3F               [ 4] 3572 	ccf
    000011B4 1F               [ 4] 3573 	rra
    000011B5 DE 7F            [ 7] 3574 	sbc	a, #0x7f
    000011B7 38 64            [12] 3575 	jr	C, 00121$
    000011B9 DD 4E FE         [19] 3576 	ld	c, -2 (ix)
    000011BC DD 46 FF         [19] 3577 	ld	b, -1 (ix)
    000011BF 3E 02            [ 7] 3578 	ld	a, #0x02
    000011C1 B9               [ 4] 3579 	cp	a, c
    000011C2 3E 00            [ 7] 3580 	ld	a, #0x00
    000011C4 98               [ 4] 3581 	sbc	a, b
    000011C5 E2rCAr11         [10] 3582 	jp	PO, 00703$
    000011C8 EE 80            [ 7] 3583 	xor	a, #0x80
    000011CA                       3584 00703$:
    000011CA FAr1Dr12         [10] 3585 	jp	M, 00121$
                                   3586 ;E:\Dropbox\FAUSTO\SVILUPPI\MSX\CODE\C\MSXgl\projects\soccerlgSCC/soccerlg_s4_b3.c:705: kickerArrived = true;
    000011CD DD 36 EA 01      [19] 3587 	ld	-22 (ix), #0x01
                                   3588 ;E:\Dropbox\FAUSTO\SVILUPPI\MSX\CODE\C\MSXgl\projects\soccerlgSCC/soccerlg_s4_b3.c:706: g_Players[kickerId].X = g_Players[kickerId].TargetX;
    000011D1 DD 6E F2         [19] 3589 	ld	l, -14 (ix)
    000011D4 DD 66 F3         [19] 3590 	ld	h, -13 (ix)
    000011D7 DD 7E F4         [19] 3591 	ld	a, -12 (ix)
    000011DA 77               [ 7] 3592 	ld	(hl), a
    000011DB 23               [ 6] 3593 	inc	hl
    000011DC DD 7E F5         [19] 3594 	ld	a, -11 (ix)
    000011DF 77               [ 7] 3595 	ld	(hl), a
                                   3596 ;E:\Dropbox\FAUSTO\SVILUPPI\MSX\CODE\C\MSXgl\projects\soccerlgSCC/soccerlg_s4_b3.c:707: g_Players[kickerId].Y = g_Players[kickerId].TargetY;
    000011E0 DD 6E FA         [19] 3597 	ld	l, -6 (ix)
    000011E3 DD 66 FB         [19] 3598 	ld	h, -5 (ix)
    000011E6 4E               [ 7] 3599 	ld	c, (hl)
    000011E7 23               [ 6] 3600 	inc	hl
    000011E8 46               [ 7] 3601 	ld	b, (hl)
    000011E9 DD 6E F0         [19] 3602 	ld	l, -16 (ix)
    000011EC DD 66 F1         [19] 3603 	ld	h, -15 (ix)
    000011EF 71               [ 7] 3604 	ld	(hl), c
    000011F0 23               [ 6] 3605 	inc	hl
    000011F1 70               [ 7] 3606 	ld	(hl), b
                                   3607 ;E:\Dropbox\FAUSTO\SVILUPPI\MSX\CODE\C\MSXgl\projects\soccerlgSCC/soccerlg_s4_b3.c:708: g_Players[kickerId].Status = PLAYER_STATUS_POSITIONED;
    000011F2 DD 6E F0         [19] 3608 	ld	l, -16 (ix)
    000011F5 DD 66 F1         [19] 3609 	ld	h, -15 (ix)
    000011F8 11 12 00         [10] 3610 	ld	de, #0x0012
    000011FB 19               [11] 3611 	add	hl, de
    000011FC 36 04            [10] 3612 	ld	(hl), #0x04
    000011FE 23               [ 6] 3613 	inc	hl
    000011FF 36 00            [10] 3614 	ld	(hl), #0x00
                                   3615 ;E:\Dropbox\FAUSTO\SVILUPPI\MSX\CODE\C\MSXgl\projects\soccerlgSCC/soccerlg_s4_b3.c:710: if (g_Ball.PossessionPlayerId != kickerId) {
    00001201 21r06r00         [10] 3616 	ld	hl, #(_g_Ball + 6)
    00001204 DD 7E E9         [19] 3617 	ld	a,-23 (ix)
    00001207 96               [ 7] 3618 	sub	a,(hl)
    00001208 28 13            [12] 3619 	jr	Z, 00121$
                                   3620 ;E:\Dropbox\FAUSTO\SVILUPPI\MSX\CODE\C\MSXgl\projects\soccerlgSCC/soccerlg_s4_b3.c:711: SetPlayerBallPossession(kickerId);
    0000120A DD 7E E9         [19] 3621 	ld	a, -23 (ix)
    0000120D CDrE5r0A         [17] 3622 	call	_SetPlayerBallPossession
                                   3623 ;E:\Dropbox\FAUSTO\SVILUPPI\MSX\CODE\C\MSXgl\projects\soccerlgSCC/soccerlg_s4_b3.c:712: g_Ball.PossessionPlayerId = kickerId;
    00001210 21r06r00         [10] 3624 	ld	hl, #(_g_Ball + 6)
    00001213 DD 7E E9         [19] 3625 	ld	a, -23 (ix)
    00001216 77               [ 7] 3626 	ld	(hl), a
                                   3627 ;E:\Dropbox\FAUSTO\SVILUPPI\MSX\CODE\C\MSXgl\projects\soccerlgSCC/soccerlg_s4_b3.c:713: PutBallOnPlayerFeet(kickerId);
    00001217 DD 7E E9         [19] 3628 	ld	a, -23 (ix)
    0000121A CDr23r0B         [17] 3629 	call	_PutBallOnPlayerFeet
    0000121D                       3630 00121$:
                                   3631 ;E:\Dropbox\FAUSTO\SVILUPPI\MSX\CODE\C\MSXgl\projects\soccerlgSCC/soccerlg_s4_b3.c:719: bool teammatesArrived = true;
    0000121D DD 36 EC 01      [19] 3632 	ld	-20 (ix), #0x01
                                   3633 ;E:\Dropbox\FAUSTO\SVILUPPI\MSX\CODE\C\MSXgl\projects\soccerlgSCC/soccerlg_s4_b3.c:720: for(u8 i=0; i<14; i++) {
    00001221 DD 36 FF 00      [19] 3634 	ld	-1 (ix), #0x00
    00001225                       3635 00236$:
    00001225 DD 7E FF         [19] 3636 	ld	a, -1 (ix)
    00001228 D6 0E            [ 7] 3637 	sub	a, #0x0e
    0000122A D2rFCr13         [10] 3638 	jp	NC, 00134$
                                   3639 ;E:\Dropbox\FAUSTO\SVILUPPI\MSX\CODE\C\MSXgl\projects\soccerlgSCC/soccerlg_s4_b3.c:721: if (g_Players[i].TeamId == g_RestartKickTeamId && i != kickerId && g_Players[i].Role != PLAYER_ROLE_GOALKEEPER) {
    0000122D DD 4E FF         [19] 3640 	ld	c, -1 (ix)
    00001230 06 00            [ 7] 3641 	ld	b, #0x00
    00001232 69               [ 4] 3642 	ld	l, c
    00001233 60               [ 4] 3643 	ld	h, b
    00001234 29               [11] 3644 	add	hl, hl
    00001235 29               [11] 3645 	add	hl, hl
    00001236 09               [11] 3646 	add	hl, bc
    00001237 29               [11] 3647 	add	hl, hl
    00001238 29               [11] 3648 	add	hl, hl
    00001239 09               [11] 3649 	add	hl, bc
    0000123A DD 75 FD         [19] 3650 	ld	-3 (ix), l
    0000123D DD 74 FE         [19] 3651 	ld	-2 (ix), h
    00001240 DD 7E FD         [19] 3652 	ld	a, -3 (ix)
    00001243 C6r00            [ 7] 3653 	add	a, #<(_g_Players)
    00001245 DD 77 ED         [19] 3654 	ld	-19 (ix), a
    00001248 DD 7E FE         [19] 3655 	ld	a, -2 (ix)
    0000124B CEs00            [ 7] 3656 	adc	a, #>(_g_Players)
    0000124D DD 77 EE         [19] 3657 	ld	-18 (ix), a
    00001250 DD 7E ED         [19] 3658 	ld	a, -19 (ix)
    00001253 DD 77 FD         [19] 3659 	ld	-3 (ix), a
    00001256 DD 7E EE         [19] 3660 	ld	a, -18 (ix)
    00001259 DD 77 FE         [19] 3661 	ld	-2 (ix), a
    0000125C DD 6E FD         [19] 3662 	ld	l, -3 (ix)
    0000125F DD 66 FE         [19] 3663 	ld	h, -2 (ix)
    00001262 11 09 00         [10] 3664 	ld	de, #0x0009
    00001265 19               [11] 3665 	add	hl, de
    00001266 4E               [ 7] 3666 	ld	c, (hl)
    00001267 3Ar00r00         [13] 3667 	ld	a, (_g_RestartKickTeamId+0)
    0000126A 91               [ 4] 3668 	sub	a, c
    0000126B C2rF6r13         [10] 3669 	jp	NZ,00237$
    0000126E DD 7E FF         [19] 3670 	ld	a, -1 (ix)
    00001271 DD 96 E9         [19] 3671 	sub	a, -23 (ix)
    00001274 CArF6r13         [10] 3672 	jp	Z,00237$
    00001277 DD 7E ED         [19] 3673 	ld	a, -19 (ix)
    0000127A DD 77 FD         [19] 3674 	ld	-3 (ix), a
    0000127D DD 7E EE         [19] 3675 	ld	a, -18 (ix)
    00001280 DD 77 FE         [19] 3676 	ld	-2 (ix), a
    00001283 DD 6E FD         [19] 3677 	ld	l, -3 (ix)
    00001286 DD 66 FE         [19] 3678 	ld	h, -2 (ix)
    00001289 11 0D 00         [10] 3679 	ld	de, #0x000d
    0000128C 19               [11] 3680 	add	hl, de
    0000128D 7E               [ 7] 3681 	ld	a, (hl)
    0000128E DD 77 FE         [19] 3682 	ld	-2 (ix), a
    00001291 B7               [ 4] 3683 	or	a, a
    00001292 CArF6r13         [10] 3684 	jp	Z, 00237$
                                   3685 ;E:\Dropbox\FAUSTO\SVILUPPI\MSX\CODE\C\MSXgl\projects\soccerlgSCC/soccerlg_s4_b3.c:723: if (g_Players[i].Status != PLAYER_STATUS_POSITIONED) {
    00001295 DD 7E ED         [19] 3686 	ld	a, -19 (ix)
    00001298 C6 12            [ 7] 3687 	add	a, #0x12
    0000129A DD 77 EF         [19] 3688 	ld	-17 (ix), a
    0000129D DD 7E EE         [19] 3689 	ld	a, -18 (ix)
    000012A0 CE 00            [ 7] 3690 	adc	a, #0x00
    000012A2 DD 77 F0         [19] 3691 	ld	-16 (ix), a
    000012A5 DD 6E EF         [19] 3692 	ld	l, -17 (ix)
    000012A8 DD 66 F0         [19] 3693 	ld	h, -16 (ix)
    000012AB 7E               [ 7] 3694 	ld	a, (hl)
    000012AC DD 77 FD         [19] 3695 	ld	-3 (ix), a
    000012AF 23               [ 6] 3696 	inc	hl
    000012B0 7E               [ 7] 3697 	ld	a, (hl)
    000012B1 DD 77 FE         [19] 3698 	ld	-2 (ix), a
    000012B4 DD 7E FD         [19] 3699 	ld	a, -3 (ix)
    000012B7 D6 04            [ 7] 3700 	sub	a, #0x04
    000012B9 DD B6 FE         [19] 3701 	or	a, -2 (ix)
    000012BC CArF6r13         [10] 3702 	jp	Z,00237$
                                   3703 ;E:\Dropbox\FAUSTO\SVILUPPI\MSX\CODE\C\MSXgl\projects\soccerlgSCC/soccerlg_s4_b3.c:724: i16 dx = (i16)g_Players[i].X - (i16)g_Players[i].TargetX;
    000012BF DD 7E ED         [19] 3704 	ld	a, -19 (ix)
    000012C2 C6 02            [ 7] 3705 	add	a, #0x02
    000012C4 DD 77 F1         [19] 3706 	ld	-15 (ix), a
    000012C7 DD 7E EE         [19] 3707 	ld	a, -18 (ix)
    000012CA CE 00            [ 7] 3708 	adc	a, #0x00
    000012CC DD 77 F2         [19] 3709 	ld	-14 (ix), a
    000012CF DD 6E F1         [19] 3710 	ld	l, -15 (ix)
    000012D2 DD 66 F2         [19] 3711 	ld	h, -14 (ix)
    000012D5 7E               [ 7] 3712 	ld	a, (hl)
    000012D6 DD 77 FD         [19] 3713 	ld	-3 (ix), a
    000012D9 23               [ 6] 3714 	inc	hl
    000012DA 7E               [ 7] 3715 	ld	a, (hl)
    000012DB DD 77 FE         [19] 3716 	ld	-2 (ix), a
    000012DE DD 7E FD         [19] 3717 	ld	a, -3 (ix)
    000012E1 DD 77 FB         [19] 3718 	ld	-5 (ix), a
    000012E4 DD 7E FE         [19] 3719 	ld	a, -2 (ix)
    000012E7 DD 77 FC         [19] 3720 	ld	-4 (ix), a
    000012EA DD 7E ED         [19] 3721 	ld	a, -19 (ix)
    000012ED DD 77 FD         [19] 3722 	ld	-3 (ix), a
    000012F0 DD 7E EE         [19] 3723 	ld	a, -18 (ix)
    000012F3 DD 77 FE         [19] 3724 	ld	-2 (ix), a
    000012F6 DD 6E FD         [19] 3725 	ld	l, -3 (ix)
    000012F9 DD 66 FE         [19] 3726 	ld	h, -2 (ix)
    000012FC 11 10 00         [10] 3727 	ld	de, #0x0010
    000012FF 19               [11] 3728 	add	hl, de
    00001300 7E               [ 7] 3729 	ld	a, (hl)
    00001301 DD 77 F3         [19] 3730 	ld	-13 (ix), a
    00001304 23               [ 6] 3731 	inc	hl
    00001305 7E               [ 7] 3732 	ld	a, (hl)
    00001306 DD 77 F4         [19] 3733 	ld	-12 (ix), a
    00001309 DD 6E F3         [19] 3734 	ld	l, -13 (ix)
                                   3735 ;	spillPairReg hl
                                   3736 ;	spillPairReg hl
    0000130C DD 66 F4         [19] 3737 	ld	h, -12 (ix)
                                   3738 ;	spillPairReg hl
                                   3739 ;	spillPairReg hl
    0000130F DD 7E FB         [19] 3740 	ld	a, -5 (ix)
    00001312 95               [ 4] 3741 	sub	a, l
    00001313 DD 77 FD         [19] 3742 	ld	-3 (ix), a
    00001316 DD 7E FC         [19] 3743 	ld	a, -4 (ix)
    00001319 9C               [ 4] 3744 	sbc	a, h
    0000131A DD 77 FE         [19] 3745 	ld	-2 (ix), a
    0000131D DD 7E FD         [19] 3746 	ld	a, -3 (ix)
    00001320 DD 77 F5         [19] 3747 	ld	-11 (ix), a
    00001323 DD 7E FE         [19] 3748 	ld	a, -2 (ix)
    00001326 DD 77 F6         [19] 3749 	ld	-10 (ix), a
                                   3750 ;E:\Dropbox\FAUSTO\SVILUPPI\MSX\CODE\C\MSXgl\projects\soccerlgSCC/soccerlg_s4_b3.c:725: i16 dy = (i16)g_Players[i].Y - (i16)g_Players[i].TargetY;
    00001329 DD 6E ED         [19] 3751 	ld	l, -19 (ix)
    0000132C DD 66 EE         [19] 3752 	ld	h, -18 (ix)
    0000132F 7E               [ 7] 3753 	ld	a, (hl)
    00001330 DD 77 FD         [19] 3754 	ld	-3 (ix), a
    00001333 23               [ 6] 3755 	inc	hl
    00001334 7E               [ 7] 3756 	ld	a, (hl)
    00001335 DD 77 FE         [19] 3757 	ld	-2 (ix), a
    00001338 DD 7E FD         [19] 3758 	ld	a, -3 (ix)
    0000133B DD 77 F7         [19] 3759 	ld	-9 (ix), a
    0000133E DD 7E FE         [19] 3760 	ld	a, -2 (ix)
    00001341 DD 77 F8         [19] 3761 	ld	-8 (ix), a
    00001344 DD 7E ED         [19] 3762 	ld	a, -19 (ix)
    00001347 C6 0E            [ 7] 3763 	add	a, #0x0e
    00001349 DD 77 F9         [19] 3764 	ld	-7 (ix), a
    0000134C DD 7E EE         [19] 3765 	ld	a, -18 (ix)
    0000134F CE 00            [ 7] 3766 	adc	a, #0x00
    00001351 DD 77 FA         [19] 3767 	ld	-6 (ix), a
    00001354 DD 6E F9         [19] 3768 	ld	l, -7 (ix)
    00001357 DD 66 FA         [19] 3769 	ld	h, -6 (ix)
    0000135A 7E               [ 7] 3770 	ld	a, (hl)
    0000135B DD 77 FD         [19] 3771 	ld	-3 (ix), a
    0000135E 23               [ 6] 3772 	inc	hl
    0000135F 7E               [ 7] 3773 	ld	a, (hl)
    00001360 DD 77 FE         [19] 3774 	ld	-2 (ix), a
    00001363 DD 7E FD         [19] 3775 	ld	a, -3 (ix)
    00001366 DD 77 FB         [19] 3776 	ld	-5 (ix), a
    00001369 DD 7E FE         [19] 3777 	ld	a, -2 (ix)
    0000136C DD 77 FC         [19] 3778 	ld	-4 (ix), a
    0000136F DD 7E F7         [19] 3779 	ld	a, -9 (ix)
    00001372 DD 96 FB         [19] 3780 	sub	a, -5 (ix)
    00001375 DD 77 FD         [19] 3781 	ld	-3 (ix), a
    00001378 DD 7E F8         [19] 3782 	ld	a, -8 (ix)
    0000137B DD 9E FC         [19] 3783 	sbc	a, -4 (ix)
    0000137E DD 77 FE         [19] 3784 	ld	-2 (ix), a
    00001381 DD 4E FD         [19] 3785 	ld	c, -3 (ix)
    00001384 DD 46 FE         [19] 3786 	ld	b, -2 (ix)
                                   3787 ;E:\Dropbox\FAUSTO\SVILUPPI\MSX\CODE\C\MSXgl\projects\soccerlgSCC/soccerlg_s4_b3.c:726: if (dx < -6 || dx > 6 || dy < -6 || dy > 6) {
    00001387 DD 7E F5         [19] 3788 	ld	a, -11 (ix)
    0000138A D6 FA            [ 7] 3789 	sub	a, #0xfa
    0000138C DD 7E F6         [19] 3790 	ld	a, -10 (ix)
    0000138F 17               [ 4] 3791 	rla
    00001390 3F               [ 4] 3792 	ccf
    00001391 1F               [ 4] 3793 	rra
    00001392 DE 7F            [ 7] 3794 	sbc	a, #0x7f
    00001394 38 2D            [12] 3795 	jr	C, 00122$
    00001396 DD 5E F5         [19] 3796 	ld	e, -11 (ix)
    00001399 DD 56 F6         [19] 3797 	ld	d, -10 (ix)
    0000139C 3E 06            [ 7] 3798 	ld	a, #0x06
    0000139E BB               [ 4] 3799 	cp	a, e
    0000139F 3E 00            [ 7] 3800 	ld	a, #0x00
    000013A1 9A               [ 4] 3801 	sbc	a, d
    000013A2 E2rA7r13         [10] 3802 	jp	PO, 00709$
    000013A5 EE 80            [ 7] 3803 	xor	a, #0x80
    000013A7                       3804 00709$:
    000013A7 FArC3r13         [10] 3805 	jp	M, 00122$
    000013AA 79               [ 4] 3806 	ld	a, c
    000013AB D6 FA            [ 7] 3807 	sub	a, #0xfa
    000013AD 78               [ 4] 3808 	ld	a, b
    000013AE 17               [ 4] 3809 	rla
    000013AF 3F               [ 4] 3810 	ccf
    000013B0 1F               [ 4] 3811 	rra
    000013B1 DE 7F            [ 7] 3812 	sbc	a, #0x7f
    000013B3 38 0E            [12] 3813 	jr	C, 00122$
    000013B5 3E 06            [ 7] 3814 	ld	a, #0x06
    000013B7 B9               [ 4] 3815 	cp	a, c
    000013B8 3E 00            [ 7] 3816 	ld	a, #0x00
    000013BA 98               [ 4] 3817 	sbc	a, b
    000013BB E2rC0r13         [10] 3818 	jp	PO, 00710$
    000013BE EE 80            [ 7] 3819 	xor	a, #0x80
    000013C0                       3820 00710$:
    000013C0 F2rCAr13         [10] 3821 	jp	P, 00123$
    000013C3                       3822 00122$:
                                   3823 ;E:\Dropbox\FAUSTO\SVILUPPI\MSX\CODE\C\MSXgl\projects\soccerlgSCC/soccerlg_s4_b3.c:727: teammatesArrived = false; // Someone is still far away
    000013C3 DD 36 EC 00      [19] 3824 	ld	-20 (ix), #0x00
    000013C7 C3rF6r13         [10] 3825 	jp	00237$
    000013CA                       3826 00123$:
                                   3827 ;E:\Dropbox\FAUSTO\SVILUPPI\MSX\CODE\C\MSXgl\projects\soccerlgSCC/soccerlg_s4_b3.c:730: g_Players[i].X = g_Players[i].TargetX;
    000013CA DD 6E F1         [19] 3828 	ld	l, -15 (ix)
    000013CD DD 66 F2         [19] 3829 	ld	h, -14 (ix)
    000013D0 DD 7E F3         [19] 3830 	ld	a, -13 (ix)
    000013D3 77               [ 7] 3831 	ld	(hl), a
    000013D4 23               [ 6] 3832 	inc	hl
    000013D5 DD 7E F4         [19] 3833 	ld	a, -12 (ix)
    000013D8 77               [ 7] 3834 	ld	(hl), a
                                   3835 ;E:\Dropbox\FAUSTO\SVILUPPI\MSX\CODE\C\MSXgl\projects\soccerlgSCC/soccerlg_s4_b3.c:731: g_Players[i].Y = g_Players[i].TargetY;
    000013D9 DD 6E F9         [19] 3836 	ld	l, -7 (ix)
    000013DC DD 66 FA         [19] 3837 	ld	h, -6 (ix)
    000013DF 4E               [ 7] 3838 	ld	c, (hl)
    000013E0 23               [ 6] 3839 	inc	hl
    000013E1 46               [ 7] 3840 	ld	b, (hl)
    000013E2 DD 6E ED         [19] 3841 	ld	l, -19 (ix)
    000013E5 DD 66 EE         [19] 3842 	ld	h, -18 (ix)
    000013E8 71               [ 7] 3843 	ld	(hl), c
    000013E9 23               [ 6] 3844 	inc	hl
    000013EA 70               [ 7] 3845 	ld	(hl), b
                                   3846 ;E:\Dropbox\FAUSTO\SVILUPPI\MSX\CODE\C\MSXgl\projects\soccerlgSCC/soccerlg_s4_b3.c:732: g_Players[i].Status = PLAYER_STATUS_POSITIONED;
    000013EB DD 6E EF         [19] 3847 	ld	l, -17 (ix)
    000013EE DD 66 F0         [19] 3848 	ld	h, -16 (ix)
    000013F1 36 04            [10] 3849 	ld	(hl), #0x04
    000013F3 23               [ 6] 3850 	inc	hl
    000013F4 36 00            [10] 3851 	ld	(hl), #0x00
    000013F6                       3852 00237$:
                                   3853 ;E:\Dropbox\FAUSTO\SVILUPPI\MSX\CODE\C\MSXgl\projects\soccerlgSCC/soccerlg_s4_b3.c:720: for(u8 i=0; i<14; i++) {
    000013F6 DD 34 FF         [23] 3854 	inc	-1 (ix)
    000013F9 C3r25r12         [10] 3855 	jp	00236$
    000013FC                       3856 00134$:
                                   3857 ;E:\Dropbox\FAUSTO\SVILUPPI\MSX\CODE\C\MSXgl\projects\soccerlgSCC/soccerlg_s4_b3.c:739: if (g_Timer < 180 || (kickerId != NO_VALUE && !kickerArrived) || !teammatesArrived) {
    000013FC 3Ar00r00         [13] 3858 	ld	a, (_g_Timer+0)
    000013FF D6 B4            [ 7] 3859 	sub	a, #0xb4
    00001401 3E 00            [ 7] 3860 	ld	a, #0x00
    00001403 17               [ 4] 3861 	rla
    00001404 4F               [ 4] 3862 	ld	c, a
    00001405 B7               [ 4] 3863 	or	a, a
    00001406 20 13            [12] 3864 	jr	NZ, 00165$
    00001408 DD CB EB 46      [20] 3865 	bit	0, -21 (ix)
    0000140C 20 06            [12] 3866 	jr	NZ, 00169$
    0000140E DD 7E EA         [19] 3867 	ld	a, -22 (ix)
    00001411 B7               [ 4] 3868 	or	a, a
    00001412 28 07            [12] 3869 	jr	Z, 00165$
    00001414                       3870 00169$:
    00001414 DD 7E EC         [19] 3871 	ld	a, -20 (ix)
    00001417 B7               [ 4] 3872 	or	a, a
    00001418 C2r36r16         [10] 3873 	jp	NZ, 00166$
    0000141B                       3874 00165$:
                                   3875 ;E:\Dropbox\FAUSTO\SVILUPPI\MSX\CODE\C\MSXgl\projects\soccerlgSCC/soccerlg_s4_b3.c:740: if (g_Timer < 180) g_Timer++;
    0000141B 79               [ 4] 3876 	ld	a, c
    0000141C B7               [ 4] 3877 	or	a, a
    0000141D 28 04            [12] 3878 	jr	Z, 00317$
    0000141F 21r00r00         [10] 3879 	ld	hl, #_g_Timer
    00001422 34               [11] 3880 	inc	(hl)
                                   3881 ;E:\Dropbox\FAUSTO\SVILUPPI\MSX\CODE\C\MSXgl\projects\soccerlgSCC/soccerlg_s4_b3.c:743: for(u8 i=0; i<14; i++) {
    00001423                       3882 00317$:
    00001423 0E 00            [ 7] 3883 	ld	c, #0x00
    00001425                       3884 00239$:
    00001425 79               [ 4] 3885 	ld	a, c
    00001426 D6 0E            [ 7] 3886 	sub	a, #0x0e
    00001428 D2r13r1A         [10] 3887 	jp	NC,00243$
                                   3888 ;E:\Dropbox\FAUSTO\SVILUPPI\MSX\CODE\C\MSXgl\projects\soccerlgSCC/soccerlg_s4_b3.c:745: if (i != kickerId && g_Players[i].Status != PLAYER_STATUS_POSITIONED && 
    0000142B DD 7E E9         [19] 3889 	ld	a, -23 (ix)
    0000142E 91               [ 4] 3890 	sub	a, c
    0000142F 3E 01            [ 7] 3891 	ld	a, #0x01
    00001431 28 01            [12] 3892 	jr	Z, 00712$
    00001433 AF               [ 4] 3893 	xor	a, a
    00001434                       3894 00712$:
    00001434 DD 77 FD         [19] 3895 	ld	-3 (ix), a
    00001437 DD CB FD 46      [20] 3896 	bit	0, -3 (ix)
    0000143B 20 55            [12] 3897 	jr	NZ, 00138$
    0000143D 06 00            [ 7] 3898 	ld	b, #0x00
    0000143F 69               [ 4] 3899 	ld	l, c
    00001440 60               [ 4] 3900 	ld	h, b
    00001441 29               [11] 3901 	add	hl, hl
    00001442 29               [11] 3902 	add	hl, hl
    00001443 09               [11] 3903 	add	hl, bc
    00001444 29               [11] 3904 	add	hl, hl
    00001445 29               [11] 3905 	add	hl, hl
    00001446 09               [11] 3906 	add	hl, bc
    00001447 EB               [ 4] 3907 	ex	de, hl
    00001448 FD 21r00r00      [14] 3908 	ld	iy, #_g_Players
    0000144C FD 19            [15] 3909 	add	iy, de
    0000144E FD E5            [15] 3910 	push	iy
    00001450 D1               [10] 3911 	pop	de
    00001451 21 12 00         [10] 3912 	ld	hl, #18
    00001454 19               [11] 3913 	add	hl, de
    00001455 5E               [ 7] 3914 	ld	e, (hl)
    00001456 23               [ 6] 3915 	inc	hl
    00001457 56               [ 7] 3916 	ld	d, (hl)
    00001458 7B               [ 4] 3917 	ld	a, e
    00001459 D6 04            [ 7] 3918 	sub	a, #0x04
    0000145B B2               [ 4] 3919 	or	a, d
    0000145C 28 34            [12] 3920 	jr	Z, 00138$
                                   3921 ;E:\Dropbox\FAUSTO\SVILUPPI\MSX\CODE\C\MSXgl\projects\soccerlgSCC/soccerlg_s4_b3.c:746: !(g_Players[i].X == g_Players[i].TargetX && g_Players[i].Y == g_Players[i].TargetY)) continue;
    0000145E FD E5            [15] 3922 	push	iy
    00001460 E1               [10] 3923 	pop	hl
    00001461 23               [ 6] 3924 	inc	hl
    00001462 23               [ 6] 3925 	inc	hl
    00001463 5E               [ 7] 3926 	ld	e, (hl)
    00001464 23               [ 6] 3927 	inc	hl
    00001465 56               [ 7] 3928 	ld	d, (hl)
    00001466 FD E5            [15] 3929 	push	iy
    00001468 E1               [10] 3930 	pop	hl
    00001469 C5               [11] 3931 	push	bc
    0000146A 01 10 00         [10] 3932 	ld	bc, #0x0010
    0000146D 09               [11] 3933 	add	hl, bc
    0000146E C1               [10] 3934 	pop	bc
    0000146F 46               [ 7] 3935 	ld	b, (hl)
    00001470 23               [ 6] 3936 	inc	hl
    00001471 66               [ 7] 3937 	ld	h, (hl)
                                   3938 ;	spillPairReg hl
    00001472 68               [ 4] 3939 	ld	l, b
    00001473 BF               [ 4] 3940 	cp	a, a
    00001474 ED 52            [15] 3941 	sbc	hl, de
    00001476 C2r32r16         [10] 3942 	jp	NZ,00163$
    00001479 FD 5E 00         [19] 3943 	ld	e, 0 (iy)
    0000147C FD 56 01         [19] 3944 	ld	d, 1 (iy)
    0000147F FD E5            [15] 3945 	push	iy
    00001481 E1               [10] 3946 	pop	hl
    00001482 C5               [11] 3947 	push	bc
    00001483 01 0E 00         [10] 3948 	ld	bc, #0x000e
    00001486 09               [11] 3949 	add	hl, bc
    00001487 C1               [10] 3950 	pop	bc
    00001488 46               [ 7] 3951 	ld	b, (hl)
    00001489 23               [ 6] 3952 	inc	hl
    0000148A 66               [ 7] 3953 	ld	h, (hl)
                                   3954 ;	spillPairReg hl
    0000148B 68               [ 4] 3955 	ld	l, b
    0000148C BF               [ 4] 3956 	cp	a, a
    0000148D ED 52            [15] 3957 	sbc	hl, de
    0000148F C2r32r16         [10] 3958 	jp	NZ,00163$
    00001492                       3959 00138$:
                                   3960 ;E:\Dropbox\FAUSTO\SVILUPPI\MSX\CODE\C\MSXgl\projects\soccerlgSCC/soccerlg_s4_b3.c:750: if (i == kickerId) {
    00001492 DD 7E FD         [19] 3961 	ld	a, -3 (ix)
    00001495 B7               [ 4] 3962 	or	a, a
    00001496 28 30            [12] 3963 	jr	Z, 00159$
                                   3964 ;E:\Dropbox\FAUSTO\SVILUPPI\MSX\CODE\C\MSXgl\projects\soccerlgSCC/soccerlg_s4_b3.c:752: if (g_RestartKickTeamId == TEAM_1) lookDir = (g_CornerKickSide == CORNER_SIDE_LEFT) ? DIRECTION_DOWN_RIGHT : DIRECTION_DOWN_LEFT;
    00001498 3Ar00r00         [13] 3965 	ld	a, (_g_RestartKickTeamId+0)
    0000149B 3D               [ 4] 3966 	dec	a
    0000149C 20 15            [12] 3967 	jr	NZ, 00143$
    0000149E 3Ar00r00         [13] 3968 	ld	a, (_g_CornerKickSide+0)
    000014A1 B7               [ 4] 3969 	or	a, a
    000014A2 20 06            [12] 3970 	jr	NZ, 00245$
    000014A4 11 04 00         [10] 3971 	ld	de, #0x0004
    000014A7 C3rADr14         [10] 3972 	jp	00246$
    000014AA                       3973 00245$:
    000014AA 11 06 00         [10] 3974 	ld	de, #0x0006
    000014AD                       3975 00246$:
    000014AD DD 73 FF         [19] 3976 	ld	-1 (ix), e
    000014B0 C3rFEr15         [10] 3977 	jp	00160$
    000014B3                       3978 00143$:
                                   3979 ;E:\Dropbox\FAUSTO\SVILUPPI\MSX\CODE\C\MSXgl\projects\soccerlgSCC/soccerlg_s4_b3.c:753: else lookDir = (g_CornerKickSide == CORNER_SIDE_LEFT) ? DIRECTION_UP_RIGHT : DIRECTION_UP_LEFT;
    000014B3 3Ar00r00         [13] 3980 	ld	a, (_g_CornerKickSide+0)
    000014B6 B7               [ 4] 3981 	or	a, a
    000014B7 20 06            [12] 3982 	jr	NZ, 00247$
    000014B9 11 02 00         [10] 3983 	ld	de, #0x0002
    000014BC C3rC2r14         [10] 3984 	jp	00248$
    000014BF                       3985 00247$:
    000014BF 11 08 00         [10] 3986 	ld	de, #0x0008
    000014C2                       3987 00248$:
    000014C2 DD 73 FF         [19] 3988 	ld	-1 (ix), e
    000014C5 C3rFEr15         [10] 3989 	jp	00160$
    000014C8                       3990 00159$:
                                   3991 ;E:\Dropbox\FAUSTO\SVILUPPI\MSX\CODE\C\MSXgl\projects\soccerlgSCC/soccerlg_s4_b3.c:755: else if (g_Players[i].TeamId == g_RestartKickTeamId) {
    000014C8 06 00            [ 7] 3992 	ld	b, #0x00
    000014CA 69               [ 4] 3993 	ld	l, c
    000014CB 60               [ 4] 3994 	ld	h, b
    000014CC 29               [11] 3995 	add	hl, hl
    000014CD 29               [11] 3996 	add	hl, hl
    000014CE 09               [11] 3997 	add	hl, bc
    000014CF 29               [11] 3998 	add	hl, hl
    000014D0 29               [11] 3999 	add	hl, hl
    000014D1 09               [11] 4000 	add	hl, bc
    000014D2 11r00r00         [10] 4001 	ld	de, #_g_Players
    000014D5 19               [11] 4002 	add	hl, de
    000014D6 DD 75 FE         [19] 4003 	ld	-2 (ix), l
    000014D9 DD 74 FF         [19] 4004 	ld	-1 (ix), h
    000014DC 11 09 00         [10] 4005 	ld	de, #9
    000014DF 19               [11] 4006 	add	hl, de
    000014E0 46               [ 7] 4007 	ld	b, (hl)
                                   4008 ;E:\Dropbox\FAUSTO\SVILUPPI\MSX\CODE\C\MSXgl\projects\soccerlgSCC/soccerlg_s4_b3.c:757: if (g_RestartKickTeamId == TEAM_1 && i != kickerId) { 
    000014E1 3Ar00r00         [13] 4009 	ld	a,(_g_RestartKickTeamId+0)
    000014E4 B8               [ 4] 4010 	cp	a,b
    000014E5 20 3C            [12] 4011 	jr	NZ, 00156$
    000014E7 3D               [ 4] 4012 	dec	a
    000014E8 3E 01            [ 7] 4013 	ld	a, #0x01
    000014EA 28 01            [12] 4014 	jr	Z, 00723$
    000014EC AF               [ 4] 4015 	xor	a, a
    000014ED                       4016 00723$:
    000014ED DD 77 FF         [19] 4017 	ld	-1 (ix), a
    000014F0 B7               [ 4] 4018 	or	a, a
    000014F1 28 1B            [12] 4019 	jr	Z, 00146$
    000014F3 DD CB FD 46      [20] 4020 	bit	0, -3 (ix)
    000014F7 20 15            [12] 4021 	jr	NZ, 00146$
                                   4022 ;E:\Dropbox\FAUSTO\SVILUPPI\MSX\CODE\C\MSXgl\projects\soccerlgSCC/soccerlg_s4_b3.c:759: lookDir = (g_CornerKickSide == CORNER_SIDE_LEFT) ? DIRECTION_UP_LEFT : DIRECTION_UP_RIGHT;
    000014F9 3Ar00r00         [13] 4023 	ld	a, (_g_CornerKickSide+0)
    000014FC B7               [ 4] 4024 	or	a, a
    000014FD 20 06            [12] 4025 	jr	NZ, 00249$
    000014FF 11 08 00         [10] 4026 	ld	de, #0x0008
    00001502 C3r08r15         [10] 4027 	jp	00250$
    00001505                       4028 00249$:
    00001505 11 02 00         [10] 4029 	ld	de, #0x0002
    00001508                       4030 00250$:
    00001508 DD 73 FF         [19] 4031 	ld	-1 (ix), e
    0000150B C3rFEr15         [10] 4032 	jp	00160$
    0000150E                       4033 00146$:
                                   4034 ;E:\Dropbox\FAUSTO\SVILUPPI\MSX\CODE\C\MSXgl\projects\soccerlgSCC/soccerlg_s4_b3.c:762: lookDir = (g_RestartKickTeamId == TEAM_1) ? DIRECTION_UP : DIRECTION_DOWN;
    0000150E DD 7E FF         [19] 4035 	ld	a, -1 (ix)
    00001511 B7               [ 4] 4036 	or	a, a
    00001512 28 06            [12] 4037 	jr	Z, 00251$
    00001514 11 01 00         [10] 4038 	ld	de, #0x0001
    00001517 C3r1Dr15         [10] 4039 	jp	00252$
    0000151A                       4040 00251$:
    0000151A 11 05 00         [10] 4041 	ld	de, #0x0005
    0000151D                       4042 00252$:
    0000151D DD 73 FF         [19] 4043 	ld	-1 (ix), e
    00001520 C3rFEr15         [10] 4044 	jp	00160$
    00001523                       4045 00156$:
                                   4046 ;E:\Dropbox\FAUSTO\SVILUPPI\MSX\CODE\C\MSXgl\projects\soccerlgSCC/soccerlg_s4_b3.c:766: i16 dx = (i16)g_Ball.X - (i16)g_Players[i].X;
    00001523 ED 5Br02r00      [20] 4047 	ld	de, (#_g_Ball + 2)
    00001527 DD 6E FE         [19] 4048 	ld	l, -2 (ix)
                                   4049 ;	spillPairReg hl
                                   4050 ;	spillPairReg hl
    0000152A DD 66 FF         [19] 4051 	ld	h, -1 (ix)
                                   4052 ;	spillPairReg hl
                                   4053 ;	spillPairReg hl
    0000152D 23               [ 6] 4054 	inc	hl
    0000152E 23               [ 6] 4055 	inc	hl
    0000152F 7E               [ 7] 4056 	ld	a, (hl)
    00001530 23               [ 6] 4057 	inc	hl
    00001531 66               [ 7] 4058 	ld	h, (hl)
                                   4059 ;	spillPairReg hl
    00001532 6F               [ 4] 4060 	ld	l, a
                                   4061 ;	spillPairReg hl
                                   4062 ;	spillPairReg hl
    00001533 7B               [ 4] 4063 	ld	a, e
    00001534 95               [ 4] 4064 	sub	a, l
    00001535 47               [ 4] 4065 	ld	b, a
    00001536 7A               [ 4] 4066 	ld	a, d
    00001537 9C               [ 4] 4067 	sbc	a, h
    00001538 DD 70 FC         [19] 4068 	ld	-4 (ix), b
    0000153B DD 77 FD         [19] 4069 	ld	-3 (ix), a
                                   4070 ;E:\Dropbox\FAUSTO\SVILUPPI\MSX\CODE\C\MSXgl\projects\soccerlgSCC/soccerlg_s4_b3.c:767: i16 dy = (i16)g_Ball.Y - (i16)g_Players[i].Y;
    0000153E ED 5Br00r00      [20] 4071 	ld	de, (#_g_Ball + 0)
    00001542 DD 6E FE         [19] 4072 	ld	l, -2 (ix)
    00001545 DD 66 FF         [19] 4073 	ld	h, -1 (ix)
    00001548 7E               [ 7] 4074 	ld	a, (hl)
    00001549 23               [ 6] 4075 	inc	hl
    0000154A 66               [ 7] 4076 	ld	h, (hl)
                                   4077 ;	spillPairReg hl
    0000154B 6F               [ 4] 4078 	ld	l, a
                                   4079 ;	spillPairReg hl
                                   4080 ;	spillPairReg hl
    0000154C 7B               [ 4] 4081 	ld	a, e
    0000154D 95               [ 4] 4082 	sub	a, l
    0000154E 5F               [ 4] 4083 	ld	e, a
    0000154F 7A               [ 4] 4084 	ld	a, d
    00001550 9C               [ 4] 4085 	sbc	a, h
    00001551 57               [ 4] 4086 	ld	d, a
                                   4087 ;E:\Dropbox\FAUSTO\SVILUPPI\MSX\CODE\C\MSXgl\projects\soccerlgSCC/soccerlg_s4_b3.c:769: if (dy < -20) lookDir = (dx > 20) ? DIRECTION_UP_RIGHT : ((dx < -20) ? DIRECTION_UP_LEFT : DIRECTION_UP);
    00001552 DD 7E FC         [19] 4088 	ld	a, -4 (ix)
    00001555 DD 77 FE         [19] 4089 	ld	-2 (ix), a
    00001558 DD 7E FD         [19] 4090 	ld	a, -3 (ix)
    0000155B DD 77 FF         [19] 4091 	ld	-1 (ix), a
    0000155E 7B               [ 4] 4092 	ld	a, e
    0000155F D6 EC            [ 7] 4093 	sub	a, #0xec
    00001561 7A               [ 4] 4094 	ld	a, d
    00001562 17               [ 4] 4095 	rla
    00001563 3F               [ 4] 4096 	ccf
    00001564 1F               [ 4] 4097 	rra
    00001565 DE 7F            [ 7] 4098 	sbc	a, #0x7f
    00001567 30 36            [12] 4099 	jr	NC, 00153$
    00001569 3E 14            [ 7] 4100 	ld	a, #0x14
    0000156B DD BE FE         [19] 4101 	cp	a, -2 (ix)
    0000156E 3E 00            [ 7] 4102 	ld	a, #0x00
    00001570 DD 9E FF         [19] 4103 	sbc	a, -1 (ix)
    00001573 E2r78r15         [10] 4104 	jp	PO, 00724$
    00001576 EE 80            [ 7] 4105 	xor	a, #0x80
    00001578                       4106 00724$:
    00001578 F2r81r15         [10] 4107 	jp	P, 00253$
    0000157B 11 02 00         [10] 4108 	ld	de, #0x0002
    0000157E C3r99r15         [10] 4109 	jp	00254$
    00001581                       4110 00253$:
    00001581 DD 7E FC         [19] 4111 	ld	a, -4 (ix)
    00001584 D6 EC            [ 7] 4112 	sub	a, #0xec
    00001586 DD 7E FD         [19] 4113 	ld	a, -3 (ix)
    00001589 17               [ 4] 4114 	rla
    0000158A 3F               [ 4] 4115 	ccf
    0000158B 1F               [ 4] 4116 	rra
    0000158C DE 7F            [ 7] 4117 	sbc	a, #0x7f
    0000158E 30 06            [12] 4118 	jr	NC, 00255$
    00001590 11 08 00         [10] 4119 	ld	de, #0x0008
    00001593 C3r99r15         [10] 4120 	jp	00256$
    00001596                       4121 00255$:
    00001596 11 01 00         [10] 4122 	ld	de, #0x0001
    00001599                       4123 00256$:
    00001599                       4124 00254$:
    00001599 DD 73 FF         [19] 4125 	ld	-1 (ix), e
    0000159C C3rFEr15         [10] 4126 	jp	00160$
    0000159F                       4127 00153$:
                                   4128 ;E:\Dropbox\FAUSTO\SVILUPPI\MSX\CODE\C\MSXgl\projects\soccerlgSCC/soccerlg_s4_b3.c:770: else if (dy > 20) lookDir = (dx > 20) ? DIRECTION_DOWN_RIGHT : ((dx < -20) ? DIRECTION_DOWN_LEFT : DIRECTION_DOWN);
    0000159F 3E 14            [ 7] 4129 	ld	a, #0x14
    000015A1 BB               [ 4] 4130 	cp	a, e
    000015A2 3E 00            [ 7] 4131 	ld	a, #0x00
    000015A4 9A               [ 4] 4132 	sbc	a, d
    000015A5 E2rAAr15         [10] 4133 	jp	PO, 00725$
    000015A8 EE 80            [ 7] 4134 	xor	a, #0x80
    000015AA                       4135 00725$:
    000015AA F2rE3r15         [10] 4136 	jp	P, 00150$
    000015AD 3E 14            [ 7] 4137 	ld	a, #0x14
    000015AF DD BE FE         [19] 4138 	cp	a, -2 (ix)
    000015B2 3E 00            [ 7] 4139 	ld	a, #0x00
    000015B4 DD 9E FF         [19] 4140 	sbc	a, -1 (ix)
    000015B7 E2rBCr15         [10] 4141 	jp	PO, 00726$
    000015BA EE 80            [ 7] 4142 	xor	a, #0x80
    000015BC                       4143 00726$:
    000015BC F2rC5r15         [10] 4144 	jp	P, 00257$
    000015BF 11 04 00         [10] 4145 	ld	de, #0x0004
    000015C2 C3rDDr15         [10] 4146 	jp	00258$
    000015C5                       4147 00257$:
    000015C5 DD 7E FC         [19] 4148 	ld	a, -4 (ix)
    000015C8 D6 EC            [ 7] 4149 	sub	a, #0xec
    000015CA DD 7E FD         [19] 4150 	ld	a, -3 (ix)
    000015CD 17               [ 4] 4151 	rla
    000015CE 3F               [ 4] 4152 	ccf
    000015CF 1F               [ 4] 4153 	rra
    000015D0 DE 7F            [ 7] 4154 	sbc	a, #0x7f
    000015D2 30 06            [12] 4155 	jr	NC, 00259$
    000015D4 11 06 00         [10] 4156 	ld	de, #0x0006
    000015D7 C3rDDr15         [10] 4157 	jp	00260$
    000015DA                       4158 00259$:
    000015DA 11 05 00         [10] 4159 	ld	de, #0x0005
    000015DD                       4160 00260$:
    000015DD                       4161 00258$:
    000015DD DD 73 FF         [19] 4162 	ld	-1 (ix), e
    000015E0 C3rFEr15         [10] 4163 	jp	00160$
    000015E3                       4164 00150$:
                                   4165 ;E:\Dropbox\FAUSTO\SVILUPPI\MSX\CODE\C\MSXgl\projects\soccerlgSCC/soccerlg_s4_b3.c:771: else lookDir = (dx > 0) ? DIRECTION_RIGHT : DIRECTION_LEFT;
    000015E3 AF               [ 4] 4166 	xor	a, a
    000015E4 DD BE FE         [19] 4167 	cp	a, -2 (ix)
    000015E7 DD 9E FF         [19] 4168 	sbc	a, -1 (ix)
    000015EA E2rEFr15         [10] 4169 	jp	PO, 00727$
    000015ED EE 80            [ 7] 4170 	xor	a, #0x80
    000015EF                       4171 00727$:
    000015EF F2rF8r15         [10] 4172 	jp	P, 00261$
    000015F2 11 03 00         [10] 4173 	ld	de, #0x0003
    000015F5 C3rFBr15         [10] 4174 	jp	00262$
    000015F8                       4175 00261$:
    000015F8 11 07 00         [10] 4176 	ld	de, #0x0007
    000015FB                       4177 00262$:
    000015FB DD 73 FF         [19] 4178 	ld	-1 (ix), e
    000015FE                       4179 00160$:
                                   4180 ;E:\Dropbox\FAUSTO\SVILUPPI\MSX\CODE\C\MSXgl\projects\soccerlgSCC/soccerlg_s4_b3.c:774: if (lookDir != DIRECTION_NONE) {
    000015FE DD 7E FF         [19] 4181 	ld	a, -1 (ix)
    00001601 B7               [ 4] 4182 	or	a, a
    00001602 28 2E            [12] 4183 	jr	Z, 00163$
                                   4184 ;E:\Dropbox\FAUSTO\SVILUPPI\MSX\CODE\C\MSXgl\projects\soccerlgSCC/soccerlg_s4_b3.c:775: g_Players[i].Direction = lookDir;
    00001604 06 00            [ 7] 4185 	ld	b, #0x00
    00001606 69               [ 4] 4186 	ld	l, c
    00001607 60               [ 4] 4187 	ld	h, b
    00001608 29               [11] 4188 	add	hl, hl
    00001609 29               [11] 4189 	add	hl, hl
    0000160A 09               [11] 4190 	add	hl, bc
    0000160B 29               [11] 4191 	add	hl, hl
    0000160C 29               [11] 4192 	add	hl, hl
    0000160D 09               [11] 4193 	add	hl, bc
    0000160E EB               [ 4] 4194 	ex	de, hl
    0000160F 21r00r00         [10] 4195 	ld	hl, #_g_Players
    00001612 19               [11] 4196 	add	hl, de
    00001613 EB               [ 4] 4197 	ex	de, hl
    00001614 21 0A 00         [10] 4198 	ld	hl, #0x000a
    00001617 19               [11] 4199 	add	hl, de
    00001618 DD 7E FF         [19] 4200 	ld	a, -1 (ix)
    0000161B 77               [ 7] 4201 	ld	(hl), a
                                   4202 ;E:\Dropbox\FAUSTO\SVILUPPI\MSX\CODE\C\MSXgl\projects\soccerlgSCC/soccerlg_s4_b3.c:776: g_Players[i].PatternId = CallFnc_U8_P1(8,GetNoMovingPlayerPatternId,lookDir);
    0000161C 21 08 00         [10] 4203 	ld	hl, #0x0008
    0000161F 19               [11] 4204 	add	hl, de
    00001620 E5               [11] 4205 	push	hl
    00001621 C5               [11] 4206 	push	bc
    00001622 DD 7E FF         [19] 4207 	ld	a, -1 (ix)
    00001625 F5               [11] 4208 	push	af
    00001626 33               [ 6] 4209 	inc	sp
    00001627 11r00r00         [10] 4210 	ld	de, #_GetNoMovingPlayerPatternId
    0000162A 3E 08            [ 7] 4211 	ld	a, #0x08
    0000162C CDr00r00         [17] 4212 	call	_CallFnc_U8_P1
    0000162F C1               [10] 4213 	pop	bc
    00001630 E1               [10] 4214 	pop	hl
    00001631 77               [ 7] 4215 	ld	(hl), a
    00001632                       4216 00163$:
                                   4217 ;E:\Dropbox\FAUSTO\SVILUPPI\MSX\CODE\C\MSXgl\projects\soccerlgSCC/soccerlg_s4_b3.c:743: for(u8 i=0; i<14; i++) {
    00001632 0C               [ 4] 4218 	inc	c
                                   4219 ;E:\Dropbox\FAUSTO\SVILUPPI\MSX\CODE\C\MSXgl\projects\soccerlgSCC/soccerlg_s4_b3.c:779: return; // END SETUP PHASE
    00001633 C3r25r14         [10] 4220 	jp	00239$
    00001636                       4221 00166$:
                                   4222 ;E:\Dropbox\FAUSTO\SVILUPPI\MSX\CODE\C\MSXgl\projects\soccerlgSCC/soccerlg_s4_b3.c:783: V9990_ClearTextFromLayerA(10, 12, 11);
    00001636 3E 0B            [ 7] 4223 	ld	a, #0x0b
    00001638 F5               [11] 4224 	push	af
    00001639 33               [ 6] 4225 	inc	sp
    0000163A 2E 0C            [ 7] 4226 	ld	l, #0x0c
                                   4227 ;	spillPairReg hl
                                   4228 ;	spillPairReg hl
    0000163C 3E 0A            [ 7] 4229 	ld	a, #0x0a
    0000163E CDr00r00         [17] 4230 	call	_V9990_ClearTextFromLayerA
                                   4231 ;E:\Dropbox\FAUSTO\SVILUPPI\MSX\CODE\C\MSXgl\projects\soccerlgSCC/soccerlg_s4_b3.c:790: if (kickerId != NO_VALUE) {
    00001641 DD CB EB 46      [20] 4232 	bit	0, -21 (ix)
    00001645 20 77            [12] 4233 	jr	NZ, 00171$
                                   4234 ;E:\Dropbox\FAUSTO\SVILUPPI\MSX\CODE\C\MSXgl\projects\soccerlgSCC/soccerlg_s4_b3.c:791: g_Players[kickerId].X = g_Players[kickerId].TargetX;
    00001647 DD 4E E9         [19] 4235 	ld	c, -23 (ix)
    0000164A 06 00            [ 7] 4236 	ld	b, #0x00
    0000164C 69               [ 4] 4237 	ld	l, c
    0000164D 60               [ 4] 4238 	ld	h, b
    0000164E 29               [11] 4239 	add	hl, hl
    0000164F 29               [11] 4240 	add	hl, hl
    00001650 09               [11] 4241 	add	hl, bc
    00001651 29               [11] 4242 	add	hl, hl
    00001652 29               [11] 4243 	add	hl, hl
    00001653 09               [11] 4244 	add	hl, bc
    00001654 DD 75 FE         [19] 4245 	ld	-2 (ix), l
    00001657 DD 74 FF         [19] 4246 	ld	-1 (ix), h
    0000165A DD 7E FE         [19] 4247 	ld	a, -2 (ix)
    0000165D C6r00            [ 7] 4248 	add	a, #<(_g_Players)
    0000165F DD 77 FA         [19] 4249 	ld	-6 (ix), a
    00001662 DD 7E FF         [19] 4250 	ld	a, -1 (ix)
    00001665 CEs00            [ 7] 4251 	adc	a, #>(_g_Players)
    00001667 DD 77 FB         [19] 4252 	ld	-5 (ix), a
    0000166A DD 7E FA         [19] 4253 	ld	a, -6 (ix)
    0000166D C6 02            [ 7] 4254 	add	a, #0x02
    0000166F DD 77 FC         [19] 4255 	ld	-4 (ix), a
    00001672 DD 7E FB         [19] 4256 	ld	a, -5 (ix)
    00001675 CE 00            [ 7] 4257 	adc	a, #0x00
    00001677 DD 77 FD         [19] 4258 	ld	-3 (ix), a
    0000167A DD 7E FA         [19] 4259 	ld	a, -6 (ix)
    0000167D DD 77 FE         [19] 4260 	ld	-2 (ix), a
    00001680 DD 7E FB         [19] 4261 	ld	a, -5 (ix)
    00001683 DD 77 FF         [19] 4262 	ld	-1 (ix), a
    00001686 DD 6E FE         [19] 4263 	ld	l, -2 (ix)
    00001689 DD 66 FF         [19] 4264 	ld	h, -1 (ix)
    0000168C 11 10 00         [10] 4265 	ld	de, #0x0010
    0000168F 19               [11] 4266 	add	hl, de
    00001690 7E               [ 7] 4267 	ld	a, (hl)
    00001691 DD 77 FE         [19] 4268 	ld	-2 (ix), a
    00001694 23               [ 6] 4269 	inc	hl
    00001695 7E               [ 7] 4270 	ld	a, (hl)
    00001696 DD 77 FF         [19] 4271 	ld	-1 (ix), a
    00001699 DD 6E FC         [19] 4272 	ld	l, -4 (ix)
    0000169C DD 66 FD         [19] 4273 	ld	h, -3 (ix)
    0000169F DD 7E FE         [19] 4274 	ld	a, -2 (ix)
    000016A2 77               [ 7] 4275 	ld	(hl), a
    000016A3 23               [ 6] 4276 	inc	hl
    000016A4 DD 7E FF         [19] 4277 	ld	a, -1 (ix)
    000016A7 77               [ 7] 4278 	ld	(hl), a
                                   4279 ;E:\Dropbox\FAUSTO\SVILUPPI\MSX\CODE\C\MSXgl\projects\soccerlgSCC/soccerlg_s4_b3.c:792: g_Players[kickerId].Y = g_Players[kickerId].TargetY;
    000016A8 DD 6E FA         [19] 4280 	ld	l, -6 (ix)
                                   4281 ;	spillPairReg hl
                                   4282 ;	spillPairReg hl
    000016AB DD 66 FB         [19] 4283 	ld	h, -5 (ix)
                                   4284 ;	spillPairReg hl
                                   4285 ;	spillPairReg hl
    000016AE 11 0E 00         [10] 4286 	ld	de, #0x000e
    000016B1 19               [11] 4287 	add	hl, de
    000016B2 5E               [ 7] 4288 	ld	e, (hl)
    000016B3 23               [ 6] 4289 	inc	hl
    000016B4 4E               [ 7] 4290 	ld	c, (hl)
    000016B5 DD 6E FA         [19] 4291 	ld	l, -6 (ix)
    000016B8 DD 66 FB         [19] 4292 	ld	h, -5 (ix)
    000016BB 73               [ 7] 4293 	ld	(hl), e
    000016BC 23               [ 6] 4294 	inc	hl
    000016BD 71               [ 7] 4295 	ld	(hl), c
    000016BE                       4296 00171$:
                                   4297 ;E:\Dropbox\FAUSTO\SVILUPPI\MSX\CODE\C\MSXgl\projects\soccerlgSCC/soccerlg_s4_b3.c:795: bool isHuman = (g_RestartKickTeamId == TEAM_1 || (g_GameWith2Players && g_RestartKickTeamId == TEAM_2));
    000016BE 3Ar00r00         [13] 4298 	ld	a, (_g_RestartKickTeamId+0)
    000016C1 3D               [ 4] 4299 	dec	a
    000016C2 28 11            [12] 4300 	jr	Z, 00264$
    000016C4 3Ar00r00         [13] 4301 	ld	a, (_g_GameWith2Players+0)
    000016C7 B7               [ 4] 4302 	or	a, a
    000016C8 28 07            [12] 4303 	jr	Z, 00263$
    000016CA 3Ar00r00         [13] 4304 	ld	a, (_g_RestartKickTeamId+0)
    000016CD D6 02            [ 7] 4305 	sub	a, #0x02
    000016CF 28 04            [12] 4306 	jr	Z, 00264$
    000016D1                       4307 00263$:
    000016D1 AF               [ 4] 4308 	xor	a, a
    000016D2 C3rD7r16         [10] 4309 	jp	00265$
    000016D5                       4310 00264$:
    000016D5 3E 01            [ 7] 4311 	ld	a, #0x01
    000016D7                       4312 00265$:
    000016D7 4F               [ 4] 4313 	ld	c, a
                                   4314 ;E:\Dropbox\FAUSTO\SVILUPPI\MSX\CODE\C\MSXgl\projects\soccerlgSCC/soccerlg_s4_b3.c:798: if (isHuman) s_ForceKickTimer++;
    000016D8 B7               [ 4] 4315 	or	a, a
    000016D9 28 07            [12] 4316 	jr	Z, 00173$
    000016DB 2Ar00r00         [16] 4317 	ld	hl, (_TickCornerKick_s_ForceKickTimer_65537_1432)
    000016DE 23               [ 6] 4318 	inc	hl
    000016DF 22r00r00         [16] 4319 	ld	(_TickCornerKick_s_ForceKickTimer_65537_1432), hl
    000016E2                       4320 00173$:
                                   4321 ;E:\Dropbox\FAUSTO\SVILUPPI\MSX\CODE\C\MSXgl\projects\soccerlgSCC/soccerlg_s4_b3.c:800: if (isHuman) {
    000016E2 79               [ 4] 4322 	ld	a, c
    000016E3 B7               [ 4] 4323 	or	a, a
    000016E4 CArA3r19         [10] 4324 	jp	Z, 00233$
                                   4325 ;E:\Dropbox\FAUSTO\SVILUPPI\MSX\CODE\C\MSXgl\projects\soccerlgSCC/soccerlg_s4_b3.c:803: u8 candLeft = NO_VALUE;
    000016E7 DD 36 F9 FF      [19] 4326 	ld	-7 (ix), #0xff
                                   4327 ;E:\Dropbox\FAUSTO\SVILUPPI\MSX\CODE\C\MSXgl\projects\soccerlgSCC/soccerlg_s4_b3.c:804: u8 candRight = NO_VALUE;
    000016EB DD 36 FA FF      [19] 4328 	ld	-6 (ix), #0xff
                                   4329 ;E:\Dropbox\FAUSTO\SVILUPPI\MSX\CODE\C\MSXgl\projects\soccerlgSCC/soccerlg_s4_b3.c:806: for(u8 c=0; c<14; c++) {
    000016EF DD 36 FF 00      [19] 4330 	ld	-1 (ix), #0x00
    000016F3                       4331 00241$:
    000016F3 DD 7E FF         [19] 4332 	ld	a, -1 (ix)
    000016F6 D6 0E            [ 7] 4333 	sub	a, #0x0e
    000016F8 D2rA2r17         [10] 4334 	jp	NC, 00184$
                                   4335 ;E:\Dropbox\FAUSTO\SVILUPPI\MSX\CODE\C\MSXgl\projects\soccerlgSCC/soccerlg_s4_b3.c:807: if (g_Players[c].TeamId == TEAM_1 && c != kickerId && g_Players[c].Role != PLAYER_ROLE_GOALKEEPER) {
    000016FB DD 4E FF         [19] 4336 	ld	c, -1 (ix)
    000016FE 06 00            [ 7] 4337 	ld	b, #0x00
    00001700 69               [ 4] 4338 	ld	l, c
    00001701 60               [ 4] 4339 	ld	h, b
    00001702 29               [11] 4340 	add	hl, hl
    00001703 29               [11] 4341 	add	hl, hl
    00001704 09               [11] 4342 	add	hl, bc
    00001705 29               [11] 4343 	add	hl, hl
    00001706 29               [11] 4344 	add	hl, hl
    00001707 09               [11] 4345 	add	hl, bc
    00001708 DD 75 FD         [19] 4346 	ld	-3 (ix), l
    0000170B DD 74 FE         [19] 4347 	ld	-2 (ix), h
    0000170E DD 7E FD         [19] 4348 	ld	a, -3 (ix)
    00001711 C6r00            [ 7] 4349 	add	a, #<(_g_Players)
    00001713 DD 77 FB         [19] 4350 	ld	-5 (ix), a
    00001716 DD 7E FE         [19] 4351 	ld	a, -2 (ix)
    00001719 CEs00            [ 7] 4352 	adc	a, #>(_g_Players)
    0000171B DD 77 FC         [19] 4353 	ld	-4 (ix), a
    0000171E DD 7E FB         [19] 4354 	ld	a, -5 (ix)
    00001721 DD 77 FD         [19] 4355 	ld	-3 (ix), a
    00001724 DD 7E FC         [19] 4356 	ld	a, -4 (ix)
    00001727 DD 77 FE         [19] 4357 	ld	-2 (ix), a
    0000172A DD 6E FD         [19] 4358 	ld	l, -3 (ix)
    0000172D DD 66 FE         [19] 4359 	ld	h, -2 (ix)
    00001730 11 09 00         [10] 4360 	ld	de, #0x0009
    00001733 19               [11] 4361 	add	hl, de
    00001734 7E               [ 7] 4362 	ld	a, (hl)
    00001735 3D               [ 4] 4363 	dec	a
    00001736 20 64            [12] 4364 	jr	NZ, 00242$
    00001738 DD 7E FF         [19] 4365 	ld	a, -1 (ix)
    0000173B DD 96 E9         [19] 4366 	sub	a, -23 (ix)
    0000173E 28 5C            [12] 4367 	jr	Z, 00242$
    00001740 DD 7E FB         [19] 4368 	ld	a, -5 (ix)
    00001743 DD 77 FD         [19] 4369 	ld	-3 (ix), a
    00001746 DD 7E FC         [19] 4370 	ld	a, -4 (ix)
    00001749 DD 77 FE         [19] 4371 	ld	-2 (ix), a
    0000174C DD 6E FD         [19] 4372 	ld	l, -3 (ix)
    0000174F DD 66 FE         [19] 4373 	ld	h, -2 (ix)
    00001752 11 0D 00         [10] 4374 	ld	de, #0x000d
    00001755 19               [11] 4375 	add	hl, de
    00001756 7E               [ 7] 4376 	ld	a, (hl)
    00001757 DD 77 FE         [19] 4377 	ld	-2 (ix), a
    0000175A B7               [ 4] 4378 	or	a, a
    0000175B 28 3F            [12] 4379 	jr	Z, 00242$
                                   4380 ;E:\Dropbox\FAUSTO\SVILUPPI\MSX\CODE\C\MSXgl\projects\soccerlgSCC/soccerlg_s4_b3.c:808: u8 tx = g_Players[c].TargetX;
    0000175D DD 7E FB         [19] 4381 	ld	a, -5 (ix)
    00001760 DD 77 FD         [19] 4382 	ld	-3 (ix), a
    00001763 DD 7E FC         [19] 4383 	ld	a, -4 (ix)
    00001766 DD 77 FE         [19] 4384 	ld	-2 (ix), a
    00001769 DD 6E FD         [19] 4385 	ld	l, -3 (ix)
    0000176C DD 66 FE         [19] 4386 	ld	h, -2 (ix)
    0000176F 11 10 00         [10] 4387 	ld	de, #0x0010
    00001772 19               [11] 4388 	add	hl, de
    00001773 7E               [ 7] 4389 	ld	a, (hl)
                                   4390 ;E:\Dropbox\FAUSTO\SVILUPPI\MSX\CODE\C\MSXgl\projects\soccerlgSCC/soccerlg_s4_b3.c:810: if (tx >= 40 && tx <= 110) candLeft = c;
    00001774 DD 77 FE         [19] 4391 	ld	-2 (ix), a
    00001777 D6 28            [ 7] 4392 	sub	a, #0x28
    00001779 38 0D            [12] 4393 	jr	C, 00175$
    0000177B 3E 6E            [ 7] 4394 	ld	a, #0x6e
    0000177D DD 96 FE         [19] 4395 	sub	a, -2 (ix)
    00001780 38 06            [12] 4396 	jr	C, 00175$
    00001782 DD 7E FF         [19] 4397 	ld	a, -1 (ix)
    00001785 DD 77 F9         [19] 4398 	ld	-7 (ix), a
    00001788                       4399 00175$:
                                   4400 ;E:\Dropbox\FAUSTO\SVILUPPI\MSX\CODE\C\MSXgl\projects\soccerlgSCC/soccerlg_s4_b3.c:811: if (tx >= 130 && tx <= 220) candRight = c;
    00001788 DD 7E FE         [19] 4401 	ld	a, -2 (ix)
    0000178B D6 82            [ 7] 4402 	sub	a, #0x82
    0000178D 38 0D            [12] 4403 	jr	C, 00242$
    0000178F 3E DC            [ 7] 4404 	ld	a, #0xdc
    00001791 DD 96 FE         [19] 4405 	sub	a, -2 (ix)
    00001794 38 06            [12] 4406 	jr	C, 00242$
    00001796 DD 7E FF         [19] 4407 	ld	a, -1 (ix)
    00001799 DD 77 FA         [19] 4408 	ld	-6 (ix), a
    0000179C                       4409 00242$:
                                   4410 ;E:\Dropbox\FAUSTO\SVILUPPI\MSX\CODE\C\MSXgl\projects\soccerlgSCC/soccerlg_s4_b3.c:806: for(u8 c=0; c<14; c++) {
    0000179C DD 34 FF         [23] 4411 	inc	-1 (ix)
    0000179F C3rF3r16         [10] 4412 	jp	00241$
    000017A2                       4413 00184$:
                                   4414 ;E:\Dropbox\FAUSTO\SVILUPPI\MSX\CODE\C\MSXgl\projects\soccerlgSCC/soccerlg_s4_b3.c:814: if (candLeft == NO_VALUE) candLeft = GetPlayerIdByRole(TEAM_1, PLAYER_ROLE_LEFT_HALFFIELDER);
    000017A2 DD 7E F9         [19] 4415 	ld	a, -7 (ix)
    000017A5 3C               [ 4] 4416 	inc	a
    000017A6 20 0A            [12] 4417 	jr	NZ, 00186$
    000017A8 2E 03            [ 7] 4418 	ld	l, #0x03
                                   4419 ;	spillPairReg hl
                                   4420 ;	spillPairReg hl
    000017AA 3E 01            [ 7] 4421 	ld	a, #0x01
    000017AC CDr67r09         [17] 4422 	call	_GetPlayerIdByRole
    000017AF DD 77 F9         [19] 4423 	ld	-7 (ix), a
    000017B2                       4424 00186$:
                                   4425 ;E:\Dropbox\FAUSTO\SVILUPPI\MSX\CODE\C\MSXgl\projects\soccerlgSCC/soccerlg_s4_b3.c:815: if (candRight == NO_VALUE) candRight = GetPlayerIdByRole(TEAM_1, PLAYER_ROLE_RIGHT_HALFFIELDER);
    000017B2 DD 7E FA         [19] 4426 	ld	a, -6 (ix)
    000017B5 3C               [ 4] 4427 	inc	a
    000017B6 20 0A            [12] 4428 	jr	NZ, 00188$
    000017B8 2E 04            [ 7] 4429 	ld	l, #0x04
                                   4430 ;	spillPairReg hl
                                   4431 ;	spillPairReg hl
    000017BA 3E 01            [ 7] 4432 	ld	a, #0x01
    000017BC CDr67r09         [17] 4433 	call	_GetPlayerIdByRole
    000017BF DD 77 FA         [19] 4434 	ld	-6 (ix), a
    000017C2                       4435 00188$:
                                   4436 ;E:\Dropbox\FAUSTO\SVILUPPI\MSX\CODE\C\MSXgl\projects\soccerlgSCC/soccerlg_s4_b3.c:817: if (g_CornerKickTargetId == NO_VALUE) {
    000017C2 3Ar00r00         [13] 4437 	ld	a, (_g_CornerKickTargetId+0)
    000017C5 3C               [ 4] 4438 	inc	a
    000017C6 20 1B            [12] 4439 	jr	NZ, 00195$
                                   4440 ;E:\Dropbox\FAUSTO\SVILUPPI\MSX\CODE\C\MSXgl\projects\soccerlgSCC/soccerlg_s4_b3.c:818: if (candLeft != NO_VALUE) g_CornerKickTargetId = candLeft;
    000017C8 DD 7E F9         [19] 4441 	ld	a, -7 (ix)
    000017CB 3C               [ 4] 4442 	inc	a
    000017CC 28 09            [12] 4443 	jr	Z, 00192$
    000017CE DD 7E F9         [19] 4444 	ld	a, -7 (ix)
    000017D1 32r00r00         [13] 4445 	ld	(_g_CornerKickTargetId+0), a
    000017D4 C3rE3r17         [10] 4446 	jp	00195$
    000017D7                       4447 00192$:
                                   4448 ;E:\Dropbox\FAUSTO\SVILUPPI\MSX\CODE\C\MSXgl\projects\soccerlgSCC/soccerlg_s4_b3.c:819: else if (candRight != NO_VALUE) g_CornerKickTargetId = candRight; 
    000017D7 DD 7E FA         [19] 4449 	ld	a, -6 (ix)
    000017DA 3C               [ 4] 4450 	inc	a
    000017DB 28 06            [12] 4451 	jr	Z, 00195$
    000017DD DD 7E FA         [19] 4452 	ld	a, -6 (ix)
    000017E0 32r00r00         [13] 4453 	ld	(_g_CornerKickTargetId+0), a
    000017E3                       4454 00195$:
                                   4455 ;E:\Dropbox\FAUSTO\SVILUPPI\MSX\CODE\C\MSXgl\projects\soccerlgSCC/soccerlg_s4_b3.c:823: u8 joyDir = GetJoystickDirection();
    000017E3 CDr17r00         [17] 4456 	call	_GetJoystickDirection
                                   4457 ;E:\Dropbox\FAUSTO\SVILUPPI\MSX\CODE\C\MSXgl\projects\soccerlgSCC/soccerlg_s4_b3.c:826: if (joyDir == DIRECTION_LEFT && !joyMoved && candLeft != NO_VALUE) {
    000017E6 DD 77 FF         [19] 4458 	ld	-1 (ix), a
    000017E9 D6 07            [ 7] 4459 	sub	a, #0x07
    000017EB 20 1A            [12] 4460 	jr	NZ, 00204$
    000017ED 3Ar02r00         [13] 4461 	ld	a, (_TickCornerKick_joyMoved_131078_1465+0)
    000017F0 B7               [ 4] 4462 	or	a, a
    000017F1 20 14            [12] 4463 	jr	NZ, 00204$
    000017F3 DD 7E F9         [19] 4464 	ld	a, -7 (ix)
    000017F6 3C               [ 4] 4465 	inc	a
    000017F7 28 0E            [12] 4466 	jr	Z, 00204$
                                   4467 ;E:\Dropbox\FAUSTO\SVILUPPI\MSX\CODE\C\MSXgl\projects\soccerlgSCC/soccerlg_s4_b3.c:827: g_CornerKickTargetId = candLeft; joyMoved = true;
    000017F9 DD 7E F9         [19] 4468 	ld	a, -7 (ix)
    000017FC 32r00r00         [13] 4469 	ld	(_g_CornerKickTargetId+0), a
    000017FF 21r02r00         [10] 4470 	ld	hl, #_TickCornerKick_joyMoved_131078_1465
    00001802 36 01            [10] 4471 	ld	(hl), #0x01
    00001804 C3r33r18         [10] 4472 	jp	00205$
    00001807                       4473 00204$:
                                   4474 ;E:\Dropbox\FAUSTO\SVILUPPI\MSX\CODE\C\MSXgl\projects\soccerlgSCC/soccerlg_s4_b3.c:828: } else if (joyDir == DIRECTION_RIGHT && !joyMoved && candRight != NO_VALUE) {
    00001807 DD 7E FF         [19] 4475 	ld	a, -1 (ix)
    0000180A D6 03            [ 7] 4476 	sub	a, #0x03
    0000180C 20 1A            [12] 4477 	jr	NZ, 00199$
    0000180E 3Ar02r00         [13] 4478 	ld	a, (_TickCornerKick_joyMoved_131078_1465+0)
    00001811 B7               [ 4] 4479 	or	a, a
    00001812 20 14            [12] 4480 	jr	NZ, 00199$
    00001814 DD 7E FA         [19] 4481 	ld	a, -6 (ix)
    00001817 3C               [ 4] 4482 	inc	a
    00001818 28 0E            [12] 4483 	jr	Z, 00199$
                                   4484 ;E:\Dropbox\FAUSTO\SVILUPPI\MSX\CODE\C\MSXgl\projects\soccerlgSCC/soccerlg_s4_b3.c:829: g_CornerKickTargetId = candRight; joyMoved = true;
    0000181A DD 7E FA         [19] 4485 	ld	a, -6 (ix)
    0000181D 32r00r00         [13] 4486 	ld	(_g_CornerKickTargetId+0), a
    00001820 21r02r00         [10] 4487 	ld	hl, #_TickCornerKick_joyMoved_131078_1465
    00001823 36 01            [10] 4488 	ld	(hl), #0x01
    00001825 C3r33r18         [10] 4489 	jp	00205$
    00001828                       4490 00199$:
                                   4491 ;E:\Dropbox\FAUSTO\SVILUPPI\MSX\CODE\C\MSXgl\projects\soccerlgSCC/soccerlg_s4_b3.c:830: } else if (joyDir == DIRECTION_NONE) {
    00001828 DD 7E FF         [19] 4492 	ld	a, -1 (ix)
    0000182B B7               [ 4] 4493 	or	a, a
    0000182C 20 05            [12] 4494 	jr	NZ, 00205$
                                   4495 ;E:\Dropbox\FAUSTO\SVILUPPI\MSX\CODE\C\MSXgl\projects\soccerlgSCC/soccerlg_s4_b3.c:831: joyMoved = false;
    0000182E 21r02r00         [10] 4496 	ld	hl, #_TickCornerKick_joyMoved_131078_1465
    00001831 36 00            [10] 4497 	ld	(hl), #0x00
    00001833                       4498 00205$:
                                   4499 ;E:\Dropbox\FAUSTO\SVILUPPI\MSX\CODE\C\MSXgl\projects\soccerlgSCC/soccerlg_s4_b3.c:838: if (kickerId != NO_VALUE) {
    00001833 DD CB EB 46      [20] 4500 	bit	0, -21 (ix)
    00001837 C2r3Br19         [10] 4501 	jp	NZ, 00209$
                                   4502 ;E:\Dropbox\FAUSTO\SVILUPPI\MSX\CODE\C\MSXgl\projects\soccerlgSCC/soccerlg_s4_b3.c:839: u8 kDir = (g_CornerKickSide == CORNER_SIDE_LEFT) ? DIRECTION_DOWN_RIGHT : DIRECTION_DOWN_LEFT;
    0000183A 3Ar00r00         [13] 4503 	ld	a, (_g_CornerKickSide+0)
    0000183D B7               [ 4] 4504 	or	a, a
    0000183E 20 0B            [12] 4505 	jr	NZ, 00269$
    00001840 DD 36 FE 04      [19] 4506 	ld	-2 (ix), #0x04
    00001844 DD 36 FF 00      [19] 4507 	ld	-1 (ix), #0
    00001848 C3r53r18         [10] 4508 	jp	00270$
    0000184B                       4509 00269$:
    0000184B DD 36 FE 06      [19] 4510 	ld	-2 (ix), #0x06
    0000184F DD 36 FF 00      [19] 4511 	ld	-1 (ix), #0
    00001853                       4512 00270$:
    00001853 DD 7E FE         [19] 4513 	ld	a, -2 (ix)
    00001856 DD 77 FD         [19] 4514 	ld	-3 (ix), a
                                   4515 ;E:\Dropbox\FAUSTO\SVILUPPI\MSX\CODE\C\MSXgl\projects\soccerlgSCC/soccerlg_s4_b3.c:840: g_Players[kickerId].Direction = kDir;
    00001859 DD 4E E9         [19] 4516 	ld	c, -23 (ix)
    0000185C 06 00            [ 7] 4517 	ld	b, #0x00
    0000185E 69               [ 4] 4518 	ld	l, c
    0000185F 60               [ 4] 4519 	ld	h, b
    00001860 29               [11] 4520 	add	hl, hl
    00001861 29               [11] 4521 	add	hl, hl
    00001862 09               [11] 4522 	add	hl, bc
    00001863 29               [11] 4523 	add	hl, hl
    00001864 29               [11] 4524 	add	hl, hl
    00001865 09               [11] 4525 	add	hl, bc
    00001866 DD 75 FE         [19] 4526 	ld	-2 (ix), l
    00001869 DD 74 FF         [19] 4527 	ld	-1 (ix), h
    0000186C 3Er00            [ 7] 4528 	ld	a, #<(_g_Players)
    0000186E DD 86 FE         [19] 4529 	add	a, -2 (ix)
    00001871 DD 77 FA         [19] 4530 	ld	-6 (ix), a
    00001874 3Es00            [ 7] 4531 	ld	a, #>(_g_Players)
    00001876 DD 8E FF         [19] 4532 	adc	a, -1 (ix)
    00001879 DD 77 FB         [19] 4533 	ld	-5 (ix), a
    0000187C DD 7E FA         [19] 4534 	ld	a, -6 (ix)
    0000187F C6 0A            [ 7] 4535 	add	a, #0x0a
    00001881 DD 77 FE         [19] 4536 	ld	-2 (ix), a
    00001884 DD 7E FB         [19] 4537 	ld	a, -5 (ix)
    00001887 CE 00            [ 7] 4538 	adc	a, #0x00
    00001889 DD 77 FF         [19] 4539 	ld	-1 (ix), a
    0000188C DD 6E FE         [19] 4540 	ld	l, -2 (ix)
    0000188F DD 66 FF         [19] 4541 	ld	h, -1 (ix)
    00001892 DD 7E FD         [19] 4542 	ld	a, -3 (ix)
    00001895 77               [ 7] 4543 	ld	(hl), a
                                   4544 ;E:\Dropbox\FAUSTO\SVILUPPI\MSX\CODE\C\MSXgl\projects\soccerlgSCC/soccerlg_s4_b3.c:841: g_Players[kickerId].PatternId = CallFnc_U8_P1(8,GetNoMovingPlayerPatternId,kDir);
    00001896 DD 7E FA         [19] 4545 	ld	a, -6 (ix)
    00001899 C6 08            [ 7] 4546 	add	a, #0x08
    0000189B DD 77 FE         [19] 4547 	ld	-2 (ix), a
    0000189E DD 7E FB         [19] 4548 	ld	a, -5 (ix)
    000018A1 CE 00            [ 7] 4549 	adc	a, #0x00
    000018A3 DD 77 FF         [19] 4550 	ld	-1 (ix), a
    000018A6 DD 7E FD         [19] 4551 	ld	a, -3 (ix)
    000018A9 F5               [11] 4552 	push	af
    000018AA 33               [ 6] 4553 	inc	sp
    000018AB 11r00r00         [10] 4554 	ld	de, #_GetNoMovingPlayerPatternId
    000018AE 3E 08            [ 7] 4555 	ld	a, #0x08
    000018B0 CDr00r00         [17] 4556 	call	_CallFnc_U8_P1
    000018B3 DD 77 FD         [19] 4557 	ld	-3 (ix), a
    000018B6 DD 6E FE         [19] 4558 	ld	l, -2 (ix)
    000018B9 DD 66 FF         [19] 4559 	ld	h, -1 (ix)
    000018BC DD 7E FD         [19] 4560 	ld	a, -3 (ix)
    000018BF 77               [ 7] 4561 	ld	(hl), a
                                   4562 ;E:\Dropbox\FAUSTO\SVILUPPI\MSX\CODE\C\MSXgl\projects\soccerlgSCC/soccerlg_s4_b3.c:842: g_Players[kickerId].X = g_Players[kickerId].TargetX;
    000018C0 DD 7E FA         [19] 4563 	ld	a, -6 (ix)
    000018C3 C6 02            [ 7] 4564 	add	a, #0x02
    000018C5 DD 77 FC         [19] 4565 	ld	-4 (ix), a
    000018C8 DD 7E FB         [19] 4566 	ld	a, -5 (ix)
    000018CB CE 00            [ 7] 4567 	adc	a, #0x00
    000018CD DD 77 FD         [19] 4568 	ld	-3 (ix), a
    000018D0 DD 7E FA         [19] 4569 	ld	a, -6 (ix)
    000018D3 DD 77 FE         [19] 4570 	ld	-2 (ix), a
    000018D6 DD 7E FB         [19] 4571 	ld	a, -5 (ix)
    000018D9 DD 77 FF         [19] 4572 	ld	-1 (ix), a
    000018DC DD 6E FE         [19] 4573 	ld	l, -2 (ix)
    000018DF DD 66 FF         [19] 4574 	ld	h, -1 (ix)
    000018E2 11 10 00         [10] 4575 	ld	de, #0x0010
    000018E5 19               [11] 4576 	add	hl, de
    000018E6 7E               [ 7] 4577 	ld	a, (hl)
    000018E7 DD 77 FE         [19] 4578 	ld	-2 (ix), a
    000018EA 23               [ 6] 4579 	inc	hl
    000018EB 7E               [ 7] 4580 	ld	a, (hl)
    000018EC DD 77 FF         [19] 4581 	ld	-1 (ix), a
    000018EF DD 6E FC         [19] 4582 	ld	l, -4 (ix)
    000018F2 DD 66 FD         [19] 4583 	ld	h, -3 (ix)
    000018F5 DD 7E FE         [19] 4584 	ld	a, -2 (ix)
    000018F8 77               [ 7] 4585 	ld	(hl), a
    000018F9 23               [ 6] 4586 	inc	hl
    000018FA DD 7E FF         [19] 4587 	ld	a, -1 (ix)
    000018FD 77               [ 7] 4588 	ld	(hl), a
                                   4589 ;E:\Dropbox\FAUSTO\SVILUPPI\MSX\CODE\C\MSXgl\projects\soccerlgSCC/soccerlg_s4_b3.c:843: g_Players[kickerId].Y = g_Players[kickerId].TargetY;
    000018FE DD 7E FA         [19] 4590 	ld	a, -6 (ix)
    00001901 DD 77 FE         [19] 4591 	ld	-2 (ix), a
    00001904 DD 7E FB         [19] 4592 	ld	a, -5 (ix)
    00001907 DD 77 FF         [19] 4593 	ld	-1 (ix), a
    0000190A DD 6E FE         [19] 4594 	ld	l, -2 (ix)
    0000190D DD 66 FF         [19] 4595 	ld	h, -1 (ix)
    00001910 11 0E 00         [10] 4596 	ld	de, #0x000e
    00001913 19               [11] 4597 	add	hl, de
    00001914 7E               [ 7] 4598 	ld	a, (hl)
    00001915 DD 77 FE         [19] 4599 	ld	-2 (ix), a
    00001918 23               [ 6] 4600 	inc	hl
    00001919 7E               [ 7] 4601 	ld	a, (hl)
    0000191A DD 77 FF         [19] 4602 	ld	-1 (ix), a
    0000191D DD 6E FA         [19] 4603 	ld	l, -6 (ix)
    00001920 DD 66 FB         [19] 4604 	ld	h, -5 (ix)
    00001923 DD 7E FE         [19] 4605 	ld	a, -2 (ix)
    00001926 77               [ 7] 4606 	ld	(hl), a
    00001927 23               [ 6] 4607 	inc	hl
    00001928 DD 7E FF         [19] 4608 	ld	a, -1 (ix)
    0000192B 77               [ 7] 4609 	ld	(hl), a
                                   4610 ;E:\Dropbox\FAUSTO\SVILUPPI\MSX\CODE\C\MSXgl\projects\soccerlgSCC/soccerlg_s4_b3.c:845: g_Players[kickerId].Status = PLAYER_STATUS_POSITIONED; 
    0000192C DD 6E FA         [19] 4611 	ld	l, -6 (ix)
    0000192F DD 66 FB         [19] 4612 	ld	h, -5 (ix)
    00001932 11 12 00         [10] 4613 	ld	de, #0x0012
    00001935 19               [11] 4614 	add	hl, de
    00001936 36 04            [10] 4615 	ld	(hl), #0x04
    00001938 23               [ 6] 4616 	inc	hl
    00001939 36 00            [10] 4617 	ld	(hl), #0x00
    0000193B                       4618 00209$:
                                   4619 ;E:\Dropbox\FAUSTO\SVILUPPI\MSX\CODE\C\MSXgl\projects\soccerlgSCC/soccerlg_s4_b3.c:848: bool t1Trigger = CallFnc_U8(5,IsJoystickTriggerPressed);
    0000193B 11r00r00         [10] 4620 	ld	de, #_IsJoystickTriggerPressed
    0000193E 3E 05            [ 7] 4621 	ld	a, #0x05
    00001940 CDr00r00         [17] 4622 	call	_CallFnc_U8
    00001943 4F               [ 4] 4623 	ld	c, a
                                   4624 ;E:\Dropbox\FAUSTO\SVILUPPI\MSX\CODE\C\MSXgl\projects\soccerlgSCC/soccerlg_s4_b3.c:850: if (g_Timer == 180) t1Latched = true;
    00001944 3Ar00r00         [13] 4625 	ld	a, (_g_Timer+0)
    00001947 D6 B4            [ 7] 4626 	sub	a, #0xb4
    00001949 20 05            [12] 4627 	jr	NZ, 00211$
    0000194B 21r03r00         [10] 4628 	ld	hl, #_TickCornerKick_t1Latched_131079_1470
    0000194E 36 01            [10] 4629 	ld	(hl), #0x01
    00001950                       4630 00211$:
                                   4631 ;E:\Dropbox\FAUSTO\SVILUPPI\MSX\CODE\C\MSXgl\projects\soccerlgSCC/soccerlg_s4_b3.c:851: if (!t1Trigger) t1Latched = false;
    00001950 79               [ 4] 4632 	ld	a, c
    00001951 B7               [ 4] 4633 	or	a, a
    00001952 20 05            [12] 4634 	jr	NZ, 00213$
    00001954 21r03r00         [10] 4635 	ld	hl, #_TickCornerKick_t1Latched_131079_1470
    00001957 36 00            [10] 4636 	ld	(hl), #0x00
    00001959                       4637 00213$:
                                   4638 ;E:\Dropbox\FAUSTO\SVILUPPI\MSX\CODE\C\MSXgl\projects\soccerlgSCC/soccerlg_s4_b3.c:854: if (g_CornerKickTargetId != NO_VALUE) {
    00001959 3Ar00r00         [13] 4639 	ld	a, (_g_CornerKickTargetId+0)
    0000195C 3C               [ 4] 4640 	inc	a
    0000195D 28 0D            [12] 4641 	jr	Z, 00215$
                                   4642 ;E:\Dropbox\FAUSTO\SVILUPPI\MSX\CODE\C\MSXgl\projects\soccerlgSCC/soccerlg_s4_b3.c:855: g_Ball.PassTargetPlayerId = g_CornerKickTargetId;
    0000195F 21r10r00         [10] 4643 	ld	hl, #(_g_Ball + 16)
    00001962 3Ar00r00         [13] 4644 	ld	a, (_g_CornerKickTargetId+0)
    00001965 77               [ 7] 4645 	ld	(hl), a
                                   4646 ;E:\Dropbox\FAUSTO\SVILUPPI\MSX\CODE\C\MSXgl\projects\soccerlgSCC/soccerlg_s4_b3.c:856: g_PassTargetPlayer = g_CornerKickTargetId;
    00001966 3Ar00r00         [13] 4647 	ld	a, (_g_CornerKickTargetId+0)
    00001969 32r00r00         [13] 4648 	ld	(_g_PassTargetPlayer+0), a
    0000196C                       4649 00215$:
                                   4650 ;E:\Dropbox\FAUSTO\SVILUPPI\MSX\CODE\C\MSXgl\projects\soccerlgSCC/soccerlg_s4_b3.c:858: if ((t1Trigger && !t1Latched || s_ForceKickTimer > 240) && g_CornerKickTargetId != NO_VALUE) {
    0000196C 79               [ 4] 4651 	ld	a, c
    0000196D B7               [ 4] 4652 	or	a, a
    0000196E 28 06            [12] 4653 	jr	Z, 00219$
    00001970 3Ar03r00         [13] 4654 	ld	a, (_TickCornerKick_t1Latched_131079_1470+0)
    00001973 B7               [ 4] 4655 	or	a, a
    00001974 28 0C            [12] 4656 	jr	Z, 00220$
    00001976                       4657 00219$:
    00001976 2Ar00r00         [16] 4658 	ld	hl, (_TickCornerKick_s_ForceKickTimer_65537_1432)
    00001979 3E F0            [ 7] 4659 	ld	a, #0xf0
    0000197B BD               [ 4] 4660 	cp	a, l
    0000197C 3E 00            [ 7] 4661 	ld	a, #0x00
    0000197E 9C               [ 4] 4662 	sbc	a, h
    0000197F D2r13r1A         [10] 4663 	jp	NC, 00243$
    00001982                       4664 00220$:
    00001982 3Ar00r00         [13] 4665 	ld	a, (_g_CornerKickTargetId+0)
    00001985 3C               [ 4] 4666 	inc	a
    00001986 CAr13r1A         [10] 4667 	jp	Z,00243$
                                   4668 ;E:\Dropbox\FAUSTO\SVILUPPI\MSX\CODE\C\MSXgl\projects\soccerlgSCC/soccerlg_s4_b3.c:859: CallFnc_VOID_P1(5,PerformPass,g_CornerKickTargetId);
    00001989 3Ar00r00         [13] 4669 	ld	a, (_g_CornerKickTargetId+0)
    0000198C F5               [11] 4670 	push	af
    0000198D 33               [ 6] 4671 	inc	sp
    0000198E 11r00r00         [10] 4672 	ld	de, #_PerformPass
    00001991 3E 05            [ 7] 4673 	ld	a, #0x05
    00001993 CDr00r00         [17] 4674 	call	_CallFnc_VOID_P1
                                   4675 ;E:\Dropbox\FAUSTO\SVILUPPI\MSX\CODE\C\MSXgl\projects\soccerlgSCC/soccerlg_s4_b3.c:860: g_MatchStatus = MATCH_IN_ACTION;
    00001996 21r00r00         [10] 4676 	ld	hl, #_g_MatchStatus
    00001999 36 0C            [10] 4677 	ld	(hl), #0x0c
                                   4678 ;E:\Dropbox\FAUSTO\SVILUPPI\MSX\CODE\C\MSXgl\projects\soccerlgSCC/soccerlg_s4_b3.c:861: g_CornerKickTargetId = NO_VALUE;
    0000199B 21r00r00         [10] 4679 	ld	hl, #_g_CornerKickTargetId
    0000199E 36 FF            [10] 4680 	ld	(hl), #0xff
    000019A0 C3r13r1A         [10] 4681 	jp	00243$
    000019A3                       4682 00233$:
                                   4683 ;E:\Dropbox\FAUSTO\SVILUPPI\MSX\CODE\C\MSXgl\projects\soccerlgSCC/soccerlg_s4_b3.c:867: if (g_CornerKickTargetId == NO_VALUE) {
    000019A3 3Ar00r00         [13] 4684 	ld	a, (_g_CornerKickTargetId+0)
    000019A6 3C               [ 4] 4685 	inc	a
    000019A7 20 32            [12] 4686 	jr	NZ, 00226$
                                   4687 ;E:\Dropbox\FAUSTO\SVILUPPI\MSX\CODE\C\MSXgl\projects\soccerlgSCC/soccerlg_s4_b3.c:868: u8 randomRole = ((g_Timer & 1) == 0) ? PLAYER_ROLE_LEFT_STRIKER : PLAYER_ROLE_RIGHT_STRIKER;
    000019A9 3Ar00r00         [13] 4688 	ld	a, (_g_Timer+0)
    000019AC 0F               [ 4] 4689 	rrca
    000019AD 38 06            [12] 4690 	jr	C, 00271$
    000019AF 21 05 00         [10] 4691 	ld	hl, #0x0005
    000019B2 C3rB8r19         [10] 4692 	jp	00272$
    000019B5                       4693 00271$:
    000019B5 21 06 00         [10] 4694 	ld	hl, #0x0006
    000019B8                       4695 00272$:
                                   4696 ;E:\Dropbox\FAUSTO\SVILUPPI\MSX\CODE\C\MSXgl\projects\soccerlgSCC/soccerlg_s4_b3.c:869: u8 strikerId = GetPlayerIdByRole(g_RestartKickTeamId, randomRole);
    000019B8 3Ar00r00         [13] 4697 	ld	a, (_g_RestartKickTeamId+0)
    000019BB CDr67r09         [17] 4698 	call	_GetPlayerIdByRole
                                   4699 ;E:\Dropbox\FAUSTO\SVILUPPI\MSX\CODE\C\MSXgl\projects\soccerlgSCC/soccerlg_s4_b3.c:872: if (strikerId != NO_VALUE && strikerId != kickerId) {
    000019BE 4F               [ 4] 4700 	ld	c, a
    000019BF 3C               [ 4] 4701 	inc	a
    000019C0 28 0D            [12] 4702 	jr	Z, 00222$
    000019C2 DD 7E E9         [19] 4703 	ld	a, -23 (ix)
    000019C5 91               [ 4] 4704 	sub	a, c
    000019C6 28 07            [12] 4705 	jr	Z, 00222$
                                   4706 ;E:\Dropbox\FAUSTO\SVILUPPI\MSX\CODE\C\MSXgl\projects\soccerlgSCC/soccerlg_s4_b3.c:873: g_CornerKickTargetId = strikerId;
    000019C8 21r00r00         [10] 4707 	ld	hl, #_g_CornerKickTargetId
    000019CB 71               [ 7] 4708 	ld	(hl), c
    000019CC C3rDBr19         [10] 4709 	jp	00226$
    000019CF                       4710 00222$:
                                   4711 ;E:\Dropbox\FAUSTO\SVILUPPI\MSX\CODE\C\MSXgl\projects\soccerlgSCC/soccerlg_s4_b3.c:875: g_CornerKickTargetId = GetClosestPlayerToBall(g_RestartKickTeamId, kickerId);
    000019CF DD 6E E9         [19] 4712 	ld	l, -23 (ix)
                                   4713 ;	spillPairReg hl
                                   4714 ;	spillPairReg hl
    000019D2 3Ar00r00         [13] 4715 	ld	a, (_g_RestartKickTeamId+0)
    000019D5 CDrC2r09         [17] 4716 	call	_GetClosestPlayerToBall
    000019D8 32r00r00         [13] 4717 	ld	(_g_CornerKickTargetId+0), a
    000019DB                       4718 00226$:
                                   4719 ;E:\Dropbox\FAUSTO\SVILUPPI\MSX\CODE\C\MSXgl\projects\soccerlgSCC/soccerlg_s4_b3.c:879: if (g_Timer > 200) {
    000019DB 3E C8            [ 7] 4720 	ld	a, #0xc8
    000019DD 21r00r00         [10] 4721 	ld	hl, #_g_Timer
    000019E0 96               [ 7] 4722 	sub	a, (hl)
    000019E1 30 2C            [12] 4723 	jr	NC, 00230$
                                   4724 ;E:\Dropbox\FAUSTO\SVILUPPI\MSX\CODE\C\MSXgl\projects\soccerlgSCC/soccerlg_s4_b3.c:880: if (g_CornerKickTargetId == NO_VALUE) g_CornerKickTargetId = GetClosestPlayerToBall(g_RestartKickTeamId, kickerId);
    000019E3 3Ar00r00         [13] 4725 	ld	a, (_g_CornerKickTargetId+0)
    000019E6 3C               [ 4] 4726 	inc	a
    000019E7 20 0C            [12] 4727 	jr	NZ, 00228$
    000019E9 DD 6E E9         [19] 4728 	ld	l, -23 (ix)
                                   4729 ;	spillPairReg hl
                                   4730 ;	spillPairReg hl
    000019EC 3Ar00r00         [13] 4731 	ld	a, (_g_RestartKickTeamId+0)
    000019EF CDrC2r09         [17] 4732 	call	_GetClosestPlayerToBall
    000019F2 32r00r00         [13] 4733 	ld	(_g_CornerKickTargetId+0), a
    000019F5                       4734 00228$:
                                   4735 ;E:\Dropbox\FAUSTO\SVILUPPI\MSX\CODE\C\MSXgl\projects\soccerlgSCC/soccerlg_s4_b3.c:882: CallFnc_VOID_P1(5,PerformPass,g_CornerKickTargetId);
    000019F5 3Ar00r00         [13] 4736 	ld	a, (_g_CornerKickTargetId+0)
    000019F8 F5               [11] 4737 	push	af
    000019F9 33               [ 6] 4738 	inc	sp
    000019FA 11r00r00         [10] 4739 	ld	de, #_PerformPass
    000019FD 3E 05            [ 7] 4740 	ld	a, #0x05
    000019FF CDr00r00         [17] 4741 	call	_CallFnc_VOID_P1
                                   4742 ;E:\Dropbox\FAUSTO\SVILUPPI\MSX\CODE\C\MSXgl\projects\soccerlgSCC/soccerlg_s4_b3.c:883: g_MatchStatus = MATCH_IN_ACTION; 
    00001A02 21r00r00         [10] 4743 	ld	hl, #_g_MatchStatus
    00001A05 36 0C            [10] 4744 	ld	(hl), #0x0c
                                   4745 ;E:\Dropbox\FAUSTO\SVILUPPI\MSX\CODE\C\MSXgl\projects\soccerlgSCC/soccerlg_s4_b3.c:884: g_CornerKickTargetId = NO_VALUE;
    00001A07 21r00r00         [10] 4746 	ld	hl, #_g_CornerKickTargetId
    00001A0A 36 FF            [10] 4747 	ld	(hl), #0xff
    00001A0C C3r13r1A         [10] 4748 	jp	00243$
    00001A0F                       4749 00230$:
                                   4750 ;E:\Dropbox\FAUSTO\SVILUPPI\MSX\CODE\C\MSXgl\projects\soccerlgSCC/soccerlg_s4_b3.c:886: g_Timer++;
    00001A0F 21r00r00         [10] 4751 	ld	hl, #_g_Timer
    00001A12 34               [11] 4752 	inc	(hl)
    00001A13                       4753 00243$:
                                   4754 ;E:\Dropbox\FAUSTO\SVILUPPI\MSX\CODE\C\MSXgl\projects\soccerlgSCC/soccerlg_s4_b3.c:889: }
    00001A13 DD F9            [10] 4755 	ld	sp, ix
    00001A15 DD E1            [14] 4756 	pop	ix
    00001A17 C9               [10] 4757 	ret
                                   4758 	.area _SEG4
                                   4759 	.area _INITIALIZER
                                   4760 	.area _CABS (ABS)
