                                      1 ;--------------------------------------------------------
                                      2 ; File Created by SDCC : free open source ANSI-C Compiler
                                      3 ; Version 4.2.0 #13081 (MINGW64)
                                      4 ;--------------------------------------------------------
                                      5 	.module soccerlg_s2_b1
                                      6 	.optsdcc -mz80
                                      7 	
                                      8 ;--------------------------------------------------------
                                      9 ; Public variables in this module
                                     10 ;--------------------------------------------------------
                                     11 	.globl _VGM_Stop
                                     12 	.globl _DEBUG_INIT
                                     13 	.globl _TickAI
                                     14 	.globl _TickActiveFieldZone
                                     15 	.globl _TickBallFlying
                                     16 	.globl _SetPlayerTarget
                                     17 	.globl _ShowMenu
                                     18 	.globl _TickUpdateTime
                                     19 	.globl _TickBallCollision
                                     20 	.globl _UpdatePassTarget
                                     21 	.globl _TickGoalkeeperAnimation
                                     22 	.globl _TickCheckBallBoundaries
                                     23 	.globl _GetNoMovingPlayerPatternId
                                     24 	.globl _TickTeamJoystick
                                     25 	.globl _UpdateSpritesPositions
                                     26 	.globl _TickGoalCelebration
                                     27 	.globl _TickPonPonGirlsAnimation
                                     28 	.globl _V9990_PrintLayerAStringAtPos
                                     29 	.globl _V9990_InitMenuLayers
                                     30 	.globl _PutPonPonGirlSprite
                                     31 	.globl _TickThrowIn
                                     32 	.globl _PlayAyFx
                                     33 	.globl _GetTeamStats
                                     34 	.globl _V9990_ClearTextFromLayerA
                                     35 	.globl _PlayPCM
                                     36 	.globl _PlayVGM
                                     37 	.globl _Trampoline_U8_P1
                                     38 	.globl _Trampoline_U8
                                     39 	.globl _Trampoline_VOID_P1
                                     40 	.globl _Trampoline_VOID
                                     41 	.globl _V9990_LoadImagePresentationData
                                     42 	.globl _LoadMsxVdpFonts
                                     43 	.globl _V9990_WaitSynch
                                     44 	.globl _V9_Detect
                                     45 	.globl _V9_SetPaletteEntry
                                     46 	.globl _V9_SetScrollingBY
                                     47 	.globl _V9_SetColorMode
                                     48 	.globl _V9_SetScreenMode
                                     49 	.globl _V9_WriteVRAM_CurrentAddr
                                     50 	.globl _V9_SetWriteAddress
                                     51 	.globl _V9_GetRegister
                                     52 	.globl _V9_SetRegister16
                                     53 	.globl _V9_SetRegister
                                     54 	.globl _V9_SetPort
                                     55 	.globl _Print_SetColor
                                     56 	.globl _Print_DrawText
                                     57 	.globl _VDP_RegWriteBakMask
                                     58 	.globl _VDP_SetMode
                                     59 	.globl _VDP_ClearVRAM
                                     60 	.globl _Keyboard_IsKeyPressed
                                     61 	.globl _Joystick_Read
                                     62 	.globl _g_SLTSL
                                     63 	.globl _g_GRPACY
                                     64 	.globl _g_GRPACX
                                     65 	.globl _g_LOGOPR
                                     66 	.globl _g_CMASK
                                     67 	.globl _g_CLOC
                                     68 	.globl _g_FNKSTR
                                     69 	.globl _g_ATRBYT
                                     70 	.globl _g_BDRCLR
                                     71 	.globl _g_BAKCLR
                                     72 	.globl _g_FORCLR
                                     73 	.globl _g_CSRX
                                     74 	.globl _g_CSRY
                                     75 	.globl _g_CLIKSW
                                     76 	.globl _g_MLTPAT
                                     77 	.globl _g_MLTATR
                                     78 	.globl _g_MLTCGP
                                     79 	.globl _g_MLTCOL
                                     80 	.globl _g_MLTNAM
                                     81 	.globl _g_GRPPAT
                                     82 	.globl _g_GRPATR
                                     83 	.globl _g_GRPCGP
                                     84 	.globl _g_GRPCOL
                                     85 	.globl _g_GRPNAM
                                     86 	.globl _g_T32PAT
                                     87 	.globl _g_T32ATR
                                     88 	.globl _g_T32CGP
                                     89 	.globl _g_T32COL
                                     90 	.globl _g_T32NAM
                                     91 	.globl _g_TXTPAT
                                     92 	.globl _g_TXTATR
                                     93 	.globl _g_TXTCGP
                                     94 	.globl _g_TXTCOL
                                     95 	.globl _g_TXTNAM
                                     96 	.globl _g_CLMLST
                                     97 	.globl _g_CRTCNT
                                     98 	.globl _g_LINLEN
                                     99 	.globl _g_LINL32
                                    100 	.globl _g_LINL40
                                    101 	.globl _g_BDOS
                                    102 	.globl _g_MASTER
                                    103 	.globl _g_RAMAD3
                                    104 	.globl _g_RAMAD2
                                    105 	.globl _g_RAMAD1
                                    106 	.globl _g_RAMAD0
                                    107 	.globl _g_BREAKV
                                    108 	.globl _g_DISKVE
                                    109 	.globl _g_KANJTABLE
                                    110 	.globl _g_STRSRC
                                    111 	.globl _g_SUBRID
                                    112 	.globl _g_CHAR_16
                                    113 	.globl _g_MSXMID
                                    114 	.globl _g_MSXVER
                                    115 	.globl _g_ROMVersion
                                    116 	.globl _g_BASRVN
                                    117 	.globl _g_VDP_DW
                                    118 	.globl _g_VDP_DR
                                    119 	.globl _g_CGTABL
                                    120 	.globl _g_SVFFFD
                                    121 	.globl _g_RG27SAV
                                    122 	.globl _g_RG26SAV
                                    123 	.globl _g_RG25SAV
                                    124 	.globl _g_SVFFF8
                                    125 	.globl _g_MINROM
                                    126 	.globl _g_RG23SAV
                                    127 	.globl _g_RG22SAV
                                    128 	.globl _g_RG21SAV
                                    129 	.globl _g_RG20SAV
                                    130 	.globl _g_RG19SAV
                                    131 	.globl _g_RG18SAV
                                    132 	.globl _g_RG17SAV
                                    133 	.globl _g_RG16SAV
                                    134 	.globl _g_RG15SAV
                                    135 	.globl _g_RG14SAV
                                    136 	.globl _g_RG13SAV
                                    137 	.globl _g_RG12SAV
                                    138 	.globl _g_RG11SAV
                                    139 	.globl _g_RG10SAV
                                    140 	.globl _g_RG09SAV
                                    141 	.globl _g_RG08SAV
                                    142 	.globl _g_PROCNM
                                    143 	.globl _g_SLTWRK
                                    144 	.globl _g_SLTATR
                                    145 	.globl _g_SLTTBL
                                    146 	.globl _g_EXPTBL
                                    147 	.globl _g_MNROM
                                    148 	.globl _g_DRWANG
                                    149 	.globl _g_DRWSCL
                                    150 	.globl _g_DRWFLG
                                    151 	.globl _g_GYPOS
                                    152 	.globl _g_GXPOS
                                    153 	.globl _g_BRDATR
                                    154 	.globl _g_CASPRV
                                    155 	.globl _g_OLDSCR
                                    156 	.globl _g_SCRMOD
                                    157 	.globl _g_FLBMEM
                                    158 	.globl _g_KANAMD
                                    159 	.globl _g_KANAST
                                    160 	.globl _g_CAPST
                                    161 	.globl _g_CSTYLE
                                    162 	.globl _g_CSRSW
                                    163 	.globl _g_INSFLG
                                    164 	.globl _g_ESCCNT
                                    165 	.globl _g_GRPHED
                                    166 	.globl _g_WINWID
                                    167 	.globl _g_LOWLIM
                                    168 	.globl _g_INTCNT
                                    169 	.globl _g_INTVAL
                                    170 	.globl _g_JIFFY
                                    171 	.globl _g_PADX
                                    172 	.globl _g_PADY
                                    173 	.globl _g_INTFLG
                                    174 	.globl _g_RTYCNT
                                    175 	.globl _g_TRPTBL
                                    176 	.globl _g_HIMEM
                                    177 	.globl _g_BOTTOM
                                    178 	.globl _g_PATWRK
                                    179 	.globl _g_LINWRK
                                    180 	.globl _g_KEYBUF
                                    181 	.globl _g_NEWKEY
                                    182 	.globl _g_OLDKEY
                                    183 	.globl _g_CLIKFL
                                    184 	.globl _g_ONGSBF
                                    185 	.globl _g_FNKFLG
                                    186 	.globl _g_FNKSWI
                                    187 	.globl _g_CODSAV
                                    188 	.globl _g_FSTPOS
                                    189 	.globl _g_LINTTB
                                    190 	.globl _g_BASROM
                                    191 	.globl _g_ENSTOP
                                    192 	.globl _g_VCBC
                                    193 	.globl _g_VCBB
                                    194 	.globl _g_VCBA
                                    195 	.globl _g_PLYCNT
                                    196 	.globl _g_MUSICF
                                    197 	.globl _g_QUEUEN
                                    198 	.globl _g_MCLPTR
                                    199 	.globl _g_MCLLEN
                                    200 	.globl _g_SAVVOL
                                    201 	.globl _g_VOICEN
                                    202 	.globl _g_SAVSP
                                    203 	.globl _g_PRSCNT
                                    204 	.globl _g_LSTMOD
                                    205 	.globl _g_LSTCOM
                                    206 	.globl _g_COMMSK
                                    207 	.globl _g_ESTBLS
                                    208 	.globl _g_FLAGS
                                    209 	.globl _g_ERRORS
                                    210 	.globl _g_DATCNT
                                    211 	.globl _g_DEVNUM
                                    212 	.globl _g_OLDINT
                                    213 	.globl _g_OLDSTT
                                    214 	.globl _g_MEXBIh
                                    215 	.globl _g_RSIQLN
                                    216 	.globl _g_RSFCB
                                    217 	.globl _g_TOCNT
                                    218 	.globl _g_RSTMP
                                    219 	.globl _g_YSAVE
                                    220 	.globl _g_XSAVE
                                    221 	.globl _g_NORUSE
                                    222 	.globl _g_MODE
                                    223 	.globl _g_ROMA
                                    224 	.globl _g_CHRCNT
                                    225 	.globl _g_EXBRSA
                                    226 	.globl _g_AVCSAV
                                    227 	.globl _g_ACPAGE
                                    228 	.globl _g_DPPAGE
                                    229 	.globl _g_RS2IQ
                                    230 	.globl _g_VOICCQ
                                    231 	.globl _g_VOICBQ
                                    232 	.globl _g_VOICAQ
                                    233 	.globl _g_QUEBAK
                                    234 	.globl _g_QUETAB
                                    235 	.globl _g_ASPCT2
                                    236 	.globl _g_ASPCT1
                                    237 	.globl _g_HEADER
                                    238 	.globl _g_HIGH
                                    239 	.globl _g_LOW
                                    240 	.globl _g_CS240
                                    241 	.globl _g_CS120
                                    242 	.globl _g_GETPNT
                                    243 	.globl _g_PUTPNT
                                    244 	.globl _g_REPCNT
                                    245 	.globl _g_SCNCNT
                                    246 	.globl _g_FRCNEW
                                    247 	.globl _g_QUEUES
                                    248 	.globl _g_MINUPD
                                    249 	.globl _g_MAXUPD
                                    250 	.globl _g_TRGFLG
                                    251 	.globl _g_STATFL
                                    252 	.globl _g_RG7SAV
                                    253 	.globl _g_RG6SAV
                                    254 	.globl _g_RG5SAV
                                    255 	.globl _g_RG4SAV
                                    256 	.globl _g_RG3SAV
                                    257 	.globl _g_RG2SAV
                                    258 	.globl _g_RG1SAV
                                    259 	.globl _g_RG0SAV
                                    260 	.globl _g_CNSDFG
                                    261 	.globl _g_USRTAB
                                    262 	.globl _g_CLPRIM
                                    263 	.globl _g_WRPRIM
                                    264 	.globl _g_RDPRIM
                                    265 	.globl _IsTeamJoystickTriggerPressed
                                    266 	.globl _GetJoystickDirection
                                    267 	.globl _InitVariables
                                    268 	.globl _LoadPresentation
                                    269 	.globl _TickGameFieldScrolling
                                    270 	.globl _MainSub
                                    271 	.globl _MainGameLoop
                                    272 	.globl _TickShowKickOff
                                    273 	.globl _TickShotCursor
                                    274 	.globl _EnforcePenaltyBoxRestriction
                                    275 	.globl _GetPlayerIdByRole
                                    276 	.globl _GetClosestPlayerToBall
                                    277 	.globl _SetPlayerBallPossession
                                    278 	.globl _PutBallOnPlayerFeet
                                    279 	.globl _TickCornerKick
                                    280 	.globl _IsJoystickTriggerPressed
                                    281 	.globl _PerformPass
                                    282 	.globl _IsOffside
                                    283 	.globl _TickGoalKick
                                    284 	.globl _GoalkeeperWithBall
                                    285 	.globl _TickPlayerToOwnTarget
                                    286 	.globl _PutPlayerSprite
                                    287 	.globl _UpdatePlayerPatternByDirection
                                    288 	.globl _GetPatternIdByPoseAndDirection
                                    289 ;--------------------------------------------------------
                                    290 ; special function registers
                                    291 ;--------------------------------------------------------
                         000000A8   292 _g_PortPrimarySlot	=	0x00a8
                         000000A9   293 _g_PortReadKeyboard	=	0x00a9
                         000000AA   294 _g_PortAccessKeyboard	=	0x00aa
                         000000AB   295 _g_PortControl	=	0x00ab
                         00000098   296 _g_VDP_DataPort	=	0x0098
                         00000099   297 _g_VDP_RegPort	=	0x0099
                         00000099   298 _g_VDP_AddrPort	=	0x0099
                         00000099   299 _g_VDP_StatPort	=	0x0099
                         000000A0   300 _g_PSG_RegPort	=	0x00a0
                         000000A1   301 _g_PSG_DataPort	=	0x00a1
                         000000A2   302 _g_PSG_StatPort	=	0x00a2
                         00000010   303 _g_PSG_Ext_RegPort	=	0x0010
                         00000011   304 _g_PSG_Ext_DataPort	=	0x0011
                         00000012   305 _g_PSG_Ext_StatPort	=	0x0012
                         0000007C   306 _g_MSXMusic_IndexPort	=	0x007c
                         0000007D   307 _g_MSXMusic_DataPort	=	0x007d
                         000000C0   308 _g_MSXAudio_IndexPort	=	0x00c0
                         000000C1   309 _g_MSXAudio_DataPort	=	0x00c1
                         000000C2   310 _g_MSXAudio_IndexPort2	=	0x00c2
                         000000C3   311 _g_MSXAudio_DataPort2	=	0x00c3
                         000000B4   312 _g_RTC_AddrPort	=	0x00b4
                         000000B5   313 _g_RTC_DataPort	=	0x00b5
                         00000060   314 _g_V9_VRAMPort	=	0x0060
                         00000061   315 _g_V9_PalettePort	=	0x0061
                         00000062   316 _g_V9_CmdDataPort	=	0x0062
                         00000063   317 _g_V9_RegDataPort	=	0x0063
                         00000064   318 _g_V9_RegSelectPort	=	0x0064
                         00000065   319 _g_V9_SatusPort	=	0x0065
                         00000066   320 _g_V9_IntFlagPort	=	0x0066
                         00000067   321 _g_V9_SysCtrlPort	=	0x0067
                         00000068   322 _g_V9_KanjiAddrLPort	=	0x0068
                         00000069   323 _g_V9_KanjiAddrHPort	=	0x0069
                         00000069   324 _g_V9_KanjiDataPort	=	0x0069
                         0000006A   325 _g_V9_Kanji2AddrLPort	=	0x006a
                         0000006B   326 _g_V9_Kanji2AddrHPort	=	0x006b
                         0000006B   327 _g_V9_Kanji2DataPort	=	0x006b
                         0000006F   328 _g_V9_OutputCtrPort	=	0x006f
                                    329 ;--------------------------------------------------------
                                    330 ; ram data
                                    331 ;--------------------------------------------------------
                                    332 	.area _DATA
                         0000F3AE   333 _g_LINL40	=	0xf3ae
                         0000F3AF   334 _g_LINL32	=	0xf3af
                         0000F3B0   335 _g_LINLEN	=	0xf3b0
                         0000F3B1   336 _g_CRTCNT	=	0xf3b1
                         0000F3B2   337 _g_CLMLST	=	0xf3b2
                         0000F3B3   338 _g_TXTNAM	=	0xf3b3
                         0000F3B5   339 _g_TXTCOL	=	0xf3b5
                         0000F3B7   340 _g_TXTCGP	=	0xf3b7
                         0000F3B9   341 _g_TXTATR	=	0xf3b9
                         0000F3BB   342 _g_TXTPAT	=	0xf3bb
                         0000F3BD   343 _g_T32NAM	=	0xf3bd
                         0000F3BF   344 _g_T32COL	=	0xf3bf
                         0000F3C1   345 _g_T32CGP	=	0xf3c1
                         0000F3C3   346 _g_T32ATR	=	0xf3c3
                         0000F3C5   347 _g_T32PAT	=	0xf3c5
                         0000F3C7   348 _g_GRPNAM	=	0xf3c7
                         0000F3C9   349 _g_GRPCOL	=	0xf3c9
                         0000F3CB   350 _g_GRPCGP	=	0xf3cb
                         0000F3CD   351 _g_GRPATR	=	0xf3cd
                         0000F3CF   352 _g_GRPPAT	=	0xf3cf
                         0000F3D1   353 _g_MLTNAM	=	0xf3d1
                         0000F3D3   354 _g_MLTCOL	=	0xf3d3
                         0000F3D5   355 _g_MLTCGP	=	0xf3d5
                         0000F3D7   356 _g_MLTATR	=	0xf3d7
                         0000F3D9   357 _g_MLTPAT	=	0xf3d9
                         0000F3DB   358 _g_CLIKSW	=	0xf3db
                         0000F3DC   359 _g_CSRY	=	0xf3dc
                         0000F3DD   360 _g_CSRX	=	0xf3dd
                         0000F3E9   361 _g_FORCLR	=	0xf3e9
                         0000F3EA   362 _g_BAKCLR	=	0xf3ea
                         0000F3EB   363 _g_BDRCLR	=	0xf3eb
                         0000F3F2   364 _g_ATRBYT	=	0xf3f2
                         0000F87F   365 _g_FNKSTR	=	0xf87f
                         0000F92A   366 _g_CLOC	=	0xf92a
                         0000F92C   367 _g_CMASK	=	0xf92c
                         0000FB02   368 _g_LOGOPR	=	0xfb02
                         0000FCB7   369 _g_GRPACX	=	0xfcb7
                         0000FCB9   370 _g_GRPACY	=	0xfcb9
                         0000FFFF   371 _g_SLTSL	=	0xffff
    00000000                        372 _TickCornerKick_s_ForceKickTimer_65537_1390:
    00000000                        373 	.ds 2
    00000002                        374 _TickCornerKick_joyMoved_131078_1423:
    00000002                        375 	.ds 1
    00000003                        376 _TickCornerKick_t1Latched_131079_1428:
    00000003                        377 	.ds 1
    00000004                        378 _TickGoalKick_s_SafetyTimeout_65537_1463:
    00000004                        379 	.ds 2
    00000006                        380 _TickGoalKick_s_SetupDone_65537_1463:
    00000006                        381 	.ds 1
    00000007                        382 _TickPlayerToOwnTarget_s_GkMoveTick_131072_1519:
    00000007                        383 	.ds 1
                                    384 ;--------------------------------------------------------
                                    385 ; ram data
                                    386 ;--------------------------------------------------------
                                    387 	.area _INITIALIZED
                                    388 ;--------------------------------------------------------
                                    389 ; absolute external ram data
                                    390 ;--------------------------------------------------------
                                    391 	.area _DABS (ABS)
                                    392 ;--------------------------------------------------------
                                    393 ; global & static initialisations
                                    394 ;--------------------------------------------------------
                                    395 	.area _HOME
                                    396 	.area _GSINIT
                                    397 	.area _GSFINAL
                                    398 	.area _GSINIT
                                    399 ;E:\Dropbox\FAUSTO\SVILUPPI\MSX\CODE\C\MSXgl\projects\soccerlg/soccerlg_s2_b1.c:665: static u16 s_ForceKickTimer = 0;
    00000000 21 00 00         [10]  400 	ld	hl, #0x0000
    00000003 22r00r00         [16]  401 	ld	(_TickCornerKick_s_ForceKickTimer_65537_1390), hl
                                    402 ;E:\Dropbox\FAUSTO\SVILUPPI\MSX\CODE\C\MSXgl\projects\soccerlg/soccerlg_s2_b1.c:814: static bool joyMoved = false;
    00000006 FD 21r02r00      [14]  403 	ld	iy, #_TickCornerKick_joyMoved_131078_1423
    0000000A FD 36 00 00      [19]  404 	ld	0 (iy), #0x00
                                    405 ;E:\Dropbox\FAUSTO\SVILUPPI\MSX\CODE\C\MSXgl\projects\soccerlg/soccerlg_s2_b1.c:839: static bool t1Latched = false;
    0000000E FD 21r03r00      [14]  406 	ld	iy, #_TickCornerKick_t1Latched_131079_1428
    00000012 FD 36 00 00      [19]  407 	ld	0 (iy), #0x00
                                    408 ;E:\Dropbox\FAUSTO\SVILUPPI\MSX\CODE\C\MSXgl\projects\soccerlg/soccerlg_s2_b1.c:1047: static u16 s_SafetyTimeout = 0;
    00000016 21 00 00         [10]  409 	ld	hl, #0x0000
    00000019 22r04r00         [16]  410 	ld	(_TickGoalKick_s_SafetyTimeout_65537_1463), hl
                                    411 ;E:\Dropbox\FAUSTO\SVILUPPI\MSX\CODE\C\MSXgl\projects\soccerlg/soccerlg_s2_b1.c:1048: static bool s_SetupDone = false;
    0000001C FD 21r06r00      [14]  412 	ld	iy, #_TickGoalKick_s_SetupDone_65537_1463
    00000020 FD 36 00 00      [19]  413 	ld	0 (iy), #0x00
                                    414 ;E:\Dropbox\FAUSTO\SVILUPPI\MSX\CODE\C\MSXgl\projects\soccerlg/soccerlg_s2_b1.c:1341: static u8 s_GkMoveTick = 0;
    00000024 FD 21r07r00      [14]  415 	ld	iy, #_TickPlayerToOwnTarget_s_GkMoveTick_131072_1519
    00000028 FD 36 00 00      [19]  416 	ld	0 (iy), #0x00
                                    417 ;--------------------------------------------------------
                                    418 ; Home
                                    419 ;--------------------------------------------------------
                                    420 	.area _HOME
                                    421 	.area _HOME
                                    422 ;--------------------------------------------------------
                                    423 ; code
                                    424 ;--------------------------------------------------------
                                    425 	.area _SEG2
                                    426 ;E:\Dropbox\FAUSTO\SVILUPPI\MSX\CODE\C\MSXgl\projects\soccerlg/soccerlg_s2_b1.c:25: bool IsTeamJoystickTriggerPressed(){		
                                    427 ;	---------------------------------
                                    428 ; Function IsTeamJoystickTriggerPressed
                                    429 ; ---------------------------------
    00000000                        430 _IsTeamJoystickTriggerPressed::
                                    431 ;E:\Dropbox\FAUSTO\SVILUPPI\MSX\CODE\C\MSXgl\projects\soccerlg/soccerlg_s2_b1.c:26: u8 joyStat = Joystick_Read(JOY_PORT_1);
    00000000 2E 0F            [ 7]  432 	ld	l, #0x0f
                                    433 ;	spillPairReg hl
                                    434 ;	spillPairReg hl
    00000002 CDr00r00         [17]  435 	call	_Joystick_Read
                                    436 ;E:\Dropbox\FAUSTO\SVILUPPI\MSX\CODE\C\MSXgl\projects\soccerlg/soccerlg_s2_b1.c:27: if (IS_JOY_PRESSED(joyStat, JOY_INPUT_TRIGGER_A))
    00000005 CB 65            [ 8]  437 	bit	4, l
    00000007 20 03            [12]  438 	jr	NZ, 00102$
                                    439 ;E:\Dropbox\FAUSTO\SVILUPPI\MSX\CODE\C\MSXgl\projects\soccerlg/soccerlg_s2_b1.c:29: return true;
    00000009 3E 01            [ 7]  440 	ld	a, #0x01
    0000000B C9               [10]  441 	ret
    0000000C                        442 00102$:
                                    443 ;E:\Dropbox\FAUSTO\SVILUPPI\MSX\CODE\C\MSXgl\projects\soccerlg/soccerlg_s2_b1.c:31: if(Keyboard_IsKeyPressed(KEY_SPACE))
    0000000C 3E 08            [ 7]  444 	ld	a, #0x08
    0000000E CDr00r00         [17]  445 	call	_Keyboard_IsKeyPressed
    00000011 B7               [ 4]  446 	or	a, a
                                    447 ;E:\Dropbox\FAUSTO\SVILUPPI\MSX\CODE\C\MSXgl\projects\soccerlg/soccerlg_s2_b1.c:33: return true;
                                    448 ;E:\Dropbox\FAUSTO\SVILUPPI\MSX\CODE\C\MSXgl\projects\soccerlg/soccerlg_s2_b1.c:35: return FALSE;
    00000012 3E 01            [ 7]  449 	ld	a, #0x01
    00000014 C0               [11]  450 	ret	NZ
    00000015 AF               [ 4]  451 	xor	a, a
                                    452 ;E:\Dropbox\FAUSTO\SVILUPPI\MSX\CODE\C\MSXgl\projects\soccerlg/soccerlg_s2_b1.c:36: }
    00000016 C9               [10]  453 	ret
                         0000F380   454 _g_RDPRIM	=	0xf380
                         0000F385   455 _g_WRPRIM	=	0xf385
                         0000F38C   456 _g_CLPRIM	=	0xf38c
                         0000F39A   457 _g_USRTAB	=	0xf39a
                         0000F3DE   458 _g_CNSDFG	=	0xf3de
                         0000F3DF   459 _g_RG0SAV	=	0xf3df
                         0000F3E0   460 _g_RG1SAV	=	0xf3e0
                         0000F3E1   461 _g_RG2SAV	=	0xf3e1
                         0000F3E2   462 _g_RG3SAV	=	0xf3e2
                         0000F3E3   463 _g_RG4SAV	=	0xf3e3
                         0000F3E4   464 _g_RG5SAV	=	0xf3e4
                         0000F3E5   465 _g_RG6SAV	=	0xf3e5
                         0000F3E6   466 _g_RG7SAV	=	0xf3e6
                         0000F3E7   467 _g_STATFL	=	0xf3e7
                         0000F3E8   468 _g_TRGFLG	=	0xf3e8
                         0000F3EC   469 _g_MAXUPD	=	0xf3ec
                         0000F3EF   470 _g_MINUPD	=	0xf3ef
                         0000F3F3   471 _g_QUEUES	=	0xf3f3
                         0000F3F5   472 _g_FRCNEW	=	0xf3f5
                         0000F3F6   473 _g_SCNCNT	=	0xf3f6
                         0000F3F7   474 _g_REPCNT	=	0xf3f7
                         0000F3F8   475 _g_PUTPNT	=	0xf3f8
                         0000F3FA   476 _g_GETPNT	=	0xf3fa
                         0000F3FC   477 _g_CS120	=	0xf3fc
                         0000F401   478 _g_CS240	=	0xf401
                         0000F406   479 _g_LOW	=	0xf406
                         0000F408   480 _g_HIGH	=	0xf408
                         0000F40A   481 _g_HEADER	=	0xf40a
                         0000F40B   482 _g_ASPCT1	=	0xf40b
                         0000F40D   483 _g_ASPCT2	=	0xf40d
                         0000F959   484 _g_QUETAB	=	0xf959
                         0000F971   485 _g_QUEBAK	=	0xf971
                         0000F975   486 _g_VOICAQ	=	0xf975
                         0000F9F5   487 _g_VOICBQ	=	0xf9f5
                         0000FA75   488 _g_VOICCQ	=	0xfa75
                         0000FAF5   489 _g_RS2IQ	=	0xfaf5
                         0000FAF5   490 _g_DPPAGE	=	0xfaf5
                         0000FAF6   491 _g_ACPAGE	=	0xfaf6
                         0000FAF7   492 _g_AVCSAV	=	0xfaf7
                         0000FAF8   493 _g_EXBRSA	=	0xfaf8
                         0000FAF9   494 _g_CHRCNT	=	0xfaf9
                         0000FAFA   495 _g_ROMA	=	0xfafa
                         0000FAFC   496 _g_MODE	=	0xfafc
                         0000FAFD   497 _g_NORUSE	=	0xfafd
                         0000FAFE   498 _g_XSAVE	=	0xfafe
                         0000FB00   499 _g_YSAVE	=	0xfb00
                         0000FB03   500 _g_RSTMP	=	0xfb03
                         0000FB03   501 _g_TOCNT	=	0xfb03
                         0000FB04   502 _g_RSFCB	=	0xfb04
                         0000FB06   503 _g_RSIQLN	=	0xfb06
                         0000FB07   504 _g_MEXBIh	=	0xfb07
                         0000FB0C   505 _g_OLDSTT	=	0xfb0c
                         0000FB0C   506 _g_OLDINT	=	0xfb0c
                         0000FB16   507 _g_DEVNUM	=	0xfb16
                         0000FB17   508 _g_DATCNT	=	0xfb17
                         0000FB1A   509 _g_ERRORS	=	0xfb1a
                         0000FB1B   510 _g_FLAGS	=	0xfb1b
                         0000FB1C   511 _g_ESTBLS	=	0xfb1c
                         0000FB1D   512 _g_COMMSK	=	0xfb1d
                         0000FB1E   513 _g_LSTCOM	=	0xfb1e
                         0000FB1F   514 _g_LSTMOD	=	0xfb1f
                         0000FB35   515 _g_PRSCNT	=	0xfb35
                         0000FB36   516 _g_SAVSP	=	0xfb36
                         0000FB38   517 _g_VOICEN	=	0xfb38
                         0000FB39   518 _g_SAVVOL	=	0xfb39
                         0000FB3B   519 _g_MCLLEN	=	0xfb3b
                         0000FB3C   520 _g_MCLPTR	=	0xfb3c
                         0000FB3E   521 _g_QUEUEN	=	0xfb3e
                         0000FB3F   522 _g_MUSICF	=	0xfb3f
                         0000FB40   523 _g_PLYCNT	=	0xfb40
                         0000FB41   524 _g_VCBA	=	0xfb41
                         0000FB66   525 _g_VCBB	=	0xfb66
                         0000FB8B   526 _g_VCBC	=	0xfb8b
                         0000FBB0   527 _g_ENSTOP	=	0xfbb0
                         0000FBB1   528 _g_BASROM	=	0xfbb1
                         0000FBB2   529 _g_LINTTB	=	0xfbb2
                         0000FBCA   530 _g_FSTPOS	=	0xfbca
                         0000FBCC   531 _g_CODSAV	=	0xfbcc
                         0000FBCD   532 _g_FNKSWI	=	0xfbcd
                         0000FBCE   533 _g_FNKFLG	=	0xfbce
                         0000FBD8   534 _g_ONGSBF	=	0xfbd8
                         0000FBD9   535 _g_CLIKFL	=	0xfbd9
                         0000FBDA   536 _g_OLDKEY	=	0xfbda
                         0000FBE5   537 _g_NEWKEY	=	0xfbe5
                         0000FBF0   538 _g_KEYBUF	=	0xfbf0
                         0000FC18   539 _g_LINWRK	=	0xfc18
                         0000FC40   540 _g_PATWRK	=	0xfc40
                         0000FC48   541 _g_BOTTOM	=	0xfc48
                         0000FC4A   542 _g_HIMEM	=	0xfc4a
                         0000FC4C   543 _g_TRPTBL	=	0xfc4c
                         0000FC9A   544 _g_RTYCNT	=	0xfc9a
                         0000FC9B   545 _g_INTFLG	=	0xfc9b
                         0000FC9C   546 _g_PADY	=	0xfc9c
                         0000FC9D   547 _g_PADX	=	0xfc9d
                         0000FC9E   548 _g_JIFFY	=	0xfc9e
                         0000FCA0   549 _g_INTVAL	=	0xfca0
                         0000FCA2   550 _g_INTCNT	=	0xfca2
                         0000FCA4   551 _g_LOWLIM	=	0xfca4
                         0000FCA5   552 _g_WINWID	=	0xfca5
                         0000FCA6   553 _g_GRPHED	=	0xfca6
                         0000FCA7   554 _g_ESCCNT	=	0xfca7
                         0000FCA8   555 _g_INSFLG	=	0xfca8
                         0000FCA9   556 _g_CSRSW	=	0xfca9
                         0000FCAA   557 _g_CSTYLE	=	0xfcaa
                         0000FCAB   558 _g_CAPST	=	0xfcab
                         0000FCAC   559 _g_KANAST	=	0xfcac
                         0000FCAD   560 _g_KANAMD	=	0xfcad
                         0000FCAE   561 _g_FLBMEM	=	0xfcae
                         0000FCAF   562 _g_SCRMOD	=	0xfcaf
                         0000FCB0   563 _g_OLDSCR	=	0xfcb0
                         0000FCB1   564 _g_CASPRV	=	0xfcb1
                         0000FCB2   565 _g_BRDATR	=	0xfcb2
                         0000FCB3   566 _g_GXPOS	=	0xfcb3
                         0000FCB5   567 _g_GYPOS	=	0xfcb5
                         0000FCBB   568 _g_DRWFLG	=	0xfcbb
                         0000FCBC   569 _g_DRWSCL	=	0xfcbc
                         0000FCBD   570 _g_DRWANG	=	0xfcbd
                         0000FCC1   571 _g_MNROM	=	0xfcc1
                         0000FCC1   572 _g_EXPTBL	=	0xfcc1
                         0000FCC5   573 _g_SLTTBL	=	0xfcc5
                         0000FCC9   574 _g_SLTATR	=	0xfcc9
                         0000FD09   575 _g_SLTWRK	=	0xfd09
                         0000FD89   576 _g_PROCNM	=	0xfd89
                         0000FFE7   577 _g_RG08SAV	=	0xffe7
                         0000FFE8   578 _g_RG09SAV	=	0xffe8
                         0000FFE9   579 _g_RG10SAV	=	0xffe9
                         0000FFEA   580 _g_RG11SAV	=	0xffea
                         0000FFEB   581 _g_RG12SAV	=	0xffeb
                         0000FFEC   582 _g_RG13SAV	=	0xffec
                         0000FFED   583 _g_RG14SAV	=	0xffed
                         0000FFEE   584 _g_RG15SAV	=	0xffee
                         0000FFEF   585 _g_RG16SAV	=	0xffef
                         0000FFF0   586 _g_RG17SAV	=	0xfff0
                         0000FFF1   587 _g_RG18SAV	=	0xfff1
                         0000FFF2   588 _g_RG19SAV	=	0xfff2
                         0000FFF3   589 _g_RG20SAV	=	0xfff3
                         0000FFF4   590 _g_RG21SAV	=	0xfff4
                         0000FFF5   591 _g_RG22SAV	=	0xfff5
                         0000FFF6   592 _g_RG23SAV	=	0xfff6
                         0000FFF7   593 _g_MINROM	=	0xfff7
                         0000FFF8   594 _g_SVFFF8	=	0xfff8
                         0000FFFA   595 _g_RG25SAV	=	0xfffa
                         0000FFFB   596 _g_RG26SAV	=	0xfffb
                         0000FFFC   597 _g_RG27SAV	=	0xfffc
                         0000FFFD   598 _g_SVFFFD	=	0xfffd
                         00000004   599 _g_CGTABL	=	0x0004
                         00000006   600 _g_VDP_DR	=	0x0006
                         00000007   601 _g_VDP_DW	=	0x0007
                         0000002B   602 _g_BASRVN	=	0x002b
                         0000002B   603 _g_ROMVersion	=	0x002b
                         0000002D   604 _g_MSXVER	=	0x002d
                         0000002E   605 _g_MSXMID	=	0x002e
                         00000034   606 _g_CHAR_16	=	0x0034
                         00000000   607 _g_SUBRID	=	0x0000
                         00000002   608 _g_STRSRC	=	0x0002
                         0000F30F   609 _g_KANJTABLE	=	0xf30f
                         0000F323   610 _g_DISKVE	=	0xf323
                         0000F325   611 _g_BREAKV	=	0xf325
                         0000F341   612 _g_RAMAD0	=	0xf341
                         0000F342   613 _g_RAMAD1	=	0xf342
                         0000F343   614 _g_RAMAD2	=	0xf343
                         0000F344   615 _g_RAMAD3	=	0xf344
                         0000F348   616 _g_MASTER	=	0xf348
                         0000F37D   617 _g_BDOS	=	0xf37d
                                    618 ;E:\Dropbox\FAUSTO\SVILUPPI\MSX\CODE\C\MSXgl\projects\soccerlg/soccerlg_s2_b1.c:39: u8 GetJoystickDirection(){
                                    619 ;	---------------------------------
                                    620 ; Function GetJoystickDirection
                                    621 ; ---------------------------------
    00000017                        622 _GetJoystickDirection::
                                    623 ;E:/Dropbox/FAUSTO/SVILUPPI/MSX/CODE/C/MSXgl/engine/src/input.h:182: u8 in = ~Joystick_Read(port);
    00000017 2E 0F            [ 7]  624 	ld	l, #0x0f
                                    625 ;	spillPairReg hl
                                    626 ;	spillPairReg hl
    00000019 CDr00r00         [17]  627 	call	_Joystick_Read
    0000001C 7D               [ 4]  628 	ld	a, l
    0000001D 2F               [ 4]  629 	cpl
                                    630 ;E:\Dropbox\FAUSTO\SVILUPPI\MSX\CODE\C\MSXgl\projects\soccerlg/soccerlg_s2_b1.c:40: u8 dir = Joystick_GetDirection(JOY_PORT_1);
    0000001E E6 0F            [ 7]  631 	and	a, #0x0f
    00000020 47               [ 4]  632 	ld	b, a
    00000021 58               [ 4]  633 	ld	e, b
                                    634 ;E:\Dropbox\FAUSTO\SVILUPPI\MSX\CODE\C\MSXgl\projects\soccerlg/soccerlg_s2_b1.c:41: u8 retValue=DIRECTION_NONE;
    00000022 0E 00            [ 7]  635 	ld	c, #0x00
                                    636 ;E:\Dropbox\FAUSTO\SVILUPPI\MSX\CODE\C\MSXgl\projects\soccerlg/soccerlg_s2_b1.c:42: switch (dir){
    00000024 3E 0A            [ 7]  637 	ld	a, #0x0a
    00000026 90               [ 4]  638 	sub	a, b
    00000027 38 4F            [12]  639 	jr	C, 00109$
    00000029 16 00            [ 7]  640 	ld	d, #0x00
    0000002B 21r32r00         [10]  641 	ld	hl, #00229$
    0000002E 19               [11]  642 	add	hl, de
    0000002F 19               [11]  643 	add	hl, de
    00000030 19               [11]  644 	add	hl, de
    00000031 E9               [ 4]  645 	jp	(hl)
    00000032                        646 00229$:
    00000032 C3r78r00         [10]  647 	jp	00109$
    00000035 C3r53r00         [10]  648 	jp	00101$
    00000038 C3r58r00         [10]  649 	jp	00102$
    0000003B C3r78r00         [10]  650 	jp	00109$
    0000003E C3r5Dr00         [10]  651 	jp	00103$
    00000041 C3r6Cr00         [10]  652 	jp	00106$
    00000044 C3r76r00         [10]  653 	jp	00108$
    00000047 C3r78r00         [10]  654 	jp	00109$
    0000004A C3r62r00         [10]  655 	jp	00104$
    0000004D C3r67r00         [10]  656 	jp	00105$
    00000050 C3r71r00         [10]  657 	jp	00107$
                                    658 ;E:\Dropbox\FAUSTO\SVILUPPI\MSX\CODE\C\MSXgl\projects\soccerlg/soccerlg_s2_b1.c:43: case JOY_INPUT_DIR_UP:
    00000053                        659 00101$:
                                    660 ;E:\Dropbox\FAUSTO\SVILUPPI\MSX\CODE\C\MSXgl\projects\soccerlg/soccerlg_s2_b1.c:44: retValue=DIRECTION_UP;
    00000053 0E 01            [ 7]  661 	ld	c, #0x01
                                    662 ;E:\Dropbox\FAUSTO\SVILUPPI\MSX\CODE\C\MSXgl\projects\soccerlg/soccerlg_s2_b1.c:45: break;
    00000055 C3r78r00         [10]  663 	jp	00109$
                                    664 ;E:\Dropbox\FAUSTO\SVILUPPI\MSX\CODE\C\MSXgl\projects\soccerlg/soccerlg_s2_b1.c:46: case JOY_INPUT_DIR_DOWN:
    00000058                        665 00102$:
                                    666 ;E:\Dropbox\FAUSTO\SVILUPPI\MSX\CODE\C\MSXgl\projects\soccerlg/soccerlg_s2_b1.c:47: retValue=DIRECTION_DOWN;
    00000058 0E 05            [ 7]  667 	ld	c, #0x05
                                    668 ;E:\Dropbox\FAUSTO\SVILUPPI\MSX\CODE\C\MSXgl\projects\soccerlg/soccerlg_s2_b1.c:48: break;
    0000005A C3r78r00         [10]  669 	jp	00109$
                                    670 ;E:\Dropbox\FAUSTO\SVILUPPI\MSX\CODE\C\MSXgl\projects\soccerlg/soccerlg_s2_b1.c:49: case JOY_INPUT_DIR_LEFT:
    0000005D                        671 00103$:
                                    672 ;E:\Dropbox\FAUSTO\SVILUPPI\MSX\CODE\C\MSXgl\projects\soccerlg/soccerlg_s2_b1.c:50: retValue=DIRECTION_LEFT;
    0000005D 0E 07            [ 7]  673 	ld	c, #0x07
                                    674 ;E:\Dropbox\FAUSTO\SVILUPPI\MSX\CODE\C\MSXgl\projects\soccerlg/soccerlg_s2_b1.c:51: break;
    0000005F C3r78r00         [10]  675 	jp	00109$
                                    676 ;E:\Dropbox\FAUSTO\SVILUPPI\MSX\CODE\C\MSXgl\projects\soccerlg/soccerlg_s2_b1.c:52: case JOY_INPUT_DIR_RIGHT:
    00000062                        677 00104$:
                                    678 ;E:\Dropbox\FAUSTO\SVILUPPI\MSX\CODE\C\MSXgl\projects\soccerlg/soccerlg_s2_b1.c:53: retValue=DIRECTION_RIGHT;
    00000062 0E 03            [ 7]  679 	ld	c, #0x03
                                    680 ;E:\Dropbox\FAUSTO\SVILUPPI\MSX\CODE\C\MSXgl\projects\soccerlg/soccerlg_s2_b1.c:54: break;
    00000064 C3r78r00         [10]  681 	jp	00109$
                                    682 ;E:\Dropbox\FAUSTO\SVILUPPI\MSX\CODE\C\MSXgl\projects\soccerlg/soccerlg_s2_b1.c:55: case JOY_INPUT_DIR_UP_RIGHT:
    00000067                        683 00105$:
                                    684 ;E:\Dropbox\FAUSTO\SVILUPPI\MSX\CODE\C\MSXgl\projects\soccerlg/soccerlg_s2_b1.c:56: retValue=DIRECTION_UP_RIGHT;
    00000067 0E 02            [ 7]  685 	ld	c, #0x02
                                    686 ;E:\Dropbox\FAUSTO\SVILUPPI\MSX\CODE\C\MSXgl\projects\soccerlg/soccerlg_s2_b1.c:57: break;
    00000069 C3r78r00         [10]  687 	jp	00109$
                                    688 ;E:\Dropbox\FAUSTO\SVILUPPI\MSX\CODE\C\MSXgl\projects\soccerlg/soccerlg_s2_b1.c:58: case JOY_INPUT_DIR_UP_LEFT:
    0000006C                        689 00106$:
                                    690 ;E:\Dropbox\FAUSTO\SVILUPPI\MSX\CODE\C\MSXgl\projects\soccerlg/soccerlg_s2_b1.c:59: retValue=DIRECTION_UP_LEFT;
    0000006C 0E 08            [ 7]  691 	ld	c, #0x08
                                    692 ;E:\Dropbox\FAUSTO\SVILUPPI\MSX\CODE\C\MSXgl\projects\soccerlg/soccerlg_s2_b1.c:60: break;
    0000006E C3r78r00         [10]  693 	jp	00109$
                                    694 ;E:\Dropbox\FAUSTO\SVILUPPI\MSX\CODE\C\MSXgl\projects\soccerlg/soccerlg_s2_b1.c:61: case JOY_INPUT_DIR_DOWN_RIGHT:
    00000071                        695 00107$:
                                    696 ;E:\Dropbox\FAUSTO\SVILUPPI\MSX\CODE\C\MSXgl\projects\soccerlg/soccerlg_s2_b1.c:62: retValue=DIRECTION_DOWN_RIGHT;
    00000071 0E 04            [ 7]  697 	ld	c, #0x04
                                    698 ;E:\Dropbox\FAUSTO\SVILUPPI\MSX\CODE\C\MSXgl\projects\soccerlg/soccerlg_s2_b1.c:63: break;
    00000073 C3r78r00         [10]  699 	jp	00109$
                                    700 ;E:\Dropbox\FAUSTO\SVILUPPI\MSX\CODE\C\MSXgl\projects\soccerlg/soccerlg_s2_b1.c:64: case JOY_INPUT_DIR_DOWN_LEFT:
    00000076                        701 00108$:
                                    702 ;E:\Dropbox\FAUSTO\SVILUPPI\MSX\CODE\C\MSXgl\projects\soccerlg/soccerlg_s2_b1.c:65: retValue=DIRECTION_DOWN_LEFT;
    00000076 0E 06            [ 7]  703 	ld	c, #0x06
                                    704 ;E:\Dropbox\FAUSTO\SVILUPPI\MSX\CODE\C\MSXgl\projects\soccerlg/soccerlg_s2_b1.c:67: }
    00000078                        705 00109$:
                                    706 ;E:\Dropbox\FAUSTO\SVILUPPI\MSX\CODE\C\MSXgl\projects\soccerlg/soccerlg_s2_b1.c:68: if(retValue==DIRECTION_NONE){
    00000078 79               [ 4]  707 	ld	a, c
    00000079 B7               [ 4]  708 	or	a, a
    0000007A C2r15r01         [10]  709 	jp	NZ, 00135$
                                    710 ;E:\Dropbox\FAUSTO\SVILUPPI\MSX\CODE\C\MSXgl\projects\soccerlg/soccerlg_s2_b1.c:69: if(Keyboard_IsKeyPressed(KEY_LEFT) && Keyboard_IsKeyPressed(KEY_UP))
    0000007D C5               [11]  711 	push	bc
    0000007E 3E 48            [ 7]  712 	ld	a, #0x48
    00000080 CDr00r00         [17]  713 	call	_Keyboard_IsKeyPressed
    00000083 C1               [10]  714 	pop	bc
    00000084 B7               [ 4]  715 	or	a, a
    00000085 28 0C            [12]  716 	jr	Z, 00111$
    00000087 C5               [11]  717 	push	bc
    00000088 3E 58            [ 7]  718 	ld	a, #0x58
    0000008A CDr00r00         [17]  719 	call	_Keyboard_IsKeyPressed
    0000008D C1               [10]  720 	pop	bc
    0000008E B7               [ 4]  721 	or	a, a
    0000008F 28 02            [12]  722 	jr	Z, 00111$
                                    723 ;E:\Dropbox\FAUSTO\SVILUPPI\MSX\CODE\C\MSXgl\projects\soccerlg/soccerlg_s2_b1.c:71: retValue=DIRECTION_UP_LEFT;
    00000091 0E 08            [ 7]  724 	ld	c, #0x08
    00000093                        725 00111$:
                                    726 ;E:\Dropbox\FAUSTO\SVILUPPI\MSX\CODE\C\MSXgl\projects\soccerlg/soccerlg_s2_b1.c:73: if(Keyboard_IsKeyPressed(KEY_LEFT) && Keyboard_IsKeyPressed(KEY_DOWN))
    00000093 C5               [11]  727 	push	bc
    00000094 3E 48            [ 7]  728 	ld	a, #0x48
    00000096 CDr00r00         [17]  729 	call	_Keyboard_IsKeyPressed
    00000099 C1               [10]  730 	pop	bc
    0000009A B7               [ 4]  731 	or	a, a
    0000009B 28 0C            [12]  732 	jr	Z, 00114$
    0000009D C5               [11]  733 	push	bc
    0000009E 3E 68            [ 7]  734 	ld	a, #0x68
    000000A0 CDr00r00         [17]  735 	call	_Keyboard_IsKeyPressed
    000000A3 C1               [10]  736 	pop	bc
    000000A4 B7               [ 4]  737 	or	a, a
    000000A5 28 02            [12]  738 	jr	Z, 00114$
                                    739 ;E:\Dropbox\FAUSTO\SVILUPPI\MSX\CODE\C\MSXgl\projects\soccerlg/soccerlg_s2_b1.c:75: retValue=DIRECTION_DOWN_LEFT;
    000000A7 0E 06            [ 7]  740 	ld	c, #0x06
    000000A9                        741 00114$:
                                    742 ;E:\Dropbox\FAUSTO\SVILUPPI\MSX\CODE\C\MSXgl\projects\soccerlg/soccerlg_s2_b1.c:77: if(Keyboard_IsKeyPressed(KEY_RIGHT) && Keyboard_IsKeyPressed(KEY_DOWN))
    000000A9 C5               [11]  743 	push	bc
    000000AA 3E 78            [ 7]  744 	ld	a, #0x78
    000000AC CDr00r00         [17]  745 	call	_Keyboard_IsKeyPressed
    000000AF C1               [10]  746 	pop	bc
    000000B0 B7               [ 4]  747 	or	a, a
    000000B1 28 0C            [12]  748 	jr	Z, 00117$
    000000B3 C5               [11]  749 	push	bc
    000000B4 3E 68            [ 7]  750 	ld	a, #0x68
    000000B6 CDr00r00         [17]  751 	call	_Keyboard_IsKeyPressed
    000000B9 C1               [10]  752 	pop	bc
    000000BA B7               [ 4]  753 	or	a, a
    000000BB 28 02            [12]  754 	jr	Z, 00117$
                                    755 ;E:\Dropbox\FAUSTO\SVILUPPI\MSX\CODE\C\MSXgl\projects\soccerlg/soccerlg_s2_b1.c:79: retValue=DIRECTION_DOWN_RIGHT;
    000000BD 0E 04            [ 7]  756 	ld	c, #0x04
    000000BF                        757 00117$:
                                    758 ;E:\Dropbox\FAUSTO\SVILUPPI\MSX\CODE\C\MSXgl\projects\soccerlg/soccerlg_s2_b1.c:81: if(Keyboard_IsKeyPressed(KEY_RIGHT) && Keyboard_IsKeyPressed(KEY_UP))
    000000BF C5               [11]  759 	push	bc
    000000C0 3E 78            [ 7]  760 	ld	a, #0x78
    000000C2 CDr00r00         [17]  761 	call	_Keyboard_IsKeyPressed
    000000C5 C1               [10]  762 	pop	bc
    000000C6 B7               [ 4]  763 	or	a, a
    000000C7 28 0C            [12]  764 	jr	Z, 00120$
    000000C9 C5               [11]  765 	push	bc
    000000CA 3E 58            [ 7]  766 	ld	a, #0x58
    000000CC CDr00r00         [17]  767 	call	_Keyboard_IsKeyPressed
    000000CF C1               [10]  768 	pop	bc
    000000D0 B7               [ 4]  769 	or	a, a
    000000D1 28 02            [12]  770 	jr	Z, 00120$
                                    771 ;E:\Dropbox\FAUSTO\SVILUPPI\MSX\CODE\C\MSXgl\projects\soccerlg/soccerlg_s2_b1.c:83: retValue=DIRECTION_UP_RIGHT;
    000000D3 0E 02            [ 7]  772 	ld	c, #0x02
    000000D5                        773 00120$:
                                    774 ;E:\Dropbox\FAUSTO\SVILUPPI\MSX\CODE\C\MSXgl\projects\soccerlg/soccerlg_s2_b1.c:85: if(retValue==DIRECTION_NONE && Keyboard_IsKeyPressed(KEY_LEFT))
    000000D5 79               [ 4]  775 	ld	a, c
    000000D6 B7               [ 4]  776 	or	a, a
    000000D7 20 0C            [12]  777 	jr	NZ, 00123$
    000000D9 C5               [11]  778 	push	bc
    000000DA 3E 48            [ 7]  779 	ld	a, #0x48
    000000DC CDr00r00         [17]  780 	call	_Keyboard_IsKeyPressed
    000000DF C1               [10]  781 	pop	bc
    000000E0 B7               [ 4]  782 	or	a, a
    000000E1 28 02            [12]  783 	jr	Z, 00123$
                                    784 ;E:\Dropbox\FAUSTO\SVILUPPI\MSX\CODE\C\MSXgl\projects\soccerlg/soccerlg_s2_b1.c:87: retValue=DIRECTION_LEFT;
    000000E3 0E 07            [ 7]  785 	ld	c, #0x07
    000000E5                        786 00123$:
                                    787 ;E:\Dropbox\FAUSTO\SVILUPPI\MSX\CODE\C\MSXgl\projects\soccerlg/soccerlg_s2_b1.c:89: if(retValue==DIRECTION_NONE && Keyboard_IsKeyPressed(KEY_RIGHT))
    000000E5 79               [ 4]  788 	ld	a, c
    000000E6 B7               [ 4]  789 	or	a, a
    000000E7 20 0C            [12]  790 	jr	NZ, 00126$
    000000E9 C5               [11]  791 	push	bc
    000000EA 3E 78            [ 7]  792 	ld	a, #0x78
    000000EC CDr00r00         [17]  793 	call	_Keyboard_IsKeyPressed
    000000EF C1               [10]  794 	pop	bc
    000000F0 B7               [ 4]  795 	or	a, a
    000000F1 28 02            [12]  796 	jr	Z, 00126$
                                    797 ;E:\Dropbox\FAUSTO\SVILUPPI\MSX\CODE\C\MSXgl\projects\soccerlg/soccerlg_s2_b1.c:91: retValue=DIRECTION_RIGHT;
    000000F3 0E 03            [ 7]  798 	ld	c, #0x03
    000000F5                        799 00126$:
                                    800 ;E:\Dropbox\FAUSTO\SVILUPPI\MSX\CODE\C\MSXgl\projects\soccerlg/soccerlg_s2_b1.c:93: if(retValue==DIRECTION_NONE && Keyboard_IsKeyPressed(KEY_UP))
    000000F5 79               [ 4]  801 	ld	a, c
    000000F6 B7               [ 4]  802 	or	a, a
    000000F7 20 0C            [12]  803 	jr	NZ, 00129$
    000000F9 C5               [11]  804 	push	bc
    000000FA 3E 58            [ 7]  805 	ld	a, #0x58
    000000FC CDr00r00         [17]  806 	call	_Keyboard_IsKeyPressed
    000000FF C1               [10]  807 	pop	bc
    00000100 B7               [ 4]  808 	or	a, a
    00000101 28 02            [12]  809 	jr	Z, 00129$
                                    810 ;E:\Dropbox\FAUSTO\SVILUPPI\MSX\CODE\C\MSXgl\projects\soccerlg/soccerlg_s2_b1.c:95: retValue=DIRECTION_UP;
    00000103 0E 01            [ 7]  811 	ld	c, #0x01
    00000105                        812 00129$:
                                    813 ;E:\Dropbox\FAUSTO\SVILUPPI\MSX\CODE\C\MSXgl\projects\soccerlg/soccerlg_s2_b1.c:97: if(retValue==DIRECTION_NONE && Keyboard_IsKeyPressed(KEY_DOWN))
    00000105 79               [ 4]  814 	ld	a, c
    00000106 B7               [ 4]  815 	or	a, a
    00000107 20 0C            [12]  816 	jr	NZ, 00135$
    00000109 C5               [11]  817 	push	bc
    0000010A 3E 68            [ 7]  818 	ld	a, #0x68
    0000010C CDr00r00         [17]  819 	call	_Keyboard_IsKeyPressed
    0000010F C1               [10]  820 	pop	bc
    00000110 B7               [ 4]  821 	or	a, a
    00000111 28 02            [12]  822 	jr	Z, 00135$
                                    823 ;E:\Dropbox\FAUSTO\SVILUPPI\MSX\CODE\C\MSXgl\projects\soccerlg/soccerlg_s2_b1.c:99: retValue=DIRECTION_DOWN;
    00000113 0E 05            [ 7]  824 	ld	c, #0x05
    00000115                        825 00135$:
                                    826 ;E:\Dropbox\FAUSTO\SVILUPPI\MSX\CODE\C\MSXgl\projects\soccerlg/soccerlg_s2_b1.c:102: return retValue;
    00000115 79               [ 4]  827 	ld	a, c
                                    828 ;E:\Dropbox\FAUSTO\SVILUPPI\MSX\CODE\C\MSXgl\projects\soccerlg/soccerlg_s2_b1.c:103: }
    00000116 C9               [10]  829 	ret
                                    830 ;E:\Dropbox\FAUSTO\SVILUPPI\MSX\CODE\C\MSXgl\projects\soccerlg/soccerlg_s2_b1.c:106: void InitVariables(){
                                    831 ;	---------------------------------
                                    832 ; Function InitVariables
                                    833 ; ---------------------------------
    00000117                        834 _InitVariables::
                                    835 ;E:\Dropbox\FAUSTO\SVILUPPI\MSX\CODE\C\MSXgl\projects\soccerlg/soccerlg_s2_b1.c:107: g_ShowButtonsInfo=true;
    00000117 21r00r00         [10]  836 	ld	hl, #_g_ShowButtonsInfo
    0000011A 36 01            [10]  837 	ld	(hl), #0x01
                                    838 ;E:\Dropbox\FAUSTO\SVILUPPI\MSX\CODE\C\MSXgl\projects\soccerlg/soccerlg_s2_b1.c:109: g_Ball.PossessionPlayerId = NO_VALUE;
    0000011C 21r06r00         [10]  839 	ld	hl, #(_g_Ball + 6)
    0000011F 36 FF            [10]  840 	ld	(hl), #0xff
                                    841 ;E:\Dropbox\FAUSTO\SVILUPPI\MSX\CODE\C\MSXgl\projects\soccerlg/soccerlg_s2_b1.c:110: g_Ball.PassTargetPlayerId = NO_VALUE;
    00000121 21r10r00         [10]  842 	ld	hl, #(_g_Ball + 16)
    00000124 36 FF            [10]  843 	ld	(hl), #0xff
                                    844 ;E:\Dropbox\FAUSTO\SVILUPPI\MSX\CODE\C\MSXgl\projects\soccerlg/soccerlg_s2_b1.c:111: g_Ball.ShotActive = 0;
    00000126 21r1Br00         [10]  845 	ld	hl, #(_g_Ball + 27)
    00000129 36 00            [10]  846 	ld	(hl), #0x00
                                    847 ;E:\Dropbox\FAUSTO\SVILUPPI\MSX\CODE\C\MSXgl\projects\soccerlg/soccerlg_s2_b1.c:112: g_Ball.LastTouchTeamId = NO_VALUE;
    0000012B 21r0Er00         [10]  848 	ld	hl, #(_g_Ball + 14)
    0000012E 36 FF            [10]  849 	ld	(hl), #0xff
                                    850 ;E:\Dropbox\FAUSTO\SVILUPPI\MSX\CODE\C\MSXgl\projects\soccerlg/soccerlg_s2_b1.c:113: g_Ball.ComingFromRestart = 0;
    00000130 21r1Dr00         [10]  851 	ld	hl, #(_g_Ball + 29)
    00000133 36 00            [10]  852 	ld	(hl), #0x00
                                    853 ;E:\Dropbox\FAUSTO\SVILUPPI\MSX\CODE\C\MSXgl\projects\soccerlg/soccerlg_s2_b1.c:114: g_Ball.StealCooldown = 0;
    00000135 21r0Fr00         [10]  854 	ld	hl, #(_g_Ball + 15)
    00000138 36 00            [10]  855 	ld	(hl), #0x00
                                    856 ;E:\Dropbox\FAUSTO\SVILUPPI\MSX\CODE\C\MSXgl\projects\soccerlg/soccerlg_s2_b1.c:115: g_FieldCurrentYPosition = 0; // Initialize to avoid garbage scroll in ISR
    0000013A 21 00 00         [10]  857 	ld	hl, #0x0000
    0000013D 22r00r00         [16]  858 	ld	(_g_FieldCurrentYPosition), hl
                                    859 ;E:\Dropbox\FAUSTO\SVILUPPI\MSX\CODE\C\MSXgl\projects\soccerlg/soccerlg_s2_b1.c:116: g_FieldScrollingActionInProgress = NO_VALUE;
    00000140 21r00r00         [10]  860 	ld	hl, #_g_FieldScrollingActionInProgress
    00000143 36 FF            [10]  861 	ld	(hl), #0xff
                                    862 ;E:\Dropbox\FAUSTO\SVILUPPI\MSX\CODE\C\MSXgl\projects\soccerlg/soccerlg_s2_b1.c:117: }
    00000145 C9               [10]  863 	ret
                                    864 ;E:\Dropbox\FAUSTO\SVILUPPI\MSX\CODE\C\MSXgl\projects\soccerlg/soccerlg_s2_b1.c:120: void LoadPresentation(){
                                    865 ;	---------------------------------
                                    866 ; Function LoadPresentation
                                    867 ; ---------------------------------
    00000146                        868 _LoadPresentation::
    00000146 F5               [11]  869 	push	af
    00000147 3B               [ 6]  870 	dec	sp
                                    871 ;E:\Dropbox\FAUSTO\SVILUPPI\MSX\CODE\C\MSXgl\projects\soccerlg/soccerlg_s2_b1.c:121: V9_SetScreenMode(V9_MODE_B1);
    00000148 3E 03            [ 7]  872 	ld	a, #0x03
    0000014A CDr00r00         [17]  873 	call	_V9_SetScreenMode
                                    874 ;E:/Dropbox/FAUSTO/SVILUPPI/MSX/CODE/C/MSXgl/engine/src/v9990.h:258: inline void V9_SetFlag(u8 reg, u8 mask, u8 flag) { V9_SetRegister(reg, V9_GetRegister(reg) & (~mask) | flag); }
    0000014D 3E 08            [ 7]  875 	ld	a, #0x08
    0000014F CDr00r00         [17]  876 	call	_V9_GetRegister
    00000152 6F               [ 4]  877 	ld	l, a
                                    878 ;	spillPairReg hl
                                    879 ;	spillPairReg hl
    00000153 CB BD            [ 8]  880 	res	7, l
    00000155 3E 08            [ 7]  881 	ld	a, #0x08
    00000157 CDr00r00         [17]  882 	call	_V9_SetRegister
                                    883 ;E:\Dropbox\FAUSTO\SVILUPPI\MSX\CODE\C\MSXgl\projects\soccerlg/soccerlg_s2_b1.c:123: V9_SetColorMode(V9_COLOR_BD8);
    0000015A 3E 03            [ 7]  884 	ld	a, #0x03
    0000015C CDr00r00         [17]  885 	call	_V9_SetColorMode
                                    886 ;E:\Dropbox\FAUSTO\SVILUPPI\MSX\CODE\C\MSXgl\projects\soccerlg/soccerlg_s2_b1.c:124: const u8 colorBlack[3] = { 0, 0, 0 };
    0000015F 21 00 00         [10]  887 	ld	hl, #0
    00000162 39               [11]  888 	add	hl, sp
    00000163 EB               [ 4]  889 	ex	de, hl
    00000164 AF               [ 4]  890 	xor	a, a
    00000165 12               [ 7]  891 	ld	(de), a
    00000166 4B               [ 4]  892 	ld	c, e
    00000167 42               [ 4]  893 	ld	b, d
    00000168 03               [ 6]  894 	inc	bc
    00000169 AF               [ 4]  895 	xor	a, a
    0000016A 02               [ 7]  896 	ld	(bc), a
    0000016B 4B               [ 4]  897 	ld	c, e
    0000016C 42               [ 4]  898 	ld	b, d
    0000016D 03               [ 6]  899 	inc	bc
    0000016E 03               [ 6]  900 	inc	bc
    0000016F AF               [ 4]  901 	xor	a, a
    00000170 02               [ 7]  902 	ld	(bc), a
                                    903 ;E:\Dropbox\FAUSTO\SVILUPPI\MSX\CODE\C\MSXgl\projects\soccerlg/soccerlg_s2_b1.c:125: V9_SetPaletteEntry(0, colorBlack);    
    00000171 AF               [ 4]  904 	xor	a, a
    00000172 CDr00r00         [17]  905 	call	_V9_SetPaletteEntry
                                    906 ;E:/Dropbox/FAUSTO/SVILUPPI/MSX/CODE/C/MSXgl/engine/src/v9990.h:480: inline void V9_SetBackgroundColor(u8 color) { V9_SetRegister(15, color); }
    00000175 2E 00            [ 7]  907 	ld	l, #0x00
                                    908 ;	spillPairReg hl
                                    909 ;	spillPairReg hl
    00000177 3E 0F            [ 7]  910 	ld	a, #0x0f
    00000179 CDr00r00         [17]  911 	call	_V9_SetRegister
                                    912 ;E:\Dropbox\FAUSTO\SVILUPPI\MSX\CODE\C\MSXgl\projects\soccerlg/soccerlg_s2_b1.c:128: V9990_LoadImagePresentationData(); 
    0000017C CDr00r00         [17]  913 	call	_V9990_LoadImagePresentationData
                                    914 ;E:\Dropbox\FAUSTO\SVILUPPI\MSX\CODE\C\MSXgl\projects\soccerlg/soccerlg_s2_b1.c:131: g_MatchStatus=MATCH_PRESENTATION;
    0000017F 21r00r00         [10]  915 	ld	hl, #_g_MatchStatus
    00000182 36 0F            [10]  916 	ld	(hl), #0x0f
                                    917 ;E:\Dropbox\FAUSTO\SVILUPPI\MSX\CODE\C\MSXgl\projects\soccerlg/soccerlg_s2_b1.c:132: g_Timer=0;
    00000184 21r00r00         [10]  918 	ld	hl, #_g_Timer
    00000187 36 00            [10]  919 	ld	(hl), #0x00
                                    920 ;E:\Dropbox\FAUSTO\SVILUPPI\MSX\CODE\C\MSXgl\projects\soccerlg/soccerlg_s2_b1.c:133: g_FieldCurrentYPosition = 0; // Ensure safe value before enabling ISR
    00000189 21 00 00         [10]  921 	ld	hl, #0x0000
    0000018C 22r00r00         [16]  922 	ld	(_g_FieldCurrentYPosition), hl
                                    923 ;E:/Dropbox/FAUSTO/SVILUPPI/MSX/CODE/C/MSXgl/engine/src/v9990.h:258: inline void V9_SetFlag(u8 reg, u8 mask, u8 flag) { V9_SetRegister(reg, V9_GetRegister(reg) & (~mask) | flag); }
    0000018F 3E 08            [ 7]  924 	ld	a, #0x08
    00000191 CDr00r00         [17]  925 	call	_V9_GetRegister
    00000194 CB BF            [ 8]  926 	res	7, a
    00000196 6F               [ 4]  927 	ld	l, a
                                    928 ;	spillPairReg hl
                                    929 ;	spillPairReg hl
    00000197 CB FD            [ 8]  930 	set	7, l
    00000199 3E 08            [ 7]  931 	ld	a, #0x08
    0000019B CDr00r00         [17]  932 	call	_V9_SetRegister
                                    933 ;E:/Dropbox/FAUSTO/SVILUPPI/MSX/CODE/C/MSXgl/engine/src/v9990.h:606: inline void V9_SetInterruptLine(u16 line) { V9_SetRegister16(10, line); }
    0000019E 11 47 00         [10]  934 	ld	de, #0x0047
    000001A1 3E 0A            [ 7]  935 	ld	a, #0x0a
    000001A3 CDr00r00         [17]  936 	call	_V9_SetRegister16
                                    937 ;E:/Dropbox/FAUSTO/SVILUPPI/MSX/CODE/C/MSXgl/engine/src/v9990.h:574: inline void V9_SetInterrupt(u8 flags) { V9_SetRegister(9, flags); }
    000001A6 2E 01            [ 7]  938 	ld	l, #0x01
                                    939 ;	spillPairReg hl
                                    940 ;	spillPairReg hl
    000001A8 3E 09            [ 7]  941 	ld	a, #0x09
    000001AA CDr00r00         [17]  942 	call	_V9_SetRegister
                                    943 ;E:\Dropbox\FAUSTO\SVILUPPI\MSX\CODE\C\MSXgl\projects\soccerlg/soccerlg_s2_b1.c:137: g_TimerActive=TRUE;
    000001AD 21r00r00         [10]  944 	ld	hl, #_g_TimerActive
    000001B0 36 01            [10]  945 	ld	(hl), #0x01
                                    946 ;E:\Dropbox\FAUSTO\SVILUPPI\MSX\CODE\C\MSXgl\projects\soccerlg/soccerlg_s2_b1.c:138: while (g_Timer!=200)
    000001B2                        947 00101$:
    000001B2 3Ar00r00         [13]  948 	ld	a, (_g_Timer+0)
    000001B5 D6 C8            [ 7]  949 	sub	a, #0xc8
    000001B7 20 F9            [12]  950 	jr	NZ, 00101$
                                    951 ;E:\Dropbox\FAUSTO\SVILUPPI\MSX\CODE\C\MSXgl\projects\soccerlg/soccerlg_s2_b1.c:142: g_TimerActive=FALSE;
    000001B9 21r00r00         [10]  952 	ld	hl, #_g_TimerActive
    000001BC 36 00            [10]  953 	ld	(hl), #0x00
                                    954 ;E:\Dropbox\FAUSTO\SVILUPPI\MSX\CODE\C\MSXgl\projects\soccerlg/soccerlg_s2_b1.c:143: g_MatchStatus=MATCH_NOT_STARTED;
    000001BE 21r00r00         [10]  955 	ld	hl, #_g_MatchStatus
                                    956 ;E:/Dropbox/FAUSTO/SVILUPPI/MSX/CODE/C/MSXgl/engine/src/v9990.h:574: inline void V9_SetInterrupt(u8 flags) { V9_SetRegister(9, flags); }
    000001C1 36 00            [10]  957 	ld	(hl), #0x00
    000001C3 6E               [ 7]  958 	ld	l, (hl)
                                    959 ;	spillPairReg hl
                                    960 ;	spillPairReg hl
    000001C4 3E 09            [ 7]  961 	ld	a, #0x09
    000001C6 CDr00r00         [17]  962 	call	_V9_SetRegister
                                    963 ;E:/Dropbox/FAUSTO/SVILUPPI/MSX/CODE/C/MSXgl/engine/src/v9990.h:258: inline void V9_SetFlag(u8 reg, u8 mask, u8 flag) { V9_SetRegister(reg, V9_GetRegister(reg) & (~mask) | flag); }
    000001C9 3E 08            [ 7]  964 	ld	a, #0x08
    000001CB CDr00r00         [17]  965 	call	_V9_GetRegister
    000001CE 6F               [ 4]  966 	ld	l, a
                                    967 ;	spillPairReg hl
                                    968 ;	spillPairReg hl
    000001CF CB BD            [ 8]  969 	res	7, l
    000001D1 3E 08            [ 7]  970 	ld	a, #0x08
    000001D3 CDr00r00         [17]  971 	call	_V9_SetRegister
                                    972 ;E:\Dropbox\FAUSTO\SVILUPPI\MSX\CODE\C\MSXgl\projects\soccerlg/soccerlg_s2_b1.c:145: V9_SetDisplayEnable(FALSE);
                                    973 ;E:\Dropbox\FAUSTO\SVILUPPI\MSX\CODE\C\MSXgl\projects\soccerlg/soccerlg_s2_b1.c:147: }
    000001D6 F1               [10]  974 	pop	af
    000001D7 33               [ 6]  975 	inc	sp
    000001D8 C9               [10]  976 	ret
                                    977 ;E:\Dropbox\FAUSTO\SVILUPPI\MSX\CODE\C\MSXgl\projects\soccerlg/soccerlg_s2_b1.c:150: void TickGameFieldScrolling(){
                                    978 ;	---------------------------------
                                    979 ; Function TickGameFieldScrolling
                                    980 ; ---------------------------------
    000001D9                        981 _TickGameFieldScrolling::
                                    982 ;E:\Dropbox\FAUSTO\SVILUPPI\MSX\CODE\C\MSXgl\projects\soccerlg/soccerlg_s2_b1.c:152: switch (g_FieldScrollingActionInProgress) {
    000001D9 3Ar00r00         [13]  983 	ld	a, (_g_FieldScrollingActionInProgress+0)
    000001DC B7               [ 4]  984 	or	a, a
    000001DD 28 11            [12]  985 	jr	Z, 00101$
    000001DF 3Ar00r00         [13]  986 	ld	a, (_g_FieldScrollingActionInProgress+0)
    000001E2 3D               [ 4]  987 	dec	a
    000001E3 28 36            [12]  988 	jr	Z, 00104$
    000001E5 3Ar00r00         [13]  989 	ld	a, (_g_FieldScrollingActionInProgress+0)
    000001E8 D6 02            [ 7]  990 	sub	a, #0x02
    000001EA CAr9Dr02         [10]  991 	jp	Z,00115$
    000001ED C3rD4r02         [10]  992 	jp	00118$
                                    993 ;E:\Dropbox\FAUSTO\SVILUPPI\MSX\CODE\C\MSXgl\projects\soccerlg/soccerlg_s2_b1.c:153: case FIELD_NORTH_ZONE:
    000001F0                        994 00101$:
                                    995 ;E:\Dropbox\FAUSTO\SVILUPPI\MSX\CODE\C\MSXgl\projects\soccerlg/soccerlg_s2_b1.c:154: g_FieldCurrentYPosition = g_FieldCurrentYPosition - g_FieldScrollSpeed;
    000001F0 3Ar00r00         [13]  996 	ld	a, (_g_FieldScrollSpeed+0)
    000001F3 4F               [ 4]  997 	ld	c, a
    000001F4 06 00            [ 7]  998 	ld	b, #0x00
    000001F6 21r00r00         [10]  999 	ld	hl, #_g_FieldCurrentYPosition
    000001F9 7E               [ 7] 1000 	ld	a, (hl)
    000001FA 91               [ 4] 1001 	sub	a, c
    000001FB 77               [ 7] 1002 	ld	(hl), a
    000001FC 23               [ 6] 1003 	inc	hl
    000001FD 7E               [ 7] 1004 	ld	a, (hl)
    000001FE 98               [ 4] 1005 	sbc	a, b
    000001FF 77               [ 7] 1006 	ld	(hl), a
                                   1007 ;E:\Dropbox\FAUSTO\SVILUPPI\MSX\CODE\C\MSXgl\projects\soccerlg/soccerlg_s2_b1.c:155: if (g_FieldCurrentYPosition < FIELD_TOP_Y) {
    00000200 3Ar01r00         [13] 1008 	ld	a, (_g_FieldCurrentYPosition+1)
    00000203 CB 7F            [ 8] 1009 	bit	7, a
    00000205 CArD4r02         [10] 1010 	jp	Z, 00118$
                                   1011 ;E:\Dropbox\FAUSTO\SVILUPPI\MSX\CODE\C\MSXgl\projects\soccerlg/soccerlg_s2_b1.c:156: g_FieldCurrentYPosition = FIELD_TOP_Y;
    00000208 21 00 00         [10] 1012 	ld	hl, #0x0000
    0000020B 22r00r00         [16] 1013 	ld	(_g_FieldCurrentYPosition), hl
                                   1014 ;E:\Dropbox\FAUSTO\SVILUPPI\MSX\CODE\C\MSXgl\projects\soccerlg/soccerlg_s2_b1.c:157: g_FieldScrollingActionInProgress = NO_VALUE;
    0000020E 21r00r00         [10] 1015 	ld	hl, #_g_FieldScrollingActionInProgress
    00000211 36 FF            [10] 1016 	ld	(hl), #0xff
                                   1017 ;E:\Dropbox\FAUSTO\SVILUPPI\MSX\CODE\C\MSXgl\projects\soccerlg/soccerlg_s2_b1.c:158: g_ActiveFieldZone = FIELD_NORTH_ZONE;
    00000213 21r00r00         [10] 1018 	ld	hl, #_g_ActiveFieldZone
    00000216 36 00            [10] 1019 	ld	(hl), #0x00
                                   1020 ;E:\Dropbox\FAUSTO\SVILUPPI\MSX\CODE\C\MSXgl\projects\soccerlg/soccerlg_s2_b1.c:160: break;
    00000218 C3rD4r02         [10] 1021 	jp	00118$
                                   1022 ;E:\Dropbox\FAUSTO\SVILUPPI\MSX\CODE\C\MSXgl\projects\soccerlg/soccerlg_s2_b1.c:161: case FIELD_CENTRAL_ZONE:
    0000021B                       1023 00104$:
                                   1024 ;E:\Dropbox\FAUSTO\SVILUPPI\MSX\CODE\C\MSXgl\projects\soccerlg/soccerlg_s2_b1.c:162: if (g_FieldCurrentYPosition != FIELD_CENTRAL_Y) {
    0000021B 3Ar00r00         [13] 1025 	ld	a, (_g_FieldCurrentYPosition+0)
    0000021E D6 89            [ 7] 1026 	sub	a, #0x89
    00000220 FD 21r00r00      [14] 1027 	ld	iy, #_g_FieldCurrentYPosition
    00000224 FD B6 01         [19] 1028 	or	a, 1 (iy)
    00000227 28 67            [12] 1029 	jr	Z, 00113$
                                   1030 ;E:\Dropbox\FAUSTO\SVILUPPI\MSX\CODE\C\MSXgl\projects\soccerlg/soccerlg_s2_b1.c:154: g_FieldCurrentYPosition = g_FieldCurrentYPosition - g_FieldScrollSpeed;
    00000229 3Ar00r00         [13] 1031 	ld	a, (_g_FieldScrollSpeed+0)
    0000022C 4F               [ 4] 1032 	ld	c, a
    0000022D 06 00            [ 7] 1033 	ld	b, #0x00
                                   1034 ;E:\Dropbox\FAUSTO\SVILUPPI\MSX\CODE\C\MSXgl\projects\soccerlg/soccerlg_s2_b1.c:163: if (g_FieldCurrentYPosition > FIELD_CENTRAL_Y) {
    0000022F 3E 89            [ 7] 1035 	ld	a, #0x89
    00000231 FD BE 00         [19] 1036 	cp	a, 0 (iy)
    00000234 3E 00            [ 7] 1037 	ld	a, #0x00
    00000236 FD 9E 01         [19] 1038 	sbc	a, 1 (iy)
    00000239 E2r3Er02         [10] 1039 	jp	PO, 00185$
    0000023C EE 80            [ 7] 1040 	xor	a, #0x80
    0000023E                       1041 00185$:
    0000023E F2r63r02         [10] 1042 	jp	P, 00110$
                                   1043 ;E:\Dropbox\FAUSTO\SVILUPPI\MSX\CODE\C\MSXgl\projects\soccerlg/soccerlg_s2_b1.c:164: g_FieldCurrentYPosition = g_FieldCurrentYPosition - g_FieldScrollSpeed;
    00000241 21r00r00         [10] 1044 	ld	hl, #_g_FieldCurrentYPosition
    00000244 7E               [ 7] 1045 	ld	a, (hl)
    00000245 91               [ 4] 1046 	sub	a, c
    00000246 77               [ 7] 1047 	ld	(hl), a
    00000247 23               [ 6] 1048 	inc	hl
    00000248 7E               [ 7] 1049 	ld	a, (hl)
    00000249 98               [ 4] 1050 	sbc	a, b
    0000024A 77               [ 7] 1051 	ld	(hl), a
                                   1052 ;E:\Dropbox\FAUSTO\SVILUPPI\MSX\CODE\C\MSXgl\projects\soccerlg/soccerlg_s2_b1.c:165: if(g_FieldCurrentYPosition < FIELD_CENTRAL_Y) g_FieldCurrentYPosition = FIELD_CENTRAL_Y;
    0000024B 3Ar00r00         [13] 1053 	ld	a, (_g_FieldCurrentYPosition+0)
    0000024E D6 89            [ 7] 1054 	sub	a, #0x89
    00000250 3Ar01r00         [13] 1055 	ld	a, (_g_FieldCurrentYPosition+1)
    00000253 17               [ 4] 1056 	rla
    00000254 3F               [ 4] 1057 	ccf
    00000255 1F               [ 4] 1058 	rra
    00000256 DE 80            [ 7] 1059 	sbc	a, #0x80
    00000258 30 7A            [12] 1060 	jr	NC, 00118$
    0000025A 21 89 00         [10] 1061 	ld	hl, #0x0089
    0000025D 22r00r00         [16] 1062 	ld	(_g_FieldCurrentYPosition), hl
    00000260 C3rD4r02         [10] 1063 	jp	00118$
    00000263                       1064 00110$:
                                   1065 ;E:\Dropbox\FAUSTO\SVILUPPI\MSX\CODE\C\MSXgl\projects\soccerlg/soccerlg_s2_b1.c:168: g_FieldCurrentYPosition = g_FieldCurrentYPosition + g_FieldScrollSpeed;
    00000263 79               [ 4] 1066 	ld	a, c
    00000264 FD 21r00r00      [14] 1067 	ld	iy, #_g_FieldCurrentYPosition
    00000268 FD 86 00         [19] 1068 	add	a, 0 (iy)
    0000026B 32r00r00         [13] 1069 	ld	(_g_FieldCurrentYPosition+0), a
    0000026E 78               [ 4] 1070 	ld	a, b
    0000026F FD 8E 01         [19] 1071 	adc	a, 1 (iy)
    00000272 32r01r00         [13] 1072 	ld	(_g_FieldCurrentYPosition+1), a
                                   1073 ;E:\Dropbox\FAUSTO\SVILUPPI\MSX\CODE\C\MSXgl\projects\soccerlg/soccerlg_s2_b1.c:169: if(g_FieldCurrentYPosition > FIELD_CENTRAL_Y) g_FieldCurrentYPosition = FIELD_CENTRAL_Y;
    00000275 3E 89            [ 7] 1074 	ld	a, #0x89
    00000277 FD BE 00         [19] 1075 	cp	a, 0 (iy)
    0000027A 3E 00            [ 7] 1076 	ld	a, #0x00
    0000027C FD 9E 01         [19] 1077 	sbc	a, 1 (iy)
    0000027F E2r84r02         [10] 1078 	jp	PO, 00186$
    00000282 EE 80            [ 7] 1079 	xor	a, #0x80
    00000284                       1080 00186$:
    00000284 F2rD4r02         [10] 1081 	jp	P, 00118$
    00000287 21 89 00         [10] 1082 	ld	hl, #0x0089
    0000028A 22r00r00         [16] 1083 	ld	(_g_FieldCurrentYPosition), hl
    0000028D C3rD4r02         [10] 1084 	jp	00118$
    00000290                       1085 00113$:
                                   1086 ;E:\Dropbox\FAUSTO\SVILUPPI\MSX\CODE\C\MSXgl\projects\soccerlg/soccerlg_s2_b1.c:174: g_FieldScrollingActionInProgress = NO_VALUE;
    00000290 21r00r00         [10] 1087 	ld	hl, #_g_FieldScrollingActionInProgress
    00000293 36 FF            [10] 1088 	ld	(hl), #0xff
                                   1089 ;E:\Dropbox\FAUSTO\SVILUPPI\MSX\CODE\C\MSXgl\projects\soccerlg/soccerlg_s2_b1.c:175: g_ActiveFieldZone = FIELD_CENTRAL_ZONE;
    00000295 21r00r00         [10] 1090 	ld	hl, #_g_ActiveFieldZone
    00000298 36 01            [10] 1091 	ld	(hl), #0x01
                                   1092 ;E:\Dropbox\FAUSTO\SVILUPPI\MSX\CODE\C\MSXgl\projects\soccerlg/soccerlg_s2_b1.c:177: break;
    0000029A C3rD4r02         [10] 1093 	jp	00118$
                                   1094 ;E:\Dropbox\FAUSTO\SVILUPPI\MSX\CODE\C\MSXgl\projects\soccerlg/soccerlg_s2_b1.c:178: case FIELD_SOUTH_ZONE:
    0000029D                       1095 00115$:
                                   1096 ;E:\Dropbox\FAUSTO\SVILUPPI\MSX\CODE\C\MSXgl\projects\soccerlg/soccerlg_s2_b1.c:179: g_FieldCurrentYPosition = g_FieldCurrentYPosition + g_FieldScrollSpeed;
    0000029D 3Ar00r00         [13] 1097 	ld	a, (_g_FieldScrollSpeed+0)
    000002A0 4F               [ 4] 1098 	ld	c, a
    000002A1 06 00            [ 7] 1099 	ld	b, #0x00
    000002A3 79               [ 4] 1100 	ld	a, c
    000002A4 FD 21r00r00      [14] 1101 	ld	iy, #_g_FieldCurrentYPosition
    000002A8 FD 86 00         [19] 1102 	add	a, 0 (iy)
    000002AB 32r00r00         [13] 1103 	ld	(_g_FieldCurrentYPosition+0), a
    000002AE 78               [ 4] 1104 	ld	a, b
    000002AF FD 8E 01         [19] 1105 	adc	a, 1 (iy)
    000002B2 32r01r00         [13] 1106 	ld	(_g_FieldCurrentYPosition+1), a
                                   1107 ;E:\Dropbox\FAUSTO\SVILUPPI\MSX\CODE\C\MSXgl\projects\soccerlg/soccerlg_s2_b1.c:180: if (g_FieldCurrentYPosition >= FIELD_BOTTOM_Y) {
    000002B5 3Ar00r00         [13] 1108 	ld	a, (_g_FieldCurrentYPosition+0)
    000002B8 D6 18            [ 7] 1109 	sub	a, #0x18
    000002BA 3Ar01r00         [13] 1110 	ld	a, (_g_FieldCurrentYPosition+1)
    000002BD 17               [ 4] 1111 	rla
    000002BE 3F               [ 4] 1112 	ccf
    000002BF 1F               [ 4] 1113 	rra
    000002C0 DE 81            [ 7] 1114 	sbc	a, #0x81
    000002C2 38 10            [12] 1115 	jr	C, 00118$
                                   1116 ;E:\Dropbox\FAUSTO\SVILUPPI\MSX\CODE\C\MSXgl\projects\soccerlg/soccerlg_s2_b1.c:181: g_FieldCurrentYPosition = FIELD_BOTTOM_Y;
    000002C4 21 18 01         [10] 1117 	ld	hl, #0x0118
    000002C7 22r00r00         [16] 1118 	ld	(_g_FieldCurrentYPosition), hl
                                   1119 ;E:\Dropbox\FAUSTO\SVILUPPI\MSX\CODE\C\MSXgl\projects\soccerlg/soccerlg_s2_b1.c:182: g_ActiveFieldZone = FIELD_SOUTH_ZONE;
    000002CA 21r00r00         [10] 1120 	ld	hl, #_g_ActiveFieldZone
    000002CD 36 02            [10] 1121 	ld	(hl), #0x02
                                   1122 ;E:\Dropbox\FAUSTO\SVILUPPI\MSX\CODE\C\MSXgl\projects\soccerlg/soccerlg_s2_b1.c:183: g_FieldScrollingActionInProgress = NO_VALUE;
    000002CF 21r00r00         [10] 1123 	ld	hl, #_g_FieldScrollingActionInProgress
    000002D2 36 FF            [10] 1124 	ld	(hl), #0xff
                                   1125 ;E:\Dropbox\FAUSTO\SVILUPPI\MSX\CODE\C\MSXgl\projects\soccerlg/soccerlg_s2_b1.c:186: }
    000002D4                       1126 00118$:
                                   1127 ;E:\Dropbox\FAUSTO\SVILUPPI\MSX\CODE\C\MSXgl\projects\soccerlg/soccerlg_s2_b1.c:187: V9_SetScrollingBY(g_FieldCurrentYPosition);
    000002D4 2Ar00r00         [16] 1128 	ld	hl, (_g_FieldCurrentYPosition)
    000002D7 CDr00r00         [17] 1129 	call	_V9_SetScrollingBY
                                   1130 ;E:\Dropbox\FAUSTO\SVILUPPI\MSX\CODE\C\MSXgl\projects\soccerlg/soccerlg_s2_b1.c:188: for(u8 i=0;i<6;i++){
    000002DA 06 00            [ 7] 1131 	ld	b, #0x00
    000002DC                       1132 00121$:
    000002DC 78               [ 4] 1133 	ld	a, b
    000002DD D6 06            [ 7] 1134 	sub	a, #0x06
    000002DF D0               [11] 1135 	ret	NC
                                   1136 ;E:\Dropbox\FAUSTO\SVILUPPI\MSX\CODE\C\MSXgl\projects\soccerlg/soccerlg_s2_b1.c:189: Trampoline_VOID_P1(3,PutPonPonGirlSprite,i);
    000002E0 C5               [11] 1137 	push	bc
    000002E1 C5               [11] 1138 	push	bc
    000002E2 33               [ 6] 1139 	inc	sp
    000002E3 11r00r00         [10] 1140 	ld	de, #_PutPonPonGirlSprite
    000002E6 3E 03            [ 7] 1141 	ld	a, #0x03
    000002E8 CDr00r00         [17] 1142 	call	_Trampoline_VOID_P1
    000002EB C1               [10] 1143 	pop	bc
                                   1144 ;E:\Dropbox\FAUSTO\SVILUPPI\MSX\CODE\C\MSXgl\projects\soccerlg/soccerlg_s2_b1.c:188: for(u8 i=0;i<6;i++){
    000002EC 04               [ 4] 1145 	inc	b
                                   1146 ;E:\Dropbox\FAUSTO\SVILUPPI\MSX\CODE\C\MSXgl\projects\soccerlg/soccerlg_s2_b1.c:191: }
    000002ED C3rDCr02         [10] 1147 	jp	00121$
                                   1148 ;E:\Dropbox\FAUSTO\SVILUPPI\MSX\CODE\C\MSXgl\projects\soccerlg/soccerlg_s2_b1.c:194: void MainSub(){
                                   1149 ;	---------------------------------
                                   1150 ; Function MainSub
                                   1151 ; ---------------------------------
    000002F0                       1152 _MainSub::
    000002F0 DD E5            [15] 1153 	push	ix
    000002F2 DD 21 00 00      [14] 1154 	ld	ix,#0
    000002F6 DD 39            [15] 1155 	add	ix,sp
    000002F8 3B               [ 6] 1156 	dec	sp
                                   1157 ;E:\Dropbox\FAUSTO\SVILUPPI\MSX\CODE\C\MSXgl\projects\soccerlg/soccerlg_s2_b1.c:196: DEBUG_INIT();
    000002F9 CDr00r00         [17] 1158 	call	_DEBUG_INIT
                                   1159 ;E:\Dropbox\FAUSTO\SVILUPPI\MSX\CODE\C\MSXgl\projects\soccerlg/soccerlg_s2_b1.c:198: InitVariables();
    000002FC CDr17r01         [17] 1160 	call	_InitVariables
                                   1161 ;E:\Dropbox\FAUSTO\SVILUPPI\MSX\CODE\C\MSXgl\projects\soccerlg/soccerlg_s2_b1.c:200: V9_SetPort(V9_P15, 0);
    000002FF 2E 00            [ 7] 1162 	ld	l, #0x00
                                   1163 ;	spillPairReg hl
                                   1164 ;	spillPairReg hl
    00000301 3E 6F            [ 7] 1165 	ld	a, #0x6f
    00000303 CDr00r00         [17] 1166 	call	_V9_SetPort
                                   1167 ;E:\Dropbox\FAUSTO\SVILUPPI\MSX\CODE\C\MSXgl\projects\soccerlg/soccerlg_s2_b1.c:202: VDP_SetMode(VDP_MODE_SCREEN0);
    00000306 AF               [ 4] 1168 	xor	a, a
    00000307 CDr00r00         [17] 1169 	call	_VDP_SetMode
                                   1170 ;E:/Dropbox/FAUSTO/SVILUPPI/MSX/CODE/C/MSXgl/engine/src/vdp.h:712: inline void VDP_EnableVBlank(bool enable) { VDP_RegWriteBakMask(1, (u8)~R01_IE0, enable ? R01_IE0 : 0); }
    0000030A AF               [ 4] 1171 	xor	a, a
    0000030B F5               [11] 1172 	push	af
    0000030C 33               [ 6] 1173 	inc	sp
    0000030D 2E DF            [ 7] 1174 	ld	l, #0xdf
                                   1175 ;	spillPairReg hl
                                   1176 ;	spillPairReg hl
    0000030F 3E 01            [ 7] 1177 	ld	a, #0x01
    00000311 CDr00r00         [17] 1178 	call	_VDP_RegWriteBakMask
                                   1179 ;E:\Dropbox\FAUSTO\SVILUPPI\MSX\CODE\C\MSXgl\projects\soccerlg/soccerlg_s2_b1.c:204: VDP_ClearVRAM();
    00000314 CDr00r00         [17] 1180 	call	_VDP_ClearVRAM
                                   1181 ;E:\Dropbox\FAUSTO\SVILUPPI\MSX\CODE\C\MSXgl\projects\soccerlg/soccerlg_s2_b1.c:207: LoadMsxVdpFonts();
    00000317 CDr00r00         [17] 1182 	call	_LoadMsxVdpFonts
                                   1183 ;E:\Dropbox\FAUSTO\SVILUPPI\MSX\CODE\C\MSXgl\projects\soccerlg/soccerlg_s2_b1.c:209: Print_SetColor(15, 1);
    0000031A 2E 01            [ 7] 1184 	ld	l, #0x01
                                   1185 ;	spillPairReg hl
                                   1186 ;	spillPairReg hl
    0000031C 3E 0F            [ 7] 1187 	ld	a, #0x0f
    0000031E CDr00r00         [17] 1188 	call	_Print_SetColor
                                   1189 ;E:/Dropbox/FAUSTO/SVILUPPI/MSX/CODE/C/MSXgl/engine/src/print.h:223: g_PrintData.CursorX = x;
    00000321 01r05r00         [10] 1190 	ld	bc, #_g_PrintData + 5
    00000324 AF               [ 4] 1191 	xor	a, a
    00000325 02               [ 7] 1192 	ld	(bc), a
                                   1193 ;E:/Dropbox/FAUSTO/SVILUPPI/MSX/CODE/C/MSXgl/engine/src/print.h:224: g_PrintData.CursorY = y;
    00000326 21r06r00         [10] 1194 	ld	hl, #(_g_PrintData + 6)
    00000329 36 00            [10] 1195 	ld	(hl), #0x00
                                   1196 ;E:\Dropbox\FAUSTO\SVILUPPI\MSX\CODE\C\MSXgl\projects\soccerlg/soccerlg_s2_b1.c:211: Print_DrawText("Soccer League - 2026 Fausto Pracek");
    0000032B C5               [11] 1197 	push	bc
    0000032C 21rB3r03         [10] 1198 	ld	hl, #___str_1
    0000032F CDr00r00         [17] 1199 	call	_Print_DrawText
    00000332 C1               [10] 1200 	pop	bc
                                   1201 ;E:/Dropbox/FAUSTO/SVILUPPI/MSX/CODE/C/MSXgl/engine/src/print.h:223: g_PrintData.CursorX = x;
    00000333 AF               [ 4] 1202 	xor	a, a
    00000334 02               [ 7] 1203 	ld	(bc), a
                                   1204 ;E:/Dropbox/FAUSTO/SVILUPPI/MSX/CODE/C/MSXgl/engine/src/print.h:224: g_PrintData.CursorY = y;
    00000335 21r06r00         [10] 1205 	ld	hl, #(_g_PrintData + 6)
    00000338 36 01            [10] 1206 	ld	(hl), #0x01
                                   1207 ;E:\Dropbox\FAUSTO\SVILUPPI\MSX\CODE\C\MSXgl\projects\soccerlg/soccerlg_s2_b1.c:213: Print_DrawText("fpracek@gmail.com");
    0000033A C5               [11] 1208 	push	bc
    0000033B 21rD6r03         [10] 1209 	ld	hl, #___str_2
    0000033E CDr00r00         [17] 1210 	call	_Print_DrawText
    00000341 C1               [10] 1211 	pop	bc
                                   1212 ;E:\Dropbox\FAUSTO\SVILUPPI\MSX\CODE\C\MSXgl\projects\soccerlg/soccerlg_s2_b1.c:215: const c8* str = "V9990 not found!";
    00000342 11rA2r03         [10] 1213 	ld	de, #___str_0
                                   1214 ;E:\Dropbox\FAUSTO\SVILUPPI\MSX\CODE\C\MSXgl\projects\soccerlg/soccerlg_s2_b1.c:216: bool v9990IsFound=V9_Detect();
    00000345 C5               [11] 1215 	push	bc
    00000346 D5               [11] 1216 	push	de
    00000347 CDr00r00         [17] 1217 	call	_V9_Detect
    0000034A D1               [10] 1218 	pop	de
    0000034B C1               [10] 1219 	pop	bc
    0000034C DD 77 FF         [19] 1220 	ld	-1 (ix), a
                                   1221 ;E:\Dropbox\FAUSTO\SVILUPPI\MSX\CODE\C\MSXgl\projects\soccerlg/soccerlg_s2_b1.c:218: if (v9990IsFound){
    0000034F B7               [ 4] 1222 	or	a, a
    00000350 28 14            [12] 1223 	jr	Z, 00102$
                                   1224 ;E:\Dropbox\FAUSTO\SVILUPPI\MSX\CODE\C\MSXgl\projects\soccerlg/soccerlg_s2_b1.c:219: str = "V9990 found!";
    00000352 11rE8r03         [10] 1225 	ld	de, #___str_3
                                   1226 ;E:/Dropbox/FAUSTO/SVILUPPI/MSX/CODE/C/MSXgl/engine/src/print.h:223: g_PrintData.CursorX = x;
    00000355 AF               [ 4] 1227 	xor	a, a
    00000356 02               [ 7] 1228 	ld	(bc), a
                                   1229 ;E:/Dropbox/FAUSTO/SVILUPPI/MSX/CODE/C/MSXgl/engine/src/print.h:224: g_PrintData.CursorY = y;
    00000357 21r06r00         [10] 1230 	ld	hl, #(_g_PrintData + 6)
    0000035A 36 07            [10] 1231 	ld	(hl), #0x07
                                   1232 ;E:\Dropbox\FAUSTO\SVILUPPI\MSX\CODE\C\MSXgl\projects\soccerlg/soccerlg_s2_b1.c:221: Print_DrawText("The game is running on V9990 monitor.");
    0000035C C5               [11] 1233 	push	bc
    0000035D D5               [11] 1234 	push	de
    0000035E 21rF5r03         [10] 1235 	ld	hl, #___str_4
    00000361 CDr00r00         [17] 1236 	call	_Print_DrawText
    00000364 D1               [10] 1237 	pop	de
    00000365 C1               [10] 1238 	pop	bc
    00000366                       1239 00102$:
                                   1240 ;E:/Dropbox/FAUSTO/SVILUPPI/MSX/CODE/C/MSXgl/engine/src/print.h:223: g_PrintData.CursorX = x;
    00000366 AF               [ 4] 1241 	xor	a, a
    00000367 02               [ 7] 1242 	ld	(bc), a
                                   1243 ;E:/Dropbox/FAUSTO/SVILUPPI/MSX/CODE/C/MSXgl/engine/src/print.h:224: g_PrintData.CursorY = y;
    00000368 21r06r00         [10] 1244 	ld	hl, #(_g_PrintData + 6)
    0000036B 36 03            [10] 1245 	ld	(hl), #0x03
    0000036D EB               [ 4] 1246 	ex	de, hl
    0000036E CDr00r00         [17] 1247 	call	_Print_DrawText
                                   1248 ;E:\Dropbox\FAUSTO\SVILUPPI\MSX\CODE\C\MSXgl\projects\soccerlg/soccerlg_s2_b1.c:225: if(!v9990IsFound){
    00000371 DD 7E FF         [19] 1249 	ld	a, -1 (ix)
    00000374 B7               [ 4] 1250 	or	a, a
    00000375 20 03            [12] 1251 	jr	NZ, 00105$
    00000377                       1252 00113$:
    00000377 C3r77r03         [10] 1253 	jp	00113$
    0000037A                       1254 00105$:
                                   1255 ;E:/Dropbox/FAUSTO/SVILUPPI/MSX/CODE/C/MSXgl/engine/src/v9990.h:574: inline void V9_SetInterrupt(u8 flags) { V9_SetRegister(9, flags); }
    0000037A 2E 00            [ 7] 1256 	ld	l, #0x00
                                   1257 ;	spillPairReg hl
                                   1258 ;	spillPairReg hl
    0000037C 3E 09            [ 7] 1259 	ld	a, #0x09
    0000037E CDr00r00         [17] 1260 	call	_V9_SetRegister
                                   1261 ;E:\Dropbox\FAUSTO\SVILUPPI\MSX\CODE\C\MSXgl\projects\soccerlg/soccerlg_s2_b1.c:232: LoadPresentation();
    00000381 CDr46r01         [17] 1262 	call	_LoadPresentation
                                   1263 ;E:\Dropbox\FAUSTO\SVILUPPI\MSX\CODE\C\MSXgl\projects\soccerlg/soccerlg_s2_b1.c:233: Trampoline_VOID(3,V9990_InitMenuLayers);
    00000384 11r00r00         [10] 1264 	ld	de, #_V9990_InitMenuLayers
    00000387 3E 03            [ 7] 1265 	ld	a, #0x03
    00000389 CDr00r00         [17] 1266 	call	_Trampoline_VOID
                                   1267 ;E:\Dropbox\FAUSTO\SVILUPPI\MSX\CODE\C\MSXgl\projects\soccerlg/soccerlg_s2_b1.c:235: Trampoline_VOID(4,ShowMenu);
    0000038C 11r00r00         [10] 1268 	ld	de, #_ShowMenu
    0000038F 3E 04            [ 7] 1269 	ld	a, #0x04
    00000391 CDr00r00         [17] 1270 	call	_Trampoline_VOID
                                   1271 ;E:\Dropbox\FAUSTO\SVILUPPI\MSX\CODE\C\MSXgl\projects\soccerlg/soccerlg_s2_b1.c:236: MainGameLoop();
    00000394 CDr1Br04         [17] 1272 	call	_MainGameLoop
                                   1273 ;E:\Dropbox\FAUSTO\SVILUPPI\MSX\CODE\C\MSXgl\projects\soccerlg/soccerlg_s2_b1.c:237: V9_SetPort(V9_P15, 0x10);	
    00000397 2E 10            [ 7] 1274 	ld	l, #0x10
                                   1275 ;	spillPairReg hl
                                   1276 ;	spillPairReg hl
    00000399 3E 6F            [ 7] 1277 	ld	a, #0x6f
    0000039B CDr00r00         [17] 1278 	call	_V9_SetPort
                                   1279 ;E:\Dropbox\FAUSTO\SVILUPPI\MSX\CODE\C\MSXgl\projects\soccerlg/soccerlg_s2_b1.c:238: } 
    0000039E 33               [ 6] 1280 	inc	sp
    0000039F DD E1            [14] 1281 	pop	ix
    000003A1 C9               [10] 1282 	ret
    000003A2                       1283 ___str_0:
    000003A2 56 39 39 39 30 20 6E  1284 	.ascii "V9990 not found!"
             6F 74 20 66 6F 75 6E
             64 21
    000003B2 00                    1285 	.db 0x00
    000003B3                       1286 ___str_1:
    000003B3 53 6F 63 63 65 72 20  1287 	.ascii "Soccer League - 2026 Fausto Pracek"
             4C 65 61 67 75 65 20
             2D 20 32 30 32 36 20
             46 61 75 73 74 6F 20
             50 72 61 63 65 6B
    000003D5 00                    1288 	.db 0x00
    000003D6                       1289 ___str_2:
    000003D6 66 70 72 61 63 65 6B  1290 	.ascii "fpracek@gmail.com"
             40 67 6D 61 69 6C 2E
             63 6F 6D
    000003E7 00                    1291 	.db 0x00
    000003E8                       1292 ___str_3:
    000003E8 56 39 39 39 30 20 66  1293 	.ascii "V9990 found!"
             6F 75 6E 64 21
    000003F4 00                    1294 	.db 0x00
    000003F5                       1295 ___str_4:
    000003F5 54 68 65 20 67 61 6D  1296 	.ascii "The game is running on V9990 monitor."
             65 20 69 73 20 72 75
             6E 6E 69 6E 67 20 6F
             6E 20 56 39 39 39 30
             20 6D 6F 6E 69 74 6F
             72 2E
    0000041A 00                    1297 	.db 0x00
                                   1298 ;E:\Dropbox\FAUSTO\SVILUPPI\MSX\CODE\C\MSXgl\projects\soccerlg/soccerlg_s2_b1.c:240: void MainGameLoop(){
                                   1299 ;	---------------------------------
                                   1300 ; Function MainGameLoop
                                   1301 ; ---------------------------------
    0000041B                       1302 _MainGameLoop::
    0000041B DD E5            [15] 1303 	push	ix
    0000041D DD 21 00 00      [14] 1304 	ld	ix,#0
    00000421 DD 39            [15] 1305 	add	ix,sp
    00000423 F5               [11] 1306 	push	af
    00000424 F5               [11] 1307 	push	af
                                   1308 ;E:\Dropbox\FAUSTO\SVILUPPI\MSX\CODE\C\MSXgl\projects\soccerlg/soccerlg_s2_b1.c:241: u8 TickAiPlayerId=0;
    00000425 DD 36 FE 00      [19] 1309 	ld	-2 (ix), #0x00
                                   1310 ;E:\Dropbox\FAUSTO\SVILUPPI\MSX\CODE\C\MSXgl\projects\soccerlg/soccerlg_s2_b1.c:242: u8 AiTickSpeed=0;
    00000429 DD 36 FF 00      [19] 1311 	ld	-1 (ix), #0x00
    0000042D                       1312 00175$:
                                   1313 ;E:\Dropbox\FAUSTO\SVILUPPI\MSX\CODE\C\MSXgl\projects\soccerlg/soccerlg_s2_b1.c:245: if(g_MatchStatus==MATCH_IN_ACTION){
    0000042D 3Ar00r00         [13] 1314 	ld	a, (_g_MatchStatus+0)
    00000430 D6 0C            [ 7] 1315 	sub	a, #0x0c
    00000432 20 08            [12] 1316 	jr	NZ, 00102$
                                   1317 ;E:\Dropbox\FAUSTO\SVILUPPI\MSX\CODE\C\MSXgl\projects\soccerlg/soccerlg_s2_b1.c:246: Trampoline_VOID(4,TickUpdateTime);
    00000434 11r00r00         [10] 1318 	ld	de, #_TickUpdateTime
    00000437 3E 04            [ 7] 1319 	ld	a, #0x04
    00000439 CDr00r00         [17] 1320 	call	_Trampoline_VOID
    0000043C                       1321 00102$:
                                   1322 ;E:\Dropbox\FAUSTO\SVILUPPI\MSX\CODE\C\MSXgl\projects\soccerlg/soccerlg_s2_b1.c:248: V9990_WaitSynch();
    0000043C CDr00r00         [17] 1323 	call	_V9990_WaitSynch
                                   1324 ;E:\Dropbox\FAUSTO\SVILUPPI\MSX\CODE\C\MSXgl\projects\soccerlg/soccerlg_s2_b1.c:250: if(g_PcmStartPlaying){
    0000043F 3Ar00r00         [13] 1325 	ld	a, (_g_PcmStartPlaying+0)
    00000442 B7               [ 4] 1326 	or	a, a
    00000443 28 0B            [12] 1327 	jr	Z, 00104$
                                   1328 ;E:\Dropbox\FAUSTO\SVILUPPI\MSX\CODE\C\MSXgl\projects\soccerlg/soccerlg_s2_b1.c:251: g_PcmStartPlaying=false;
    00000445 21r00r00         [10] 1329 	ld	hl, #_g_PcmStartPlaying
    00000448 36 00            [10] 1330 	ld	(hl), #0x00
                                   1331 ;E:\Dropbox\FAUSTO\SVILUPPI\MSX\CODE\C\MSXgl\projects\soccerlg/soccerlg_s2_b1.c:252: PlayPCM(g_PmcSoundPlaying);
    0000044A 3Ar00r00         [13] 1332 	ld	a, (_g_PmcSoundPlaying+0)
    0000044D CDr00r00         [17] 1333 	call	_PlayPCM
    00000450                       1334 00104$:
                                   1335 ;E:\Dropbox\FAUSTO\SVILUPPI\MSX\CODE\C\MSXgl\projects\soccerlg/soccerlg_s2_b1.c:255: if(g_MatchStatus==MATCH_NOT_STARTED && g_FieldScrollingActionInProgress==NO_VALUE && g_ActiveFieldZone==FIELD_CENTRAL_ZONE){
    00000450 3Ar00r00         [13] 1336 	ld	a, (_g_MatchStatus+0)
    00000453 B7               [ 4] 1337 	or	a, a
    00000454 20 5C            [12] 1338 	jr	NZ, 00115$
    00000456 3Ar00r00         [13] 1339 	ld	a, (_g_FieldScrollingActionInProgress+0)
    00000459 3C               [ 4] 1340 	inc	a
    0000045A 20 56            [12] 1341 	jr	NZ, 00115$
    0000045C 3Ar00r00         [13] 1342 	ld	a, (_g_ActiveFieldZone+0)
    0000045F 3D               [ 4] 1343 	dec	a
    00000460 20 50            [12] 1344 	jr	NZ, 00115$
                                   1345 ;E:\Dropbox\FAUSTO\SVILUPPI\MSX\CODE\C\MSXgl\projects\soccerlg/soccerlg_s2_b1.c:257: g_MatchStatus=MATCH_BEFORE_KICK_OFF;
    00000462 21r00r00         [10] 1346 	ld	hl, #_g_MatchStatus
    00000465 36 01            [10] 1347 	ld	(hl), #0x01
                                   1348 ;E:\Dropbox\FAUSTO\SVILUPPI\MSX\CODE\C\MSXgl\projects\soccerlg/soccerlg_s2_b1.c:258: if(g_FirstKickOff){
    00000467 3Ar00r00         [13] 1349 	ld	a, (_g_FirstKickOff+0)
    0000046A B7               [ 4] 1350 	or	a, a
    0000046B 28 18            [12] 1351 	jr	Z, 00109$
                                   1352 ;E:\Dropbox\FAUSTO\SVILUPPI\MSX\CODE\C\MSXgl\projects\soccerlg/soccerlg_s2_b1.c:259: g_FirstKickOff=FALSE;
    0000046D 21r00r00         [10] 1353 	ld	hl, #_g_FirstKickOff
    00000470 36 00            [10] 1354 	ld	(hl), #0x00
                                   1355 ;E:\Dropbox\FAUSTO\SVILUPPI\MSX\CODE\C\MSXgl\projects\soccerlg/soccerlg_s2_b1.c:260: g_Timer=0;
    00000472 21r00r00         [10] 1356 	ld	hl, #_g_Timer
    00000475 36 00            [10] 1357 	ld	(hl), #0x00
                                   1358 ;E:\Dropbox\FAUSTO\SVILUPPI\MSX\CODE\C\MSXgl\projects\soccerlg/soccerlg_s2_b1.c:261: g_VgmPublicPresentationEnded=FALSE;
    00000477 21r00r00         [10] 1359 	ld	hl, #_g_VgmPublicPresentationEnded
    0000047A 36 00            [10] 1360 	ld	(hl), #0x00
                                   1361 ;E:\Dropbox\FAUSTO\SVILUPPI\MSX\CODE\C\MSXgl\projects\soccerlg/soccerlg_s2_b1.c:264: while(!g_VgmPublicPresentationEnded){
    0000047C                       1362 00105$:
    0000047C 3Ar00r00         [13] 1363 	ld	a, (_g_VgmPublicPresentationEnded+0)
    0000047F B7               [ 4] 1364 	or	a, a
    00000480 28 FA            [12] 1365 	jr	Z, 00105$
                                   1366 ;E:\Dropbox\FAUSTO\SVILUPPI\MSX\CODE\C\MSXgl\projects\soccerlg/soccerlg_s2_b1.c:268: VGM_Stop();
    00000482 CDr00r00         [17] 1367 	call	_VGM_Stop
    00000485                       1368 00109$:
                                   1369 ;E:\Dropbox\FAUSTO\SVILUPPI\MSX\CODE\C\MSXgl\projects\soccerlg/soccerlg_s2_b1.c:272: PlayVGM(VGM_PLAYERS_PRESENTATION);
    00000485 3E 01            [ 7] 1370 	ld	a, #0x01
    00000487 CDr00r00         [17] 1371 	call	_PlayVGM
                                   1372 ;E:\Dropbox\FAUSTO\SVILUPPI\MSX\CODE\C\MSXgl\projects\soccerlg/soccerlg_s2_b1.c:273: g_Timer=0;
    0000048A 21r00r00         [10] 1373 	ld	hl, #_g_Timer
    0000048D 36 00            [10] 1374 	ld	(hl), #0x00
                                   1375 ;E:\Dropbox\FAUSTO\SVILUPPI\MSX\CODE\C\MSXgl\projects\soccerlg/soccerlg_s2_b1.c:275: while (g_Timer!=45)
    0000048F                       1376 00111$:
    0000048F 3Ar00r00         [13] 1377 	ld	a, (_g_Timer+0)
    00000492 D6 2D            [ 7] 1378 	sub	a, #0x2d
    00000494 28 17            [12] 1379 	jr	Z, 00113$
                                   1380 ;E:\Dropbox\FAUSTO\SVILUPPI\MSX\CODE\C\MSXgl\projects\soccerlg/soccerlg_s2_b1.c:277: for(u8 i=0;i<15;i++){
    00000496 06 00            [ 7] 1381 	ld	b, #0x00
    00000498                       1382 00173$:
    00000498 78               [ 4] 1383 	ld	a, b
    00000499 D6 0F            [ 7] 1384 	sub	a, #0x0f
    0000049B 30 F2            [12] 1385 	jr	NC, 00111$
                                   1386 ;E:\Dropbox\FAUSTO\SVILUPPI\MSX\CODE\C\MSXgl\projects\soccerlg/soccerlg_s2_b1.c:278: Trampoline_VOID_P1(4,SetPlayerTarget,i);
    0000049D C5               [11] 1387 	push	bc
    0000049E C5               [11] 1388 	push	bc
    0000049F 33               [ 6] 1389 	inc	sp
    000004A0 11r00r00         [10] 1390 	ld	de, #_SetPlayerTarget
    000004A3 3E 04            [ 7] 1391 	ld	a, #0x04
    000004A5 CDr00r00         [17] 1392 	call	_Trampoline_VOID_P1
    000004A8 C1               [10] 1393 	pop	bc
                                   1394 ;E:\Dropbox\FAUSTO\SVILUPPI\MSX\CODE\C\MSXgl\projects\soccerlg/soccerlg_s2_b1.c:277: for(u8 i=0;i<15;i++){
    000004A9 04               [ 4] 1395 	inc	b
    000004AA C3r98r04         [10] 1396 	jp	00173$
    000004AD                       1397 00113$:
                                   1398 ;E:\Dropbox\FAUSTO\SVILUPPI\MSX\CODE\C\MSXgl\projects\soccerlg/soccerlg_s2_b1.c:283: g_Timer=0;
    000004AD 21r00r00         [10] 1399 	ld	hl, #_g_Timer
    000004B0 36 00            [10] 1400 	ld	(hl), #0x00
    000004B2                       1401 00115$:
                                   1402 ;E:\Dropbox\FAUSTO\SVILUPPI\MSX\CODE\C\MSXgl\projects\soccerlg/soccerlg_s2_b1.c:287: if(g_MatchStatus==MATCH_NOT_STARTED){
    000004B2 3Ar00r00         [13] 1403 	ld	a, (_g_MatchStatus+0)
    000004B5 B7               [ 4] 1404 	or	a, a
    000004B6 20 15            [12] 1405 	jr	NZ, 00123$
                                   1406 ;E:\Dropbox\FAUSTO\SVILUPPI\MSX\CODE\C\MSXgl\projects\soccerlg/soccerlg_s2_b1.c:288: if(g_currentVGMPlayingSegment==VGM_PLAYERS_PRESENTATION_VGM_SEG && g_TimerActive && g_Timer<30){
    000004B8 3Ar00r00         [13] 1407 	ld	a, (_g_currentVGMPlayingSegment+0)
    000004BB D6 5A            [ 7] 1408 	sub	a, #0x5a
    000004BD 20 0E            [12] 1409 	jr	NZ, 00123$
    000004BF 3Ar00r00         [13] 1410 	ld	a, (_g_TimerActive+0)
    000004C2 B7               [ 4] 1411 	or	a, a
    000004C3 28 08            [12] 1412 	jr	Z, 00123$
    000004C5 3Ar00r00         [13] 1413 	ld	a, (_g_Timer+0)
    000004C8 D6 1E            [ 7] 1414 	sub	a, #0x1e
    000004CA DAr2Dr04         [10] 1415 	jp	C, 00175$
                                   1416 ;E:\Dropbox\FAUSTO\SVILUPPI\MSX\CODE\C\MSXgl\projects\soccerlg/soccerlg_s2_b1.c:289: continue;
    000004CD                       1417 00123$:
                                   1418 ;E:\Dropbox\FAUSTO\SVILUPPI\MSX\CODE\C\MSXgl\projects\soccerlg/soccerlg_s2_b1.c:294: TickCornerKick(); 
    000004CD CDr04r10         [17] 1419 	call	_TickCornerKick
                                   1420 ;E:\Dropbox\FAUSTO\SVILUPPI\MSX\CODE\C\MSXgl\projects\soccerlg/soccerlg_s2_b1.c:295: if(g_MatchStatus == MATCH_BEFORE_GOAL_KICK){
    000004D0 3Ar00r00         [13] 1421 	ld	a, (_g_MatchStatus+0)
    000004D3 D6 05            [ 7] 1422 	sub	a, #0x05
    000004D5 20 03            [12] 1423 	jr	NZ, 00125$
                                   1424 ;E:\Dropbox\FAUSTO\SVILUPPI\MSX\CODE\C\MSXgl\projects\soccerlg/soccerlg_s2_b1.c:296: TickGoalKick();
    000004D7 CDrC2r1E         [17] 1425 	call	_TickGoalKick
    000004DA                       1426 00125$:
                                   1427 ;E:\Dropbox\FAUSTO\SVILUPPI\MSX\CODE\C\MSXgl\projects\soccerlg/soccerlg_s2_b1.c:298: Trampoline_VOID(3,TickThrowIn);
    000004DA 11r00r00         [10] 1428 	ld	de, #_TickThrowIn
    000004DD 3E 03            [ 7] 1429 	ld	a, #0x03
    000004DF CDr00r00         [17] 1430 	call	_Trampoline_VOID
                                   1431 ;E:\Dropbox\FAUSTO\SVILUPPI\MSX\CODE\C\MSXgl\projects\soccerlg/soccerlg_s2_b1.c:300: Trampoline_VOID(3,TickPonPonGirlsAnimation);
    000004E2 11r00r00         [10] 1432 	ld	de, #_TickPonPonGirlsAnimation
    000004E5 3E 03            [ 7] 1433 	ld	a, #0x03
    000004E7 CDr00r00         [17] 1434 	call	_Trampoline_VOID
                                   1435 ;E:\Dropbox\FAUSTO\SVILUPPI\MSX\CODE\C\MSXgl\projects\soccerlg/soccerlg_s2_b1.c:301: TickPlayerToOwnTarget();
    000004EA CDr88r26         [17] 1436 	call	_TickPlayerToOwnTarget
                                   1437 ;E:\Dropbox\FAUSTO\SVILUPPI\MSX\CODE\C\MSXgl\projects\soccerlg/soccerlg_s2_b1.c:302: if (g_SoundRequest != NO_VALUE) {
    000004ED 3Ar00r00         [13] 1438 	ld	a, (_g_SoundRequest+0)
    000004F0 3C               [ 4] 1439 	inc	a
    000004F1 28 0B            [12] 1440 	jr	Z, 00127$
                                   1441 ;E:\Dropbox\FAUSTO\SVILUPPI\MSX\CODE\C\MSXgl\projects\soccerlg/soccerlg_s2_b1.c:303: PlayPCM(g_SoundRequest);
    000004F3 3Ar00r00         [13] 1442 	ld	a, (_g_SoundRequest+0)
    000004F6 CDr00r00         [17] 1443 	call	_PlayPCM
                                   1444 ;E:\Dropbox\FAUSTO\SVILUPPI\MSX\CODE\C\MSXgl\projects\soccerlg/soccerlg_s2_b1.c:304: g_SoundRequest = NO_VALUE;
    000004F9 21r00r00         [10] 1445 	ld	hl, #_g_SoundRequest
    000004FC 36 FF            [10] 1446 	ld	(hl), #0xff
    000004FE                       1447 00127$:
                                   1448 ;E:\Dropbox\FAUSTO\SVILUPPI\MSX\CODE\C\MSXgl\projects\soccerlg/soccerlg_s2_b1.c:306: Trampoline_VOID(3,TickGoalCelebration);
    000004FE 11r00r00         [10] 1449 	ld	de, #_TickGoalCelebration
    00000501 3E 03            [ 7] 1450 	ld	a, #0x03
    00000503 CDr00r00         [17] 1451 	call	_Trampoline_VOID
                                   1452 ;E:\Dropbox\FAUSTO\SVILUPPI\MSX\CODE\C\MSXgl\projects\soccerlg/soccerlg_s2_b1.c:307: Trampoline_VOID(4,TickActiveFieldZone);
    00000506 11r00r00         [10] 1453 	ld	de, #_TickActiveFieldZone
    00000509 3E 04            [ 7] 1454 	ld	a, #0x04
    0000050B CDr00r00         [17] 1455 	call	_Trampoline_VOID
                                   1456 ;E:\Dropbox\FAUSTO\SVILUPPI\MSX\CODE\C\MSXgl\projects\soccerlg/soccerlg_s2_b1.c:308: if(g_FieldScrollingActionInProgress==NO_VALUE){
    0000050E 3Ar00r00         [13] 1457 	ld	a, (_g_FieldScrollingActionInProgress+0)
    00000511 3C               [ 4] 1458 	inc	a
    00000512 C2r25r06         [10] 1459 	jp	NZ,00155$
                                   1460 ;E:\Dropbox\FAUSTO\SVILUPPI\MSX\CODE\C\MSXgl\projects\soccerlg/soccerlg_s2_b1.c:310: if(g_MatchStatus == MATCH_IN_ACTION || g_MatchStatus == MATCH_BALL_ON_GOALKEEPER) {
    00000515 3Ar00r00         [13] 1461 	ld	a,(_g_MatchStatus+0)
    00000518 FE 0C            [ 7] 1462 	cp	a,#0x0c
    0000051A 28 05            [12] 1463 	jr	Z, 00151$
    0000051C D6 0D            [ 7] 1464 	sub	a, #0x0d
    0000051E C2r25r06         [10] 1465 	jp	NZ,00155$
    00000521                       1466 00151$:
                                   1467 ;E:\Dropbox\FAUSTO\SVILUPPI\MSX\CODE\C\MSXgl\projects\soccerlg/soccerlg_s2_b1.c:313: if (g_Ball.PossessionPlayerId != NO_VALUE) {
    00000521 21r06r00         [10] 1468 	ld	hl, #(_g_Ball + 6)
    00000524 4E               [ 7] 1469 	ld	c, (hl)
    00000525 79               [ 4] 1470 	ld	a, c
    00000526 3C               [ 4] 1471 	inc	a
    00000527 28 36            [12] 1472 	jr	Z, 00131$
                                   1473 ;E:\Dropbox\FAUSTO\SVILUPPI\MSX\CODE\C\MSXgl\projects\soccerlg/soccerlg_s2_b1.c:314: u8 carrierTeam = g_Players[g_Ball.PossessionPlayerId].TeamId;
    00000529 11r00r00         [10] 1474 	ld	de, #_g_Players+0
    0000052C 06 00            [ 7] 1475 	ld	b, #0x00
    0000052E 69               [ 4] 1476 	ld	l, c
    0000052F 60               [ 4] 1477 	ld	h, b
    00000530 29               [11] 1478 	add	hl, hl
    00000531 29               [11] 1479 	add	hl, hl
    00000532 09               [11] 1480 	add	hl, bc
    00000533 29               [11] 1481 	add	hl, hl
    00000534 29               [11] 1482 	add	hl, hl
    00000535 09               [11] 1483 	add	hl, bc
    00000536 E3               [19] 1484 	ex	(sp), hl
    00000537 E1               [10] 1485 	pop	hl
    00000538 E5               [11] 1486 	push	hl
    00000539 19               [11] 1487 	add	hl, de
    0000053A 11 09 00         [10] 1488 	ld	de, #0x0009
    0000053D 19               [11] 1489 	add	hl, de
    0000053E 7E               [ 7] 1490 	ld	a, (hl)
                                   1491 ;E:\Dropbox\FAUSTO\SVILUPPI\MSX\CODE\C\MSXgl\projects\soccerlg/soccerlg_s2_b1.c:315: u8 chaserTeam = (carrierTeam == TEAM_1) ? TEAM_2 : TEAM_1;
    0000053F 3D               [ 4] 1492 	dec	a
    00000540 20 06            [12] 1493 	jr	NZ, 00178$
    00000542 01 02 00         [10] 1494 	ld	bc, #0x0002
    00000545 C3r4Br05         [10] 1495 	jp	00179$
    00000548                       1496 00178$:
    00000548 01 01 00         [10] 1497 	ld	bc, #0x0001
    0000054B                       1498 00179$:
                                   1499 ;E:\Dropbox\FAUSTO\SVILUPPI\MSX\CODE\C\MSXgl\projects\soccerlg/soccerlg_s2_b1.c:316: u8 chaserId = GetClosestPlayerToBall(chaserTeam, NO_VALUE);
    0000054B 2E FF            [ 7] 1500 	ld	l, #0xff
                                   1501 ;	spillPairReg hl
                                   1502 ;	spillPairReg hl
    0000054D 79               [ 4] 1503 	ld	a, c
    0000054E CDrA4r09         [17] 1504 	call	_GetClosestPlayerToBall
                                   1505 ;E:\Dropbox\FAUSTO\SVILUPPI\MSX\CODE\C\MSXgl\projects\soccerlg/soccerlg_s2_b1.c:317: if (chaserId != NO_VALUE) {
    00000551 FE FF            [ 7] 1506 	cp	a, #0xff
    00000553 28 0A            [12] 1507 	jr	Z, 00131$
                                   1508 ;E:\Dropbox\FAUSTO\SVILUPPI\MSX\CODE\C\MSXgl\projects\soccerlg/soccerlg_s2_b1.c:318: Trampoline_VOID_P1(5,TickAI,chaserId);
    00000555 F5               [11] 1509 	push	af
    00000556 33               [ 6] 1510 	inc	sp
    00000557 11r00r00         [10] 1511 	ld	de, #_TickAI
    0000055A 3E 05            [ 7] 1512 	ld	a, #0x05
    0000055C CDr00r00         [17] 1513 	call	_Trampoline_VOID_P1
    0000055F                       1514 00131$:
                                   1515 ;E:\Dropbox\FAUSTO\SVILUPPI\MSX\CODE\C\MSXgl\projects\soccerlg/soccerlg_s2_b1.c:323: if(AiTickSpeed >= 2){ // Speed up AI cycle (was 5)
    0000055F DD 7E FF         [19] 1516 	ld	a, -1 (ix)
    00000562 D6 02            [ 7] 1517 	sub	a, #0x02
    00000564 DAr25r06         [10] 1518 	jp	C, 00155$
                                   1519 ;E:\Dropbox\FAUSTO\SVILUPPI\MSX\CODE\C\MSXgl\projects\soccerlg/soccerlg_s2_b1.c:324: AiTickSpeed=0;
    00000567 DD 36 FF 00      [19] 1520 	ld	-1 (ix), #0x00
                                   1521 ;E:\Dropbox\FAUSTO\SVILUPPI\MSX\CODE\C\MSXgl\projects\soccerlg/soccerlg_s2_b1.c:325: Trampoline_VOID_P1(5,TickAI,REFEREE);
    0000056B 3E 0E            [ 7] 1522 	ld	a, #0x0e
    0000056D F5               [11] 1523 	push	af
    0000056E 33               [ 6] 1524 	inc	sp
    0000056F 11r00r00         [10] 1525 	ld	de, #_TickAI
    00000572 3E 05            [ 7] 1526 	ld	a, #0x05
    00000574 CDr00r00         [17] 1527 	call	_Trampoline_VOID_P1
                                   1528 ;E:\Dropbox\FAUSTO\SVILUPPI\MSX\CODE\C\MSXgl\projects\soccerlg/soccerlg_s2_b1.c:326: Trampoline_VOID_P1(5,TickAI,TickAiPlayerId);
    00000577 DD 7E FE         [19] 1529 	ld	a, -2 (ix)
    0000057A F5               [11] 1530 	push	af
    0000057B 33               [ 6] 1531 	inc	sp
    0000057C 11r00r00         [10] 1532 	ld	de, #_TickAI
    0000057F 3E 05            [ 7] 1533 	ld	a, #0x05
    00000581 CDr00r00         [17] 1534 	call	_Trampoline_VOID_P1
                                   1535 ;E:\Dropbox\FAUSTO\SVILUPPI\MSX\CODE\C\MSXgl\projects\soccerlg/soccerlg_s2_b1.c:327: TickAiPlayerId++;
    00000584 DD 34 FE         [23] 1536 	inc	-2 (ix)
                                   1537 ;E:\Dropbox\FAUSTO\SVILUPPI\MSX\CODE\C\MSXgl\projects\soccerlg/soccerlg_s2_b1.c:328: if(TickAiPlayerId==14){ // Only iterate 0-13 (Players)
    00000587 DD 7E FE         [19] 1538 	ld	a, -2 (ix)
    0000058A D6 0E            [ 7] 1539 	sub	a, #0x0e
    0000058C 20 04            [12] 1540 	jr	NZ, 00133$
                                   1541 ;E:\Dropbox\FAUSTO\SVILUPPI\MSX\CODE\C\MSXgl\projects\soccerlg/soccerlg_s2_b1.c:329: TickAiPlayerId=0;
    0000058E DD 36 FE 00      [19] 1542 	ld	-2 (ix), #0x00
    00000592                       1543 00133$:
                                   1544 ;E:\Dropbox\FAUSTO\SVILUPPI\MSX\CODE\C\MSXgl\projects\soccerlg/soccerlg_s2_b1.c:333: if (g_Ball.PossessionPlayerId != NO_VALUE && g_Ball.PossessionPlayerId < 14) {
    00000592 21r06r00         [10] 1545 	ld	hl, #(_g_Ball + 6)
    00000595 46               [ 7] 1546 	ld	b, (hl)
    00000596 78               [ 4] 1547 	ld	a, b
    00000597 3C               [ 4] 1548 	inc	a
    00000598 28 55            [12] 1549 	jr	Z, 00146$
    0000059A 78               [ 4] 1550 	ld	a, b
    0000059B D6 0E            [ 7] 1551 	sub	a, #0x0e
    0000059D 30 50            [12] 1552 	jr	NC, 00146$
                                   1553 ;E:\Dropbox\FAUSTO\SVILUPPI\MSX\CODE\C\MSXgl\projects\soccerlg/soccerlg_s2_b1.c:335: if (g_Ball.PossessionPlayerId != TickAiPlayerId) {
    0000059F DD 7E FE         [19] 1554 	ld	a, -2 (ix)
    000005A2 90               [ 4] 1555 	sub	a, b
    000005A3 28 0A            [12] 1556 	jr	Z, 00135$
                                   1557 ;E:\Dropbox\FAUSTO\SVILUPPI\MSX\CODE\C\MSXgl\projects\soccerlg/soccerlg_s2_b1.c:336: Trampoline_VOID_P1(5,TickAI,g_Ball.PossessionPlayerId);
    000005A5 C5               [11] 1558 	push	bc
    000005A6 33               [ 6] 1559 	inc	sp
    000005A7 11r00r00         [10] 1560 	ld	de, #_TickAI
    000005AA 3E 05            [ 7] 1561 	ld	a, #0x05
    000005AC CDr00r00         [17] 1562 	call	_Trampoline_VOID_P1
    000005AF                       1563 00135$:
                                   1564 ;E:\Dropbox\FAUSTO\SVILUPPI\MSX\CODE\C\MSXgl\projects\soccerlg/soccerlg_s2_b1.c:339: u8 carrierTeam = g_Players[g_Ball.PossessionPlayerId].TeamId;
    000005AF 01r00r00         [10] 1565 	ld	bc, #_g_Players+0
    000005B2 3Ar06r00         [13] 1566 	ld	a, (#(_g_Ball + 6) + 0)
    000005B5 5F               [ 4] 1567 	ld	e, a
    000005B6 16 00            [ 7] 1568 	ld	d, #0x00
    000005B8 6B               [ 4] 1569 	ld	l, e
    000005B9 62               [ 4] 1570 	ld	h, d
    000005BA 29               [11] 1571 	add	hl, hl
    000005BB 29               [11] 1572 	add	hl, hl
    000005BC 19               [11] 1573 	add	hl, de
    000005BD 29               [11] 1574 	add	hl, hl
    000005BE 29               [11] 1575 	add	hl, hl
    000005BF 19               [11] 1576 	add	hl, de
    000005C0 09               [11] 1577 	add	hl, bc
    000005C1 01 09 00         [10] 1578 	ld	bc,#9
    000005C4 09               [11] 1579 	add	hl,bc
    000005C5 7E               [ 7] 1580 	ld	a, (hl)
                                   1581 ;E:\Dropbox\FAUSTO\SVILUPPI\MSX\CODE\C\MSXgl\projects\soccerlg/soccerlg_s2_b1.c:340: u8 chaserTeam = (carrierTeam == TEAM_1) ? TEAM_2 : TEAM_1;
    000005C6 3D               [ 4] 1582 	dec	a
    000005C7 20 06            [12] 1583 	jr	NZ, 00180$
    000005C9 01 02 00         [10] 1584 	ld	bc, #0x0002
    000005CC C3rD2r05         [10] 1585 	jp	00181$
    000005CF                       1586 00180$:
    000005CF 01 01 00         [10] 1587 	ld	bc, #0x0001
    000005D2                       1588 00181$:
                                   1589 ;E:\Dropbox\FAUSTO\SVILUPPI\MSX\CODE\C\MSXgl\projects\soccerlg/soccerlg_s2_b1.c:341: u8 chaserId = GetClosestPlayerToBall(chaserTeam, NO_VALUE);
    000005D2 2E FF            [ 7] 1590 	ld	l, #0xff
                                   1591 ;	spillPairReg hl
                                   1592 ;	spillPairReg hl
    000005D4 79               [ 4] 1593 	ld	a, c
    000005D5 CDrA4r09         [17] 1594 	call	_GetClosestPlayerToBall
                                   1595 ;E:\Dropbox\FAUSTO\SVILUPPI\MSX\CODE\C\MSXgl\projects\soccerlg/soccerlg_s2_b1.c:342: if (chaserId != NO_VALUE && chaserId != TickAiPlayerId) {
    000005D8 47               [ 4] 1596 	ld	b, a
    000005D9 3C               [ 4] 1597 	inc	a
    000005DA 28 49            [12] 1598 	jr	Z, 00155$
    000005DC DD 7E FE         [19] 1599 	ld	a, -2 (ix)
    000005DF 90               [ 4] 1600 	sub	a, b
    000005E0 28 43            [12] 1601 	jr	Z, 00155$
                                   1602 ;E:\Dropbox\FAUSTO\SVILUPPI\MSX\CODE\C\MSXgl\projects\soccerlg/soccerlg_s2_b1.c:343: Trampoline_VOID_P1(5,TickAI,chaserId);
    000005E2 C5               [11] 1603 	push	bc
    000005E3 33               [ 6] 1604 	inc	sp
    000005E4 11r00r00         [10] 1605 	ld	de, #_TickAI
    000005E7 3E 05            [ 7] 1606 	ld	a, #0x05
    000005E9 CDr00r00         [17] 1607 	call	_Trampoline_VOID_P1
    000005EC C3r25r06         [10] 1608 	jp	00155$
    000005EF                       1609 00146$:
                                   1610 ;E:\Dropbox\FAUSTO\SVILUPPI\MSX\CODE\C\MSXgl\projects\soccerlg/soccerlg_s2_b1.c:347: u8 c1 = GetClosestPlayerToBall(TEAM_1, NO_VALUE);
    000005EF 2E FF            [ 7] 1611 	ld	l, #0xff
                                   1612 ;	spillPairReg hl
                                   1613 ;	spillPairReg hl
    000005F1 3E 01            [ 7] 1614 	ld	a, #0x01
    000005F3 CDrA4r09         [17] 1615 	call	_GetClosestPlayerToBall
                                   1616 ;E:\Dropbox\FAUSTO\SVILUPPI\MSX\CODE\C\MSXgl\projects\soccerlg/soccerlg_s2_b1.c:348: if (c1 != NO_VALUE && c1 != TickAiPlayerId) Trampoline_VOID_P1(5,TickAI,c1);
    000005F6 47               [ 4] 1617 	ld	b, a
    000005F7 3C               [ 4] 1618 	inc	a
    000005F8 28 10            [12] 1619 	jr	Z, 00140$
    000005FA DD 7E FE         [19] 1620 	ld	a, -2 (ix)
    000005FD 90               [ 4] 1621 	sub	a, b
    000005FE 28 0A            [12] 1622 	jr	Z, 00140$
    00000600 C5               [11] 1623 	push	bc
    00000601 33               [ 6] 1624 	inc	sp
    00000602 11r00r00         [10] 1625 	ld	de, #_TickAI
    00000605 3E 05            [ 7] 1626 	ld	a, #0x05
    00000607 CDr00r00         [17] 1627 	call	_Trampoline_VOID_P1
    0000060A                       1628 00140$:
                                   1629 ;E:\Dropbox\FAUSTO\SVILUPPI\MSX\CODE\C\MSXgl\projects\soccerlg/soccerlg_s2_b1.c:350: u8 c2 = GetClosestPlayerToBall(TEAM_2, NO_VALUE);
    0000060A 2E FF            [ 7] 1630 	ld	l, #0xff
                                   1631 ;	spillPairReg hl
                                   1632 ;	spillPairReg hl
    0000060C 3E 02            [ 7] 1633 	ld	a, #0x02
    0000060E CDrA4r09         [17] 1634 	call	_GetClosestPlayerToBall
                                   1635 ;E:\Dropbox\FAUSTO\SVILUPPI\MSX\CODE\C\MSXgl\projects\soccerlg/soccerlg_s2_b1.c:351: if (c2 != NO_VALUE && c2 != TickAiPlayerId) Trampoline_VOID_P1(5,TickAI,c2);
    00000611 47               [ 4] 1636 	ld	b, a
    00000612 3C               [ 4] 1637 	inc	a
    00000613 28 10            [12] 1638 	jr	Z, 00155$
    00000615 DD 7E FE         [19] 1639 	ld	a, -2 (ix)
    00000618 90               [ 4] 1640 	sub	a, b
    00000619 28 0A            [12] 1641 	jr	Z, 00155$
    0000061B C5               [11] 1642 	push	bc
    0000061C 33               [ 6] 1643 	inc	sp
    0000061D 11r00r00         [10] 1644 	ld	de, #_TickAI
    00000620 3E 05            [ 7] 1645 	ld	a, #0x05
    00000622 CDr00r00         [17] 1646 	call	_Trampoline_VOID_P1
    00000625                       1647 00155$:
                                   1648 ;E:\Dropbox\FAUSTO\SVILUPPI\MSX\CODE\C\MSXgl\projects\soccerlg/soccerlg_s2_b1.c:357: EnforcePenaltyBoxRestriction();
    00000625 CDr97r08         [17] 1649 	call	_EnforcePenaltyBoxRestriction
                                   1650 ;E:\Dropbox\FAUSTO\SVILUPPI\MSX\CODE\C\MSXgl\projects\soccerlg/soccerlg_s2_b1.c:358: Trampoline_VOID(3,UpdateSpritesPositions);
    00000628 11r00r00         [10] 1651 	ld	de, #_UpdateSpritesPositions
    0000062B 3E 03            [ 7] 1652 	ld	a, #0x03
    0000062D CDr00r00         [17] 1653 	call	_Trampoline_VOID
                                   1654 ;E:\Dropbox\FAUSTO\SVILUPPI\MSX\CODE\C\MSXgl\projects\soccerlg/soccerlg_s2_b1.c:359: TickShotCursor();
    00000630 CDrB4r07         [17] 1655 	call	_TickShotCursor
                                   1656 ;E:\Dropbox\FAUSTO\SVILUPPI\MSX\CODE\C\MSXgl\projects\soccerlg/soccerlg_s2_b1.c:361: TickShowKickOff();
    00000633 CDrECr06         [17] 1657 	call	_TickShowKickOff
                                   1658 ;E:\Dropbox\FAUSTO\SVILUPPI\MSX\CODE\C\MSXgl\projects\soccerlg/soccerlg_s2_b1.c:362: u8 joyDir=Trampoline_U8(2,GetJoystickDirection);
    00000636 11r17r00         [10] 1659 	ld	de, #_GetJoystickDirection
    00000639 3E 02            [ 7] 1660 	ld	a, #0x02
    0000063B CDr00r00         [17] 1661 	call	_Trampoline_U8
                                   1662 ;E:\Dropbox\FAUSTO\SVILUPPI\MSX\CODE\C\MSXgl\projects\soccerlg/soccerlg_s2_b1.c:363: Trampoline_VOID_P1(3,TickTeamJoystick,joyDir);
    0000063E F5               [11] 1663 	push	af
    0000063F 33               [ 6] 1664 	inc	sp
    00000640 11r00r00         [10] 1665 	ld	de, #_TickTeamJoystick
    00000643 3E 03            [ 7] 1666 	ld	a, #0x03
    00000645 CDr00r00         [17] 1667 	call	_Trampoline_VOID_P1
                                   1668 ;E:\Dropbox\FAUSTO\SVILUPPI\MSX\CODE\C\MSXgl\projects\soccerlg/soccerlg_s2_b1.c:364: if(g_FieldScrollingActionInProgress==NO_VALUE){
    00000648 3Ar00r00         [13] 1669 	ld	a, (_g_FieldScrollingActionInProgress+0)
    0000064B 3C               [ 4] 1670 	inc	a
    0000064C 20 20            [12] 1671 	jr	NZ, 00157$
                                   1672 ;E:\Dropbox\FAUSTO\SVILUPPI\MSX\CODE\C\MSXgl\projects\soccerlg/soccerlg_s2_b1.c:365: Trampoline_VOID(4,TickBallCollision);
    0000064E 11r00r00         [10] 1673 	ld	de, #_TickBallCollision
    00000651 3E 04            [ 7] 1674 	ld	a, #0x04
    00000653 CDr00r00         [17] 1675 	call	_Trampoline_VOID
                                   1676 ;E:\Dropbox\FAUSTO\SVILUPPI\MSX\CODE\C\MSXgl\projects\soccerlg/soccerlg_s2_b1.c:366: Trampoline_VOID(4,TickBallFlying);
    00000656 11r00r00         [10] 1677 	ld	de, #_TickBallFlying
    00000659 3E 04            [ 7] 1678 	ld	a, #0x04
    0000065B CDr00r00         [17] 1679 	call	_Trampoline_VOID
                                   1680 ;E:\Dropbox\FAUSTO\SVILUPPI\MSX\CODE\C\MSXgl\projects\soccerlg/soccerlg_s2_b1.c:367: Trampoline_VOID(4,UpdatePassTarget);
    0000065E 11r00r00         [10] 1681 	ld	de, #_UpdatePassTarget
    00000661 3E 04            [ 7] 1682 	ld	a, #0x04
    00000663 CDr00r00         [17] 1683 	call	_Trampoline_VOID
                                   1684 ;E:\Dropbox\FAUSTO\SVILUPPI\MSX\CODE\C\MSXgl\projects\soccerlg/soccerlg_s2_b1.c:368: Trampoline_VOID(4,TickGoalkeeperAnimation);
    00000666 11r00r00         [10] 1685 	ld	de, #_TickGoalkeeperAnimation
    00000669 3E 04            [ 7] 1686 	ld	a, #0x04
    0000066B CDr00r00         [17] 1687 	call	_Trampoline_VOID
    0000066E                       1688 00157$:
                                   1689 ;E:\Dropbox\FAUSTO\SVILUPPI\MSX\CODE\C\MSXgl\projects\soccerlg/soccerlg_s2_b1.c:370: Trampoline_VOID(4,TickCheckBallBoundaries);
    0000066E 11r00r00         [10] 1690 	ld	de, #_TickCheckBallBoundaries
    00000671 3E 04            [ 7] 1691 	ld	a, #0x04
    00000673 CDr00r00         [17] 1692 	call	_Trampoline_VOID
                                   1693 ;E:\Dropbox\FAUSTO\SVILUPPI\MSX\CODE\C\MSXgl\projects\soccerlg/soccerlg_s2_b1.c:373: AiTickSpeed++;
    00000676 DD 34 FF         [23] 1694 	inc	-1 (ix)
                                   1695 ;E:\Dropbox\FAUSTO\SVILUPPI\MSX\CODE\C\MSXgl\projects\soccerlg/soccerlg_s2_b1.c:375: if (g_ActionCooldown > 0) {
    00000679 3Ar00r00         [13] 1696 	ld	a, (_g_ActionCooldown+0)
    0000067C B7               [ 4] 1697 	or	a, a
    0000067D 28 07            [12] 1698 	jr	Z, 00166$
                                   1699 ;E:\Dropbox\FAUSTO\SVILUPPI\MSX\CODE\C\MSXgl\projects\soccerlg/soccerlg_s2_b1.c:376: g_ActionCooldown--;
    0000067F 21r00r00         [10] 1700 	ld	hl, #_g_ActionCooldown
    00000682 35               [11] 1701 	dec	(hl)
    00000683 C3rDEr06         [10] 1702 	jp	00167$
    00000686                       1703 00166$:
                                   1704 ;E:\Dropbox\FAUSTO\SVILUPPI\MSX\CODE\C\MSXgl\projects\soccerlg/soccerlg_s2_b1.c:379: if (g_Team1ActivePlayer != NO_VALUE && g_Players[g_Team1ActivePlayer].Status == PLAYER_STATUS_POSITIONED) 
    00000686 3Ar00r00         [13] 1705 	ld	a, (_g_Team1ActivePlayer+0)
    00000689 3C               [ 4] 1706 	inc	a
    0000068A 28 23            [12] 1707 	jr	Z, 00159$
    0000068C 01r00r00         [10] 1708 	ld	bc, #_g_Players+0
    0000068F ED 5Br00r00      [20] 1709 	ld	de, (_g_Team1ActivePlayer)
    00000693 16 00            [ 7] 1710 	ld	d, #0x00
    00000695 6B               [ 4] 1711 	ld	l, e
    00000696 62               [ 4] 1712 	ld	h, d
    00000697 29               [11] 1713 	add	hl, hl
    00000698 29               [11] 1714 	add	hl, hl
    00000699 19               [11] 1715 	add	hl, de
    0000069A 29               [11] 1716 	add	hl, hl
    0000069B 29               [11] 1717 	add	hl, hl
    0000069C 19               [11] 1718 	add	hl, de
    0000069D 09               [11] 1719 	add	hl, bc
    0000069E 01 12 00         [10] 1720 	ld	bc, #0x0012
    000006A1 09               [11] 1721 	add	hl, bc
    000006A2 4E               [ 7] 1722 	ld	c, (hl)
    000006A3 23               [ 6] 1723 	inc	hl
    000006A4 46               [ 7] 1724 	ld	b, (hl)
    000006A5 2B               [ 6] 1725 	dec	hl
    000006A6 79               [ 4] 1726 	ld	a, c
    000006A7 D6 04            [ 7] 1727 	sub	a, #0x04
                                   1728 ;E:\Dropbox\FAUSTO\SVILUPPI\MSX\CODE\C\MSXgl\projects\soccerlg/soccerlg_s2_b1.c:380: g_Players[g_Team1ActivePlayer].Status = PLAYER_STATUS_NONE;
    000006A9 B0               [ 4] 1729 	or	a,b
    000006AA 20 03            [12] 1730 	jr	NZ, 00159$
    000006AC 77               [ 7] 1731 	ld	(hl), a
    000006AD 23               [ 6] 1732 	inc	hl
    000006AE 77               [ 7] 1733 	ld	(hl), a
    000006AF                       1734 00159$:
                                   1735 ;E:\Dropbox\FAUSTO\SVILUPPI\MSX\CODE\C\MSXgl\projects\soccerlg/soccerlg_s2_b1.c:381: if (g_GameWith2Players && g_Team2ActivePlayer != NO_VALUE && g_Players[g_Team2ActivePlayer].Status == PLAYER_STATUS_POSITIONED)
    000006AF 3Ar00r00         [13] 1736 	ld	a, (_g_GameWith2Players+0)
    000006B2 B7               [ 4] 1737 	or	a, a
    000006B3 28 29            [12] 1738 	jr	Z, 00167$
    000006B5 3Ar00r00         [13] 1739 	ld	a, (_g_Team2ActivePlayer+0)
    000006B8 3C               [ 4] 1740 	inc	a
    000006B9 28 23            [12] 1741 	jr	Z, 00167$
    000006BB 01r00r00         [10] 1742 	ld	bc, #_g_Players+0
    000006BE ED 5Br00r00      [20] 1743 	ld	de, (_g_Team2ActivePlayer)
    000006C2 16 00            [ 7] 1744 	ld	d, #0x00
    000006C4 6B               [ 4] 1745 	ld	l, e
    000006C5 62               [ 4] 1746 	ld	h, d
    000006C6 29               [11] 1747 	add	hl, hl
    000006C7 29               [11] 1748 	add	hl, hl
    000006C8 19               [11] 1749 	add	hl, de
    000006C9 29               [11] 1750 	add	hl, hl
    000006CA 29               [11] 1751 	add	hl, hl
    000006CB 19               [11] 1752 	add	hl, de
    000006CC 09               [11] 1753 	add	hl, bc
    000006CD 01 12 00         [10] 1754 	ld	bc, #0x0012
    000006D0 09               [11] 1755 	add	hl, bc
    000006D1 4E               [ 7] 1756 	ld	c, (hl)
    000006D2 23               [ 6] 1757 	inc	hl
    000006D3 46               [ 7] 1758 	ld	b, (hl)
    000006D4 2B               [ 6] 1759 	dec	hl
    000006D5 79               [ 4] 1760 	ld	a, c
    000006D6 D6 04            [ 7] 1761 	sub	a, #0x04
                                   1762 ;E:\Dropbox\FAUSTO\SVILUPPI\MSX\CODE\C\MSXgl\projects\soccerlg/soccerlg_s2_b1.c:382: g_Players[g_Team2ActivePlayer].Status = PLAYER_STATUS_NONE;
    000006D8 B0               [ 4] 1763 	or	a,b
    000006D9 20 03            [12] 1764 	jr	NZ, 00167$
    000006DB 77               [ 7] 1765 	ld	(hl), a
    000006DC 23               [ 6] 1766 	inc	hl
    000006DD 77               [ 7] 1767 	ld	(hl), a
    000006DE                       1768 00167$:
                                   1769 ;E:\Dropbox\FAUSTO\SVILUPPI\MSX\CODE\C\MSXgl\projects\soccerlg/soccerlg_s2_b1.c:385: if (g_ShootCooldown > 0) {
    000006DE 3Ar00r00         [13] 1770 	ld	a, (_g_ShootCooldown+0)
    000006E1 B7               [ 4] 1771 	or	a, a
    000006E2 CAr2Dr04         [10] 1772 	jp	Z, 00175$
                                   1773 ;E:\Dropbox\FAUSTO\SVILUPPI\MSX\CODE\C\MSXgl\projects\soccerlg/soccerlg_s2_b1.c:386: g_ShootCooldown--;
    000006E5 21r00r00         [10] 1774 	ld	hl, #_g_ShootCooldown
    000006E8 35               [11] 1775 	dec	(hl)
                                   1776 ;E:\Dropbox\FAUSTO\SVILUPPI\MSX\CODE\C\MSXgl\projects\soccerlg/soccerlg_s2_b1.c:389: }
    000006E9 C3r2Dr04         [10] 1777 	jp	00175$
                                   1778 ;E:\Dropbox\FAUSTO\SVILUPPI\MSX\CODE\C\MSXgl\projects\soccerlg/soccerlg_s2_b1.c:391: void TickShowKickOff(){
                                   1779 ;	---------------------------------
                                   1780 ; Function TickShowKickOff
                                   1781 ; ---------------------------------
    000006EC                       1782 _TickShowKickOff::
                                   1783 ;E:\Dropbox\FAUSTO\SVILUPPI\MSX\CODE\C\MSXgl\projects\soccerlg/soccerlg_s2_b1.c:392: if(g_MatchStatus==MATCH_KICK_OFF){
    000006EC 3Ar00r00         [13] 1784 	ld	a, (_g_MatchStatus+0)
    000006EF D6 07            [ 7] 1785 	sub	a, #0x07
    000006F1 C2r74r07         [10] 1786 	jp	NZ,00114$
                                   1787 ;E:\Dropbox\FAUSTO\SVILUPPI\MSX\CODE\C\MSXgl\projects\soccerlg/soccerlg_s2_b1.c:393: V9990_PrintLayerAStringAtPos(12,18,"KICK OFF");
    000006F4 21rABr07         [10] 1788 	ld	hl, #___str_5
    000006F7 E5               [11] 1789 	push	hl
    000006F8 2E 12            [ 7] 1790 	ld	l, #0x12
                                   1791 ;	spillPairReg hl
                                   1792 ;	spillPairReg hl
    000006FA 3E 0C            [ 7] 1793 	ld	a, #0x0c
    000006FC CDr00r00         [17] 1794 	call	_V9990_PrintLayerAStringAtPos
                                   1795 ;E:\Dropbox\FAUSTO\SVILUPPI\MSX\CODE\C\MSXgl\projects\soccerlg/soccerlg_s2_b1.c:394: PlayPCM(PCM_REFEREER);
    000006FF 3E 05            [ 7] 1796 	ld	a, #0x05
    00000701 CDr00r00         [17] 1797 	call	_PlayPCM
                                   1798 ;E:\Dropbox\FAUSTO\SVILUPPI\MSX\CODE\C\MSXgl\projects\soccerlg/soccerlg_s2_b1.c:395: PlayPCM(PCM_KICKOFF);
    00000704 3E 01            [ 7] 1799 	ld	a, #0x01
    00000706 CDr00r00         [17] 1800 	call	_PlayPCM
                                   1801 ;E:\Dropbox\FAUSTO\SVILUPPI\MSX\CODE\C\MSXgl\projects\soccerlg/soccerlg_s2_b1.c:400: V9990_ClearTextFromLayerA(12,18,9);
    00000709 3E 09            [ 7] 1802 	ld	a, #0x09
    0000070B F5               [11] 1803 	push	af
    0000070C 33               [ 6] 1804 	inc	sp
    0000070D 2E 12            [ 7] 1805 	ld	l, #0x12
                                   1806 ;	spillPairReg hl
                                   1807 ;	spillPairReg hl
    0000070F 3E 0C            [ 7] 1808 	ld	a, #0x0c
    00000711 CDr00r00         [17] 1809 	call	_V9990_ClearTextFromLayerA
                                   1810 ;E:\Dropbox\FAUSTO\SVILUPPI\MSX\CODE\C\MSXgl\projects\soccerlg/soccerlg_s2_b1.c:401: g_Timer=NO_VALUE;
    00000714 21r00r00         [10] 1811 	ld	hl, #_g_Timer
    00000717 36 FF            [10] 1812 	ld	(hl), #0xff
                                   1813 ;E:\Dropbox\FAUSTO\SVILUPPI\MSX\CODE\C\MSXgl\projects\soccerlg/soccerlg_s2_b1.c:403: if(g_RestartKickTeamId==TEAM_1){
    00000719 3Ar00r00         [13] 1814 	ld	a, (_g_RestartKickTeamId+0)
    0000071C 3D               [ 4] 1815 	dec	a
    0000071D 20 0B            [12] 1816 	jr	NZ, 00102$
                                   1817 ;E:\Dropbox\FAUSTO\SVILUPPI\MSX\CODE\C\MSXgl\projects\soccerlg/soccerlg_s2_b1.c:404: playerId=GetPlayerIdByRole(TEAM_1,PLAYER_ROLE_RIGHT_HALFFIELDER);
    0000071F 2E 04            [ 7] 1818 	ld	l, #0x04
                                   1819 ;	spillPairReg hl
                                   1820 ;	spillPairReg hl
    00000721 3E 01            [ 7] 1821 	ld	a, #0x01
    00000723 CDr49r09         [17] 1822 	call	_GetPlayerIdByRole
    00000726 4F               [ 4] 1823 	ld	c, a
    00000727 C3r32r07         [10] 1824 	jp	00103$
    0000072A                       1825 00102$:
                                   1826 ;E:\Dropbox\FAUSTO\SVILUPPI\MSX\CODE\C\MSXgl\projects\soccerlg/soccerlg_s2_b1.c:407: playerId=GetPlayerIdByRole(TEAM_2,PLAYER_ROLE_LEFT_HALFFIELDER);
    0000072A 2E 03            [ 7] 1827 	ld	l, #0x03
                                   1828 ;	spillPairReg hl
                                   1829 ;	spillPairReg hl
    0000072C 3E 02            [ 7] 1830 	ld	a, #0x02
    0000072E CDr49r09         [17] 1831 	call	_GetPlayerIdByRole
    00000731 4F               [ 4] 1832 	ld	c, a
    00000732                       1833 00103$:
                                   1834 ;E:\Dropbox\FAUSTO\SVILUPPI\MSX\CODE\C\MSXgl\projects\soccerlg/soccerlg_s2_b1.c:409: PutBallOnPlayerFeet(playerId);
    00000732 79               [ 4] 1835 	ld	a, c
    00000733 CDr05r0B         [17] 1836 	call	_PutBallOnPlayerFeet
                                   1837 ;E:\Dropbox\FAUSTO\SVILUPPI\MSX\CODE\C\MSXgl\projects\soccerlg/soccerlg_s2_b1.c:412: if (g_RestartKickTeamId != TEAM_1) {
    00000736 3Ar00r00         [13] 1838 	ld	a, (_g_RestartKickTeamId+0)
    00000739 3D               [ 4] 1839 	dec	a
    0000073A 28 0E            [12] 1840 	jr	Z, 00107$
                                   1841 ;E:\Dropbox\FAUSTO\SVILUPPI\MSX\CODE\C\MSXgl\projects\soccerlg/soccerlg_s2_b1.c:413: u8 closest = GetClosestPlayerToBall(TEAM_1, NO_VALUE);
    0000073C 2E FF            [ 7] 1842 	ld	l, #0xff
                                   1843 ;	spillPairReg hl
                                   1844 ;	spillPairReg hl
    0000073E 3E 01            [ 7] 1845 	ld	a, #0x01
    00000740 CDrA4r09         [17] 1846 	call	_GetClosestPlayerToBall
                                   1847 ;E:\Dropbox\FAUSTO\SVILUPPI\MSX\CODE\C\MSXgl\projects\soccerlg/soccerlg_s2_b1.c:414: if (closest != NO_VALUE) g_Team1ActivePlayer = closest;
    00000743 FE FF            [ 7] 1848 	cp	a, #0xff
    00000745 28 03            [12] 1849 	jr	Z, 00107$
    00000747 32r00r00         [13] 1850 	ld	(_g_Team1ActivePlayer+0), a
    0000074A                       1851 00107$:
                                   1852 ;E:\Dropbox\FAUSTO\SVILUPPI\MSX\CODE\C\MSXgl\projects\soccerlg/soccerlg_s2_b1.c:416: if (g_GameWith2Players && g_RestartKickTeamId != TEAM_2) {
    0000074A 3Ar00r00         [13] 1853 	ld	a, (_g_GameWith2Players+0)
    0000074D B7               [ 4] 1854 	or	a, a
    0000074E 28 15            [12] 1855 	jr	Z, 00111$
    00000750 3Ar00r00         [13] 1856 	ld	a, (_g_RestartKickTeamId+0)
    00000753 D6 02            [ 7] 1857 	sub	a, #0x02
    00000755 28 0E            [12] 1858 	jr	Z, 00111$
                                   1859 ;E:\Dropbox\FAUSTO\SVILUPPI\MSX\CODE\C\MSXgl\projects\soccerlg/soccerlg_s2_b1.c:417: u8 closest = GetClosestPlayerToBall(TEAM_2, NO_VALUE);
    00000757 2E FF            [ 7] 1860 	ld	l, #0xff
                                   1861 ;	spillPairReg hl
                                   1862 ;	spillPairReg hl
    00000759 3E 02            [ 7] 1863 	ld	a, #0x02
    0000075B CDrA4r09         [17] 1864 	call	_GetClosestPlayerToBall
                                   1865 ;E:\Dropbox\FAUSTO\SVILUPPI\MSX\CODE\C\MSXgl\projects\soccerlg/soccerlg_s2_b1.c:418: if (closest != NO_VALUE) g_Team2ActivePlayer = closest;
    0000075E FE FF            [ 7] 1866 	cp	a, #0xff
    00000760 28 03            [12] 1867 	jr	Z, 00111$
    00000762 32r00r00         [13] 1868 	ld	(_g_Team2ActivePlayer+0), a
    00000765                       1869 00111$:
                                   1870 ;E:\Dropbox\FAUSTO\SVILUPPI\MSX\CODE\C\MSXgl\projects\soccerlg/soccerlg_s2_b1.c:421: g_MatchStatus=MATCH_IN_ACTION;
    00000765 21r00r00         [10] 1871 	ld	hl, #_g_MatchStatus
    00000768 36 0C            [10] 1872 	ld	(hl), #0x0c
                                   1873 ;E:\Dropbox\FAUSTO\SVILUPPI\MSX\CODE\C\MSXgl\projects\soccerlg/soccerlg_s2_b1.c:422: g_TimerActive=FALSE;
    0000076A 21r00r00         [10] 1874 	ld	hl, #_g_TimerActive
    0000076D 36 00            [10] 1875 	ld	(hl), #0x00
                                   1876 ;E:\Dropbox\FAUSTO\SVILUPPI\MSX\CODE\C\MSXgl\projects\soccerlg/soccerlg_s2_b1.c:423: PlayVGM(VGM_MATCH);
    0000076F 3E 02            [ 7] 1877 	ld	a, #0x02
    00000771 CDr00r00         [17] 1878 	call	_PlayVGM
    00000774                       1879 00114$:
                                   1880 ;E:\Dropbox\FAUSTO\SVILUPPI\MSX\CODE\C\MSXgl\projects\soccerlg/soccerlg_s2_b1.c:426: if(g_MatchStatus==MATCH_BEFORE_OFFSIDE){
    00000774 3Ar00r00         [13] 1881 	ld	a, (_g_MatchStatus+0)
    00000777 D6 0E            [ 7] 1882 	sub	a, #0x0e
    00000779 C0               [11] 1883 	ret	NZ
                                   1884 ;E:\Dropbox\FAUSTO\SVILUPPI\MSX\CODE\C\MSXgl\projects\soccerlg/soccerlg_s2_b1.c:427: if(g_Timer >= 2) { 
    0000077A 3Ar00r00         [13] 1885 	ld	a, (_g_Timer+0)
    0000077D D6 02            [ 7] 1886 	sub	a, #0x02
    0000077F D8               [11] 1887 	ret	C
                                   1888 ;E:\Dropbox\FAUSTO\SVILUPPI\MSX\CODE\C\MSXgl\projects\soccerlg/soccerlg_s2_b1.c:428: V9990_ClearTextFromLayerA(10,18,7);
    00000780 3E 07            [ 7] 1889 	ld	a, #0x07
    00000782 F5               [11] 1890 	push	af
    00000783 33               [ 6] 1891 	inc	sp
    00000784 2E 12            [ 7] 1892 	ld	l, #0x12
                                   1893 ;	spillPairReg hl
                                   1894 ;	spillPairReg hl
    00000786 3E 0A            [ 7] 1895 	ld	a, #0x0a
    00000788 CDr00r00         [17] 1896 	call	_V9990_ClearTextFromLayerA
                                   1897 ;E:\Dropbox\FAUSTO\SVILUPPI\MSX\CODE\C\MSXgl\projects\soccerlg/soccerlg_s2_b1.c:429: g_Timer = NO_VALUE;
    0000078B 21r00r00         [10] 1898 	ld	hl, #_g_Timer
    0000078E 36 FF            [10] 1899 	ld	(hl), #0xff
                                   1900 ;E:\Dropbox\FAUSTO\SVILUPPI\MSX\CODE\C\MSXgl\projects\soccerlg/soccerlg_s2_b1.c:431: u8 team = g_RestartKickTeamId; 
    00000790 3Ar00r00         [13] 1901 	ld	a, (_g_RestartKickTeamId+0)
                                   1902 ;E:\Dropbox\FAUSTO\SVILUPPI\MSX\CODE\C\MSXgl\projects\soccerlg/soccerlg_s2_b1.c:432: u8 newOwner = GetClosestPlayerToBall(team, NO_VALUE);
                                   1903 ;	spillPairReg hl
                                   1904 ;	spillPairReg hl
    00000793 2E FF            [ 7] 1905 	ld	l, #0xff
    00000795 CDrA4r09         [17] 1906 	call	_GetClosestPlayerToBall
                                   1907 ;E:\Dropbox\FAUSTO\SVILUPPI\MSX\CODE\C\MSXgl\projects\soccerlg/soccerlg_s2_b1.c:433: if (newOwner != NO_VALUE) {
    00000798 4F               [ 4] 1908 	ld	c, a
    00000799 3C               [ 4] 1909 	inc	a
    0000079A 28 09            [12] 1910 	jr	Z, 00116$
                                   1911 ;E:\Dropbox\FAUSTO\SVILUPPI\MSX\CODE\C\MSXgl\projects\soccerlg/soccerlg_s2_b1.c:434: PutBallOnPlayerFeet(newOwner);
    0000079C 79               [ 4] 1912 	ld	a, c
    0000079D CDr05r0B         [17] 1913 	call	_PutBallOnPlayerFeet
                                   1914 ;E:\Dropbox\FAUSTO\SVILUPPI\MSX\CODE\C\MSXgl\projects\soccerlg/soccerlg_s2_b1.c:435: g_Ball.KickMoveState = NO_VALUE;
    000007A0 21r0Dr00         [10] 1915 	ld	hl, #(_g_Ball + 13)
    000007A3 36 FF            [10] 1916 	ld	(hl), #0xff
    000007A5                       1917 00116$:
                                   1918 ;E:\Dropbox\FAUSTO\SVILUPPI\MSX\CODE\C\MSXgl\projects\soccerlg/soccerlg_s2_b1.c:438: g_MatchStatus = MATCH_IN_ACTION;
    000007A5 21r00r00         [10] 1919 	ld	hl, #_g_MatchStatus
    000007A8 36 0C            [10] 1920 	ld	(hl), #0x0c
                                   1921 ;E:\Dropbox\FAUSTO\SVILUPPI\MSX\CODE\C\MSXgl\projects\soccerlg/soccerlg_s2_b1.c:441: }
    000007AA C9               [10] 1922 	ret
    000007AB                       1923 ___str_5:
    000007AB 4B 49 43 4B 20 4F 46  1924 	.ascii "KICK OFF"
             46
    000007B3 00                    1925 	.db 0x00
                                   1926 ;E:\Dropbox\FAUSTO\SVILUPPI\MSX\CODE\C\MSXgl\projects\soccerlg/soccerlg_s2_b1.c:443: void TickShotCursor() {
                                   1927 ;	---------------------------------
                                   1928 ; Function TickShotCursor
                                   1929 ; ---------------------------------
    000007B4                       1930 _TickShotCursor::
    000007B4 DD E5            [15] 1931 	push	ix
    000007B6 DD 21 00 00      [14] 1932 	ld	ix,#0
    000007BA DD 39            [15] 1933 	add	ix,sp
    000007BC F5               [11] 1934 	push	af
    000007BD F5               [11] 1935 	push	af
                                   1936 ;E:\Dropbox\FAUSTO\SVILUPPI\MSX\CODE\C\MSXgl\projects\soccerlg/soccerlg_s2_b1.c:445: g_ShotCursorX += g_ShotCursorDir;
    000007BE 3Ar00r00         [13] 1937 	ld	a, (_g_ShotCursorDir+0)
    000007C1 4F               [ 4] 1938 	ld	c, a
    000007C2 07               [ 4] 1939 	rlca
    000007C3 9F               [ 4] 1940 	sbc	a, a
    000007C4 47               [ 4] 1941 	ld	b, a
    000007C5 2Ar00r00         [16] 1942 	ld	hl, (_g_ShotCursorX)
    000007C8 09               [11] 1943 	add	hl, bc
    000007C9 22r00r00         [16] 1944 	ld	(_g_ShotCursorX), hl
                                   1945 ;E:\Dropbox\FAUSTO\SVILUPPI\MSX\CODE\C\MSXgl\projects\soccerlg/soccerlg_s2_b1.c:446: if (g_ShotCursorX < (GOAL_X_MIN - 30)) {
    000007CC 11 42 00         [10] 1946 	ld	de, #0x0042
    000007CF 2Ar00r00         [16] 1947 	ld	hl, (_g_ShotCursorX)
    000007D2 BF               [ 4] 1948 	cp	a, a
    000007D3 ED 52            [15] 1949 	sbc	hl, de
    000007D5 30 0C            [12] 1950 	jr	NC, 00102$
                                   1951 ;E:\Dropbox\FAUSTO\SVILUPPI\MSX\CODE\C\MSXgl\projects\soccerlg/soccerlg_s2_b1.c:447: g_ShotCursorX = (GOAL_X_MIN - 30);
    000007D7 21 42 00         [10] 1952 	ld	hl, #0x0042
    000007DA 22r00r00         [16] 1953 	ld	(_g_ShotCursorX), hl
                                   1954 ;E:\Dropbox\FAUSTO\SVILUPPI\MSX\CODE\C\MSXgl\projects\soccerlg/soccerlg_s2_b1.c:448: g_ShotCursorDir = -g_ShotCursorDir;
    000007DD 21r00r00         [10] 1955 	ld	hl, #_g_ShotCursorDir
    000007E0 AF               [ 4] 1956 	xor	a, a
    000007E1 96               [ 7] 1957 	sub	a, (hl)
    000007E2 77               [ 7] 1958 	ld	(hl), a
    000007E3                       1959 00102$:
                                   1960 ;E:\Dropbox\FAUSTO\SVILUPPI\MSX\CODE\C\MSXgl\projects\soccerlg/soccerlg_s2_b1.c:450: if (g_ShotCursorX > (GOAL_X_MAX + 30)) {
    000007E3 3E AE            [ 7] 1961 	ld	a, #0xae
    000007E5 FD 21r00r00      [14] 1962 	ld	iy, #_g_ShotCursorX
    000007E9 FD BE 00         [19] 1963 	cp	a, 0 (iy)
    000007EC 3E 00            [ 7] 1964 	ld	a, #0x00
    000007EE FD 9E 01         [19] 1965 	sbc	a, 1 (iy)
    000007F1 30 0C            [12] 1966 	jr	NC, 00104$
                                   1967 ;E:\Dropbox\FAUSTO\SVILUPPI\MSX\CODE\C\MSXgl\projects\soccerlg/soccerlg_s2_b1.c:451: g_ShotCursorX = (GOAL_X_MAX + 30);
    000007F3 21 AE 00         [10] 1968 	ld	hl, #0x00ae
    000007F6 22r00r00         [16] 1969 	ld	(_g_ShotCursorX), hl
                                   1970 ;E:\Dropbox\FAUSTO\SVILUPPI\MSX\CODE\C\MSXgl\projects\soccerlg/soccerlg_s2_b1.c:452: g_ShotCursorDir = -g_ShotCursorDir;
    000007F9 21r00r00         [10] 1971 	ld	hl, #_g_ShotCursorDir
    000007FC AF               [ 4] 1972 	xor	a, a
    000007FD 96               [ 7] 1973 	sub	a, (hl)
    000007FE 77               [ 7] 1974 	ld	(hl), a
    000007FF                       1975 00104$:
                                   1976 ;E:\Dropbox\FAUSTO\SVILUPPI\MSX\CODE\C\MSXgl\projects\soccerlg/soccerlg_s2_b1.c:456: bool show = false;
    000007FF 0E 00            [ 7] 1977 	ld	c, #0x00
                                   1978 ;E:\Dropbox\FAUSTO\SVILUPPI\MSX\CODE\C\MSXgl\projects\soccerlg/soccerlg_s2_b1.c:457: if (g_MatchStatus == MATCH_IN_ACTION && g_ActiveFieldZone == FIELD_NORTH_ZONE) {
    00000801 3Ar00r00         [13] 1979 	ld	a, (_g_MatchStatus+0)
    00000804 D6 0C            [ 7] 1980 	sub	a, #0x0c
    00000806 20 08            [12] 1981 	jr	NZ, 00106$
    00000808 3Ar00r00         [13] 1982 	ld	a, (_g_ActiveFieldZone+0)
    0000080B B7               [ 4] 1983 	or	a, a
    0000080C 20 02            [12] 1984 	jr	NZ, 00106$
                                   1985 ;E:\Dropbox\FAUSTO\SVILUPPI\MSX\CODE\C\MSXgl\projects\soccerlg/soccerlg_s2_b1.c:458: show = true;
    0000080E 0E 01            [ 7] 1986 	ld	c, #0x01
    00000810                       1987 00106$:
                                   1988 ;E:\Dropbox\FAUSTO\SVILUPPI\MSX\CODE\C\MSXgl\projects\soccerlg/soccerlg_s2_b1.c:462: if (show) {
    00000810 79               [ 4] 1989 	ld	a, c
    00000811 B7               [ 4] 1990 	or	a, a
    00000812 28 67            [12] 1991 	jr	Z, 00113$
                                   1992 ;E:\Dropbox\FAUSTO\SVILUPPI\MSX\CODE\C\MSXgl\projects\soccerlg/soccerlg_s2_b1.c:464: int screenY = (FIELD_BOUND_Y_TOP + 14) - g_FieldCurrentYPosition;
    00000814 21r00r00         [10] 1993 	ld	hl, #_g_FieldCurrentYPosition
    00000817 3E 40            [ 7] 1994 	ld	a, #0x40
    00000819 96               [ 7] 1995 	sub	a, (hl)
    0000081A 23               [ 6] 1996 	inc	hl
    0000081B 4F               [ 4] 1997 	ld	c, a
    0000081C 9F               [ 4] 1998 	sbc	a, a
    0000081D 96               [ 7] 1999 	sub	a, (hl)
    0000081E 47               [ 4] 2000 	ld	b, a
                                   2001 ;E:\Dropbox\FAUSTO\SVILUPPI\MSX\CODE\C\MSXgl\projects\soccerlg/soccerlg_s2_b1.c:467: if (screenY < -16 || screenY > 212) {
    0000081F 79               [ 4] 2002 	ld	a, c
    00000820 D6 F0            [ 7] 2003 	sub	a, #0xf0
    00000822 78               [ 4] 2004 	ld	a, b
    00000823 17               [ 4] 2005 	rla
    00000824 3F               [ 4] 2006 	ccf
    00000825 1F               [ 4] 2007 	rra
    00000826 DE 7F            [ 7] 2008 	sbc	a, #0x7f
    00000828 38 0E            [12] 2009 	jr	C, 00108$
    0000082A 3E D4            [ 7] 2010 	ld	a, #0xd4
    0000082C B9               [ 4] 2011 	cp	a, c
    0000082D 3E 00            [ 7] 2012 	ld	a, #0x00
    0000082F 98               [ 4] 2013 	sbc	a, b
    00000830 E2r35r08         [10] 2014 	jp	PO, 00153$
    00000833 EE 80            [ 7] 2015 	xor	a, #0x80
    00000835                       2016 00153$:
    00000835 F2r3Fr08         [10] 2017 	jp	P, 00109$
    00000838                       2018 00108$:
                                   2019 ;E:\Dropbox\FAUSTO\SVILUPPI\MSX\CODE\C\MSXgl\projects\soccerlg/soccerlg_s2_b1.c:468: attr.Y = 216; 
    00000838 DD 36 FC D8      [19] 2020 	ld	-4 (ix), #0xd8
    0000083C C3r42r08         [10] 2021 	jp	00110$
    0000083F                       2022 00109$:
                                   2023 ;E:\Dropbox\FAUSTO\SVILUPPI\MSX\CODE\C\MSXgl\projects\soccerlg/soccerlg_s2_b1.c:470: attr.Y = (u8)screenY;
    0000083F DD 71 FC         [19] 2024 	ld	-4 (ix), c
    00000842                       2025 00110$:
                                   2026 ;E:\Dropbox\FAUSTO\SVILUPPI\MSX\CODE\C\MSXgl\projects\soccerlg/soccerlg_s2_b1.c:473: attr.X = (u8)g_ShotCursorX;
    00000842 3Ar00r00         [13] 2027 	ld	a, (_g_ShotCursorX+0)
    00000845 4F               [ 4] 2028 	ld	c, a
    00000846 06 00            [ 7] 2029 	ld	b, #0x00
    00000848 21 02 00         [10] 2030 	ld	hl, #2
    0000084B 39               [11] 2031 	add	hl, sp
    0000084C 71               [ 7] 2032 	ld	(hl), c
    0000084D 23               [ 6] 2033 	inc	hl
    0000084E 78               [ 4] 2034 	ld	a, b
    0000084F E6 03            [ 7] 2035 	and	a, #0x03
    00000851 5F               [ 4] 2036 	ld	e,a
    00000852 7E               [ 7] 2037 	ld	a, (hl)
    00000853 E6 FC            [ 7] 2038 	and	a, #0xfc
    00000855 B3               [ 4] 2039 	or	a, e
    00000856 77               [ 7] 2040 	ld	(hl), a
                                   2041 ;E:\Dropbox\FAUSTO\SVILUPPI\MSX\CODE\C\MSXgl\projects\soccerlg/soccerlg_s2_b1.c:474: attr.Pattern = SPRITE_UP_ARROW;
    00000857 DD 36 FD 75      [19] 2042 	ld	-3 (ix), #0x75
                                   2043 ;E:\Dropbox\FAUSTO\SVILUPPI\MSX\CODE\C\MSXgl\projects\soccerlg/soccerlg_s2_b1.c:475: attr.P = 1; 
    0000085B 21 03 00         [10] 2044 	ld	hl,#0x3
    0000085E 39               [11] 2045 	add	hl,sp
    0000085F CB EE            [15] 2046 	set	5, (hl)
                                   2047 ;E:\Dropbox\FAUSTO\SVILUPPI\MSX\CODE\C\MSXgl\projects\soccerlg/soccerlg_s2_b1.c:476: attr.SC = 0; 
    00000861 7E               [ 7] 2048 	ld	a, (hl)
    00000862 E6 3F            [ 7] 2049 	and	a, #0x3f
    00000864 77               [ 7] 2050 	ld	(hl), a
                                   2051 ;E:\Dropbox\FAUSTO\SVILUPPI\MSX\CODE\C\MSXgl\projects\soccerlg/soccerlg_s2_b1.c:478: V9_SetSpriteP1(16, &attr);
                                   2052 ;E:/Dropbox/FAUSTO/SVILUPPI/MSX/CODE/C/MSXgl/engine/src/v9990.h:781: inline void V9_SetSpriteP1(u8 id, const V9_Sprite* attr) { V9_WriteVRAM(V9_P1_SPAT + (id * 4), (const u8*)attr, 4); }
                                   2053 ;E:/Dropbox/FAUSTO/SVILUPPI/MSX/CODE/C/MSXgl/engine/src/v9990.h:371: inline void V9_WriteVRAM(u32 addr, const u8* src, u16 count) { V9_SetWriteAddress(addr); V9_WriteVRAM_CurrentAddr(src, count); }
    00000865 11 40 FE         [10] 2054 	ld	de, #0xfe40
    00000868 21 03 00         [10] 2055 	ld	hl, #0x0003
    0000086B CDr00r00         [17] 2056 	call	_V9_SetWriteAddress
    0000086E 11 04 00         [10] 2057 	ld	de, #0x0004
    00000871 21 00 00         [10] 2058 	ld	hl, #0
    00000874 39               [11] 2059 	add	hl, sp
    00000875 CDr00r00         [17] 2060 	call	_V9_WriteVRAM_CurrentAddr
                                   2061 ;E:\Dropbox\FAUSTO\SVILUPPI\MSX\CODE\C\MSXgl\projects\soccerlg/soccerlg_s2_b1.c:478: V9_SetSpriteP1(16, &attr);
    00000878 C3r92r08         [10] 2062 	jp	00119$
    0000087B                       2063 00113$:
                                   2064 ;E:\Dropbox\FAUSTO\SVILUPPI\MSX\CODE\C\MSXgl\projects\soccerlg/soccerlg_s2_b1.c:481: attr.Y = 216;
    0000087B DD 36 FC D8      [19] 2065 	ld	-4 (ix), #0xd8
                                   2066 ;E:\Dropbox\FAUSTO\SVILUPPI\MSX\CODE\C\MSXgl\projects\soccerlg/soccerlg_s2_b1.c:482: V9_SetSpriteP1(16, &attr);
                                   2067 ;E:/Dropbox/FAUSTO/SVILUPPI/MSX/CODE/C/MSXgl/engine/src/v9990.h:781: inline void V9_SetSpriteP1(u8 id, const V9_Sprite* attr) { V9_WriteVRAM(V9_P1_SPAT + (id * 4), (const u8*)attr, 4); }
                                   2068 ;E:/Dropbox/FAUSTO/SVILUPPI/MSX/CODE/C/MSXgl/engine/src/v9990.h:371: inline void V9_WriteVRAM(u32 addr, const u8* src, u16 count) { V9_SetWriteAddress(addr); V9_WriteVRAM_CurrentAddr(src, count); }
    0000087F 11 40 FE         [10] 2069 	ld	de, #0xfe40
    00000882 21 03 00         [10] 2070 	ld	hl, #0x0003
    00000885 CDr00r00         [17] 2071 	call	_V9_SetWriteAddress
    00000888 11 04 00         [10] 2072 	ld	de, #0x0004
    0000088B 21 00 00         [10] 2073 	ld	hl, #0
    0000088E 39               [11] 2074 	add	hl, sp
    0000088F CDr00r00         [17] 2075 	call	_V9_WriteVRAM_CurrentAddr
                                   2076 ;E:\Dropbox\FAUSTO\SVILUPPI\MSX\CODE\C\MSXgl\projects\soccerlg/soccerlg_s2_b1.c:482: V9_SetSpriteP1(16, &attr);
    00000892                       2077 00119$:
                                   2078 ;E:\Dropbox\FAUSTO\SVILUPPI\MSX\CODE\C\MSXgl\projects\soccerlg/soccerlg_s2_b1.c:484: }
    00000892 DD F9            [10] 2079 	ld	sp, ix
    00000894 DD E1            [14] 2080 	pop	ix
    00000896 C9               [10] 2081 	ret
                                   2082 ;E:\Dropbox\FAUSTO\SVILUPPI\MSX\CODE\C\MSXgl\projects\soccerlg/soccerlg_s2_b1.c:486: void EnforcePenaltyBoxRestriction() {
                                   2083 ;	---------------------------------
                                   2084 ; Function EnforcePenaltyBoxRestriction
                                   2085 ; ---------------------------------
    00000897                       2086 _EnforcePenaltyBoxRestriction::
    00000897 DD E5            [15] 2087 	push	ix
    00000899 DD 21 00 00      [14] 2088 	ld	ix,#0
    0000089D DD 39            [15] 2089 	add	ix,sp
    0000089F F5               [11] 2090 	push	af
    000008A0 3B               [ 6] 2091 	dec	sp
                                   2092 ;E:\Dropbox\FAUSTO\SVILUPPI\MSX\CODE\C\MSXgl\projects\soccerlg/soccerlg_s2_b1.c:487: if (g_MatchStatus != MATCH_BALL_ON_GOALKEEPER) {
    000008A1 3Ar00r00         [13] 2093 	ld	a, (_g_MatchStatus+0)
    000008A4 D6 0D            [ 7] 2094 	sub	a, #0x0d
                                   2095 ;E:\Dropbox\FAUSTO\SVILUPPI\MSX\CODE\C\MSXgl\projects\soccerlg/soccerlg_s2_b1.c:488: return;
    000008A6 C2r44r09         [10] 2096 	jp	NZ,00119$
                                   2097 ;E:\Dropbox\FAUSTO\SVILUPPI\MSX\CODE\C\MSXgl\projects\soccerlg/soccerlg_s2_b1.c:491: u8 gkOwnerId = g_Ball.PossessionPlayerId;
    000008A9 21r06r00         [10] 2098 	ld	hl, #_g_Ball+6
    000008AC 4E               [ 7] 2099 	ld	c, (hl)
                                   2100 ;E:\Dropbox\FAUSTO\SVILUPPI\MSX\CODE\C\MSXgl\projects\soccerlg/soccerlg_s2_b1.c:493: if (gkOwnerId == NO_VALUE || g_Players[gkOwnerId].Role != PLAYER_ROLE_GOALKEEPER) {
    000008AD 79               [ 4] 2101 	ld	a, c
    000008AE 3C               [ 4] 2102 	inc	a
    000008AF CAr44r09         [10] 2103 	jp	Z,00119$
    000008B2 06 00            [ 7] 2104 	ld	b, #0x00
    000008B4 69               [ 4] 2105 	ld	l, c
    000008B5 60               [ 4] 2106 	ld	h, b
    000008B6 29               [11] 2107 	add	hl, hl
    000008B7 29               [11] 2108 	add	hl, hl
    000008B8 09               [11] 2109 	add	hl, bc
    000008B9 29               [11] 2110 	add	hl, hl
    000008BA 29               [11] 2111 	add	hl, hl
    000008BB 09               [11] 2112 	add	hl, bc
    000008BC EB               [ 4] 2113 	ex	de, hl
    000008BD 21r00r00         [10] 2114 	ld	hl, #_g_Players
    000008C0 19               [11] 2115 	add	hl, de
    000008C1 EB               [ 4] 2116 	ex	de, hl
    000008C2 D5               [11] 2117 	push	de
    000008C3 FD E1            [14] 2118 	pop	iy
    000008C5 FD 7E 0D         [19] 2119 	ld	a, 13 (iy)
    000008C8 B7               [ 4] 2120 	or	a, a
                                   2121 ;E:\Dropbox\FAUSTO\SVILUPPI\MSX\CODE\C\MSXgl\projects\soccerlg/soccerlg_s2_b1.c:494: return;
    000008C9 20 79            [12] 2122 	jr	NZ, 00119$
                                   2123 ;E:\Dropbox\FAUSTO\SVILUPPI\MSX\CODE\C\MSXgl\projects\soccerlg/soccerlg_s2_b1.c:497: u8 gkTeamId = g_Players[gkOwnerId].TeamId;
    000008CB 21 09 00         [10] 2124 	ld	hl, #9
    000008CE 19               [11] 2125 	add	hl, de
    000008CF 7E               [ 7] 2126 	ld	a, (hl)
                                   2127 ;E:\Dropbox\FAUSTO\SVILUPPI\MSX\CODE\C\MSXgl\projects\soccerlg/soccerlg_s2_b1.c:500: for (u8 i = 0; i < 14; i++) { 
    000008D0 3D               [ 4] 2128 	dec	a
    000008D1 3E 01            [ 7] 2129 	ld	a, #0x01
    000008D3 28 01            [12] 2130 	jr	Z, 00165$
    000008D5 AF               [ 4] 2131 	xor	a, a
    000008D6                       2132 00165$:
    000008D6 DD 77 FD         [19] 2133 	ld	-3 (ix), a
    000008D9 06 00            [ 7] 2134 	ld	b, #0x00
    000008DB                       2135 00118$:
    000008DB 78               [ 4] 2136 	ld	a, b
    000008DC D6 0E            [ 7] 2137 	sub	a, #0x0e
    000008DE 30 64            [12] 2138 	jr	NC, 00119$
                                   2139 ;E:\Dropbox\FAUSTO\SVILUPPI\MSX\CODE\C\MSXgl\projects\soccerlg/soccerlg_s2_b1.c:501: if (i == gkOwnerId) continue; // Skip the GK himself
    000008E0 79               [ 4] 2140 	ld	a, c
    000008E1 90               [ 4] 2141 	sub	a, b
    000008E2 28 5C            [12] 2142 	jr	Z, 00115$
                                   2143 ;E:\Dropbox\FAUSTO\SVILUPPI\MSX\CODE\C\MSXgl\projects\soccerlg/soccerlg_s2_b1.c:504: if (g_Players[i].TargetY > PENALTY_BOX_Y_BOTTOM) {
    000008E4 58               [ 4] 2144 	ld	e, b
    000008E5 16 00            [ 7] 2145 	ld	d, #0x00
    000008E7 6B               [ 4] 2146 	ld	l, e
    000008E8 62               [ 4] 2147 	ld	h, d
    000008E9 29               [11] 2148 	add	hl, hl
    000008EA 29               [11] 2149 	add	hl, hl
    000008EB 19               [11] 2150 	add	hl, de
    000008EC 29               [11] 2151 	add	hl, hl
    000008ED 29               [11] 2152 	add	hl, hl
    000008EE 19               [11] 2153 	add	hl, de
    000008EF 11r00r00         [10] 2154 	ld	de, #_g_Players
    000008F2 19               [11] 2155 	add	hl, de
    000008F3 DD 75 FE         [19] 2156 	ld	-2 (ix), l
    000008F6 DD 74 FF         [19] 2157 	ld	-1 (ix), h
    000008F9 11 0E 00         [10] 2158 	ld	de, #0x000e
    000008FC 19               [11] 2159 	add	hl, de
    000008FD 5E               [ 7] 2160 	ld	e, (hl)
    000008FE 23               [ 6] 2161 	inc	hl
    000008FF 56               [ 7] 2162 	ld	d, (hl)
    00000900 2B               [ 6] 2163 	dec	hl
                                   2164 ;E:\Dropbox\FAUSTO\SVILUPPI\MSX\CODE\C\MSXgl\projects\soccerlg/soccerlg_s2_b1.c:503: if (gkTeamId == TEAM_1) { // Bottom GK has ball, players can't be in y > PENALTY_BOX_Y_BOTTOM
    00000901 DD 7E FD         [19] 2165 	ld	a, -3 (ix)
    00000904 B7               [ 4] 2166 	or	a, a
    00000905 28 1E            [12] 2167 	jr	Z, 00113$
                                   2168 ;E:\Dropbox\FAUSTO\SVILUPPI\MSX\CODE\C\MSXgl\projects\soccerlg/soccerlg_s2_b1.c:504: if (g_Players[i].TargetY > PENALTY_BOX_Y_BOTTOM) {
    00000907 3E 5E            [ 7] 2169 	ld	a, #0x5e
    00000909 BB               [ 4] 2170 	cp	a, e
    0000090A 3E 01            [ 7] 2171 	ld	a, #0x01
    0000090C 9A               [ 4] 2172 	sbc	a, d
    0000090D 30 31            [12] 2173 	jr	NC, 00115$
                                   2174 ;E:\Dropbox\FAUSTO\SVILUPPI\MSX\CODE\C\MSXgl\projects\soccerlg/soccerlg_s2_b1.c:505: g_Players[i].TargetY = PENALTY_BOX_Y_BOTTOM;
    0000090F 36 5E            [10] 2175 	ld	(hl), #0x5e
    00000911 23               [ 6] 2176 	inc	hl
    00000912 36 01            [10] 2177 	ld	(hl), #0x01
                                   2178 ;E:\Dropbox\FAUSTO\SVILUPPI\MSX\CODE\C\MSXgl\projects\soccerlg/soccerlg_s2_b1.c:506: g_Players[i].Status = PLAYER_STATUS_NONE;
    00000914 DD 6E FE         [19] 2179 	ld	l, -2 (ix)
    00000917 DD 66 FF         [19] 2180 	ld	h, -1 (ix)
    0000091A 11 12 00         [10] 2181 	ld	de, #0x0012
    0000091D 19               [11] 2182 	add	hl, de
    0000091E AF               [ 4] 2183 	xor	a, a
    0000091F 77               [ 7] 2184 	ld	(hl), a
    00000920 23               [ 6] 2185 	inc	hl
    00000921 77               [ 7] 2186 	ld	(hl), a
    00000922 C3r40r09         [10] 2187 	jp	00115$
    00000925                       2188 00113$:
                                   2189 ;E:\Dropbox\FAUSTO\SVILUPPI\MSX\CODE\C\MSXgl\projects\soccerlg/soccerlg_s2_b1.c:509: if (g_Players[i].TargetY < PENALTY_BOX_Y_TOP) {
    00000925 7B               [ 4] 2190 	ld	a, e
    00000926 D6 82            [ 7] 2191 	sub	a, #0x82
    00000928 7A               [ 4] 2192 	ld	a, d
    00000929 DE 00            [ 7] 2193 	sbc	a, #0x00
    0000092B 30 13            [12] 2194 	jr	NC, 00115$
                                   2195 ;E:\Dropbox\FAUSTO\SVILUPPI\MSX\CODE\C\MSXgl\projects\soccerlg/soccerlg_s2_b1.c:510: g_Players[i].TargetY = PENALTY_BOX_Y_TOP;
    0000092D 36 82            [10] 2196 	ld	(hl), #0x82
    0000092F 23               [ 6] 2197 	inc	hl
    00000930 36 00            [10] 2198 	ld	(hl), #0x00
                                   2199 ;E:\Dropbox\FAUSTO\SVILUPPI\MSX\CODE\C\MSXgl\projects\soccerlg/soccerlg_s2_b1.c:511: g_Players[i].Status = PLAYER_STATUS_NONE;
    00000932 DD 6E FE         [19] 2200 	ld	l, -2 (ix)
    00000935 DD 66 FF         [19] 2201 	ld	h, -1 (ix)
    00000938 11 12 00         [10] 2202 	ld	de, #0x0012
    0000093B 19               [11] 2203 	add	hl, de
    0000093C AF               [ 4] 2204 	xor	a, a
    0000093D 77               [ 7] 2205 	ld	(hl), a
    0000093E 23               [ 6] 2206 	inc	hl
    0000093F 77               [ 7] 2207 	ld	(hl), a
    00000940                       2208 00115$:
                                   2209 ;E:\Dropbox\FAUSTO\SVILUPPI\MSX\CODE\C\MSXgl\projects\soccerlg/soccerlg_s2_b1.c:500: for (u8 i = 0; i < 14; i++) { 
    00000940 04               [ 4] 2210 	inc	b
    00000941 C3rDBr08         [10] 2211 	jp	00118$
    00000944                       2212 00119$:
                                   2213 ;E:\Dropbox\FAUSTO\SVILUPPI\MSX\CODE\C\MSXgl\projects\soccerlg/soccerlg_s2_b1.c:515: }
    00000944 DD F9            [10] 2214 	ld	sp, ix
    00000946 DD E1            [14] 2215 	pop	ix
    00000948 C9               [10] 2216 	ret
                                   2217 ;E:\Dropbox\FAUSTO\SVILUPPI\MSX\CODE\C\MSXgl\projects\soccerlg/soccerlg_s2_b1.c:517: u8 GetPlayerIdByRole(u8 teamId, u8 role){
                                   2218 ;	---------------------------------
                                   2219 ; Function GetPlayerIdByRole
                                   2220 ; ---------------------------------
    00000949                       2221 _GetPlayerIdByRole::
    00000949 DD E5            [15] 2222 	push	ix
    0000094B DD 21 00 00      [14] 2223 	ld	ix,#0
    0000094F DD 39            [15] 2224 	add	ix,sp
    00000951 F5               [11] 2225 	push	af
    00000952 3B               [ 6] 2226 	dec	sp
    00000953 4F               [ 4] 2227 	ld	c, a
    00000954 DD 75 FF         [19] 2228 	ld	-1 (ix), l
                                   2229 ;E:\Dropbox\FAUSTO\SVILUPPI\MSX\CODE\C\MSXgl\projects\soccerlg/soccerlg_s2_b1.c:518: u8 playerId=NO_VALUE;
    00000957 DD 36 FD FF      [19] 2230 	ld	-3 (ix), #0xff
                                   2231 ;E:\Dropbox\FAUSTO\SVILUPPI\MSX\CODE\C\MSXgl\projects\soccerlg/soccerlg_s2_b1.c:519: for(u8 i=0;i<14;i++){
    0000095B DD 36 FE 00      [19] 2232 	ld	-2 (ix), #0x00
    0000095F 06 00            [ 7] 2233 	ld	b, #0x00
    00000961                       2234 00106$:
    00000961 78               [ 4] 2235 	ld	a, b
    00000962 D6 0E            [ 7] 2236 	sub	a, #0x0e
    00000964 30 36            [12] 2237 	jr	NC, 00104$
                                   2238 ;E:\Dropbox\FAUSTO\SVILUPPI\MSX\CODE\C\MSXgl\projects\soccerlg/soccerlg_s2_b1.c:520: if(g_Players[i].Role==role && g_Players[i].TeamId==teamId){
    00000966 58               [ 4] 2239 	ld	e, b
    00000967 16 00            [ 7] 2240 	ld	d, #0x00
    00000969 6B               [ 4] 2241 	ld	l, e
    0000096A 62               [ 4] 2242 	ld	h, d
    0000096B 29               [11] 2243 	add	hl, hl
    0000096C 29               [11] 2244 	add	hl, hl
    0000096D 19               [11] 2245 	add	hl, de
    0000096E 29               [11] 2246 	add	hl, hl
    0000096F 29               [11] 2247 	add	hl, hl
    00000970 19               [11] 2248 	add	hl, de
    00000971 11r00r00         [10] 2249 	ld	de, #_g_Players
    00000974 19               [11] 2250 	add	hl, de
                                   2251 ;	spillPairReg hl
                                   2252 ;	spillPairReg hl
    00000975 5D               [ 4] 2253 	ld	e, l
    00000976 54               [ 4] 2254 	ld	d, h
                                   2255 ;	spillPairReg hl
                                   2256 ;	spillPairReg hl
    00000977 C5               [11] 2257 	push	bc
    00000978 01 0D 00         [10] 2258 	ld	bc, #0x000d
    0000097B 09               [11] 2259 	add	hl, bc
    0000097C C1               [10] 2260 	pop	bc
                                   2261 ;	spillPairReg hl
    0000097D DD 7E FF         [19] 2262 	ld	a,-1 (ix)
    00000980 96               [ 7] 2263 	sub	a,(hl)
    00000981 20 12            [12] 2264 	jr	NZ, 00107$
    00000983 21 09 00         [10] 2265 	ld	hl, #9
    00000986 19               [11] 2266 	add	hl, de
    00000987 5E               [ 7] 2267 	ld	e, (hl)
    00000988 79               [ 4] 2268 	ld	a, c
    00000989 93               [ 4] 2269 	sub	a, e
    0000098A 20 09            [12] 2270 	jr	NZ, 00107$
                                   2271 ;E:\Dropbox\FAUSTO\SVILUPPI\MSX\CODE\C\MSXgl\projects\soccerlg/soccerlg_s2_b1.c:521: playerId=i;
    0000098C DD 7E FE         [19] 2272 	ld	a, -2 (ix)
    0000098F DD 77 FD         [19] 2273 	ld	-3 (ix), a
                                   2274 ;E:\Dropbox\FAUSTO\SVILUPPI\MSX\CODE\C\MSXgl\projects\soccerlg/soccerlg_s2_b1.c:522: break;
    00000992 C3r9Cr09         [10] 2275 	jp	00104$
    00000995                       2276 00107$:
                                   2277 ;E:\Dropbox\FAUSTO\SVILUPPI\MSX\CODE\C\MSXgl\projects\soccerlg/soccerlg_s2_b1.c:519: for(u8 i=0;i<14;i++){
    00000995 04               [ 4] 2278 	inc	b
    00000996 DD 70 FE         [19] 2279 	ld	-2 (ix), b
    00000999 C3r61r09         [10] 2280 	jp	00106$
    0000099C                       2281 00104$:
                                   2282 ;E:\Dropbox\FAUSTO\SVILUPPI\MSX\CODE\C\MSXgl\projects\soccerlg/soccerlg_s2_b1.c:525: return playerId;
    0000099C DD 7E FD         [19] 2283 	ld	a, -3 (ix)
                                   2284 ;E:\Dropbox\FAUSTO\SVILUPPI\MSX\CODE\C\MSXgl\projects\soccerlg/soccerlg_s2_b1.c:526: }
    0000099F DD F9            [10] 2285 	ld	sp, ix
    000009A1 DD E1            [14] 2286 	pop	ix
    000009A3 C9               [10] 2287 	ret
                                   2288 ;E:\Dropbox\FAUSTO\SVILUPPI\MSX\CODE\C\MSXgl\projects\soccerlg/soccerlg_s2_b1.c:528: u8 GetClosestPlayerToBall(u8 teamId, u8 excludePlayerId){
                                   2289 ;	---------------------------------
                                   2290 ; Function GetClosestPlayerToBall
                                   2291 ; ---------------------------------
    000009A4                       2292 _GetClosestPlayerToBall::
    000009A4 DD E5            [15] 2293 	push	ix
    000009A6 DD 21 00 00      [14] 2294 	ld	ix,#0
    000009AA DD 39            [15] 2295 	add	ix,sp
    000009AC FD 21 F2 FF      [14] 2296 	ld	iy, #-14
    000009B0 FD 39            [15] 2297 	add	iy, sp
    000009B2 FD F9            [10] 2298 	ld	sp, iy
    000009B4 DD 77 FE         [19] 2299 	ld	-2 (ix), a
    000009B7 DD 75 FD         [19] 2300 	ld	-3 (ix), l
                                   2301 ;E:\Dropbox\FAUSTO\SVILUPPI\MSX\CODE\C\MSXgl\projects\soccerlg/soccerlg_s2_b1.c:529: u8 closestId = NO_VALUE;
    000009BA DD 36 F4 FF      [19] 2302 	ld	-12 (ix), #0xff
                                   2303 ;E:\Dropbox\FAUSTO\SVILUPPI\MSX\CODE\C\MSXgl\projects\soccerlg/soccerlg_s2_b1.c:530: u16 minDist = 0xFFFF;
    000009BE DD 36 F5 FF      [19] 2304 	ld	-11 (ix), #0xff
    000009C2 DD 36 F6 FF      [19] 2305 	ld	-10 (ix), #0xff
                                   2306 ;E:\Dropbox\FAUSTO\SVILUPPI\MSX\CODE\C\MSXgl\projects\soccerlg/soccerlg_s2_b1.c:532: for(u8 i=0;i<14;i++){
    000009C6 21r02r00         [10] 2307 	ld	hl, #_g_Ball + 2
    000009C9 7E               [ 7] 2308 	ld	a, (hl)
    000009CA DD 77 F7         [19] 2309 	ld	-9 (ix), a
    000009CD 23               [ 6] 2310 	inc	hl
    000009CE 7E               [ 7] 2311 	ld	a, (hl)
    000009CF DD 77 F8         [19] 2312 	ld	-8 (ix), a
    000009D2 DD 36 FF 00      [19] 2313 	ld	-1 (ix), #0x00
    000009D6                       2314 00110$:
    000009D6 DD 7E FF         [19] 2315 	ld	a, -1 (ix)
    000009D9 D6 0E            [ 7] 2316 	sub	a, #0x0e
    000009DB D2rBFr0A         [10] 2317 	jp	NC, 00108$
                                   2318 ;E:\Dropbox\FAUSTO\SVILUPPI\MSX\CODE\C\MSXgl\projects\soccerlg/soccerlg_s2_b1.c:533: if(g_Players[i].TeamId != teamId) continue;
    000009DE DD 4E FF         [19] 2319 	ld	c, -1 (ix)
    000009E1 06 00            [ 7] 2320 	ld	b, #0x00
    000009E3 69               [ 4] 2321 	ld	l, c
    000009E4 60               [ 4] 2322 	ld	h, b
    000009E5 29               [11] 2323 	add	hl, hl
    000009E6 29               [11] 2324 	add	hl, hl
    000009E7 09               [11] 2325 	add	hl, bc
    000009E8 29               [11] 2326 	add	hl, hl
    000009E9 29               [11] 2327 	add	hl, hl
    000009EA 09               [11] 2328 	add	hl, bc
    000009EB DD 75 FB         [19] 2329 	ld	-5 (ix), l
    000009EE DD 74 FC         [19] 2330 	ld	-4 (ix), h
    000009F1 DD 7E FB         [19] 2331 	ld	a, -5 (ix)
    000009F4 C6r00            [ 7] 2332 	add	a, #<(_g_Players)
    000009F6 DD 77 F9         [19] 2333 	ld	-7 (ix), a
    000009F9 DD 7E FC         [19] 2334 	ld	a, -4 (ix)
    000009FC CEs00            [ 7] 2335 	adc	a, #>(_g_Players)
    000009FE DD 77 FA         [19] 2336 	ld	-6 (ix), a
    00000A01 DD 7E F9         [19] 2337 	ld	a, -7 (ix)
    00000A04 DD 77 FB         [19] 2338 	ld	-5 (ix), a
    00000A07 DD 7E FA         [19] 2339 	ld	a, -6 (ix)
    00000A0A DD 77 FC         [19] 2340 	ld	-4 (ix), a
    00000A0D DD 6E FB         [19] 2341 	ld	l, -5 (ix)
    00000A10 DD 66 FC         [19] 2342 	ld	h, -4 (ix)
    00000A13 11 09 00         [10] 2343 	ld	de, #0x0009
    00000A16 19               [11] 2344 	add	hl, de
    00000A17 DD 7E FE         [19] 2345 	ld	a,-2 (ix)
    00000A1A 96               [ 7] 2346 	sub	a,(hl)
    00000A1B C2rB9r0A         [10] 2347 	jp	NZ,00107$
                                   2348 ;E:\Dropbox\FAUSTO\SVILUPPI\MSX\CODE\C\MSXgl\projects\soccerlg/soccerlg_s2_b1.c:534: if(i == excludePlayerId) continue;
    00000A1E DD 7E FD         [19] 2349 	ld	a, -3 (ix)
    00000A21 DD 96 FF         [19] 2350 	sub	a, -1 (ix)
    00000A24 CArB9r0A         [10] 2351 	jp	Z,00107$
                                   2352 ;E:\Dropbox\FAUSTO\SVILUPPI\MSX\CODE\C\MSXgl\projects\soccerlg/soccerlg_s2_b1.c:536: u16 distX = (g_Players[i].X > g_Ball.X) ? (g_Players[i].X - g_Ball.X) : (g_Ball.X - g_Players[i].X);
    00000A27 DD 6E F9         [19] 2353 	ld	l, -7 (ix)
                                   2354 ;	spillPairReg hl
                                   2355 ;	spillPairReg hl
    00000A2A DD 66 FA         [19] 2356 	ld	h, -6 (ix)
                                   2357 ;	spillPairReg hl
                                   2358 ;	spillPairReg hl
    00000A2D 23               [ 6] 2359 	inc	hl
    00000A2E 23               [ 6] 2360 	inc	hl
    00000A2F 7E               [ 7] 2361 	ld	a, (hl)
    00000A30 DD 77 F2         [19] 2362 	ld	-14 (ix), a
    00000A33 23               [ 6] 2363 	inc	hl
    00000A34 7E               [ 7] 2364 	ld	a, (hl)
    00000A35 DD 77 F3         [19] 2365 	ld	-13 (ix), a
    00000A38 DD 7E F7         [19] 2366 	ld	a, -9 (ix)
    00000A3B DD 96 F2         [19] 2367 	sub	a, -14 (ix)
    00000A3E DD 7E F8         [19] 2368 	ld	a, -8 (ix)
    00000A41 DD 9E F3         [19] 2369 	sbc	a, -13 (ix)
    00000A44 30 15            [12] 2370 	jr	NC, 00113$
    00000A46 DD 7E F2         [19] 2371 	ld	a, -14 (ix)
    00000A49 DD 96 F7         [19] 2372 	sub	a, -9 (ix)
    00000A4C DD 77 FB         [19] 2373 	ld	-5 (ix), a
    00000A4F DD 7E F3         [19] 2374 	ld	a, -13 (ix)
    00000A52 DD 9E F8         [19] 2375 	sbc	a, -8 (ix)
    00000A55 DD 77 FC         [19] 2376 	ld	-4 (ix), a
    00000A58 C3r6Dr0A         [10] 2377 	jp	00114$
    00000A5B                       2378 00113$:
    00000A5B DD 7E F7         [19] 2379 	ld	a, -9 (ix)
    00000A5E DD 96 F2         [19] 2380 	sub	a, -14 (ix)
    00000A61 DD 77 FB         [19] 2381 	ld	-5 (ix), a
    00000A64 DD 7E F8         [19] 2382 	ld	a, -8 (ix)
    00000A67 DD 9E F3         [19] 2383 	sbc	a, -13 (ix)
    00000A6A DD 77 FC         [19] 2384 	ld	-4 (ix), a
    00000A6D                       2385 00114$:
                                   2386 ;E:\Dropbox\FAUSTO\SVILUPPI\MSX\CODE\C\MSXgl\projects\soccerlg/soccerlg_s2_b1.c:537: u16 distY = (g_Players[i].Y > g_Ball.Y) ? (g_Players[i].Y - g_Ball.Y) : (g_Ball.Y - g_Players[i].Y);
    00000A6D DD 6E F9         [19] 2387 	ld	l, -7 (ix)
    00000A70 DD 66 FA         [19] 2388 	ld	h, -6 (ix)
    00000A73 4E               [ 7] 2389 	ld	c, (hl)
    00000A74 23               [ 6] 2390 	inc	hl
    00000A75 46               [ 7] 2391 	ld	b, (hl)
    00000A76 2Ar00r00         [16] 2392 	ld	hl, (#_g_Ball + 0)
    00000A79 7D               [ 4] 2393 	ld	a, l
    00000A7A 91               [ 4] 2394 	sub	a, c
    00000A7B 7C               [ 4] 2395 	ld	a, h
    00000A7C 98               [ 4] 2396 	sbc	a, b
    00000A7D 30 0D            [12] 2397 	jr	NC, 00115$
    00000A7F 79               [ 4] 2398 	ld	a, c
    00000A80 95               [ 4] 2399 	sub	a, l
    00000A81 DD 77 F9         [19] 2400 	ld	-7 (ix), a
    00000A84 78               [ 4] 2401 	ld	a, b
    00000A85 9C               [ 4] 2402 	sbc	a, h
    00000A86 DD 77 FA         [19] 2403 	ld	-6 (ix), a
    00000A89 C3r96r0A         [10] 2404 	jp	00116$
    00000A8C                       2405 00115$:
    00000A8C 7D               [ 4] 2406 	ld	a, l
    00000A8D 91               [ 4] 2407 	sub	a, c
    00000A8E DD 77 F9         [19] 2408 	ld	-7 (ix), a
    00000A91 7C               [ 4] 2409 	ld	a, h
    00000A92 98               [ 4] 2410 	sbc	a, b
    00000A93 DD 77 FA         [19] 2411 	ld	-6 (ix), a
    00000A96                       2412 00116$:
    00000A96 DD 4E F9         [19] 2413 	ld	c, -7 (ix)
    00000A99 DD 46 FA         [19] 2414 	ld	b, -6 (ix)
                                   2415 ;E:\Dropbox\FAUSTO\SVILUPPI\MSX\CODE\C\MSXgl\projects\soccerlg/soccerlg_s2_b1.c:539: u16 totalDist = distX + distY;
    00000A9C DD 6E FB         [19] 2416 	ld	l, -5 (ix)
    00000A9F DD 66 FC         [19] 2417 	ld	h, -4 (ix)
    00000AA2 09               [11] 2418 	add	hl, bc
                                   2419 ;E:\Dropbox\FAUSTO\SVILUPPI\MSX\CODE\C\MSXgl\projects\soccerlg/soccerlg_s2_b1.c:541: if(totalDist < minDist){
    00000AA3 7D               [ 4] 2420 	ld	a, l
    00000AA4 DD 96 F5         [19] 2421 	sub	a, -11 (ix)
    00000AA7 7C               [ 4] 2422 	ld	a, h
    00000AA8 DD 9E F6         [19] 2423 	sbc	a, -10 (ix)
    00000AAB 30 0C            [12] 2424 	jr	NC, 00107$
                                   2425 ;E:\Dropbox\FAUSTO\SVILUPPI\MSX\CODE\C\MSXgl\projects\soccerlg/soccerlg_s2_b1.c:542: minDist = totalDist;
    00000AAD DD 75 F5         [19] 2426 	ld	-11 (ix), l
    00000AB0 DD 74 F6         [19] 2427 	ld	-10 (ix), h
                                   2428 ;E:\Dropbox\FAUSTO\SVILUPPI\MSX\CODE\C\MSXgl\projects\soccerlg/soccerlg_s2_b1.c:543: closestId = i;
    00000AB3 DD 7E FF         [19] 2429 	ld	a, -1 (ix)
    00000AB6 DD 77 F4         [19] 2430 	ld	-12 (ix), a
    00000AB9                       2431 00107$:
                                   2432 ;E:\Dropbox\FAUSTO\SVILUPPI\MSX\CODE\C\MSXgl\projects\soccerlg/soccerlg_s2_b1.c:532: for(u8 i=0;i<14;i++){
    00000AB9 DD 34 FF         [23] 2433 	inc	-1 (ix)
    00000ABC C3rD6r09         [10] 2434 	jp	00110$
    00000ABF                       2435 00108$:
                                   2436 ;E:\Dropbox\FAUSTO\SVILUPPI\MSX\CODE\C\MSXgl\projects\soccerlg/soccerlg_s2_b1.c:546: return closestId;
    00000ABF DD 7E F4         [19] 2437 	ld	a, -12 (ix)
                                   2438 ;E:\Dropbox\FAUSTO\SVILUPPI\MSX\CODE\C\MSXgl\projects\soccerlg/soccerlg_s2_b1.c:547: }
    00000AC2 DD F9            [10] 2439 	ld	sp, ix
    00000AC4 DD E1            [14] 2440 	pop	ix
    00000AC6 C9               [10] 2441 	ret
                                   2442 ;E:\Dropbox\FAUSTO\SVILUPPI\MSX\CODE\C\MSXgl\projects\soccerlg/soccerlg_s2_b1.c:549: void SetPlayerBallPossession(u8 playerId){
                                   2443 ;	---------------------------------
                                   2444 ; Function SetPlayerBallPossession
                                   2445 ; ---------------------------------
    00000AC7                       2446 _SetPlayerBallPossession::
                                   2447 ;E:\Dropbox\FAUSTO\SVILUPPI\MSX\CODE\C\MSXgl\projects\soccerlg/soccerlg_s2_b1.c:550: if (playerId == NO_VALUE) {
    00000AC7 4F               [ 4] 2448 	ld	c, a
    00000AC8 3C               [ 4] 2449 	inc	a
    00000AC9 C8               [11] 2450 	ret	Z
                                   2451 ;E:\Dropbox\FAUSTO\SVILUPPI\MSX\CODE\C\MSXgl\projects\soccerlg/soccerlg_s2_b1.c:551: return;
    00000ACA C3rCDr0A         [10] 2452 	jp	00102$
    00000ACD                       2453 00102$:
                                   2454 ;E:\Dropbox\FAUSTO\SVILUPPI\MSX\CODE\C\MSXgl\projects\soccerlg/soccerlg_s2_b1.c:554: if(g_Players[playerId].TeamId==TEAM_1){
    00000ACD 11r00r00         [10] 2455 	ld	de, #_g_Players+0
    00000AD0 06 00            [ 7] 2456 	ld	b, #0x00
    00000AD2 69               [ 4] 2457 	ld	l, c
    00000AD3 60               [ 4] 2458 	ld	h, b
    00000AD4 29               [11] 2459 	add	hl, hl
    00000AD5 29               [11] 2460 	add	hl, hl
    00000AD6 09               [11] 2461 	add	hl, bc
    00000AD7 29               [11] 2462 	add	hl, hl
    00000AD8 29               [11] 2463 	add	hl, hl
    00000AD9 09               [11] 2464 	add	hl, bc
    00000ADA 19               [11] 2465 	add	hl, de
                                   2466 ;	spillPairReg hl
                                   2467 ;	spillPairReg hl
    00000ADB 5D               [ 4] 2468 	ld	e, l
    00000ADC 54               [ 4] 2469 	ld	d, h
                                   2470 ;	spillPairReg hl
                                   2471 ;	spillPairReg hl
    00000ADD C5               [11] 2472 	push	bc
    00000ADE 01 09 00         [10] 2473 	ld	bc, #0x0009
    00000AE1 09               [11] 2474 	add	hl, bc
    00000AE2 C1               [10] 2475 	pop	bc
    00000AE3 7E               [ 7] 2476 	ld	a, (hl)
                                   2477 ;E:\Dropbox\FAUSTO\SVILUPPI\MSX\CODE\C\MSXgl\projects\soccerlg/soccerlg_s2_b1.c:555: if (g_Players[playerId].Role != PLAYER_ROLE_GOALKEEPER) g_Team1ActivePlayer=playerId;
    00000AE4 21 0D 00         [10] 2478 	ld	hl, #13
    00000AE7 19               [11] 2479 	add	hl, de
    00000AE8 46               [ 7] 2480 	ld	b, (hl)
                                   2481 ;E:\Dropbox\FAUSTO\SVILUPPI\MSX\CODE\C\MSXgl\projects\soccerlg/soccerlg_s2_b1.c:554: if(g_Players[playerId].TeamId==TEAM_1){
    00000AE9 3D               [ 4] 2482 	dec	a
    00000AEA 20 0B            [12] 2483 	jr	NZ, 00108$
                                   2484 ;E:\Dropbox\FAUSTO\SVILUPPI\MSX\CODE\C\MSXgl\projects\soccerlg/soccerlg_s2_b1.c:555: if (g_Players[playerId].Role != PLAYER_ROLE_GOALKEEPER) g_Team1ActivePlayer=playerId;
    00000AEC 78               [ 4] 2485 	ld	a, b
    00000AED B7               [ 4] 2486 	or	a, a
    00000AEE 28 0F            [12] 2487 	jr	Z, 00109$
    00000AF0 21r00r00         [10] 2488 	ld	hl, #_g_Team1ActivePlayer
    00000AF3 71               [ 7] 2489 	ld	(hl), c
    00000AF4 C3rFFr0A         [10] 2490 	jp	00109$
    00000AF7                       2491 00108$:
                                   2492 ;E:\Dropbox\FAUSTO\SVILUPPI\MSX\CODE\C\MSXgl\projects\soccerlg/soccerlg_s2_b1.c:558: if (g_Players[playerId].Role != PLAYER_ROLE_GOALKEEPER) g_Team2ActivePlayer=playerId;
    00000AF7 78               [ 4] 2493 	ld	a, b
    00000AF8 B7               [ 4] 2494 	or	a, a
    00000AF9 28 04            [12] 2495 	jr	Z, 00109$
    00000AFB 21r00r00         [10] 2496 	ld	hl, #_g_Team2ActivePlayer
    00000AFE 71               [ 7] 2497 	ld	(hl), c
    00000AFF                       2498 00109$:
                                   2499 ;E:\Dropbox\FAUSTO\SVILUPPI\MSX\CODE\C\MSXgl\projects\soccerlg/soccerlg_s2_b1.c:561: g_Ball.PossessionTimer = 0; // Reset hold timer
    00000AFF 21r1Cr00         [10] 2500 	ld	hl, #(_g_Ball + 28)
    00000B02 36 00            [10] 2501 	ld	(hl), #0x00
                                   2502 ;E:\Dropbox\FAUSTO\SVILUPPI\MSX\CODE\C\MSXgl\projects\soccerlg/soccerlg_s2_b1.c:562: }
    00000B04 C9               [10] 2503 	ret
                                   2504 ;E:\Dropbox\FAUSTO\SVILUPPI\MSX\CODE\C\MSXgl\projects\soccerlg/soccerlg_s2_b1.c:564: void PutBallOnPlayerFeet(u8 playerId){
                                   2505 ;	---------------------------------
                                   2506 ; Function PutBallOnPlayerFeet
                                   2507 ; ---------------------------------
    00000B05                       2508 _PutBallOnPlayerFeet::
    00000B05 DD E5            [15] 2509 	push	ix
    00000B07 DD 21 00 00      [14] 2510 	ld	ix,#0
    00000B0B DD 39            [15] 2511 	add	ix,sp
    00000B0D 21 C9 FF         [10] 2512 	ld	hl, #-55
    00000B10 39               [11] 2513 	add	hl, sp
    00000B11 F9               [ 6] 2514 	ld	sp, hl
    00000B12 4F               [ 4] 2515 	ld	c, a
                                   2516 ;E:\Dropbox\FAUSTO\SVILUPPI\MSX\CODE\C\MSXgl\projects\soccerlg/soccerlg_s2_b1.c:566: if (g_Ball.PossessionPlayerId != playerId) {
    00000B13 21r06r00         [10] 2517 	ld	hl, #(_g_Ball + 6)
    00000B16 46               [ 7] 2518 	ld	b, (hl)
                                   2519 ;E:\Dropbox\FAUSTO\SVILUPPI\MSX\CODE\C\MSXgl\projects\soccerlg/soccerlg_s2_b1.c:568: g_Ball.LastTouchTeamId=g_Players[playerId].TeamId;
    00000B17 59               [ 4] 2520 	ld	e, c
    00000B18 16 00            [ 7] 2521 	ld	d, #0x00
    00000B1A 6B               [ 4] 2522 	ld	l, e
    00000B1B 62               [ 4] 2523 	ld	h, d
    00000B1C 29               [11] 2524 	add	hl, hl
    00000B1D 29               [11] 2525 	add	hl, hl
    00000B1E 19               [11] 2526 	add	hl, de
    00000B1F 29               [11] 2527 	add	hl, hl
    00000B20 29               [11] 2528 	add	hl, hl
    00000B21 19               [11] 2529 	add	hl, de
    00000B22 EB               [ 4] 2530 	ex	de, hl
                                   2531 ;E:\Dropbox\FAUSTO\SVILUPPI\MSX\CODE\C\MSXgl\projects\soccerlg/soccerlg_s2_b1.c:566: if (g_Ball.PossessionPlayerId != playerId) {
    00000B23 79               [ 4] 2532 	ld	a, c
    00000B24 90               [ 4] 2533 	sub	a, b
    00000B25 28 39            [12] 2534 	jr	Z, 00104$
                                   2535 ;E:\Dropbox\FAUSTO\SVILUPPI\MSX\CODE\C\MSXgl\projects\soccerlg/soccerlg_s2_b1.c:567: g_Ball.PossessionPlayerId=playerId;
    00000B27 21r06r00         [10] 2536 	ld	hl, #(_g_Ball + 6)
    00000B2A 71               [ 7] 2537 	ld	(hl), c
                                   2538 ;E:\Dropbox\FAUSTO\SVILUPPI\MSX\CODE\C\MSXgl\projects\soccerlg/soccerlg_s2_b1.c:568: g_Ball.LastTouchTeamId=g_Players[playerId].TeamId;
    00000B2B FD 21r00r00      [14] 2539 	ld	iy, #_g_Players
    00000B2F FD 19            [15] 2540 	add	iy, de
    00000B31 FD 7E 09         [19] 2541 	ld	a, 9 (iy)
    00000B34 32r0Er00         [13] 2542 	ld	(#(_g_Ball + 14)),a
                                   2543 ;E:\Dropbox\FAUSTO\SVILUPPI\MSX\CODE\C\MSXgl\projects\soccerlg/soccerlg_s2_b1.c:569: g_Ball.PassTargetPlayerId = NO_VALUE; // Clear any pending pass
    00000B37 21r10r00         [10] 2544 	ld	hl, #(_g_Ball + 16)
    00000B3A 36 FF            [10] 2545 	ld	(hl), #0xff
                                   2546 ;E:\Dropbox\FAUSTO\SVILUPPI\MSX\CODE\C\MSXgl\projects\soccerlg/soccerlg_s2_b1.c:570: g_Ball.ShotActive = 0; // Clear any pending shot
    00000B3C 21r1Br00         [10] 2547 	ld	hl, #(_g_Ball + 27)
    00000B3F 36 00            [10] 2548 	ld	(hl), #0x00
                                   2549 ;E:\Dropbox\FAUSTO\SVILUPPI\MSX\CODE\C\MSXgl\projects\soccerlg/soccerlg_s2_b1.c:571: SetPlayerBallPossession(g_Ball.PossessionPlayerId);
    00000B41 D5               [11] 2550 	push	de
    00000B42 79               [ 4] 2551 	ld	a, c
    00000B43 CDrC7r0A         [17] 2552 	call	_SetPlayerBallPossession
    00000B46 D1               [10] 2553 	pop	de
                                   2554 ;E:\Dropbox\FAUSTO\SVILUPPI\MSX\CODE\C\MSXgl\projects\soccerlg/soccerlg_s2_b1.c:574: g_ActionCooldown = 8;
    00000B47 FD 21r00r00      [14] 2555 	ld	iy, #_g_ActionCooldown
    00000B4B FD 36 00 08      [19] 2556 	ld	0 (iy), #0x08
                                   2557 ;E:\Dropbox\FAUSTO\SVILUPPI\MSX\CODE\C\MSXgl\projects\soccerlg/soccerlg_s2_b1.c:576: if (g_Ball.ComingFromRestart) {
    00000B4F 01r1Dr00         [10] 2558 	ld	bc, #_g_Ball + 29
    00000B52 0A               [ 7] 2559 	ld	a, (bc)
    00000B53 B7               [ 4] 2560 	or	a, a
    00000B54 28 0A            [12] 2561 	jr	Z, 00104$
                                   2562 ;E:\Dropbox\FAUSTO\SVILUPPI\MSX\CODE\C\MSXgl\projects\soccerlg/soccerlg_s2_b1.c:577: g_ShootCooldown = 45; // 0.75s ban on shooting after restart
    00000B56 FD 21r00r00      [14] 2563 	ld	iy, #_g_ShootCooldown
    00000B5A FD 36 00 2D      [19] 2564 	ld	0 (iy), #0x2d
                                   2565 ;E:\Dropbox\FAUSTO\SVILUPPI\MSX\CODE\C\MSXgl\projects\soccerlg/soccerlg_s2_b1.c:578: g_Ball.ComingFromRestart = 0;
    00000B5E AF               [ 4] 2566 	xor	a, a
    00000B5F 02               [ 7] 2567 	ld	(bc), a
    00000B60                       2568 00104$:
                                   2569 ;E:\Dropbox\FAUSTO\SVILUPPI\MSX\CODE\C\MSXgl\projects\soccerlg/soccerlg_s2_b1.c:584: const u8 BallBaseDistX[] = { 0, 0, 4, 6, 4, 0, 4, 6, 4 };
    00000B60 DD 36 C9 00      [19] 2570 	ld	-55 (ix), #0x00
    00000B64 DD 36 CA 00      [19] 2571 	ld	-54 (ix), #0x00
    00000B68 DD 36 CB 04      [19] 2572 	ld	-53 (ix), #0x04
    00000B6C DD 36 CC 06      [19] 2573 	ld	-52 (ix), #0x06
    00000B70 DD 36 CD 04      [19] 2574 	ld	-51 (ix), #0x04
    00000B74 DD 36 CE 00      [19] 2575 	ld	-50 (ix), #0x00
    00000B78 DD 36 CF 04      [19] 2576 	ld	-49 (ix), #0x04
    00000B7C DD 36 D0 06      [19] 2577 	ld	-48 (ix), #0x06
    00000B80 DD 36 D1 04      [19] 2578 	ld	-47 (ix), #0x04
                                   2579 ;E:\Dropbox\FAUSTO\SVILUPPI\MSX\CODE\C\MSXgl\projects\soccerlg/soccerlg_s2_b1.c:585: const u8 BallBaseDistY[] = { 0, 6, 4, 0, 4, 6, 4, 2, 4 };
    00000B84 21 09 00         [10] 2580 	ld	hl, #9
    00000B87 39               [11] 2581 	add	hl, sp
    00000B88 4D               [ 4] 2582 	ld	c, l
    00000B89 44               [ 4] 2583 	ld	b, h
    00000B8A AF               [ 4] 2584 	xor	a, a
    00000B8B 02               [ 7] 2585 	ld	(bc), a
    00000B8C DD 36 D3 06      [19] 2586 	ld	-45 (ix), #0x06
    00000B90 DD 36 D4 04      [19] 2587 	ld	-44 (ix), #0x04
    00000B94 DD 36 D5 00      [19] 2588 	ld	-43 (ix), #0x00
    00000B98 DD 36 D6 04      [19] 2589 	ld	-42 (ix), #0x04
    00000B9C DD 36 D7 06      [19] 2590 	ld	-41 (ix), #0x06
    00000BA0 DD 36 D8 04      [19] 2591 	ld	-40 (ix), #0x04
    00000BA4 DD 36 D9 02      [19] 2592 	ld	-39 (ix), #0x02
    00000BA8 DD 36 DA 04      [19] 2593 	ld	-38 (ix), #0x04
                                   2594 ;E:\Dropbox\FAUSTO\SVILUPPI\MSX\CODE\C\MSXgl\projects\soccerlg/soccerlg_s2_b1.c:587: const u8 DribbleAnimOffsets[] = {5, 4, 2, 0};
    00000BAC DD 36 DB 05      [19] 2595 	ld	-37 (ix), #0x05
    00000BB0 DD 36 DC 04      [19] 2596 	ld	-36 (ix), #0x04
    00000BB4 DD 36 DD 02      [19] 2597 	ld	-35 (ix), #0x02
    00000BB8 DD 36 DE 00      [19] 2598 	ld	-34 (ix), #0x00
                                   2599 ;E:\Dropbox\FAUSTO\SVILUPPI\MSX\CODE\C\MSXgl\projects\soccerlg/soccerlg_s2_b1.c:588: const u8 DribbleAnimOffsetsDiag[] = {3, 3, 1, 0};
    00000BBC DD 36 DF 03      [19] 2600 	ld	-33 (ix), #0x03
    00000BC0 DD 36 E0 03      [19] 2601 	ld	-32 (ix), #0x03
    00000BC4 DD 36 E1 01      [19] 2602 	ld	-31 (ix), #0x01
    00000BC8 DD 36 E2 00      [19] 2603 	ld	-30 (ix), #0x00
                                   2604 ;E:\Dropbox\FAUSTO\SVILUPPI\MSX\CODE\C\MSXgl\projects\soccerlg/soccerlg_s2_b1.c:592: const i8 BallAlignCorrectX[] = { 0, 0, 0, 0, 2, 0, -2, 0, 0 };
    00000BCC DD 36 E3 00      [19] 2605 	ld	-29 (ix), #0x00
    00000BD0 DD 36 E4 00      [19] 2606 	ld	-28 (ix), #0x00
    00000BD4 DD 36 E5 00      [19] 2607 	ld	-27 (ix), #0x00
    00000BD8 DD 36 E6 00      [19] 2608 	ld	-26 (ix), #0x00
    00000BDC DD 36 E7 02      [19] 2609 	ld	-25 (ix), #0x02
    00000BE0 DD 36 E8 00      [19] 2610 	ld	-24 (ix), #0x00
    00000BE4 DD 36 E9 FE      [19] 2611 	ld	-23 (ix), #0xfe
    00000BE8 DD 36 EA 00      [19] 2612 	ld	-22 (ix), #0x00
    00000BEC DD 36 EB 00      [19] 2613 	ld	-21 (ix), #0x00
                                   2614 ;E:\Dropbox\FAUSTO\SVILUPPI\MSX\CODE\C\MSXgl\projects\soccerlg/soccerlg_s2_b1.c:593: const i8 BallAlignCorrectY[] = { 0, 0, 0, 4, 2, 4, 2, 4, 0 };
    00000BF0 DD 36 EC 00      [19] 2615 	ld	-20 (ix), #0x00
    00000BF4 DD 36 ED 00      [19] 2616 	ld	-19 (ix), #0x00
    00000BF8 DD 36 EE 00      [19] 2617 	ld	-18 (ix), #0x00
    00000BFC DD 36 EF 04      [19] 2618 	ld	-17 (ix), #0x04
    00000C00 DD 36 F0 02      [19] 2619 	ld	-16 (ix), #0x02
    00000C04 DD 36 F1 04      [19] 2620 	ld	-15 (ix), #0x04
    00000C08 DD 36 F2 02      [19] 2621 	ld	-14 (ix), #0x02
    00000C0C DD 36 F3 04      [19] 2622 	ld	-13 (ix), #0x04
    00000C10 DD 36 F4 00      [19] 2623 	ld	-12 (ix), #0x00
                                   2624 ;E:\Dropbox\FAUSTO\SVILUPPI\MSX\CODE\C\MSXgl\projects\soccerlg/soccerlg_s2_b1.c:595: u8 dir = g_Players[playerId].Direction;
    00000C14 21r00r00         [10] 2625 	ld	hl, #_g_Players
    00000C17 19               [11] 2626 	add	hl, de
    00000C18 DD 75 F5         [19] 2627 	ld	-11 (ix), l
    00000C1B DD 74 F6         [19] 2628 	ld	-10 (ix), h
    00000C1E 11 0A 00         [10] 2629 	ld	de, #10
    00000C21 19               [11] 2630 	add	hl, de
    00000C22 7E               [ 7] 2631 	ld	a, (hl)
                                   2632 ;E:\Dropbox\FAUSTO\SVILUPPI\MSX\CODE\C\MSXgl\projects\soccerlg/soccerlg_s2_b1.c:596: if(dir == DIRECTION_NONE) dir = g_Players[playerId].PreviousDirection; // Fallback se fermo
    00000C23 DD 77 F7         [19] 2633 	ld	-9 (ix), a
    00000C26 B7               [ 4] 2634 	or	a, a
    00000C27 20 0E            [12] 2635 	jr	NZ, 00106$
    00000C29 DD 5E F5         [19] 2636 	ld	e, -11 (ix)
    00000C2C DD 56 F6         [19] 2637 	ld	d, -10 (ix)
    00000C2F 21 0B 00         [10] 2638 	ld	hl, #11
    00000C32 19               [11] 2639 	add	hl, de
    00000C33 7E               [ 7] 2640 	ld	a, (hl)
    00000C34 DD 77 F7         [19] 2641 	ld	-9 (ix), a
    00000C37                       2642 00106$:
                                   2643 ;E:\Dropbox\FAUSTO\SVILUPPI\MSX\CODE\C\MSXgl\projects\soccerlg/soccerlg_s2_b1.c:599: u8 calcDir = dir;
    00000C37 DD 7E F7         [19] 2644 	ld	a, -9 (ix)
    00000C3A DD 77 F8         [19] 2645 	ld	-8 (ix), a
                                   2646 ;E:\Dropbox\FAUSTO\SVILUPPI\MSX\CODE\C\MSXgl\projects\soccerlg/soccerlg_s2_b1.c:601: if (g_Players[playerId].Role == PLAYER_ROLE_GOALKEEPER && (dir == DIRECTION_LEFT || dir == DIRECTION_RIGHT)) {
    00000C3D DD 5E F5         [19] 2647 	ld	e, -11 (ix)
    00000C40 DD 56 F6         [19] 2648 	ld	d, -10 (ix)
    00000C43 21 0D 00         [10] 2649 	ld	hl, #13
    00000C46 19               [11] 2650 	add	hl, de
    00000C47 7E               [ 7] 2651 	ld	a, (hl)
    00000C48 DD 77 F9         [19] 2652 	ld	-7 (ix), a
    00000C4B B7               [ 4] 2653 	or	a, a
    00000C4C 20 27            [12] 2654 	jr	NZ, 00111$
    00000C4E DD 7E F7         [19] 2655 	ld	a, -9 (ix)
    00000C51 D6 07            [ 7] 2656 	sub	a, #0x07
    00000C53 28 07            [12] 2657 	jr	Z, 00110$
    00000C55 DD 7E F7         [19] 2658 	ld	a, -9 (ix)
    00000C58 D6 03            [ 7] 2659 	sub	a, #0x03
    00000C5A 20 19            [12] 2660 	jr	NZ, 00111$
    00000C5C                       2661 00110$:
                                   2662 ;E:\Dropbox\FAUSTO\SVILUPPI\MSX\CODE\C\MSXgl\projects\soccerlg/soccerlg_s2_b1.c:603: if (g_Players[playerId].TeamId == TEAM_1) calcDir = DIRECTION_UP;
    00000C5C DD 5E F5         [19] 2663 	ld	e, -11 (ix)
    00000C5F DD 56 F6         [19] 2664 	ld	d, -10 (ix)
    00000C62 21 09 00         [10] 2665 	ld	hl, #9
    00000C65 19               [11] 2666 	add	hl, de
    00000C66 7E               [ 7] 2667 	ld	a, (hl)
    00000C67 3D               [ 4] 2668 	dec	a
    00000C68 20 07            [12] 2669 	jr	NZ, 00108$
    00000C6A DD 36 F8 01      [19] 2670 	ld	-8 (ix), #0x01
    00000C6E C3r75r0C         [10] 2671 	jp	00111$
    00000C71                       2672 00108$:
                                   2673 ;E:\Dropbox\FAUSTO\SVILUPPI\MSX\CODE\C\MSXgl\projects\soccerlg/soccerlg_s2_b1.c:604: else calcDir = DIRECTION_DOWN;
    00000C71 DD 36 F8 05      [19] 2674 	ld	-8 (ix), #0x05
    00000C75                       2675 00111$:
                                   2676 ;E:\Dropbox\FAUSTO\SVILUPPI\MSX\CODE\C\MSXgl\projects\soccerlg/soccerlg_s2_b1.c:608: u8 animStep = g_Ball.KickMoveState;
    00000C75 21r0Dr00         [10] 2677 	ld	hl, #_g_Ball + 13
    00000C78 5E               [ 7] 2678 	ld	e, (hl)
                                   2679 ;E:\Dropbox\FAUSTO\SVILUPPI\MSX\CODE\C\MSXgl\projects\soccerlg/soccerlg_s2_b1.c:609: if (animStep > 3) animStep = 4; // Default/Reset to 3 (Close) if NO_VALUE (255)
    00000C79 3E 03            [ 7] 2680 	ld	a, #0x03
    00000C7B 93               [ 4] 2681 	sub	a, e
    00000C7C 30 02            [12] 2682 	jr	NC, 00115$
    00000C7E 1E 04            [ 7] 2683 	ld	e, #0x04
    00000C80                       2684 00115$:
                                   2685 ;E:\Dropbox\FAUSTO\SVILUPPI\MSX\CODE\C\MSXgl\projects\soccerlg/soccerlg_s2_b1.c:611: u8 currentOffset = DribbleAnimOffsets[animStep];
    00000C80 D5               [11] 2686 	push	de
    00000C81 16 00            [ 7] 2687 	ld	d, #0x00
    00000C83 21 14 00         [10] 2688 	ld	hl, #20
    00000C86 39               [11] 2689 	add	hl, sp
    00000C87 19               [11] 2690 	add	hl, de
    00000C88 D1               [10] 2691 	pop	de
    00000C89 7E               [ 7] 2692 	ld	a, (hl)
    00000C8A DD 77 FA         [19] 2693 	ld	-6 (ix), a
                                   2694 ;E:\Dropbox\FAUSTO\SVILUPPI\MSX\CODE\C\MSXgl\projects\soccerlg/soccerlg_s2_b1.c:612: u8 currentOffsetDiag = DribbleAnimOffsetsDiag[animStep];
    00000C8D 16 00            [ 7] 2695 	ld	d, #0x00
    00000C8F 21 16 00         [10] 2696 	ld	hl, #22
    00000C92 39               [11] 2697 	add	hl, sp
    00000C93 19               [11] 2698 	add	hl, de
    00000C94 7E               [ 7] 2699 	ld	a, (hl)
    00000C95 DD 77 FB         [19] 2700 	ld	-5 (ix), a
                                   2701 ;E:\Dropbox\FAUSTO\SVILUPPI\MSX\CODE\C\MSXgl\projects\soccerlg/soccerlg_s2_b1.c:614: u8 distX = BallBaseDistX[calcDir] + ((calcDir==DIRECTION_UP || calcDir==DIRECTION_DOWN) ? 0 : (calcDir == DIRECTION_LEFT || calcDir == DIRECTION_RIGHT ? currentOffset : currentOffsetDiag));
    00000C98 DD 5E F8         [19] 2702 	ld	e, -8 (ix)
    00000C9B 16 00            [ 7] 2703 	ld	d, #0x00
    00000C9D 21 00 00         [10] 2704 	ld	hl, #0
    00000CA0 39               [11] 2705 	add	hl, sp
    00000CA1 19               [11] 2706 	add	hl, de
    00000CA2 5E               [ 7] 2707 	ld	e, (hl)
    00000CA3 DD 7E F8         [19] 2708 	ld	a, -8 (ix)
    00000CA6 3D               [ 4] 2709 	dec	a
    00000CA7 3E 01            [ 7] 2710 	ld	a, #0x01
    00000CA9 28 01            [12] 2711 	jr	Z, 00232$
    00000CAB AF               [ 4] 2712 	xor	a, a
    00000CAC                       2713 00232$:
    00000CAC DD 77 FC         [19] 2714 	ld	-4 (ix), a
    00000CAF DD 7E F8         [19] 2715 	ld	a, -8 (ix)
    00000CB2 D6 07            [ 7] 2716 	sub	a, #0x07
    00000CB4 3E 01            [ 7] 2717 	ld	a, #0x01
    00000CB6 28 01            [12] 2718 	jr	Z, 00234$
    00000CB8 AF               [ 4] 2719 	xor	a, a
    00000CB9                       2720 00234$:
    00000CB9 DD 77 FD         [19] 2721 	ld	-3 (ix), a
    00000CBC DD CB FC 46      [20] 2722 	bit	0, -4 (ix)
    00000CC0 20 07            [12] 2723 	jr	NZ, 00132$
    00000CC2 DD 7E F8         [19] 2724 	ld	a, -8 (ix)
    00000CC5 D6 05            [ 7] 2725 	sub	a, #0x05
    00000CC7 20 05            [12] 2726 	jr	NZ, 00129$
    00000CC9                       2727 00132$:
    00000CC9 AF               [ 4] 2728 	xor	a, a
    00000CCA 57               [ 4] 2729 	ld	d, a
    00000CCB C3rE6r0C         [10] 2730 	jp	00130$
    00000CCE                       2731 00129$:
    00000CCE DD CB FD 46      [20] 2732 	bit	0, -3 (ix)
    00000CD2 20 07            [12] 2733 	jr	NZ, 00137$
    00000CD4 DD 7E F8         [19] 2734 	ld	a, -8 (ix)
    00000CD7 D6 03            [ 7] 2735 	sub	a, #0x03
    00000CD9 20 06            [12] 2736 	jr	NZ, 00134$
    00000CDB                       2737 00137$:
    00000CDB DD 7E FA         [19] 2738 	ld	a, -6 (ix)
    00000CDE C3rE4r0C         [10] 2739 	jp	00135$
    00000CE1                       2740 00134$:
    00000CE1 DD 7E FB         [19] 2741 	ld	a, -5 (ix)
    00000CE4                       2742 00135$:
    00000CE4 16 00            [ 7] 2743 	ld	d, #0x00
    00000CE6                       2744 00130$:
    00000CE6 83               [ 4] 2745 	add	a, e
    00000CE7 DD 77 FE         [19] 2746 	ld	-2 (ix), a
                                   2747 ;E:\Dropbox\FAUSTO\SVILUPPI\MSX\CODE\C\MSXgl\projects\soccerlg/soccerlg_s2_b1.c:615: u8 distY = BallBaseDistY[calcDir] + ((calcDir==DIRECTION_LEFT || calcDir==DIRECTION_RIGHT) ? 0 : (calcDir == DIRECTION_UP || calcDir == DIRECTION_DOWN ? currentOffset : currentOffsetDiag));
    00000CEA DD 6E F8         [19] 2748 	ld	l, -8 (ix)
    00000CED 26 00            [ 7] 2749 	ld	h, #0x00
    00000CEF 09               [11] 2750 	add	hl, bc
    00000CF0 7E               [ 7] 2751 	ld	a, (hl)
    00000CF1 DD 77 FF         [19] 2752 	ld	-1 (ix), a
    00000CF4 DD CB FD 46      [20] 2753 	bit	0, -3 (ix)
    00000CF8 20 07            [12] 2754 	jr	NZ, 00142$
    00000CFA DD 7E F8         [19] 2755 	ld	a, -8 (ix)
    00000CFD D6 03            [ 7] 2756 	sub	a, #0x03
    00000CFF 20 0A            [12] 2757 	jr	NZ, 00139$
    00000D01                       2758 00142$:
    00000D01 AF               [ 4] 2759 	xor	a, a
    00000D02 DD 77 FC         [19] 2760 	ld	-4 (ix), a
    00000D05 DD 77 FD         [19] 2761 	ld	-3 (ix), a
    00000D08 C3r28r0D         [10] 2762 	jp	00140$
    00000D0B                       2763 00139$:
    00000D0B DD CB FC 46      [20] 2764 	bit	0, -4 (ix)
    00000D0F 20 07            [12] 2765 	jr	NZ, 00147$
    00000D11 DD 7E F8         [19] 2766 	ld	a, -8 (ix)
    00000D14 D6 05            [ 7] 2767 	sub	a, #0x05
    00000D16 20 06            [12] 2768 	jr	NZ, 00144$
    00000D18                       2769 00147$:
    00000D18 DD 7E FA         [19] 2770 	ld	a, -6 (ix)
    00000D1B C3r21r0D         [10] 2771 	jp	00145$
    00000D1E                       2772 00144$:
    00000D1E DD 7E FB         [19] 2773 	ld	a, -5 (ix)
    00000D21                       2774 00145$:
    00000D21 DD 77 FC         [19] 2775 	ld	-4 (ix), a
    00000D24 DD 36 FD 00      [19] 2776 	ld	-3 (ix), #0x00
    00000D28                       2777 00140$:
    00000D28 DD 7E FC         [19] 2778 	ld	a, -4 (ix)
    00000D2B DD 77 FD         [19] 2779 	ld	-3 (ix), a
    00000D2E DD 7E FF         [19] 2780 	ld	a, -1 (ix)
    00000D31 DD 86 FD         [19] 2781 	add	a, -3 (ix)
    00000D34 DD 77 FF         [19] 2782 	ld	-1 (ix), a
                                   2783 ;E:\Dropbox\FAUSTO\SVILUPPI\MSX\CODE\C\MSXgl\projects\soccerlg/soccerlg_s2_b1.c:618: if (g_Players[playerId].Role == PLAYER_ROLE_GOALKEEPER) {
    00000D37 DD 7E F9         [19] 2784 	ld	a, -7 (ix)
    00000D3A B7               [ 4] 2785 	or	a, a
    00000D3B 20 15            [12] 2786 	jr	NZ, 00117$
                                   2787 ;E:\Dropbox\FAUSTO\SVILUPPI\MSX\CODE\C\MSXgl\projects\soccerlg/soccerlg_s2_b1.c:619: distY = (distY > 2) ? (distY - 2) : distY; // bring ball 2px closer vertically
    00000D3D 3E 02            [ 7] 2788 	ld	a, #0x02
    00000D3F DD 96 FF         [19] 2789 	sub	a, -1 (ix)
    00000D42 30 08            [12] 2790 	jr	NC, 00149$
    00000D44 DD 7E FF         [19] 2791 	ld	a, -1 (ix)
    00000D47 3D               [ 4] 2792 	dec	a
    00000D48 3D               [ 4] 2793 	dec	a
    00000D49 C3r4Fr0D         [10] 2794 	jp	00150$
    00000D4C                       2795 00149$:
    00000D4C DD 7E FF         [19] 2796 	ld	a, -1 (ix)
    00000D4F                       2797 00150$:
    00000D4F DD 77 FF         [19] 2798 	ld	-1 (ix), a
    00000D52                       2799 00117$:
                                   2800 ;E:\Dropbox\FAUSTO\SVILUPPI\MSX\CODE\C\MSXgl\projects\soccerlg/soccerlg_s2_b1.c:624: switch (calcDir){
    00000D52 3E 08            [ 7] 2801 	ld	a, #0x08
    00000D54 DD 96 F8         [19] 2802 	sub	a, -8 (ix)
    00000D57 DArF8r0F         [10] 2803 	jp	C, 00126$
    00000D5A DD 4E F8         [19] 2804 	ld	c, -8 (ix)
    00000D5D 06 00            [ 7] 2805 	ld	b, #0x00
    00000D5F 21r66r0D         [10] 2806 	ld	hl, #00243$
    00000D62 09               [11] 2807 	add	hl, bc
    00000D63 09               [11] 2808 	add	hl, bc
    00000D64 09               [11] 2809 	add	hl, bc
    00000D65 E9               [ 4] 2810 	jp	(hl)
    00000D66                       2811 00243$:
    00000D66 C3rF8r0F         [10] 2812 	jp	00126$
    00000D69 C3r81r0D         [10] 2813 	jp	00118$
    00000D6C C3r02r0F         [10] 2814 	jp	00123$
    00000D6F C3r62r0E         [10] 2815 	jp	00121$
    00000D72 C3rAAr0F         [10] 2816 	jp	00125$
    00000D75 C3rCDr0D         [10] 2817 	jp	00119$
    00000D78 C3r56r0F         [10] 2818 	jp	00124$
    00000D7B C3r16r0E         [10] 2819 	jp	00120$
    00000D7E C3rABr0E         [10] 2820 	jp	00122$
                                   2821 ;E:\Dropbox\FAUSTO\SVILUPPI\MSX\CODE\C\MSXgl\projects\soccerlg/soccerlg_s2_b1.c:625: case DIRECTION_UP:
    00000D81                       2822 00118$:
                                   2823 ;E:\Dropbox\FAUSTO\SVILUPPI\MSX\CODE\C\MSXgl\projects\soccerlg/soccerlg_s2_b1.c:626: g_Ball.X=g_Players[playerId].X + BallAlignCorrectX[calcDir] + extraX;
    00000D81 DD 6E F5         [19] 2824 	ld	l, -11 (ix)
                                   2825 ;	spillPairReg hl
                                   2826 ;	spillPairReg hl
    00000D84 DD 66 F6         [19] 2827 	ld	h, -10 (ix)
                                   2828 ;	spillPairReg hl
                                   2829 ;	spillPairReg hl
    00000D87 23               [ 6] 2830 	inc	hl
    00000D88 23               [ 6] 2831 	inc	hl
    00000D89 4E               [ 7] 2832 	ld	c, (hl)
    00000D8A 23               [ 6] 2833 	inc	hl
    00000D8B 46               [ 7] 2834 	ld	b, (hl)
    00000D8C DD 5E F8         [19] 2835 	ld	e, -8 (ix)
    00000D8F 16 00            [ 7] 2836 	ld	d, #0x00
    00000D91 21 1A 00         [10] 2837 	ld	hl, #26
    00000D94 39               [11] 2838 	add	hl, sp
    00000D95 19               [11] 2839 	add	hl, de
    00000D96 7E               [ 7] 2840 	ld	a, (hl)
    00000D97 6F               [ 4] 2841 	ld	l, a
                                   2842 ;	spillPairReg hl
                                   2843 ;	spillPairReg hl
    00000D98 07               [ 4] 2844 	rlca
    00000D99 9F               [ 4] 2845 	sbc	a, a
    00000D9A 67               [ 4] 2846 	ld	h, a
                                   2847 ;	spillPairReg hl
                                   2848 ;	spillPairReg hl
    00000D9B 09               [11] 2849 	add	hl, bc
    00000D9C EB               [ 4] 2850 	ex	de, hl
    00000D9D ED 53r02r00      [20] 2851 	ld	((_g_Ball + 2)), de
                                   2852 ;E:\Dropbox\FAUSTO\SVILUPPI\MSX\CODE\C\MSXgl\projects\soccerlg/soccerlg_s2_b1.c:627: g_Ball.Y=g_Players[playerId].Y - distY + BallAlignCorrectY[calcDir];
    00000DA1 DD 6E F5         [19] 2853 	ld	l, -11 (ix)
    00000DA4 DD 66 F6         [19] 2854 	ld	h, -10 (ix)
    00000DA7 4E               [ 7] 2855 	ld	c, (hl)
    00000DA8 23               [ 6] 2856 	inc	hl
    00000DA9 46               [ 7] 2857 	ld	b, (hl)
    00000DAA DD 5E FF         [19] 2858 	ld	e, -1 (ix)
    00000DAD 16 00            [ 7] 2859 	ld	d, #0x00
    00000DAF 79               [ 4] 2860 	ld	a, c
    00000DB0 93               [ 4] 2861 	sub	a, e
    00000DB1 4F               [ 4] 2862 	ld	c, a
    00000DB2 78               [ 4] 2863 	ld	a, b
    00000DB3 9A               [ 4] 2864 	sbc	a, d
    00000DB4 47               [ 4] 2865 	ld	b, a
    00000DB5 DD 5E F8         [19] 2866 	ld	e, -8 (ix)
    00000DB8 16 00            [ 7] 2867 	ld	d, #0x00
    00000DBA 21 23 00         [10] 2868 	ld	hl, #35
    00000DBD 39               [11] 2869 	add	hl, sp
    00000DBE 19               [11] 2870 	add	hl, de
    00000DBF 7E               [ 7] 2871 	ld	a, (hl)
    00000DC0 6F               [ 4] 2872 	ld	l, a
                                   2873 ;	spillPairReg hl
                                   2874 ;	spillPairReg hl
    00000DC1 07               [ 4] 2875 	rlca
    00000DC2 9F               [ 4] 2876 	sbc	a, a
    00000DC3 67               [ 4] 2877 	ld	h, a
                                   2878 ;	spillPairReg hl
                                   2879 ;	spillPairReg hl
    00000DC4 09               [11] 2880 	add	hl, bc
    00000DC5 EB               [ 4] 2881 	ex	de, hl
    00000DC6 ED 53r00r00      [20] 2882 	ld	(_g_Ball), de
                                   2883 ;E:\Dropbox\FAUSTO\SVILUPPI\MSX\CODE\C\MSXgl\projects\soccerlg/soccerlg_s2_b1.c:628: break;
    00000DCA C3rF8r0F         [10] 2884 	jp	00126$
                                   2885 ;E:\Dropbox\FAUSTO\SVILUPPI\MSX\CODE\C\MSXgl\projects\soccerlg/soccerlg_s2_b1.c:629: case DIRECTION_DOWN:
    00000DCD                       2886 00119$:
                                   2887 ;E:\Dropbox\FAUSTO\SVILUPPI\MSX\CODE\C\MSXgl\projects\soccerlg/soccerlg_s2_b1.c:630: g_Ball.X=g_Players[playerId].X + BallAlignCorrectX[calcDir];
    00000DCD DD 6E F5         [19] 2888 	ld	l, -11 (ix)
                                   2889 ;	spillPairReg hl
                                   2890 ;	spillPairReg hl
    00000DD0 DD 66 F6         [19] 2891 	ld	h, -10 (ix)
                                   2892 ;	spillPairReg hl
                                   2893 ;	spillPairReg hl
    00000DD3 23               [ 6] 2894 	inc	hl
    00000DD4 23               [ 6] 2895 	inc	hl
    00000DD5 4E               [ 7] 2896 	ld	c, (hl)
    00000DD6 23               [ 6] 2897 	inc	hl
    00000DD7 46               [ 7] 2898 	ld	b, (hl)
    00000DD8 DD 5E F8         [19] 2899 	ld	e, -8 (ix)
    00000DDB 16 00            [ 7] 2900 	ld	d, #0x00
    00000DDD 21 1A 00         [10] 2901 	ld	hl, #26
    00000DE0 39               [11] 2902 	add	hl, sp
    00000DE1 19               [11] 2903 	add	hl, de
    00000DE2 7E               [ 7] 2904 	ld	a, (hl)
    00000DE3 6F               [ 4] 2905 	ld	l, a
                                   2906 ;	spillPairReg hl
                                   2907 ;	spillPairReg hl
    00000DE4 07               [ 4] 2908 	rlca
    00000DE5 9F               [ 4] 2909 	sbc	a, a
    00000DE6 67               [ 4] 2910 	ld	h, a
                                   2911 ;	spillPairReg hl
                                   2912 ;	spillPairReg hl
    00000DE7 09               [11] 2913 	add	hl, bc
    00000DE8 EB               [ 4] 2914 	ex	de, hl
    00000DE9 ED 53r02r00      [20] 2915 	ld	((_g_Ball + 2)), de
                                   2916 ;E:\Dropbox\FAUSTO\SVILUPPI\MSX\CODE\C\MSXgl\projects\soccerlg/soccerlg_s2_b1.c:631: g_Ball.Y=g_Players[playerId].Y + distY + BallAlignCorrectY[calcDir];
    00000DED DD 6E F5         [19] 2917 	ld	l, -11 (ix)
    00000DF0 DD 66 F6         [19] 2918 	ld	h, -10 (ix)
    00000DF3 4E               [ 7] 2919 	ld	c, (hl)
    00000DF4 23               [ 6] 2920 	inc	hl
    00000DF5 46               [ 7] 2921 	ld	b, (hl)
    00000DF6 DD 6E FF         [19] 2922 	ld	l, -1 (ix)
                                   2923 ;	spillPairReg hl
                                   2924 ;	spillPairReg hl
    00000DF9 26 00            [ 7] 2925 	ld	h, #0x00
                                   2926 ;	spillPairReg hl
                                   2927 ;	spillPairReg hl
    00000DFB 09               [11] 2928 	add	hl, bc
    00000DFC 4D               [ 4] 2929 	ld	c, l
    00000DFD 44               [ 4] 2930 	ld	b, h
    00000DFE DD 5E F8         [19] 2931 	ld	e, -8 (ix)
    00000E01 16 00            [ 7] 2932 	ld	d, #0x00
    00000E03 21 23 00         [10] 2933 	ld	hl, #35
    00000E06 39               [11] 2934 	add	hl, sp
    00000E07 19               [11] 2935 	add	hl, de
    00000E08 7E               [ 7] 2936 	ld	a, (hl)
    00000E09 6F               [ 4] 2937 	ld	l, a
                                   2938 ;	spillPairReg hl
                                   2939 ;	spillPairReg hl
    00000E0A 07               [ 4] 2940 	rlca
    00000E0B 9F               [ 4] 2941 	sbc	a, a
    00000E0C 67               [ 4] 2942 	ld	h, a
                                   2943 ;	spillPairReg hl
                                   2944 ;	spillPairReg hl
    00000E0D 09               [11] 2945 	add	hl, bc
    00000E0E EB               [ 4] 2946 	ex	de, hl
    00000E0F ED 53r00r00      [20] 2947 	ld	(_g_Ball), de
                                   2948 ;E:\Dropbox\FAUSTO\SVILUPPI\MSX\CODE\C\MSXgl\projects\soccerlg/soccerlg_s2_b1.c:632: break;
    00000E13 C3rF8r0F         [10] 2949 	jp	00126$
                                   2950 ;E:\Dropbox\FAUSTO\SVILUPPI\MSX\CODE\C\MSXgl\projects\soccerlg/soccerlg_s2_b1.c:633: case DIRECTION_LEFT:
    00000E16                       2951 00120$:
                                   2952 ;E:\Dropbox\FAUSTO\SVILUPPI\MSX\CODE\C\MSXgl\projects\soccerlg/soccerlg_s2_b1.c:634: g_Ball.X=g_Players[playerId].X - distX + BallAlignCorrectX[calcDir];
    00000E16 DD 6E F5         [19] 2953 	ld	l, -11 (ix)
                                   2954 ;	spillPairReg hl
                                   2955 ;	spillPairReg hl
    00000E19 DD 66 F6         [19] 2956 	ld	h, -10 (ix)
                                   2957 ;	spillPairReg hl
                                   2958 ;	spillPairReg hl
    00000E1C 23               [ 6] 2959 	inc	hl
    00000E1D 23               [ 6] 2960 	inc	hl
    00000E1E 4E               [ 7] 2961 	ld	c, (hl)
    00000E1F 23               [ 6] 2962 	inc	hl
    00000E20 46               [ 7] 2963 	ld	b, (hl)
    00000E21 DD 5E FE         [19] 2964 	ld	e, -2 (ix)
    00000E24 16 00            [ 7] 2965 	ld	d, #0x00
    00000E26 79               [ 4] 2966 	ld	a, c
    00000E27 93               [ 4] 2967 	sub	a, e
    00000E28 4F               [ 4] 2968 	ld	c, a
    00000E29 78               [ 4] 2969 	ld	a, b
    00000E2A 9A               [ 4] 2970 	sbc	a, d
    00000E2B 47               [ 4] 2971 	ld	b, a
    00000E2C DD 5E F8         [19] 2972 	ld	e, -8 (ix)
    00000E2F 16 00            [ 7] 2973 	ld	d, #0x00
    00000E31 21 1A 00         [10] 2974 	ld	hl, #26
    00000E34 39               [11] 2975 	add	hl, sp
    00000E35 19               [11] 2976 	add	hl, de
    00000E36 7E               [ 7] 2977 	ld	a, (hl)
    00000E37 6F               [ 4] 2978 	ld	l, a
                                   2979 ;	spillPairReg hl
                                   2980 ;	spillPairReg hl
    00000E38 07               [ 4] 2981 	rlca
    00000E39 9F               [ 4] 2982 	sbc	a, a
    00000E3A 67               [ 4] 2983 	ld	h, a
                                   2984 ;	spillPairReg hl
                                   2985 ;	spillPairReg hl
    00000E3B 09               [11] 2986 	add	hl, bc
    00000E3C EB               [ 4] 2987 	ex	de, hl
    00000E3D ED 53r02r00      [20] 2988 	ld	((_g_Ball + 2)), de
                                   2989 ;E:\Dropbox\FAUSTO\SVILUPPI\MSX\CODE\C\MSXgl\projects\soccerlg/soccerlg_s2_b1.c:635: g_Ball.Y=g_Players[playerId].Y + BallAlignCorrectY[calcDir];
    00000E41 DD 6E F5         [19] 2990 	ld	l, -11 (ix)
    00000E44 DD 66 F6         [19] 2991 	ld	h, -10 (ix)
    00000E47 4E               [ 7] 2992 	ld	c, (hl)
    00000E48 23               [ 6] 2993 	inc	hl
    00000E49 46               [ 7] 2994 	ld	b, (hl)
    00000E4A DD 5E F8         [19] 2995 	ld	e, -8 (ix)
    00000E4D 16 00            [ 7] 2996 	ld	d, #0x00
    00000E4F 21 23 00         [10] 2997 	ld	hl, #35
    00000E52 39               [11] 2998 	add	hl, sp
    00000E53 19               [11] 2999 	add	hl, de
    00000E54 7E               [ 7] 3000 	ld	a, (hl)
    00000E55 6F               [ 4] 3001 	ld	l, a
                                   3002 ;	spillPairReg hl
                                   3003 ;	spillPairReg hl
    00000E56 07               [ 4] 3004 	rlca
    00000E57 9F               [ 4] 3005 	sbc	a, a
    00000E58 67               [ 4] 3006 	ld	h, a
                                   3007 ;	spillPairReg hl
                                   3008 ;	spillPairReg hl
    00000E59 09               [11] 3009 	add	hl, bc
    00000E5A EB               [ 4] 3010 	ex	de, hl
    00000E5B ED 53r00r00      [20] 3011 	ld	(_g_Ball), de
                                   3012 ;E:\Dropbox\FAUSTO\SVILUPPI\MSX\CODE\C\MSXgl\projects\soccerlg/soccerlg_s2_b1.c:636: break;
    00000E5F C3rF8r0F         [10] 3013 	jp	00126$
                                   3014 ;E:\Dropbox\FAUSTO\SVILUPPI\MSX\CODE\C\MSXgl\projects\soccerlg/soccerlg_s2_b1.c:637: case DIRECTION_RIGHT:
    00000E62                       3015 00121$:
                                   3016 ;E:\Dropbox\FAUSTO\SVILUPPI\MSX\CODE\C\MSXgl\projects\soccerlg/soccerlg_s2_b1.c:638: g_Ball.X=g_Players[playerId].X + distX + BallAlignCorrectX[calcDir];
    00000E62 DD 6E F5         [19] 3017 	ld	l, -11 (ix)
                                   3018 ;	spillPairReg hl
                                   3019 ;	spillPairReg hl
    00000E65 DD 66 F6         [19] 3020 	ld	h, -10 (ix)
                                   3021 ;	spillPairReg hl
                                   3022 ;	spillPairReg hl
    00000E68 23               [ 6] 3023 	inc	hl
    00000E69 23               [ 6] 3024 	inc	hl
    00000E6A 4E               [ 7] 3025 	ld	c, (hl)
    00000E6B 23               [ 6] 3026 	inc	hl
    00000E6C 46               [ 7] 3027 	ld	b, (hl)
    00000E6D DD 6E FE         [19] 3028 	ld	l, -2 (ix)
                                   3029 ;	spillPairReg hl
                                   3030 ;	spillPairReg hl
    00000E70 26 00            [ 7] 3031 	ld	h, #0x00
                                   3032 ;	spillPairReg hl
                                   3033 ;	spillPairReg hl
    00000E72 09               [11] 3034 	add	hl, bc
    00000E73 4D               [ 4] 3035 	ld	c, l
    00000E74 44               [ 4] 3036 	ld	b, h
    00000E75 DD 5E F8         [19] 3037 	ld	e, -8 (ix)
    00000E78 16 00            [ 7] 3038 	ld	d, #0x00
    00000E7A 21 1A 00         [10] 3039 	ld	hl, #26
    00000E7D 39               [11] 3040 	add	hl, sp
    00000E7E 19               [11] 3041 	add	hl, de
    00000E7F 7E               [ 7] 3042 	ld	a, (hl)
    00000E80 6F               [ 4] 3043 	ld	l, a
                                   3044 ;	spillPairReg hl
                                   3045 ;	spillPairReg hl
    00000E81 07               [ 4] 3046 	rlca
    00000E82 9F               [ 4] 3047 	sbc	a, a
    00000E83 67               [ 4] 3048 	ld	h, a
                                   3049 ;	spillPairReg hl
                                   3050 ;	spillPairReg hl
    00000E84 09               [11] 3051 	add	hl, bc
    00000E85 EB               [ 4] 3052 	ex	de, hl
    00000E86 ED 53r02r00      [20] 3053 	ld	((_g_Ball + 2)), de
                                   3054 ;E:\Dropbox\FAUSTO\SVILUPPI\MSX\CODE\C\MSXgl\projects\soccerlg/soccerlg_s2_b1.c:639: g_Ball.Y=g_Players[playerId].Y + BallAlignCorrectY[calcDir];
    00000E8A DD 6E F5         [19] 3055 	ld	l, -11 (ix)
    00000E8D DD 66 F6         [19] 3056 	ld	h, -10 (ix)
    00000E90 4E               [ 7] 3057 	ld	c, (hl)
    00000E91 23               [ 6] 3058 	inc	hl
    00000E92 46               [ 7] 3059 	ld	b, (hl)
    00000E93 DD 5E F8         [19] 3060 	ld	e, -8 (ix)
    00000E96 16 00            [ 7] 3061 	ld	d, #0x00
    00000E98 21 23 00         [10] 3062 	ld	hl, #35
    00000E9B 39               [11] 3063 	add	hl, sp
    00000E9C 19               [11] 3064 	add	hl, de
    00000E9D 7E               [ 7] 3065 	ld	a, (hl)
    00000E9E 6F               [ 4] 3066 	ld	l, a
                                   3067 ;	spillPairReg hl
                                   3068 ;	spillPairReg hl
    00000E9F 07               [ 4] 3069 	rlca
    00000EA0 9F               [ 4] 3070 	sbc	a, a
    00000EA1 67               [ 4] 3071 	ld	h, a
                                   3072 ;	spillPairReg hl
                                   3073 ;	spillPairReg hl
    00000EA2 09               [11] 3074 	add	hl, bc
    00000EA3 EB               [ 4] 3075 	ex	de, hl
    00000EA4 ED 53r00r00      [20] 3076 	ld	(_g_Ball), de
                                   3077 ;E:\Dropbox\FAUSTO\SVILUPPI\MSX\CODE\C\MSXgl\projects\soccerlg/soccerlg_s2_b1.c:640: break;
    00000EA8 C3rF8r0F         [10] 3078 	jp	00126$
                                   3079 ;E:\Dropbox\FAUSTO\SVILUPPI\MSX\CODE\C\MSXgl\projects\soccerlg/soccerlg_s2_b1.c:641: case DIRECTION_UP_LEFT:
    00000EAB                       3080 00122$:
                                   3081 ;E:\Dropbox\FAUSTO\SVILUPPI\MSX\CODE\C\MSXgl\projects\soccerlg/soccerlg_s2_b1.c:642: g_Ball.X=g_Players[playerId].X - distX + BallAlignCorrectX[calcDir];
    00000EAB DD 6E F5         [19] 3082 	ld	l, -11 (ix)
                                   3083 ;	spillPairReg hl
                                   3084 ;	spillPairReg hl
    00000EAE DD 66 F6         [19] 3085 	ld	h, -10 (ix)
                                   3086 ;	spillPairReg hl
                                   3087 ;	spillPairReg hl
    00000EB1 23               [ 6] 3088 	inc	hl
    00000EB2 23               [ 6] 3089 	inc	hl
    00000EB3 4E               [ 7] 3090 	ld	c, (hl)
    00000EB4 23               [ 6] 3091 	inc	hl
    00000EB5 46               [ 7] 3092 	ld	b, (hl)
    00000EB6 DD 5E FE         [19] 3093 	ld	e, -2 (ix)
    00000EB9 16 00            [ 7] 3094 	ld	d, #0x00
    00000EBB 79               [ 4] 3095 	ld	a, c
    00000EBC 93               [ 4] 3096 	sub	a, e
    00000EBD 4F               [ 4] 3097 	ld	c, a
    00000EBE 78               [ 4] 3098 	ld	a, b
    00000EBF 9A               [ 4] 3099 	sbc	a, d
    00000EC0 47               [ 4] 3100 	ld	b, a
    00000EC1 DD 5E F8         [19] 3101 	ld	e, -8 (ix)
    00000EC4 16 00            [ 7] 3102 	ld	d, #0x00
    00000EC6 21 1A 00         [10] 3103 	ld	hl, #26
    00000EC9 39               [11] 3104 	add	hl, sp
    00000ECA 19               [11] 3105 	add	hl, de
    00000ECB 7E               [ 7] 3106 	ld	a, (hl)
    00000ECC 6F               [ 4] 3107 	ld	l, a
                                   3108 ;	spillPairReg hl
                                   3109 ;	spillPairReg hl
    00000ECD 07               [ 4] 3110 	rlca
    00000ECE 9F               [ 4] 3111 	sbc	a, a
    00000ECF 67               [ 4] 3112 	ld	h, a
                                   3113 ;	spillPairReg hl
                                   3114 ;	spillPairReg hl
    00000ED0 09               [11] 3115 	add	hl, bc
    00000ED1 EB               [ 4] 3116 	ex	de, hl
    00000ED2 ED 53r02r00      [20] 3117 	ld	((_g_Ball + 2)), de
                                   3118 ;E:\Dropbox\FAUSTO\SVILUPPI\MSX\CODE\C\MSXgl\projects\soccerlg/soccerlg_s2_b1.c:643: g_Ball.Y=g_Players[playerId].Y - distY + BallAlignCorrectY[calcDir];
    00000ED6 DD 6E F5         [19] 3119 	ld	l, -11 (ix)
    00000ED9 DD 66 F6         [19] 3120 	ld	h, -10 (ix)
    00000EDC 4E               [ 7] 3121 	ld	c, (hl)
    00000EDD 23               [ 6] 3122 	inc	hl
    00000EDE 46               [ 7] 3123 	ld	b, (hl)
    00000EDF DD 5E FF         [19] 3124 	ld	e, -1 (ix)
    00000EE2 16 00            [ 7] 3125 	ld	d, #0x00
    00000EE4 79               [ 4] 3126 	ld	a, c
    00000EE5 93               [ 4] 3127 	sub	a, e
    00000EE6 4F               [ 4] 3128 	ld	c, a
    00000EE7 78               [ 4] 3129 	ld	a, b
    00000EE8 9A               [ 4] 3130 	sbc	a, d
    00000EE9 47               [ 4] 3131 	ld	b, a
    00000EEA DD 5E F8         [19] 3132 	ld	e, -8 (ix)
    00000EED 16 00            [ 7] 3133 	ld	d, #0x00
    00000EEF 21 23 00         [10] 3134 	ld	hl, #35
    00000EF2 39               [11] 3135 	add	hl, sp
    00000EF3 19               [11] 3136 	add	hl, de
    00000EF4 7E               [ 7] 3137 	ld	a, (hl)
    00000EF5 6F               [ 4] 3138 	ld	l, a
                                   3139 ;	spillPairReg hl
                                   3140 ;	spillPairReg hl
    00000EF6 07               [ 4] 3141 	rlca
    00000EF7 9F               [ 4] 3142 	sbc	a, a
    00000EF8 67               [ 4] 3143 	ld	h, a
                                   3144 ;	spillPairReg hl
                                   3145 ;	spillPairReg hl
    00000EF9 09               [11] 3146 	add	hl, bc
    00000EFA EB               [ 4] 3147 	ex	de, hl
    00000EFB ED 53r00r00      [20] 3148 	ld	(_g_Ball), de
                                   3149 ;E:\Dropbox\FAUSTO\SVILUPPI\MSX\CODE\C\MSXgl\projects\soccerlg/soccerlg_s2_b1.c:644: break;
    00000EFF C3rF8r0F         [10] 3150 	jp	00126$
                                   3151 ;E:\Dropbox\FAUSTO\SVILUPPI\MSX\CODE\C\MSXgl\projects\soccerlg/soccerlg_s2_b1.c:645: case DIRECTION_UP_RIGHT:
    00000F02                       3152 00123$:
                                   3153 ;E:\Dropbox\FAUSTO\SVILUPPI\MSX\CODE\C\MSXgl\projects\soccerlg/soccerlg_s2_b1.c:646: g_Ball.X=g_Players[playerId].X + distX + BallAlignCorrectX[calcDir];
    00000F02 DD 6E F5         [19] 3154 	ld	l, -11 (ix)
                                   3155 ;	spillPairReg hl
                                   3156 ;	spillPairReg hl
    00000F05 DD 66 F6         [19] 3157 	ld	h, -10 (ix)
                                   3158 ;	spillPairReg hl
                                   3159 ;	spillPairReg hl
    00000F08 23               [ 6] 3160 	inc	hl
    00000F09 23               [ 6] 3161 	inc	hl
    00000F0A 4E               [ 7] 3162 	ld	c, (hl)
    00000F0B 23               [ 6] 3163 	inc	hl
    00000F0C 46               [ 7] 3164 	ld	b, (hl)
    00000F0D DD 6E FE         [19] 3165 	ld	l, -2 (ix)
                                   3166 ;	spillPairReg hl
                                   3167 ;	spillPairReg hl
    00000F10 26 00            [ 7] 3168 	ld	h, #0x00
                                   3169 ;	spillPairReg hl
                                   3170 ;	spillPairReg hl
    00000F12 09               [11] 3171 	add	hl, bc
    00000F13 4D               [ 4] 3172 	ld	c, l
    00000F14 44               [ 4] 3173 	ld	b, h
    00000F15 DD 5E F8         [19] 3174 	ld	e, -8 (ix)
    00000F18 16 00            [ 7] 3175 	ld	d, #0x00
    00000F1A 21 1A 00         [10] 3176 	ld	hl, #26
    00000F1D 39               [11] 3177 	add	hl, sp
    00000F1E 19               [11] 3178 	add	hl, de
    00000F1F 7E               [ 7] 3179 	ld	a, (hl)
    00000F20 6F               [ 4] 3180 	ld	l, a
                                   3181 ;	spillPairReg hl
                                   3182 ;	spillPairReg hl
    00000F21 07               [ 4] 3183 	rlca
    00000F22 9F               [ 4] 3184 	sbc	a, a
    00000F23 67               [ 4] 3185 	ld	h, a
                                   3186 ;	spillPairReg hl
                                   3187 ;	spillPairReg hl
    00000F24 09               [11] 3188 	add	hl, bc
    00000F25 EB               [ 4] 3189 	ex	de, hl
    00000F26 ED 53r02r00      [20] 3190 	ld	((_g_Ball + 2)), de
                                   3191 ;E:\Dropbox\FAUSTO\SVILUPPI\MSX\CODE\C\MSXgl\projects\soccerlg/soccerlg_s2_b1.c:647: g_Ball.Y=g_Players[playerId].Y - distY + BallAlignCorrectY[calcDir];
    00000F2A DD 6E F5         [19] 3192 	ld	l, -11 (ix)
    00000F2D DD 66 F6         [19] 3193 	ld	h, -10 (ix)
    00000F30 4E               [ 7] 3194 	ld	c, (hl)
    00000F31 23               [ 6] 3195 	inc	hl
    00000F32 46               [ 7] 3196 	ld	b, (hl)
    00000F33 DD 5E FF         [19] 3197 	ld	e, -1 (ix)
    00000F36 16 00            [ 7] 3198 	ld	d, #0x00
    00000F38 79               [ 4] 3199 	ld	a, c
    00000F39 93               [ 4] 3200 	sub	a, e
    00000F3A 4F               [ 4] 3201 	ld	c, a
    00000F3B 78               [ 4] 3202 	ld	a, b
    00000F3C 9A               [ 4] 3203 	sbc	a, d
    00000F3D 47               [ 4] 3204 	ld	b, a
    00000F3E DD 5E F8         [19] 3205 	ld	e, -8 (ix)
    00000F41 16 00            [ 7] 3206 	ld	d, #0x00
    00000F43 21 23 00         [10] 3207 	ld	hl, #35
    00000F46 39               [11] 3208 	add	hl, sp
    00000F47 19               [11] 3209 	add	hl, de
    00000F48 7E               [ 7] 3210 	ld	a, (hl)
    00000F49 6F               [ 4] 3211 	ld	l, a
                                   3212 ;	spillPairReg hl
                                   3213 ;	spillPairReg hl
    00000F4A 07               [ 4] 3214 	rlca
    00000F4B 9F               [ 4] 3215 	sbc	a, a
    00000F4C 67               [ 4] 3216 	ld	h, a
                                   3217 ;	spillPairReg hl
                                   3218 ;	spillPairReg hl
    00000F4D 09               [11] 3219 	add	hl, bc
    00000F4E EB               [ 4] 3220 	ex	de, hl
    00000F4F ED 53r00r00      [20] 3221 	ld	(_g_Ball), de
                                   3222 ;E:\Dropbox\FAUSTO\SVILUPPI\MSX\CODE\C\MSXgl\projects\soccerlg/soccerlg_s2_b1.c:648: break;
    00000F53 C3rF8r0F         [10] 3223 	jp	00126$
                                   3224 ;E:\Dropbox\FAUSTO\SVILUPPI\MSX\CODE\C\MSXgl\projects\soccerlg/soccerlg_s2_b1.c:649: case DIRECTION_DOWN_LEFT:
    00000F56                       3225 00124$:
                                   3226 ;E:\Dropbox\FAUSTO\SVILUPPI\MSX\CODE\C\MSXgl\projects\soccerlg/soccerlg_s2_b1.c:650: g_Ball.X=g_Players[playerId].X - distX + BallAlignCorrectX[calcDir];
    00000F56 DD 6E F5         [19] 3227 	ld	l, -11 (ix)
                                   3228 ;	spillPairReg hl
                                   3229 ;	spillPairReg hl
    00000F59 DD 66 F6         [19] 3230 	ld	h, -10 (ix)
                                   3231 ;	spillPairReg hl
                                   3232 ;	spillPairReg hl
    00000F5C 23               [ 6] 3233 	inc	hl
    00000F5D 23               [ 6] 3234 	inc	hl
    00000F5E 4E               [ 7] 3235 	ld	c, (hl)
    00000F5F 23               [ 6] 3236 	inc	hl
    00000F60 46               [ 7] 3237 	ld	b, (hl)
    00000F61 DD 5E FE         [19] 3238 	ld	e, -2 (ix)
    00000F64 16 00            [ 7] 3239 	ld	d, #0x00
    00000F66 79               [ 4] 3240 	ld	a, c
    00000F67 93               [ 4] 3241 	sub	a, e
    00000F68 4F               [ 4] 3242 	ld	c, a
    00000F69 78               [ 4] 3243 	ld	a, b
    00000F6A 9A               [ 4] 3244 	sbc	a, d
    00000F6B 47               [ 4] 3245 	ld	b, a
    00000F6C DD 5E F8         [19] 3246 	ld	e, -8 (ix)
    00000F6F 16 00            [ 7] 3247 	ld	d, #0x00
    00000F71 21 1A 00         [10] 3248 	ld	hl, #26
    00000F74 39               [11] 3249 	add	hl, sp
    00000F75 19               [11] 3250 	add	hl, de
    00000F76 7E               [ 7] 3251 	ld	a, (hl)
    00000F77 6F               [ 4] 3252 	ld	l, a
                                   3253 ;	spillPairReg hl
                                   3254 ;	spillPairReg hl
    00000F78 07               [ 4] 3255 	rlca
    00000F79 9F               [ 4] 3256 	sbc	a, a
    00000F7A 67               [ 4] 3257 	ld	h, a
                                   3258 ;	spillPairReg hl
                                   3259 ;	spillPairReg hl
    00000F7B 09               [11] 3260 	add	hl, bc
    00000F7C EB               [ 4] 3261 	ex	de, hl
    00000F7D ED 53r02r00      [20] 3262 	ld	((_g_Ball + 2)), de
                                   3263 ;E:\Dropbox\FAUSTO\SVILUPPI\MSX\CODE\C\MSXgl\projects\soccerlg/soccerlg_s2_b1.c:651: g_Ball.Y=g_Players[playerId].Y + distY + BallAlignCorrectY[calcDir];
    00000F81 DD 6E F5         [19] 3264 	ld	l, -11 (ix)
    00000F84 DD 66 F6         [19] 3265 	ld	h, -10 (ix)
    00000F87 4E               [ 7] 3266 	ld	c, (hl)
    00000F88 23               [ 6] 3267 	inc	hl
    00000F89 46               [ 7] 3268 	ld	b, (hl)
    00000F8A DD 6E FF         [19] 3269 	ld	l, -1 (ix)
                                   3270 ;	spillPairReg hl
                                   3271 ;	spillPairReg hl
    00000F8D 26 00            [ 7] 3272 	ld	h, #0x00
                                   3273 ;	spillPairReg hl
                                   3274 ;	spillPairReg hl
    00000F8F 09               [11] 3275 	add	hl, bc
    00000F90 4D               [ 4] 3276 	ld	c, l
    00000F91 44               [ 4] 3277 	ld	b, h
    00000F92 DD 5E F8         [19] 3278 	ld	e, -8 (ix)
    00000F95 16 00            [ 7] 3279 	ld	d, #0x00
    00000F97 21 23 00         [10] 3280 	ld	hl, #35
    00000F9A 39               [11] 3281 	add	hl, sp
    00000F9B 19               [11] 3282 	add	hl, de
    00000F9C 7E               [ 7] 3283 	ld	a, (hl)
    00000F9D 6F               [ 4] 3284 	ld	l, a
                                   3285 ;	spillPairReg hl
                                   3286 ;	spillPairReg hl
    00000F9E 07               [ 4] 3287 	rlca
    00000F9F 9F               [ 4] 3288 	sbc	a, a
    00000FA0 67               [ 4] 3289 	ld	h, a
                                   3290 ;	spillPairReg hl
                                   3291 ;	spillPairReg hl
    00000FA1 09               [11] 3292 	add	hl, bc
    00000FA2 EB               [ 4] 3293 	ex	de, hl
    00000FA3 ED 53r00r00      [20] 3294 	ld	(_g_Ball), de
                                   3295 ;E:\Dropbox\FAUSTO\SVILUPPI\MSX\CODE\C\MSXgl\projects\soccerlg/soccerlg_s2_b1.c:652: break;
    00000FA7 C3rF8r0F         [10] 3296 	jp	00126$
                                   3297 ;E:\Dropbox\FAUSTO\SVILUPPI\MSX\CODE\C\MSXgl\projects\soccerlg/soccerlg_s2_b1.c:653: case DIRECTION_DOWN_RIGHT:
    00000FAA                       3298 00125$:
                                   3299 ;E:\Dropbox\FAUSTO\SVILUPPI\MSX\CODE\C\MSXgl\projects\soccerlg/soccerlg_s2_b1.c:654: g_Ball.X=g_Players[playerId].X + distX + BallAlignCorrectX[calcDir];
    00000FAA DD 6E F5         [19] 3300 	ld	l, -11 (ix)
                                   3301 ;	spillPairReg hl
                                   3302 ;	spillPairReg hl
    00000FAD DD 66 F6         [19] 3303 	ld	h, -10 (ix)
                                   3304 ;	spillPairReg hl
                                   3305 ;	spillPairReg hl
    00000FB0 23               [ 6] 3306 	inc	hl
    00000FB1 23               [ 6] 3307 	inc	hl
    00000FB2 4E               [ 7] 3308 	ld	c, (hl)
    00000FB3 23               [ 6] 3309 	inc	hl
    00000FB4 46               [ 7] 3310 	ld	b, (hl)
    00000FB5 DD 6E FE         [19] 3311 	ld	l, -2 (ix)
                                   3312 ;	spillPairReg hl
                                   3313 ;	spillPairReg hl
    00000FB8 26 00            [ 7] 3314 	ld	h, #0x00
                                   3315 ;	spillPairReg hl
                                   3316 ;	spillPairReg hl
    00000FBA 09               [11] 3317 	add	hl, bc
    00000FBB 4D               [ 4] 3318 	ld	c, l
    00000FBC 44               [ 4] 3319 	ld	b, h
    00000FBD DD 5E F8         [19] 3320 	ld	e, -8 (ix)
    00000FC0 16 00            [ 7] 3321 	ld	d, #0x00
    00000FC2 21 1A 00         [10] 3322 	ld	hl, #26
    00000FC5 39               [11] 3323 	add	hl, sp
    00000FC6 19               [11] 3324 	add	hl, de
    00000FC7 7E               [ 7] 3325 	ld	a, (hl)
    00000FC8 6F               [ 4] 3326 	ld	l, a
                                   3327 ;	spillPairReg hl
                                   3328 ;	spillPairReg hl
    00000FC9 07               [ 4] 3329 	rlca
    00000FCA 9F               [ 4] 3330 	sbc	a, a
    00000FCB 67               [ 4] 3331 	ld	h, a
                                   3332 ;	spillPairReg hl
                                   3333 ;	spillPairReg hl
    00000FCC 09               [11] 3334 	add	hl, bc
    00000FCD EB               [ 4] 3335 	ex	de, hl
    00000FCE ED 53r02r00      [20] 3336 	ld	((_g_Ball + 2)), de
                                   3337 ;E:\Dropbox\FAUSTO\SVILUPPI\MSX\CODE\C\MSXgl\projects\soccerlg/soccerlg_s2_b1.c:655: g_Ball.Y=g_Players[playerId].Y + distY + BallAlignCorrectY[calcDir];
    00000FD2 DD 6E F5         [19] 3338 	ld	l, -11 (ix)
    00000FD5 DD 66 F6         [19] 3339 	ld	h, -10 (ix)
    00000FD8 4E               [ 7] 3340 	ld	c, (hl)
    00000FD9 23               [ 6] 3341 	inc	hl
    00000FDA 46               [ 7] 3342 	ld	b, (hl)
    00000FDB DD 6E FF         [19] 3343 	ld	l, -1 (ix)
                                   3344 ;	spillPairReg hl
                                   3345 ;	spillPairReg hl
    00000FDE 26 00            [ 7] 3346 	ld	h, #0x00
                                   3347 ;	spillPairReg hl
                                   3348 ;	spillPairReg hl
    00000FE0 09               [11] 3349 	add	hl, bc
    00000FE1 4D               [ 4] 3350 	ld	c, l
    00000FE2 44               [ 4] 3351 	ld	b, h
    00000FE3 DD 5E F8         [19] 3352 	ld	e, -8 (ix)
    00000FE6 16 00            [ 7] 3353 	ld	d, #0x00
    00000FE8 21 23 00         [10] 3354 	ld	hl, #35
    00000FEB 39               [11] 3355 	add	hl, sp
    00000FEC 19               [11] 3356 	add	hl, de
    00000FED 7E               [ 7] 3357 	ld	a, (hl)
    00000FEE 6F               [ 4] 3358 	ld	l, a
                                   3359 ;	spillPairReg hl
                                   3360 ;	spillPairReg hl
    00000FEF 07               [ 4] 3361 	rlca
    00000FF0 9F               [ 4] 3362 	sbc	a, a
    00000FF1 67               [ 4] 3363 	ld	h, a
                                   3364 ;	spillPairReg hl
                                   3365 ;	spillPairReg hl
    00000FF2 09               [11] 3366 	add	hl, bc
    00000FF3 EB               [ 4] 3367 	ex	de, hl
    00000FF4 ED 53r00r00      [20] 3368 	ld	(_g_Ball), de
                                   3369 ;E:\Dropbox\FAUSTO\SVILUPPI\MSX\CODE\C\MSXgl\projects\soccerlg/soccerlg_s2_b1.c:657: }
    00000FF8                       3370 00126$:
                                   3371 ;E:\Dropbox\FAUSTO\SVILUPPI\MSX\CODE\C\MSXgl\projects\soccerlg/soccerlg_s2_b1.c:658: g_Ball.Direction=dir;
    00000FF8 21r05r00         [10] 3372 	ld	hl, #(_g_Ball + 5)
    00000FFB DD 7E F7         [19] 3373 	ld	a, -9 (ix)
    00000FFE 77               [ 7] 3374 	ld	(hl), a
                                   3375 ;E:\Dropbox\FAUSTO\SVILUPPI\MSX\CODE\C\MSXgl\projects\soccerlg/soccerlg_s2_b1.c:659: }
    00000FFF DD F9            [10] 3376 	ld	sp, ix
    00001001 DD E1            [14] 3377 	pop	ix
    00001003 C9               [10] 3378 	ret
                                   3379 ;E:\Dropbox\FAUSTO\SVILUPPI\MSX\CODE\C\MSXgl\projects\soccerlg/soccerlg_s2_b1.c:662: void TickCornerKick() {
                                   3380 ;	---------------------------------
                                   3381 ; Function TickCornerKick
                                   3382 ; ---------------------------------
    00001004                       3383 _TickCornerKick::
    00001004 DD E5            [15] 3384 	push	ix
    00001006 DD 21 00 00      [14] 3385 	ld	ix,#0
    0000100A DD 39            [15] 3386 	add	ix,sp
    0000100C 21 E9 FF         [10] 3387 	ld	hl, #-23
    0000100F 39               [11] 3388 	add	hl, sp
    00001010 F9               [ 6] 3389 	ld	sp, hl
                                   3390 ;E:\Dropbox\FAUSTO\SVILUPPI\MSX\CODE\C\MSXgl\projects\soccerlg/soccerlg_s2_b1.c:663: if (g_MatchStatus != MATCH_BEFORE_CORNER_KICK) return;
    00001011 3Ar00r00         [13] 3391 	ld	a, (_g_MatchStatus+0)
    00001014 D6 02            [ 7] 3392 	sub	a, #0x02
    00001016 C2rE1r19         [10] 3393 	jp	NZ,00243$
                                   3394 ;E:\Dropbox\FAUSTO\SVILUPPI\MSX\CODE\C\MSXgl\projects\soccerlg/soccerlg_s2_b1.c:666: if (g_Timer == 0) s_ForceKickTimer = 0;
    00001019 3Ar00r00         [13] 3395 	ld	a, (_g_Timer+0)
    0000101C B7               [ 4] 3396 	or	a, a
    0000101D 20 06            [12] 3397 	jr	NZ, 00104$
    0000101F 21 00 00         [10] 3398 	ld	hl, #0x0000
    00001022 22r00r00         [16] 3399 	ld	(_TickCornerKick_s_ForceKickTimer_65537_1390), hl
    00001025                       3400 00104$:
                                   3401 ;E:\Dropbox\FAUSTO\SVILUPPI\MSX\CODE\C\MSXgl\projects\soccerlg/soccerlg_s2_b1.c:672: if (g_Ball.PossessionPlayerId != NO_VALUE) {
    00001025 3Ar06r00         [13] 3402 	ld	a, (#(_g_Ball + 6) + 0)
    00001028 FE FF            [ 7] 3403 	cp	a, #0xff
    0000102A 28 06            [12] 3404 	jr	Z, 00109$
                                   3405 ;E:\Dropbox\FAUSTO\SVILUPPI\MSX\CODE\C\MSXgl\projects\soccerlg/soccerlg_s2_b1.c:673: kickerId = g_Ball.PossessionPlayerId;
    0000102C DD 77 E9         [19] 3406 	ld	-23 (ix), a
    0000102F C3r51r10         [10] 3407 	jp	00110$
    00001032                       3408 00109$:
                                   3409 ;E:\Dropbox\FAUSTO\SVILUPPI\MSX\CODE\C\MSXgl\projects\soccerlg/soccerlg_s2_b1.c:675: if (g_CornerKickSide == CORNER_SIDE_LEFT) kickerId = GetPlayerIdByRole(g_RestartKickTeamId, PLAYER_ROLE_LEFT_STRIKER);
    00001032 3Ar00r00         [13] 3410 	ld	a, (_g_CornerKickSide+0)
    00001035 B7               [ 4] 3411 	or	a, a
    00001036 20 0E            [12] 3412 	jr	NZ, 00106$
    00001038 2E 05            [ 7] 3413 	ld	l, #0x05
                                   3414 ;	spillPairReg hl
                                   3415 ;	spillPairReg hl
    0000103A 3Ar00r00         [13] 3416 	ld	a, (_g_RestartKickTeamId+0)
    0000103D CDr49r09         [17] 3417 	call	_GetPlayerIdByRole
    00001040 DD 77 E9         [19] 3418 	ld	-23 (ix), a
    00001043 C3r51r10         [10] 3419 	jp	00110$
    00001046                       3420 00106$:
                                   3421 ;E:\Dropbox\FAUSTO\SVILUPPI\MSX\CODE\C\MSXgl\projects\soccerlg/soccerlg_s2_b1.c:676: else kickerId = GetPlayerIdByRole(g_RestartKickTeamId, PLAYER_ROLE_RIGHT_STRIKER);
    00001046 2E 06            [ 7] 3422 	ld	l, #0x06
                                   3423 ;	spillPairReg hl
                                   3424 ;	spillPairReg hl
    00001048 3Ar00r00         [13] 3425 	ld	a, (_g_RestartKickTeamId+0)
    0000104B CDr49r09         [17] 3426 	call	_GetPlayerIdByRole
    0000104E DD 77 E9         [19] 3427 	ld	-23 (ix), a
    00001051                       3428 00110$:
                                   3429 ;E:\Dropbox\FAUSTO\SVILUPPI\MSX\CODE\C\MSXgl\projects\soccerlg/soccerlg_s2_b1.c:680: if (kickerId == NO_VALUE) {
    00001051 DD 7E E9         [19] 3430 	ld	a, -23 (ix)
    00001054 3C               [ 4] 3431 	inc	a
    00001055 20 0B            [12] 3432 	jr	NZ, 00112$
                                   3433 ;E:\Dropbox\FAUSTO\SVILUPPI\MSX\CODE\C\MSXgl\projects\soccerlg/soccerlg_s2_b1.c:681: kickerId = GetClosestPlayerToBall(g_RestartKickTeamId, NO_VALUE);
    00001057 2E FF            [ 7] 3434 	ld	l, #0xff
                                   3435 ;	spillPairReg hl
                                   3436 ;	spillPairReg hl
    00001059 3Ar00r00         [13] 3437 	ld	a, (_g_RestartKickTeamId+0)
    0000105C CDrA4r09         [17] 3438 	call	_GetClosestPlayerToBall
    0000105F DD 77 E9         [19] 3439 	ld	-23 (ix), a
    00001062                       3440 00112$:
                                   3441 ;E:\Dropbox\FAUSTO\SVILUPPI\MSX\CODE\C\MSXgl\projects\soccerlg/soccerlg_s2_b1.c:689: bool kickerArrived = false;
    00001062 DD 36 EA 00      [19] 3442 	ld	-22 (ix), #0x00
                                   3443 ;E:\Dropbox\FAUSTO\SVILUPPI\MSX\CODE\C\MSXgl\projects\soccerlg/soccerlg_s2_b1.c:690: if (kickerId != NO_VALUE) {
    00001066 DD 7E E9         [19] 3444 	ld	a, -23 (ix)
    00001069 3C               [ 4] 3445 	inc	a
    0000106A 3E 01            [ 7] 3446 	ld	a, #0x01
    0000106C 28 01            [12] 3447 	jr	Z, 00701$
    0000106E AF               [ 4] 3448 	xor	a, a
    0000106F                       3449 00701$:
    0000106F DD 77 EB         [19] 3450 	ld	-21 (ix), a
    00001072 DD CB EB 46      [20] 3451 	bit	0, -21 (ix)
    00001076 C2rFFr11         [10] 3452 	jp	NZ, 00121$
                                   3453 ;E:\Dropbox\FAUSTO\SVILUPPI\MSX\CODE\C\MSXgl\projects\soccerlg/soccerlg_s2_b1.c:691: i16 dx = (i16)g_Players[kickerId].X - (i16)g_Players[kickerId].TargetX;
    00001079 DD 4E E9         [19] 3454 	ld	c, -23 (ix)
    0000107C 06 00            [ 7] 3455 	ld	b, #0x00
    0000107E 69               [ 4] 3456 	ld	l, c
    0000107F 60               [ 4] 3457 	ld	h, b
    00001080 29               [11] 3458 	add	hl, hl
    00001081 29               [11] 3459 	add	hl, hl
    00001082 09               [11] 3460 	add	hl, bc
    00001083 29               [11] 3461 	add	hl, hl
    00001084 29               [11] 3462 	add	hl, hl
    00001085 09               [11] 3463 	add	hl, bc
    00001086 DD 75 FE         [19] 3464 	ld	-2 (ix), l
    00001089 DD 74 FF         [19] 3465 	ld	-1 (ix), h
    0000108C 3Er00            [ 7] 3466 	ld	a, #<(_g_Players)
    0000108E DD 86 FE         [19] 3467 	add	a, -2 (ix)
    00001091 DD 77 F0         [19] 3468 	ld	-16 (ix), a
    00001094 3Es00            [ 7] 3469 	ld	a, #>(_g_Players)
    00001096 DD 8E FF         [19] 3470 	adc	a, -1 (ix)
    00001099 DD 77 F1         [19] 3471 	ld	-15 (ix), a
    0000109C DD 7E F0         [19] 3472 	ld	a, -16 (ix)
    0000109F C6 02            [ 7] 3473 	add	a, #0x02
    000010A1 DD 77 F2         [19] 3474 	ld	-14 (ix), a
    000010A4 DD 7E F1         [19] 3475 	ld	a, -15 (ix)
    000010A7 CE 00            [ 7] 3476 	adc	a, #0x00
    000010A9 DD 77 F3         [19] 3477 	ld	-13 (ix), a
    000010AC DD 6E F2         [19] 3478 	ld	l, -14 (ix)
    000010AF DD 66 F3         [19] 3479 	ld	h, -13 (ix)
    000010B2 7E               [ 7] 3480 	ld	a, (hl)
    000010B3 DD 77 FE         [19] 3481 	ld	-2 (ix), a
    000010B6 23               [ 6] 3482 	inc	hl
    000010B7 7E               [ 7] 3483 	ld	a, (hl)
    000010B8 DD 77 FF         [19] 3484 	ld	-1 (ix), a
    000010BB DD 7E FE         [19] 3485 	ld	a, -2 (ix)
    000010BE DD 77 FA         [19] 3486 	ld	-6 (ix), a
    000010C1 DD 7E FF         [19] 3487 	ld	a, -1 (ix)
    000010C4 DD 77 FB         [19] 3488 	ld	-5 (ix), a
    000010C7 DD 7E F0         [19] 3489 	ld	a, -16 (ix)
    000010CA DD 77 FE         [19] 3490 	ld	-2 (ix), a
    000010CD DD 7E F1         [19] 3491 	ld	a, -15 (ix)
    000010D0 DD 77 FF         [19] 3492 	ld	-1 (ix), a
    000010D3 DD 6E FE         [19] 3493 	ld	l, -2 (ix)
    000010D6 DD 66 FF         [19] 3494 	ld	h, -1 (ix)
    000010D9 11 10 00         [10] 3495 	ld	de, #0x0010
    000010DC 19               [11] 3496 	add	hl, de
    000010DD 7E               [ 7] 3497 	ld	a, (hl)
    000010DE DD 77 F4         [19] 3498 	ld	-12 (ix), a
    000010E1 23               [ 6] 3499 	inc	hl
    000010E2 7E               [ 7] 3500 	ld	a, (hl)
    000010E3 DD 77 F5         [19] 3501 	ld	-11 (ix), a
    000010E6 DD 7E F4         [19] 3502 	ld	a, -12 (ix)
    000010E9 DD 77 FC         [19] 3503 	ld	-4 (ix), a
    000010EC DD 7E F5         [19] 3504 	ld	a, -11 (ix)
    000010EF DD 77 FD         [19] 3505 	ld	-3 (ix), a
    000010F2 DD 7E FA         [19] 3506 	ld	a, -6 (ix)
    000010F5 DD 96 FC         [19] 3507 	sub	a, -4 (ix)
    000010F8 DD 77 FE         [19] 3508 	ld	-2 (ix), a
    000010FB DD 7E FB         [19] 3509 	ld	a, -5 (ix)
    000010FE DD 9E FD         [19] 3510 	sbc	a, -3 (ix)
    00001101 DD 77 FF         [19] 3511 	ld	-1 (ix), a
    00001104 DD 7E FE         [19] 3512 	ld	a, -2 (ix)
    00001107 DD 77 F6         [19] 3513 	ld	-10 (ix), a
    0000110A DD 7E FF         [19] 3514 	ld	a, -1 (ix)
    0000110D DD 77 F7         [19] 3515 	ld	-9 (ix), a
                                   3516 ;E:\Dropbox\FAUSTO\SVILUPPI\MSX\CODE\C\MSXgl\projects\soccerlg/soccerlg_s2_b1.c:692: i16 dy = (i16)g_Players[kickerId].Y - (i16)g_Players[kickerId].TargetY;
    00001110 DD 6E F0         [19] 3517 	ld	l, -16 (ix)
    00001113 DD 66 F1         [19] 3518 	ld	h, -15 (ix)
    00001116 7E               [ 7] 3519 	ld	a, (hl)
    00001117 DD 77 FE         [19] 3520 	ld	-2 (ix), a
    0000111A 23               [ 6] 3521 	inc	hl
    0000111B 7E               [ 7] 3522 	ld	a, (hl)
    0000111C DD 77 FF         [19] 3523 	ld	-1 (ix), a
    0000111F DD 7E FE         [19] 3524 	ld	a, -2 (ix)
    00001122 DD 77 F8         [19] 3525 	ld	-8 (ix), a
    00001125 DD 7E FF         [19] 3526 	ld	a, -1 (ix)
    00001128 DD 77 F9         [19] 3527 	ld	-7 (ix), a
    0000112B DD 7E F0         [19] 3528 	ld	a, -16 (ix)
    0000112E C6 0E            [ 7] 3529 	add	a, #0x0e
    00001130 DD 77 FA         [19] 3530 	ld	-6 (ix), a
    00001133 DD 7E F1         [19] 3531 	ld	a, -15 (ix)
    00001136 CE 00            [ 7] 3532 	adc	a, #0x00
    00001138 DD 77 FB         [19] 3533 	ld	-5 (ix), a
    0000113B DD 6E FA         [19] 3534 	ld	l, -6 (ix)
    0000113E DD 66 FB         [19] 3535 	ld	h, -5 (ix)
    00001141 7E               [ 7] 3536 	ld	a, (hl)
    00001142 DD 77 FE         [19] 3537 	ld	-2 (ix), a
    00001145 23               [ 6] 3538 	inc	hl
    00001146 7E               [ 7] 3539 	ld	a, (hl)
    00001147 DD 77 FF         [19] 3540 	ld	-1 (ix), a
    0000114A DD 7E FE         [19] 3541 	ld	a, -2 (ix)
    0000114D DD 77 FC         [19] 3542 	ld	-4 (ix), a
    00001150 DD 7E FF         [19] 3543 	ld	a, -1 (ix)
    00001153 DD 77 FD         [19] 3544 	ld	-3 (ix), a
    00001156 DD 7E F8         [19] 3545 	ld	a, -8 (ix)
    00001159 DD 96 FC         [19] 3546 	sub	a, -4 (ix)
    0000115C DD 77 FE         [19] 3547 	ld	-2 (ix), a
    0000115F DD 7E F9         [19] 3548 	ld	a, -7 (ix)
    00001162 DD 9E FD         [19] 3549 	sbc	a, -3 (ix)
    00001165 DD 77 FF         [19] 3550 	ld	-1 (ix), a
                                   3551 ;E:\Dropbox\FAUSTO\SVILUPPI\MSX\CODE\C\MSXgl\projects\soccerlg/soccerlg_s2_b1.c:694: if (dx >= -2 && dx <= 2 && dy >= -2 && dy <= 2) {
    00001168 DD 7E F6         [19] 3552 	ld	a, -10 (ix)
    0000116B D6 FE            [ 7] 3553 	sub	a, #0xfe
    0000116D DD 7E F7         [19] 3554 	ld	a, -9 (ix)
    00001170 17               [ 4] 3555 	rla
    00001171 3F               [ 4] 3556 	ccf
    00001172 1F               [ 4] 3557 	rra
    00001173 DE 7F            [ 7] 3558 	sbc	a, #0x7f
    00001175 DArFFr11         [10] 3559 	jp	C, 00121$
    00001178 DD 4E F6         [19] 3560 	ld	c, -10 (ix)
    0000117B DD 46 F7         [19] 3561 	ld	b, -9 (ix)
    0000117E 3E 02            [ 7] 3562 	ld	a, #0x02
    00001180 B9               [ 4] 3563 	cp	a, c
    00001181 3E 00            [ 7] 3564 	ld	a, #0x00
    00001183 98               [ 4] 3565 	sbc	a, b
    00001184 E2r89r11         [10] 3566 	jp	PO, 00702$
    00001187 EE 80            [ 7] 3567 	xor	a, #0x80
    00001189                       3568 00702$:
    00001189 FArFFr11         [10] 3569 	jp	M, 00121$
    0000118C DD 7E FE         [19] 3570 	ld	a, -2 (ix)
    0000118F D6 FE            [ 7] 3571 	sub	a, #0xfe
    00001191 DD 7E FF         [19] 3572 	ld	a, -1 (ix)
    00001194 17               [ 4] 3573 	rla
    00001195 3F               [ 4] 3574 	ccf
    00001196 1F               [ 4] 3575 	rra
    00001197 DE 7F            [ 7] 3576 	sbc	a, #0x7f
    00001199 38 64            [12] 3577 	jr	C, 00121$
    0000119B DD 4E FE         [19] 3578 	ld	c, -2 (ix)
    0000119E DD 46 FF         [19] 3579 	ld	b, -1 (ix)
    000011A1 3E 02            [ 7] 3580 	ld	a, #0x02
    000011A3 B9               [ 4] 3581 	cp	a, c
    000011A4 3E 00            [ 7] 3582 	ld	a, #0x00
    000011A6 98               [ 4] 3583 	sbc	a, b
    000011A7 E2rACr11         [10] 3584 	jp	PO, 00703$
    000011AA EE 80            [ 7] 3585 	xor	a, #0x80
    000011AC                       3586 00703$:
    000011AC FArFFr11         [10] 3587 	jp	M, 00121$
                                   3588 ;E:\Dropbox\FAUSTO\SVILUPPI\MSX\CODE\C\MSXgl\projects\soccerlg/soccerlg_s2_b1.c:695: kickerArrived = true;
    000011AF DD 36 EA 01      [19] 3589 	ld	-22 (ix), #0x01
                                   3590 ;E:\Dropbox\FAUSTO\SVILUPPI\MSX\CODE\C\MSXgl\projects\soccerlg/soccerlg_s2_b1.c:696: g_Players[kickerId].X = g_Players[kickerId].TargetX;
    000011B3 DD 6E F2         [19] 3591 	ld	l, -14 (ix)
    000011B6 DD 66 F3         [19] 3592 	ld	h, -13 (ix)
    000011B9 DD 7E F4         [19] 3593 	ld	a, -12 (ix)
    000011BC 77               [ 7] 3594 	ld	(hl), a
    000011BD 23               [ 6] 3595 	inc	hl
    000011BE DD 7E F5         [19] 3596 	ld	a, -11 (ix)
    000011C1 77               [ 7] 3597 	ld	(hl), a
                                   3598 ;E:\Dropbox\FAUSTO\SVILUPPI\MSX\CODE\C\MSXgl\projects\soccerlg/soccerlg_s2_b1.c:697: g_Players[kickerId].Y = g_Players[kickerId].TargetY;
    000011C2 DD 6E FA         [19] 3599 	ld	l, -6 (ix)
    000011C5 DD 66 FB         [19] 3600 	ld	h, -5 (ix)
    000011C8 4E               [ 7] 3601 	ld	c, (hl)
    000011C9 23               [ 6] 3602 	inc	hl
    000011CA 46               [ 7] 3603 	ld	b, (hl)
    000011CB DD 6E F0         [19] 3604 	ld	l, -16 (ix)
    000011CE DD 66 F1         [19] 3605 	ld	h, -15 (ix)
    000011D1 71               [ 7] 3606 	ld	(hl), c
    000011D2 23               [ 6] 3607 	inc	hl
    000011D3 70               [ 7] 3608 	ld	(hl), b
                                   3609 ;E:\Dropbox\FAUSTO\SVILUPPI\MSX\CODE\C\MSXgl\projects\soccerlg/soccerlg_s2_b1.c:698: g_Players[kickerId].Status = PLAYER_STATUS_POSITIONED;
    000011D4 DD 6E F0         [19] 3610 	ld	l, -16 (ix)
    000011D7 DD 66 F1         [19] 3611 	ld	h, -15 (ix)
    000011DA 11 12 00         [10] 3612 	ld	de, #0x0012
    000011DD 19               [11] 3613 	add	hl, de
    000011DE 36 04            [10] 3614 	ld	(hl), #0x04
    000011E0 23               [ 6] 3615 	inc	hl
    000011E1 36 00            [10] 3616 	ld	(hl), #0x00
                                   3617 ;E:\Dropbox\FAUSTO\SVILUPPI\MSX\CODE\C\MSXgl\projects\soccerlg/soccerlg_s2_b1.c:700: if (g_Ball.PossessionPlayerId != kickerId) {
    000011E3 21r06r00         [10] 3618 	ld	hl, #(_g_Ball + 6)
    000011E6 DD 7E E9         [19] 3619 	ld	a,-23 (ix)
    000011E9 96               [ 7] 3620 	sub	a,(hl)
    000011EA 28 13            [12] 3621 	jr	Z, 00121$
                                   3622 ;E:\Dropbox\FAUSTO\SVILUPPI\MSX\CODE\C\MSXgl\projects\soccerlg/soccerlg_s2_b1.c:701: SetPlayerBallPossession(kickerId);
    000011EC DD 7E E9         [19] 3623 	ld	a, -23 (ix)
    000011EF CDrC7r0A         [17] 3624 	call	_SetPlayerBallPossession
                                   3625 ;E:\Dropbox\FAUSTO\SVILUPPI\MSX\CODE\C\MSXgl\projects\soccerlg/soccerlg_s2_b1.c:702: g_Ball.PossessionPlayerId = kickerId;
    000011F2 21r06r00         [10] 3626 	ld	hl, #(_g_Ball + 6)
    000011F5 DD 7E E9         [19] 3627 	ld	a, -23 (ix)
    000011F8 77               [ 7] 3628 	ld	(hl), a
                                   3629 ;E:\Dropbox\FAUSTO\SVILUPPI\MSX\CODE\C\MSXgl\projects\soccerlg/soccerlg_s2_b1.c:703: PutBallOnPlayerFeet(kickerId);
    000011F9 DD 7E E9         [19] 3630 	ld	a, -23 (ix)
    000011FC CDr05r0B         [17] 3631 	call	_PutBallOnPlayerFeet
    000011FF                       3632 00121$:
                                   3633 ;E:\Dropbox\FAUSTO\SVILUPPI\MSX\CODE\C\MSXgl\projects\soccerlg/soccerlg_s2_b1.c:709: bool teammatesArrived = true;
    000011FF DD 36 EC 01      [19] 3634 	ld	-20 (ix), #0x01
                                   3635 ;E:\Dropbox\FAUSTO\SVILUPPI\MSX\CODE\C\MSXgl\projects\soccerlg/soccerlg_s2_b1.c:710: for(u8 i=0; i<14; i++) {
    00001203 DD 36 FF 00      [19] 3636 	ld	-1 (ix), #0x00
    00001207                       3637 00236$:
    00001207 DD 7E FF         [19] 3638 	ld	a, -1 (ix)
    0000120A D6 0E            [ 7] 3639 	sub	a, #0x0e
    0000120C D2rDEr13         [10] 3640 	jp	NC, 00134$
                                   3641 ;E:\Dropbox\FAUSTO\SVILUPPI\MSX\CODE\C\MSXgl\projects\soccerlg/soccerlg_s2_b1.c:711: if (g_Players[i].TeamId == g_RestartKickTeamId && i != kickerId && g_Players[i].Role != PLAYER_ROLE_GOALKEEPER) {
    0000120F DD 4E FF         [19] 3642 	ld	c, -1 (ix)
    00001212 06 00            [ 7] 3643 	ld	b, #0x00
    00001214 69               [ 4] 3644 	ld	l, c
    00001215 60               [ 4] 3645 	ld	h, b
    00001216 29               [11] 3646 	add	hl, hl
    00001217 29               [11] 3647 	add	hl, hl
    00001218 09               [11] 3648 	add	hl, bc
    00001219 29               [11] 3649 	add	hl, hl
    0000121A 29               [11] 3650 	add	hl, hl
    0000121B 09               [11] 3651 	add	hl, bc
    0000121C DD 75 FD         [19] 3652 	ld	-3 (ix), l
    0000121F DD 74 FE         [19] 3653 	ld	-2 (ix), h
    00001222 DD 7E FD         [19] 3654 	ld	a, -3 (ix)
    00001225 C6r00            [ 7] 3655 	add	a, #<(_g_Players)
    00001227 DD 77 ED         [19] 3656 	ld	-19 (ix), a
    0000122A DD 7E FE         [19] 3657 	ld	a, -2 (ix)
    0000122D CEs00            [ 7] 3658 	adc	a, #>(_g_Players)
    0000122F DD 77 EE         [19] 3659 	ld	-18 (ix), a
    00001232 DD 7E ED         [19] 3660 	ld	a, -19 (ix)
    00001235 DD 77 FD         [19] 3661 	ld	-3 (ix), a
    00001238 DD 7E EE         [19] 3662 	ld	a, -18 (ix)
    0000123B DD 77 FE         [19] 3663 	ld	-2 (ix), a
    0000123E DD 6E FD         [19] 3664 	ld	l, -3 (ix)
    00001241 DD 66 FE         [19] 3665 	ld	h, -2 (ix)
    00001244 11 09 00         [10] 3666 	ld	de, #0x0009
    00001247 19               [11] 3667 	add	hl, de
    00001248 4E               [ 7] 3668 	ld	c, (hl)
    00001249 3Ar00r00         [13] 3669 	ld	a, (_g_RestartKickTeamId+0)
    0000124C 91               [ 4] 3670 	sub	a, c
    0000124D C2rD8r13         [10] 3671 	jp	NZ,00237$
    00001250 DD 7E FF         [19] 3672 	ld	a, -1 (ix)
    00001253 DD 96 E9         [19] 3673 	sub	a, -23 (ix)
    00001256 CArD8r13         [10] 3674 	jp	Z,00237$
    00001259 DD 7E ED         [19] 3675 	ld	a, -19 (ix)
    0000125C DD 77 FD         [19] 3676 	ld	-3 (ix), a
    0000125F DD 7E EE         [19] 3677 	ld	a, -18 (ix)
    00001262 DD 77 FE         [19] 3678 	ld	-2 (ix), a
    00001265 DD 6E FD         [19] 3679 	ld	l, -3 (ix)
    00001268 DD 66 FE         [19] 3680 	ld	h, -2 (ix)
    0000126B 11 0D 00         [10] 3681 	ld	de, #0x000d
    0000126E 19               [11] 3682 	add	hl, de
    0000126F 7E               [ 7] 3683 	ld	a, (hl)
    00001270 DD 77 FE         [19] 3684 	ld	-2 (ix), a
    00001273 B7               [ 4] 3685 	or	a, a
    00001274 CArD8r13         [10] 3686 	jp	Z, 00237$
                                   3687 ;E:\Dropbox\FAUSTO\SVILUPPI\MSX\CODE\C\MSXgl\projects\soccerlg/soccerlg_s2_b1.c:713: if (g_Players[i].Status != PLAYER_STATUS_POSITIONED) {
    00001277 DD 7E ED         [19] 3688 	ld	a, -19 (ix)
    0000127A C6 12            [ 7] 3689 	add	a, #0x12
    0000127C DD 77 EF         [19] 3690 	ld	-17 (ix), a
    0000127F DD 7E EE         [19] 3691 	ld	a, -18 (ix)
    00001282 CE 00            [ 7] 3692 	adc	a, #0x00
    00001284 DD 77 F0         [19] 3693 	ld	-16 (ix), a
    00001287 DD 6E EF         [19] 3694 	ld	l, -17 (ix)
    0000128A DD 66 F0         [19] 3695 	ld	h, -16 (ix)
    0000128D 7E               [ 7] 3696 	ld	a, (hl)
    0000128E DD 77 FD         [19] 3697 	ld	-3 (ix), a
    00001291 23               [ 6] 3698 	inc	hl
    00001292 7E               [ 7] 3699 	ld	a, (hl)
    00001293 DD 77 FE         [19] 3700 	ld	-2 (ix), a
    00001296 DD 7E FD         [19] 3701 	ld	a, -3 (ix)
    00001299 D6 04            [ 7] 3702 	sub	a, #0x04
    0000129B DD B6 FE         [19] 3703 	or	a, -2 (ix)
    0000129E CArD8r13         [10] 3704 	jp	Z,00237$
                                   3705 ;E:\Dropbox\FAUSTO\SVILUPPI\MSX\CODE\C\MSXgl\projects\soccerlg/soccerlg_s2_b1.c:714: i16 dx = (i16)g_Players[i].X - (i16)g_Players[i].TargetX;
    000012A1 DD 7E ED         [19] 3706 	ld	a, -19 (ix)
    000012A4 C6 02            [ 7] 3707 	add	a, #0x02
    000012A6 DD 77 F1         [19] 3708 	ld	-15 (ix), a
    000012A9 DD 7E EE         [19] 3709 	ld	a, -18 (ix)
    000012AC CE 00            [ 7] 3710 	adc	a, #0x00
    000012AE DD 77 F2         [19] 3711 	ld	-14 (ix), a
    000012B1 DD 6E F1         [19] 3712 	ld	l, -15 (ix)
    000012B4 DD 66 F2         [19] 3713 	ld	h, -14 (ix)
    000012B7 7E               [ 7] 3714 	ld	a, (hl)
    000012B8 DD 77 FD         [19] 3715 	ld	-3 (ix), a
    000012BB 23               [ 6] 3716 	inc	hl
    000012BC 7E               [ 7] 3717 	ld	a, (hl)
    000012BD DD 77 FE         [19] 3718 	ld	-2 (ix), a
    000012C0 DD 7E FD         [19] 3719 	ld	a, -3 (ix)
    000012C3 DD 77 FB         [19] 3720 	ld	-5 (ix), a
    000012C6 DD 7E FE         [19] 3721 	ld	a, -2 (ix)
    000012C9 DD 77 FC         [19] 3722 	ld	-4 (ix), a
    000012CC DD 7E ED         [19] 3723 	ld	a, -19 (ix)
    000012CF DD 77 FD         [19] 3724 	ld	-3 (ix), a
    000012D2 DD 7E EE         [19] 3725 	ld	a, -18 (ix)
    000012D5 DD 77 FE         [19] 3726 	ld	-2 (ix), a
    000012D8 DD 6E FD         [19] 3727 	ld	l, -3 (ix)
    000012DB DD 66 FE         [19] 3728 	ld	h, -2 (ix)
    000012DE 11 10 00         [10] 3729 	ld	de, #0x0010
    000012E1 19               [11] 3730 	add	hl, de
    000012E2 7E               [ 7] 3731 	ld	a, (hl)
    000012E3 DD 77 F3         [19] 3732 	ld	-13 (ix), a
    000012E6 23               [ 6] 3733 	inc	hl
    000012E7 7E               [ 7] 3734 	ld	a, (hl)
    000012E8 DD 77 F4         [19] 3735 	ld	-12 (ix), a
    000012EB DD 6E F3         [19] 3736 	ld	l, -13 (ix)
                                   3737 ;	spillPairReg hl
                                   3738 ;	spillPairReg hl
    000012EE DD 66 F4         [19] 3739 	ld	h, -12 (ix)
                                   3740 ;	spillPairReg hl
                                   3741 ;	spillPairReg hl
    000012F1 DD 7E FB         [19] 3742 	ld	a, -5 (ix)
    000012F4 95               [ 4] 3743 	sub	a, l
    000012F5 DD 77 FD         [19] 3744 	ld	-3 (ix), a
    000012F8 DD 7E FC         [19] 3745 	ld	a, -4 (ix)
    000012FB 9C               [ 4] 3746 	sbc	a, h
    000012FC DD 77 FE         [19] 3747 	ld	-2 (ix), a
    000012FF DD 7E FD         [19] 3748 	ld	a, -3 (ix)
    00001302 DD 77 F5         [19] 3749 	ld	-11 (ix), a
    00001305 DD 7E FE         [19] 3750 	ld	a, -2 (ix)
    00001308 DD 77 F6         [19] 3751 	ld	-10 (ix), a
                                   3752 ;E:\Dropbox\FAUSTO\SVILUPPI\MSX\CODE\C\MSXgl\projects\soccerlg/soccerlg_s2_b1.c:715: i16 dy = (i16)g_Players[i].Y - (i16)g_Players[i].TargetY;
    0000130B DD 6E ED         [19] 3753 	ld	l, -19 (ix)
    0000130E DD 66 EE         [19] 3754 	ld	h, -18 (ix)
    00001311 7E               [ 7] 3755 	ld	a, (hl)
    00001312 DD 77 FD         [19] 3756 	ld	-3 (ix), a
    00001315 23               [ 6] 3757 	inc	hl
    00001316 7E               [ 7] 3758 	ld	a, (hl)
    00001317 DD 77 FE         [19] 3759 	ld	-2 (ix), a
    0000131A DD 7E FD         [19] 3760 	ld	a, -3 (ix)
    0000131D DD 77 F7         [19] 3761 	ld	-9 (ix), a
    00001320 DD 7E FE         [19] 3762 	ld	a, -2 (ix)
    00001323 DD 77 F8         [19] 3763 	ld	-8 (ix), a
    00001326 DD 7E ED         [19] 3764 	ld	a, -19 (ix)
    00001329 C6 0E            [ 7] 3765 	add	a, #0x0e
    0000132B DD 77 F9         [19] 3766 	ld	-7 (ix), a
    0000132E DD 7E EE         [19] 3767 	ld	a, -18 (ix)
    00001331 CE 00            [ 7] 3768 	adc	a, #0x00
    00001333 DD 77 FA         [19] 3769 	ld	-6 (ix), a
    00001336 DD 6E F9         [19] 3770 	ld	l, -7 (ix)
    00001339 DD 66 FA         [19] 3771 	ld	h, -6 (ix)
    0000133C 7E               [ 7] 3772 	ld	a, (hl)
    0000133D DD 77 FD         [19] 3773 	ld	-3 (ix), a
    00001340 23               [ 6] 3774 	inc	hl
    00001341 7E               [ 7] 3775 	ld	a, (hl)
    00001342 DD 77 FE         [19] 3776 	ld	-2 (ix), a
    00001345 DD 7E FD         [19] 3777 	ld	a, -3 (ix)
    00001348 DD 77 FB         [19] 3778 	ld	-5 (ix), a
    0000134B DD 7E FE         [19] 3779 	ld	a, -2 (ix)
    0000134E DD 77 FC         [19] 3780 	ld	-4 (ix), a
    00001351 DD 7E F7         [19] 3781 	ld	a, -9 (ix)
    00001354 DD 96 FB         [19] 3782 	sub	a, -5 (ix)
    00001357 DD 77 FD         [19] 3783 	ld	-3 (ix), a
    0000135A DD 7E F8         [19] 3784 	ld	a, -8 (ix)
    0000135D DD 9E FC         [19] 3785 	sbc	a, -4 (ix)
    00001360 DD 77 FE         [19] 3786 	ld	-2 (ix), a
    00001363 DD 4E FD         [19] 3787 	ld	c, -3 (ix)
    00001366 DD 46 FE         [19] 3788 	ld	b, -2 (ix)
                                   3789 ;E:\Dropbox\FAUSTO\SVILUPPI\MSX\CODE\C\MSXgl\projects\soccerlg/soccerlg_s2_b1.c:716: if (dx < -6 || dx > 6 || dy < -6 || dy > 6) {
    00001369 DD 7E F5         [19] 3790 	ld	a, -11 (ix)
    0000136C D6 FA            [ 7] 3791 	sub	a, #0xfa
    0000136E DD 7E F6         [19] 3792 	ld	a, -10 (ix)
    00001371 17               [ 4] 3793 	rla
    00001372 3F               [ 4] 3794 	ccf
    00001373 1F               [ 4] 3795 	rra
    00001374 DE 7F            [ 7] 3796 	sbc	a, #0x7f
    00001376 38 2D            [12] 3797 	jr	C, 00122$
    00001378 DD 5E F5         [19] 3798 	ld	e, -11 (ix)
    0000137B DD 56 F6         [19] 3799 	ld	d, -10 (ix)
    0000137E 3E 06            [ 7] 3800 	ld	a, #0x06
    00001380 BB               [ 4] 3801 	cp	a, e
    00001381 3E 00            [ 7] 3802 	ld	a, #0x00
    00001383 9A               [ 4] 3803 	sbc	a, d
    00001384 E2r89r13         [10] 3804 	jp	PO, 00709$
    00001387 EE 80            [ 7] 3805 	xor	a, #0x80
    00001389                       3806 00709$:
    00001389 FArA5r13         [10] 3807 	jp	M, 00122$
    0000138C 79               [ 4] 3808 	ld	a, c
    0000138D D6 FA            [ 7] 3809 	sub	a, #0xfa
    0000138F 78               [ 4] 3810 	ld	a, b
    00001390 17               [ 4] 3811 	rla
    00001391 3F               [ 4] 3812 	ccf
    00001392 1F               [ 4] 3813 	rra
    00001393 DE 7F            [ 7] 3814 	sbc	a, #0x7f
    00001395 38 0E            [12] 3815 	jr	C, 00122$
    00001397 3E 06            [ 7] 3816 	ld	a, #0x06
    00001399 B9               [ 4] 3817 	cp	a, c
    0000139A 3E 00            [ 7] 3818 	ld	a, #0x00
    0000139C 98               [ 4] 3819 	sbc	a, b
    0000139D E2rA2r13         [10] 3820 	jp	PO, 00710$
    000013A0 EE 80            [ 7] 3821 	xor	a, #0x80
    000013A2                       3822 00710$:
    000013A2 F2rACr13         [10] 3823 	jp	P, 00123$
    000013A5                       3824 00122$:
                                   3825 ;E:\Dropbox\FAUSTO\SVILUPPI\MSX\CODE\C\MSXgl\projects\soccerlg/soccerlg_s2_b1.c:717: teammatesArrived = false; // Someone is still far away
    000013A5 DD 36 EC 00      [19] 3826 	ld	-20 (ix), #0x00
    000013A9 C3rD8r13         [10] 3827 	jp	00237$
    000013AC                       3828 00123$:
                                   3829 ;E:\Dropbox\FAUSTO\SVILUPPI\MSX\CODE\C\MSXgl\projects\soccerlg/soccerlg_s2_b1.c:720: g_Players[i].X = g_Players[i].TargetX;
    000013AC DD 6E F1         [19] 3830 	ld	l, -15 (ix)
    000013AF DD 66 F2         [19] 3831 	ld	h, -14 (ix)
    000013B2 DD 7E F3         [19] 3832 	ld	a, -13 (ix)
    000013B5 77               [ 7] 3833 	ld	(hl), a
    000013B6 23               [ 6] 3834 	inc	hl
    000013B7 DD 7E F4         [19] 3835 	ld	a, -12 (ix)
    000013BA 77               [ 7] 3836 	ld	(hl), a
                                   3837 ;E:\Dropbox\FAUSTO\SVILUPPI\MSX\CODE\C\MSXgl\projects\soccerlg/soccerlg_s2_b1.c:721: g_Players[i].Y = g_Players[i].TargetY;
    000013BB DD 6E F9         [19] 3838 	ld	l, -7 (ix)
    000013BE DD 66 FA         [19] 3839 	ld	h, -6 (ix)
    000013C1 4E               [ 7] 3840 	ld	c, (hl)
    000013C2 23               [ 6] 3841 	inc	hl
    000013C3 46               [ 7] 3842 	ld	b, (hl)
    000013C4 DD 6E ED         [19] 3843 	ld	l, -19 (ix)
    000013C7 DD 66 EE         [19] 3844 	ld	h, -18 (ix)
    000013CA 71               [ 7] 3845 	ld	(hl), c
    000013CB 23               [ 6] 3846 	inc	hl
    000013CC 70               [ 7] 3847 	ld	(hl), b
                                   3848 ;E:\Dropbox\FAUSTO\SVILUPPI\MSX\CODE\C\MSXgl\projects\soccerlg/soccerlg_s2_b1.c:722: g_Players[i].Status = PLAYER_STATUS_POSITIONED;
    000013CD DD 6E EF         [19] 3849 	ld	l, -17 (ix)
    000013D0 DD 66 F0         [19] 3850 	ld	h, -16 (ix)
    000013D3 36 04            [10] 3851 	ld	(hl), #0x04
    000013D5 23               [ 6] 3852 	inc	hl
    000013D6 36 00            [10] 3853 	ld	(hl), #0x00
    000013D8                       3854 00237$:
                                   3855 ;E:\Dropbox\FAUSTO\SVILUPPI\MSX\CODE\C\MSXgl\projects\soccerlg/soccerlg_s2_b1.c:710: for(u8 i=0; i<14; i++) {
    000013D8 DD 34 FF         [23] 3856 	inc	-1 (ix)
    000013DB C3r07r12         [10] 3857 	jp	00236$
    000013DE                       3858 00134$:
                                   3859 ;E:\Dropbox\FAUSTO\SVILUPPI\MSX\CODE\C\MSXgl\projects\soccerlg/soccerlg_s2_b1.c:729: if (g_Timer < 180 || (kickerId != NO_VALUE && !kickerArrived) || !teammatesArrived) {
    000013DE 3Ar00r00         [13] 3860 	ld	a, (_g_Timer+0)
    000013E1 D6 B4            [ 7] 3861 	sub	a, #0xb4
    000013E3 3E 00            [ 7] 3862 	ld	a, #0x00
    000013E5 17               [ 4] 3863 	rla
    000013E6 4F               [ 4] 3864 	ld	c, a
    000013E7 B7               [ 4] 3865 	or	a, a
    000013E8 20 13            [12] 3866 	jr	NZ, 00165$
    000013EA DD CB EB 46      [20] 3867 	bit	0, -21 (ix)
    000013EE 20 06            [12] 3868 	jr	NZ, 00169$
    000013F0 DD 7E EA         [19] 3869 	ld	a, -22 (ix)
    000013F3 B7               [ 4] 3870 	or	a, a
    000013F4 28 07            [12] 3871 	jr	Z, 00165$
    000013F6                       3872 00169$:
    000013F6 DD 7E EC         [19] 3873 	ld	a, -20 (ix)
    000013F9 B7               [ 4] 3874 	or	a, a
    000013FA C2r18r16         [10] 3875 	jp	NZ, 00166$
    000013FD                       3876 00165$:
                                   3877 ;E:\Dropbox\FAUSTO\SVILUPPI\MSX\CODE\C\MSXgl\projects\soccerlg/soccerlg_s2_b1.c:730: if (g_Timer < 180) g_Timer++;
    000013FD 79               [ 4] 3878 	ld	a, c
    000013FE B7               [ 4] 3879 	or	a, a
    000013FF 28 04            [12] 3880 	jr	Z, 00317$
    00001401 21r00r00         [10] 3881 	ld	hl, #_g_Timer
    00001404 34               [11] 3882 	inc	(hl)
                                   3883 ;E:\Dropbox\FAUSTO\SVILUPPI\MSX\CODE\C\MSXgl\projects\soccerlg/soccerlg_s2_b1.c:733: for(u8 i=0; i<14; i++) {
    00001405                       3884 00317$:
    00001405 0E 00            [ 7] 3885 	ld	c, #0x00
    00001407                       3886 00239$:
    00001407 79               [ 4] 3887 	ld	a, c
    00001408 D6 0E            [ 7] 3888 	sub	a, #0x0e
    0000140A D2rE1r19         [10] 3889 	jp	NC,00243$
                                   3890 ;E:\Dropbox\FAUSTO\SVILUPPI\MSX\CODE\C\MSXgl\projects\soccerlg/soccerlg_s2_b1.c:735: if (i != kickerId && g_Players[i].Status != PLAYER_STATUS_POSITIONED && 
    0000140D DD 7E E9         [19] 3891 	ld	a, -23 (ix)
    00001410 91               [ 4] 3892 	sub	a, c
    00001411 3E 01            [ 7] 3893 	ld	a, #0x01
    00001413 28 01            [12] 3894 	jr	Z, 00712$
    00001415 AF               [ 4] 3895 	xor	a, a
    00001416                       3896 00712$:
    00001416 DD 77 FD         [19] 3897 	ld	-3 (ix), a
    00001419 DD CB FD 46      [20] 3898 	bit	0, -3 (ix)
    0000141D 20 55            [12] 3899 	jr	NZ, 00138$
    0000141F 06 00            [ 7] 3900 	ld	b, #0x00
    00001421 69               [ 4] 3901 	ld	l, c
    00001422 60               [ 4] 3902 	ld	h, b
    00001423 29               [11] 3903 	add	hl, hl
    00001424 29               [11] 3904 	add	hl, hl
    00001425 09               [11] 3905 	add	hl, bc
    00001426 29               [11] 3906 	add	hl, hl
    00001427 29               [11] 3907 	add	hl, hl
    00001428 09               [11] 3908 	add	hl, bc
    00001429 EB               [ 4] 3909 	ex	de, hl
    0000142A FD 21r00r00      [14] 3910 	ld	iy, #_g_Players
    0000142E FD 19            [15] 3911 	add	iy, de
    00001430 FD E5            [15] 3912 	push	iy
    00001432 D1               [10] 3913 	pop	de
    00001433 21 12 00         [10] 3914 	ld	hl, #18
    00001436 19               [11] 3915 	add	hl, de
    00001437 5E               [ 7] 3916 	ld	e, (hl)
    00001438 23               [ 6] 3917 	inc	hl
    00001439 56               [ 7] 3918 	ld	d, (hl)
    0000143A 7B               [ 4] 3919 	ld	a, e
    0000143B D6 04            [ 7] 3920 	sub	a, #0x04
    0000143D B2               [ 4] 3921 	or	a, d
    0000143E 28 34            [12] 3922 	jr	Z, 00138$
                                   3923 ;E:\Dropbox\FAUSTO\SVILUPPI\MSX\CODE\C\MSXgl\projects\soccerlg/soccerlg_s2_b1.c:736: !(g_Players[i].X == g_Players[i].TargetX && g_Players[i].Y == g_Players[i].TargetY)) continue;
    00001440 FD E5            [15] 3924 	push	iy
    00001442 E1               [10] 3925 	pop	hl
    00001443 23               [ 6] 3926 	inc	hl
    00001444 23               [ 6] 3927 	inc	hl
    00001445 5E               [ 7] 3928 	ld	e, (hl)
    00001446 23               [ 6] 3929 	inc	hl
    00001447 56               [ 7] 3930 	ld	d, (hl)
    00001448 FD E5            [15] 3931 	push	iy
    0000144A E1               [10] 3932 	pop	hl
    0000144B C5               [11] 3933 	push	bc
    0000144C 01 10 00         [10] 3934 	ld	bc, #0x0010
    0000144F 09               [11] 3935 	add	hl, bc
    00001450 C1               [10] 3936 	pop	bc
    00001451 46               [ 7] 3937 	ld	b, (hl)
    00001452 23               [ 6] 3938 	inc	hl
    00001453 66               [ 7] 3939 	ld	h, (hl)
                                   3940 ;	spillPairReg hl
    00001454 68               [ 4] 3941 	ld	l, b
    00001455 BF               [ 4] 3942 	cp	a, a
    00001456 ED 52            [15] 3943 	sbc	hl, de
    00001458 C2r14r16         [10] 3944 	jp	NZ,00163$
    0000145B FD 5E 00         [19] 3945 	ld	e, 0 (iy)
    0000145E FD 56 01         [19] 3946 	ld	d, 1 (iy)
    00001461 FD E5            [15] 3947 	push	iy
    00001463 E1               [10] 3948 	pop	hl
    00001464 C5               [11] 3949 	push	bc
    00001465 01 0E 00         [10] 3950 	ld	bc, #0x000e
    00001468 09               [11] 3951 	add	hl, bc
    00001469 C1               [10] 3952 	pop	bc
    0000146A 46               [ 7] 3953 	ld	b, (hl)
    0000146B 23               [ 6] 3954 	inc	hl
    0000146C 66               [ 7] 3955 	ld	h, (hl)
                                   3956 ;	spillPairReg hl
    0000146D 68               [ 4] 3957 	ld	l, b
    0000146E BF               [ 4] 3958 	cp	a, a
    0000146F ED 52            [15] 3959 	sbc	hl, de
    00001471 C2r14r16         [10] 3960 	jp	NZ,00163$
    00001474                       3961 00138$:
                                   3962 ;E:\Dropbox\FAUSTO\SVILUPPI\MSX\CODE\C\MSXgl\projects\soccerlg/soccerlg_s2_b1.c:740: if (i == kickerId) {
    00001474 DD 7E FD         [19] 3963 	ld	a, -3 (ix)
    00001477 B7               [ 4] 3964 	or	a, a
    00001478 28 30            [12] 3965 	jr	Z, 00159$
                                   3966 ;E:\Dropbox\FAUSTO\SVILUPPI\MSX\CODE\C\MSXgl\projects\soccerlg/soccerlg_s2_b1.c:742: if (g_RestartKickTeamId == TEAM_1) lookDir = (g_CornerKickSide == CORNER_SIDE_LEFT) ? DIRECTION_DOWN_RIGHT : DIRECTION_DOWN_LEFT;
    0000147A 3Ar00r00         [13] 3967 	ld	a, (_g_RestartKickTeamId+0)
    0000147D 3D               [ 4] 3968 	dec	a
    0000147E 20 15            [12] 3969 	jr	NZ, 00143$
    00001480 3Ar00r00         [13] 3970 	ld	a, (_g_CornerKickSide+0)
    00001483 B7               [ 4] 3971 	or	a, a
    00001484 20 06            [12] 3972 	jr	NZ, 00245$
    00001486 11 04 00         [10] 3973 	ld	de, #0x0004
    00001489 C3r8Fr14         [10] 3974 	jp	00246$
    0000148C                       3975 00245$:
    0000148C 11 06 00         [10] 3976 	ld	de, #0x0006
    0000148F                       3977 00246$:
    0000148F DD 73 FF         [19] 3978 	ld	-1 (ix), e
    00001492 C3rE0r15         [10] 3979 	jp	00160$
    00001495                       3980 00143$:
                                   3981 ;E:\Dropbox\FAUSTO\SVILUPPI\MSX\CODE\C\MSXgl\projects\soccerlg/soccerlg_s2_b1.c:743: else lookDir = (g_CornerKickSide == CORNER_SIDE_LEFT) ? DIRECTION_UP_RIGHT : DIRECTION_UP_LEFT;
    00001495 3Ar00r00         [13] 3982 	ld	a, (_g_CornerKickSide+0)
    00001498 B7               [ 4] 3983 	or	a, a
    00001499 20 06            [12] 3984 	jr	NZ, 00247$
    0000149B 11 02 00         [10] 3985 	ld	de, #0x0002
    0000149E C3rA4r14         [10] 3986 	jp	00248$
    000014A1                       3987 00247$:
    000014A1 11 08 00         [10] 3988 	ld	de, #0x0008
    000014A4                       3989 00248$:
    000014A4 DD 73 FF         [19] 3990 	ld	-1 (ix), e
    000014A7 C3rE0r15         [10] 3991 	jp	00160$
    000014AA                       3992 00159$:
                                   3993 ;E:\Dropbox\FAUSTO\SVILUPPI\MSX\CODE\C\MSXgl\projects\soccerlg/soccerlg_s2_b1.c:745: else if (g_Players[i].TeamId == g_RestartKickTeamId) {
    000014AA 06 00            [ 7] 3994 	ld	b, #0x00
    000014AC 69               [ 4] 3995 	ld	l, c
    000014AD 60               [ 4] 3996 	ld	h, b
    000014AE 29               [11] 3997 	add	hl, hl
    000014AF 29               [11] 3998 	add	hl, hl
    000014B0 09               [11] 3999 	add	hl, bc
    000014B1 29               [11] 4000 	add	hl, hl
    000014B2 29               [11] 4001 	add	hl, hl
    000014B3 09               [11] 4002 	add	hl, bc
    000014B4 11r00r00         [10] 4003 	ld	de, #_g_Players
    000014B7 19               [11] 4004 	add	hl, de
    000014B8 DD 75 FE         [19] 4005 	ld	-2 (ix), l
    000014BB DD 74 FF         [19] 4006 	ld	-1 (ix), h
    000014BE 11 09 00         [10] 4007 	ld	de, #9
    000014C1 19               [11] 4008 	add	hl, de
    000014C2 46               [ 7] 4009 	ld	b, (hl)
                                   4010 ;E:\Dropbox\FAUSTO\SVILUPPI\MSX\CODE\C\MSXgl\projects\soccerlg/soccerlg_s2_b1.c:747: if (g_RestartKickTeamId == TEAM_1 && i != kickerId) { 
    000014C3 3Ar00r00         [13] 4011 	ld	a,(_g_RestartKickTeamId+0)
    000014C6 B8               [ 4] 4012 	cp	a,b
    000014C7 20 3C            [12] 4013 	jr	NZ, 00156$
    000014C9 3D               [ 4] 4014 	dec	a
    000014CA 3E 01            [ 7] 4015 	ld	a, #0x01
    000014CC 28 01            [12] 4016 	jr	Z, 00723$
    000014CE AF               [ 4] 4017 	xor	a, a
    000014CF                       4018 00723$:
    000014CF DD 77 FF         [19] 4019 	ld	-1 (ix), a
    000014D2 B7               [ 4] 4020 	or	a, a
    000014D3 28 1B            [12] 4021 	jr	Z, 00146$
    000014D5 DD CB FD 46      [20] 4022 	bit	0, -3 (ix)
    000014D9 20 15            [12] 4023 	jr	NZ, 00146$
                                   4024 ;E:\Dropbox\FAUSTO\SVILUPPI\MSX\CODE\C\MSXgl\projects\soccerlg/soccerlg_s2_b1.c:749: lookDir = (g_CornerKickSide == CORNER_SIDE_LEFT) ? DIRECTION_UP_LEFT : DIRECTION_UP_RIGHT;
    000014DB 3Ar00r00         [13] 4025 	ld	a, (_g_CornerKickSide+0)
    000014DE B7               [ 4] 4026 	or	a, a
    000014DF 20 06            [12] 4027 	jr	NZ, 00249$
    000014E1 11 08 00         [10] 4028 	ld	de, #0x0008
    000014E4 C3rEAr14         [10] 4029 	jp	00250$
    000014E7                       4030 00249$:
    000014E7 11 02 00         [10] 4031 	ld	de, #0x0002
    000014EA                       4032 00250$:
    000014EA DD 73 FF         [19] 4033 	ld	-1 (ix), e
    000014ED C3rE0r15         [10] 4034 	jp	00160$
    000014F0                       4035 00146$:
                                   4036 ;E:\Dropbox\FAUSTO\SVILUPPI\MSX\CODE\C\MSXgl\projects\soccerlg/soccerlg_s2_b1.c:752: lookDir = (g_RestartKickTeamId == TEAM_1) ? DIRECTION_UP : DIRECTION_DOWN;
    000014F0 DD 7E FF         [19] 4037 	ld	a, -1 (ix)
    000014F3 B7               [ 4] 4038 	or	a, a
    000014F4 28 06            [12] 4039 	jr	Z, 00251$
    000014F6 11 01 00         [10] 4040 	ld	de, #0x0001
    000014F9 C3rFFr14         [10] 4041 	jp	00252$
    000014FC                       4042 00251$:
    000014FC 11 05 00         [10] 4043 	ld	de, #0x0005
    000014FF                       4044 00252$:
    000014FF DD 73 FF         [19] 4045 	ld	-1 (ix), e
    00001502 C3rE0r15         [10] 4046 	jp	00160$
    00001505                       4047 00156$:
                                   4048 ;E:\Dropbox\FAUSTO\SVILUPPI\MSX\CODE\C\MSXgl\projects\soccerlg/soccerlg_s2_b1.c:756: i16 dx = (i16)g_Ball.X - (i16)g_Players[i].X;
    00001505 ED 5Br02r00      [20] 4049 	ld	de, (#_g_Ball + 2)
    00001509 DD 6E FE         [19] 4050 	ld	l, -2 (ix)
                                   4051 ;	spillPairReg hl
                                   4052 ;	spillPairReg hl
    0000150C DD 66 FF         [19] 4053 	ld	h, -1 (ix)
                                   4054 ;	spillPairReg hl
                                   4055 ;	spillPairReg hl
    0000150F 23               [ 6] 4056 	inc	hl
    00001510 23               [ 6] 4057 	inc	hl
    00001511 7E               [ 7] 4058 	ld	a, (hl)
    00001512 23               [ 6] 4059 	inc	hl
    00001513 66               [ 7] 4060 	ld	h, (hl)
                                   4061 ;	spillPairReg hl
    00001514 6F               [ 4] 4062 	ld	l, a
                                   4063 ;	spillPairReg hl
                                   4064 ;	spillPairReg hl
    00001515 7B               [ 4] 4065 	ld	a, e
    00001516 95               [ 4] 4066 	sub	a, l
    00001517 47               [ 4] 4067 	ld	b, a
    00001518 7A               [ 4] 4068 	ld	a, d
    00001519 9C               [ 4] 4069 	sbc	a, h
    0000151A DD 70 FC         [19] 4070 	ld	-4 (ix), b
    0000151D DD 77 FD         [19] 4071 	ld	-3 (ix), a
                                   4072 ;E:\Dropbox\FAUSTO\SVILUPPI\MSX\CODE\C\MSXgl\projects\soccerlg/soccerlg_s2_b1.c:757: i16 dy = (i16)g_Ball.Y - (i16)g_Players[i].Y;
    00001520 ED 5Br00r00      [20] 4073 	ld	de, (#_g_Ball + 0)
    00001524 DD 6E FE         [19] 4074 	ld	l, -2 (ix)
    00001527 DD 66 FF         [19] 4075 	ld	h, -1 (ix)
    0000152A 7E               [ 7] 4076 	ld	a, (hl)
    0000152B 23               [ 6] 4077 	inc	hl
    0000152C 66               [ 7] 4078 	ld	h, (hl)
                                   4079 ;	spillPairReg hl
    0000152D 6F               [ 4] 4080 	ld	l, a
                                   4081 ;	spillPairReg hl
                                   4082 ;	spillPairReg hl
    0000152E 7B               [ 4] 4083 	ld	a, e
    0000152F 95               [ 4] 4084 	sub	a, l
    00001530 5F               [ 4] 4085 	ld	e, a
    00001531 7A               [ 4] 4086 	ld	a, d
    00001532 9C               [ 4] 4087 	sbc	a, h
    00001533 57               [ 4] 4088 	ld	d, a
                                   4089 ;E:\Dropbox\FAUSTO\SVILUPPI\MSX\CODE\C\MSXgl\projects\soccerlg/soccerlg_s2_b1.c:759: if (dy < -20) lookDir = (dx > 20) ? DIRECTION_UP_RIGHT : ((dx < -20) ? DIRECTION_UP_LEFT : DIRECTION_UP);
    00001534 DD 7E FC         [19] 4090 	ld	a, -4 (ix)
    00001537 DD 77 FE         [19] 4091 	ld	-2 (ix), a
    0000153A DD 7E FD         [19] 4092 	ld	a, -3 (ix)
    0000153D DD 77 FF         [19] 4093 	ld	-1 (ix), a
    00001540 7B               [ 4] 4094 	ld	a, e
    00001541 D6 EC            [ 7] 4095 	sub	a, #0xec
    00001543 7A               [ 4] 4096 	ld	a, d
    00001544 17               [ 4] 4097 	rla
    00001545 3F               [ 4] 4098 	ccf
    00001546 1F               [ 4] 4099 	rra
    00001547 DE 7F            [ 7] 4100 	sbc	a, #0x7f
    00001549 30 36            [12] 4101 	jr	NC, 00153$
    0000154B 3E 14            [ 7] 4102 	ld	a, #0x14
    0000154D DD BE FE         [19] 4103 	cp	a, -2 (ix)
    00001550 3E 00            [ 7] 4104 	ld	a, #0x00
    00001552 DD 9E FF         [19] 4105 	sbc	a, -1 (ix)
    00001555 E2r5Ar15         [10] 4106 	jp	PO, 00724$
    00001558 EE 80            [ 7] 4107 	xor	a, #0x80
    0000155A                       4108 00724$:
    0000155A F2r63r15         [10] 4109 	jp	P, 00253$
    0000155D 11 02 00         [10] 4110 	ld	de, #0x0002
    00001560 C3r7Br15         [10] 4111 	jp	00254$
    00001563                       4112 00253$:
    00001563 DD 7E FC         [19] 4113 	ld	a, -4 (ix)
    00001566 D6 EC            [ 7] 4114 	sub	a, #0xec
    00001568 DD 7E FD         [19] 4115 	ld	a, -3 (ix)
    0000156B 17               [ 4] 4116 	rla
    0000156C 3F               [ 4] 4117 	ccf
    0000156D 1F               [ 4] 4118 	rra
    0000156E DE 7F            [ 7] 4119 	sbc	a, #0x7f
    00001570 30 06            [12] 4120 	jr	NC, 00255$
    00001572 11 08 00         [10] 4121 	ld	de, #0x0008
    00001575 C3r7Br15         [10] 4122 	jp	00256$
    00001578                       4123 00255$:
    00001578 11 01 00         [10] 4124 	ld	de, #0x0001
    0000157B                       4125 00256$:
    0000157B                       4126 00254$:
    0000157B DD 73 FF         [19] 4127 	ld	-1 (ix), e
    0000157E C3rE0r15         [10] 4128 	jp	00160$
    00001581                       4129 00153$:
                                   4130 ;E:\Dropbox\FAUSTO\SVILUPPI\MSX\CODE\C\MSXgl\projects\soccerlg/soccerlg_s2_b1.c:760: else if (dy > 20) lookDir = (dx > 20) ? DIRECTION_DOWN_RIGHT : ((dx < -20) ? DIRECTION_DOWN_LEFT : DIRECTION_DOWN);
    00001581 3E 14            [ 7] 4131 	ld	a, #0x14
    00001583 BB               [ 4] 4132 	cp	a, e
    00001584 3E 00            [ 7] 4133 	ld	a, #0x00
    00001586 9A               [ 4] 4134 	sbc	a, d
    00001587 E2r8Cr15         [10] 4135 	jp	PO, 00725$
    0000158A EE 80            [ 7] 4136 	xor	a, #0x80
    0000158C                       4137 00725$:
    0000158C F2rC5r15         [10] 4138 	jp	P, 00150$
    0000158F 3E 14            [ 7] 4139 	ld	a, #0x14
    00001591 DD BE FE         [19] 4140 	cp	a, -2 (ix)
    00001594 3E 00            [ 7] 4141 	ld	a, #0x00
    00001596 DD 9E FF         [19] 4142 	sbc	a, -1 (ix)
    00001599 E2r9Er15         [10] 4143 	jp	PO, 00726$
    0000159C EE 80            [ 7] 4144 	xor	a, #0x80
    0000159E                       4145 00726$:
    0000159E F2rA7r15         [10] 4146 	jp	P, 00257$
    000015A1 11 04 00         [10] 4147 	ld	de, #0x0004
    000015A4 C3rBFr15         [10] 4148 	jp	00258$
    000015A7                       4149 00257$:
    000015A7 DD 7E FC         [19] 4150 	ld	a, -4 (ix)
    000015AA D6 EC            [ 7] 4151 	sub	a, #0xec
    000015AC DD 7E FD         [19] 4152 	ld	a, -3 (ix)
    000015AF 17               [ 4] 4153 	rla
    000015B0 3F               [ 4] 4154 	ccf
    000015B1 1F               [ 4] 4155 	rra
    000015B2 DE 7F            [ 7] 4156 	sbc	a, #0x7f
    000015B4 30 06            [12] 4157 	jr	NC, 00259$
    000015B6 11 06 00         [10] 4158 	ld	de, #0x0006
    000015B9 C3rBFr15         [10] 4159 	jp	00260$
    000015BC                       4160 00259$:
    000015BC 11 05 00         [10] 4161 	ld	de, #0x0005
    000015BF                       4162 00260$:
    000015BF                       4163 00258$:
    000015BF DD 73 FF         [19] 4164 	ld	-1 (ix), e
    000015C2 C3rE0r15         [10] 4165 	jp	00160$
    000015C5                       4166 00150$:
                                   4167 ;E:\Dropbox\FAUSTO\SVILUPPI\MSX\CODE\C\MSXgl\projects\soccerlg/soccerlg_s2_b1.c:761: else lookDir = (dx > 0) ? DIRECTION_RIGHT : DIRECTION_LEFT;
    000015C5 AF               [ 4] 4168 	xor	a, a
    000015C6 DD BE FE         [19] 4169 	cp	a, -2 (ix)
    000015C9 DD 9E FF         [19] 4170 	sbc	a, -1 (ix)
    000015CC E2rD1r15         [10] 4171 	jp	PO, 00727$
    000015CF EE 80            [ 7] 4172 	xor	a, #0x80
    000015D1                       4173 00727$:
    000015D1 F2rDAr15         [10] 4174 	jp	P, 00261$
    000015D4 11 03 00         [10] 4175 	ld	de, #0x0003
    000015D7 C3rDDr15         [10] 4176 	jp	00262$
    000015DA                       4177 00261$:
    000015DA 11 07 00         [10] 4178 	ld	de, #0x0007
    000015DD                       4179 00262$:
    000015DD DD 73 FF         [19] 4180 	ld	-1 (ix), e
    000015E0                       4181 00160$:
                                   4182 ;E:\Dropbox\FAUSTO\SVILUPPI\MSX\CODE\C\MSXgl\projects\soccerlg/soccerlg_s2_b1.c:764: if (lookDir != DIRECTION_NONE) {
    000015E0 DD 7E FF         [19] 4183 	ld	a, -1 (ix)
    000015E3 B7               [ 4] 4184 	or	a, a
    000015E4 28 2E            [12] 4185 	jr	Z, 00163$
                                   4186 ;E:\Dropbox\FAUSTO\SVILUPPI\MSX\CODE\C\MSXgl\projects\soccerlg/soccerlg_s2_b1.c:765: g_Players[i].Direction = lookDir;
    000015E6 06 00            [ 7] 4187 	ld	b, #0x00
    000015E8 69               [ 4] 4188 	ld	l, c
    000015E9 60               [ 4] 4189 	ld	h, b
    000015EA 29               [11] 4190 	add	hl, hl
    000015EB 29               [11] 4191 	add	hl, hl
    000015EC 09               [11] 4192 	add	hl, bc
    000015ED 29               [11] 4193 	add	hl, hl
    000015EE 29               [11] 4194 	add	hl, hl
    000015EF 09               [11] 4195 	add	hl, bc
    000015F0 EB               [ 4] 4196 	ex	de, hl
    000015F1 21r00r00         [10] 4197 	ld	hl, #_g_Players
    000015F4 19               [11] 4198 	add	hl, de
    000015F5 EB               [ 4] 4199 	ex	de, hl
    000015F6 21 0A 00         [10] 4200 	ld	hl, #0x000a
    000015F9 19               [11] 4201 	add	hl, de
    000015FA DD 7E FF         [19] 4202 	ld	a, -1 (ix)
    000015FD 77               [ 7] 4203 	ld	(hl), a
                                   4204 ;E:\Dropbox\FAUSTO\SVILUPPI\MSX\CODE\C\MSXgl\projects\soccerlg/soccerlg_s2_b1.c:766: g_Players[i].PatternId = Trampoline_U8_P1(4,GetNoMovingPlayerPatternId,lookDir);
    000015FE 21 08 00         [10] 4205 	ld	hl, #0x0008
    00001601 19               [11] 4206 	add	hl, de
    00001602 E5               [11] 4207 	push	hl
    00001603 C5               [11] 4208 	push	bc
    00001604 DD 7E FF         [19] 4209 	ld	a, -1 (ix)
    00001607 F5               [11] 4210 	push	af
    00001608 33               [ 6] 4211 	inc	sp
    00001609 11r00r00         [10] 4212 	ld	de, #_GetNoMovingPlayerPatternId
    0000160C 3E 04            [ 7] 4213 	ld	a, #0x04
    0000160E CDr00r00         [17] 4214 	call	_Trampoline_U8_P1
    00001611 C1               [10] 4215 	pop	bc
    00001612 E1               [10] 4216 	pop	hl
    00001613 77               [ 7] 4217 	ld	(hl), a
    00001614                       4218 00163$:
                                   4219 ;E:\Dropbox\FAUSTO\SVILUPPI\MSX\CODE\C\MSXgl\projects\soccerlg/soccerlg_s2_b1.c:733: for(u8 i=0; i<14; i++) {
    00001614 0C               [ 4] 4220 	inc	c
                                   4221 ;E:\Dropbox\FAUSTO\SVILUPPI\MSX\CODE\C\MSXgl\projects\soccerlg/soccerlg_s2_b1.c:769: return; // END SETUP PHASE
    00001615 C3r07r14         [10] 4222 	jp	00239$
    00001618                       4223 00166$:
                                   4224 ;E:\Dropbox\FAUSTO\SVILUPPI\MSX\CODE\C\MSXgl\projects\soccerlg/soccerlg_s2_b1.c:773: V9990_ClearTextFromLayerA(10, 12, 11);
    00001618 3E 0B            [ 7] 4225 	ld	a, #0x0b
    0000161A F5               [11] 4226 	push	af
    0000161B 33               [ 6] 4227 	inc	sp
    0000161C 2E 0C            [ 7] 4228 	ld	l, #0x0c
                                   4229 ;	spillPairReg hl
                                   4230 ;	spillPairReg hl
    0000161E 3E 0A            [ 7] 4231 	ld	a, #0x0a
    00001620 CDr00r00         [17] 4232 	call	_V9990_ClearTextFromLayerA
                                   4233 ;E:\Dropbox\FAUSTO\SVILUPPI\MSX\CODE\C\MSXgl\projects\soccerlg/soccerlg_s2_b1.c:780: if (kickerId != NO_VALUE) {
    00001623 DD CB EB 46      [20] 4234 	bit	0, -21 (ix)
    00001627 20 77            [12] 4235 	jr	NZ, 00171$
                                   4236 ;E:\Dropbox\FAUSTO\SVILUPPI\MSX\CODE\C\MSXgl\projects\soccerlg/soccerlg_s2_b1.c:781: g_Players[kickerId].X = g_Players[kickerId].TargetX;
    00001629 DD 4E E9         [19] 4237 	ld	c, -23 (ix)
    0000162C 06 00            [ 7] 4238 	ld	b, #0x00
    0000162E 69               [ 4] 4239 	ld	l, c
    0000162F 60               [ 4] 4240 	ld	h, b
    00001630 29               [11] 4241 	add	hl, hl
    00001631 29               [11] 4242 	add	hl, hl
    00001632 09               [11] 4243 	add	hl, bc
    00001633 29               [11] 4244 	add	hl, hl
    00001634 29               [11] 4245 	add	hl, hl
    00001635 09               [11] 4246 	add	hl, bc
    00001636 DD 75 FE         [19] 4247 	ld	-2 (ix), l
    00001639 DD 74 FF         [19] 4248 	ld	-1 (ix), h
    0000163C DD 7E FE         [19] 4249 	ld	a, -2 (ix)
    0000163F C6r00            [ 7] 4250 	add	a, #<(_g_Players)
    00001641 DD 77 FA         [19] 4251 	ld	-6 (ix), a
    00001644 DD 7E FF         [19] 4252 	ld	a, -1 (ix)
    00001647 CEs00            [ 7] 4253 	adc	a, #>(_g_Players)
    00001649 DD 77 FB         [19] 4254 	ld	-5 (ix), a
    0000164C DD 7E FA         [19] 4255 	ld	a, -6 (ix)
    0000164F C6 02            [ 7] 4256 	add	a, #0x02
    00001651 DD 77 FC         [19] 4257 	ld	-4 (ix), a
    00001654 DD 7E FB         [19] 4258 	ld	a, -5 (ix)
    00001657 CE 00            [ 7] 4259 	adc	a, #0x00
    00001659 DD 77 FD         [19] 4260 	ld	-3 (ix), a
    0000165C DD 7E FA         [19] 4261 	ld	a, -6 (ix)
    0000165F DD 77 FE         [19] 4262 	ld	-2 (ix), a
    00001662 DD 7E FB         [19] 4263 	ld	a, -5 (ix)
    00001665 DD 77 FF         [19] 4264 	ld	-1 (ix), a
    00001668 DD 6E FE         [19] 4265 	ld	l, -2 (ix)
    0000166B DD 66 FF         [19] 4266 	ld	h, -1 (ix)
    0000166E 11 10 00         [10] 4267 	ld	de, #0x0010
    00001671 19               [11] 4268 	add	hl, de
    00001672 7E               [ 7] 4269 	ld	a, (hl)
    00001673 DD 77 FE         [19] 4270 	ld	-2 (ix), a
    00001676 23               [ 6] 4271 	inc	hl
    00001677 7E               [ 7] 4272 	ld	a, (hl)
    00001678 DD 77 FF         [19] 4273 	ld	-1 (ix), a
    0000167B DD 6E FC         [19] 4274 	ld	l, -4 (ix)
    0000167E DD 66 FD         [19] 4275 	ld	h, -3 (ix)
    00001681 DD 7E FE         [19] 4276 	ld	a, -2 (ix)
    00001684 77               [ 7] 4277 	ld	(hl), a
    00001685 23               [ 6] 4278 	inc	hl
    00001686 DD 7E FF         [19] 4279 	ld	a, -1 (ix)
    00001689 77               [ 7] 4280 	ld	(hl), a
                                   4281 ;E:\Dropbox\FAUSTO\SVILUPPI\MSX\CODE\C\MSXgl\projects\soccerlg/soccerlg_s2_b1.c:782: g_Players[kickerId].Y = g_Players[kickerId].TargetY;
    0000168A DD 6E FA         [19] 4282 	ld	l, -6 (ix)
                                   4283 ;	spillPairReg hl
                                   4284 ;	spillPairReg hl
    0000168D DD 66 FB         [19] 4285 	ld	h, -5 (ix)
                                   4286 ;	spillPairReg hl
                                   4287 ;	spillPairReg hl
    00001690 11 0E 00         [10] 4288 	ld	de, #0x000e
    00001693 19               [11] 4289 	add	hl, de
    00001694 5E               [ 7] 4290 	ld	e, (hl)
    00001695 23               [ 6] 4291 	inc	hl
    00001696 4E               [ 7] 4292 	ld	c, (hl)
    00001697 DD 6E FA         [19] 4293 	ld	l, -6 (ix)
    0000169A DD 66 FB         [19] 4294 	ld	h, -5 (ix)
    0000169D 73               [ 7] 4295 	ld	(hl), e
    0000169E 23               [ 6] 4296 	inc	hl
    0000169F 71               [ 7] 4297 	ld	(hl), c
    000016A0                       4298 00171$:
                                   4299 ;E:\Dropbox\FAUSTO\SVILUPPI\MSX\CODE\C\MSXgl\projects\soccerlg/soccerlg_s2_b1.c:785: bool isHuman = (g_RestartKickTeamId == TEAM_1 || (g_GameWith2Players && g_RestartKickTeamId == TEAM_2));
    000016A0 3Ar00r00         [13] 4300 	ld	a, (_g_RestartKickTeamId+0)
    000016A3 3D               [ 4] 4301 	dec	a
    000016A4 28 11            [12] 4302 	jr	Z, 00264$
    000016A6 3Ar00r00         [13] 4303 	ld	a, (_g_GameWith2Players+0)
    000016A9 B7               [ 4] 4304 	or	a, a
    000016AA 28 07            [12] 4305 	jr	Z, 00263$
    000016AC 3Ar00r00         [13] 4306 	ld	a, (_g_RestartKickTeamId+0)
    000016AF D6 02            [ 7] 4307 	sub	a, #0x02
    000016B1 28 04            [12] 4308 	jr	Z, 00264$
    000016B3                       4309 00263$:
    000016B3 AF               [ 4] 4310 	xor	a, a
    000016B4 C3rB9r16         [10] 4311 	jp	00265$
    000016B7                       4312 00264$:
    000016B7 3E 01            [ 7] 4313 	ld	a, #0x01
    000016B9                       4314 00265$:
    000016B9 4F               [ 4] 4315 	ld	c, a
                                   4316 ;E:\Dropbox\FAUSTO\SVILUPPI\MSX\CODE\C\MSXgl\projects\soccerlg/soccerlg_s2_b1.c:788: if (isHuman) s_ForceKickTimer++;
    000016BA B7               [ 4] 4317 	or	a, a
    000016BB 28 07            [12] 4318 	jr	Z, 00173$
    000016BD 2Ar00r00         [16] 4319 	ld	hl, (_TickCornerKick_s_ForceKickTimer_65537_1390)
    000016C0 23               [ 6] 4320 	inc	hl
    000016C1 22r00r00         [16] 4321 	ld	(_TickCornerKick_s_ForceKickTimer_65537_1390), hl
    000016C4                       4322 00173$:
                                   4323 ;E:\Dropbox\FAUSTO\SVILUPPI\MSX\CODE\C\MSXgl\projects\soccerlg/soccerlg_s2_b1.c:790: if (isHuman) {
    000016C4 79               [ 4] 4324 	ld	a, c
    000016C5 B7               [ 4] 4325 	or	a, a
    000016C6 CAr78r19         [10] 4326 	jp	Z, 00233$
                                   4327 ;E:\Dropbox\FAUSTO\SVILUPPI\MSX\CODE\C\MSXgl\projects\soccerlg/soccerlg_s2_b1.c:793: u8 candLeft = NO_VALUE;
    000016C9 DD 36 F9 FF      [19] 4328 	ld	-7 (ix), #0xff
                                   4329 ;E:\Dropbox\FAUSTO\SVILUPPI\MSX\CODE\C\MSXgl\projects\soccerlg/soccerlg_s2_b1.c:794: u8 candRight = NO_VALUE;
    000016CD DD 36 FA FF      [19] 4330 	ld	-6 (ix), #0xff
                                   4331 ;E:\Dropbox\FAUSTO\SVILUPPI\MSX\CODE\C\MSXgl\projects\soccerlg/soccerlg_s2_b1.c:796: for(u8 c=0; c<14; c++) {
    000016D1 DD 36 FF 00      [19] 4332 	ld	-1 (ix), #0x00
    000016D5                       4333 00241$:
    000016D5 DD 7E FF         [19] 4334 	ld	a, -1 (ix)
    000016D8 D6 0E            [ 7] 4335 	sub	a, #0x0e
    000016DA D2r84r17         [10] 4336 	jp	NC, 00184$
                                   4337 ;E:\Dropbox\FAUSTO\SVILUPPI\MSX\CODE\C\MSXgl\projects\soccerlg/soccerlg_s2_b1.c:797: if (g_Players[c].TeamId == TEAM_1 && c != kickerId && g_Players[c].Role != PLAYER_ROLE_GOALKEEPER) {
    000016DD DD 4E FF         [19] 4338 	ld	c, -1 (ix)
    000016E0 06 00            [ 7] 4339 	ld	b, #0x00
    000016E2 69               [ 4] 4340 	ld	l, c
    000016E3 60               [ 4] 4341 	ld	h, b
    000016E4 29               [11] 4342 	add	hl, hl
    000016E5 29               [11] 4343 	add	hl, hl
    000016E6 09               [11] 4344 	add	hl, bc
    000016E7 29               [11] 4345 	add	hl, hl
    000016E8 29               [11] 4346 	add	hl, hl
    000016E9 09               [11] 4347 	add	hl, bc
    000016EA DD 75 FD         [19] 4348 	ld	-3 (ix), l
    000016ED DD 74 FE         [19] 4349 	ld	-2 (ix), h
    000016F0 DD 7E FD         [19] 4350 	ld	a, -3 (ix)
    000016F3 C6r00            [ 7] 4351 	add	a, #<(_g_Players)
    000016F5 DD 77 FB         [19] 4352 	ld	-5 (ix), a
    000016F8 DD 7E FE         [19] 4353 	ld	a, -2 (ix)
    000016FB CEs00            [ 7] 4354 	adc	a, #>(_g_Players)
    000016FD DD 77 FC         [19] 4355 	ld	-4 (ix), a
    00001700 DD 7E FB         [19] 4356 	ld	a, -5 (ix)
    00001703 DD 77 FD         [19] 4357 	ld	-3 (ix), a
    00001706 DD 7E FC         [19] 4358 	ld	a, -4 (ix)
    00001709 DD 77 FE         [19] 4359 	ld	-2 (ix), a
    0000170C DD 6E FD         [19] 4360 	ld	l, -3 (ix)
    0000170F DD 66 FE         [19] 4361 	ld	h, -2 (ix)
    00001712 11 09 00         [10] 4362 	ld	de, #0x0009
    00001715 19               [11] 4363 	add	hl, de
    00001716 7E               [ 7] 4364 	ld	a, (hl)
    00001717 3D               [ 4] 4365 	dec	a
    00001718 20 64            [12] 4366 	jr	NZ, 00242$
    0000171A DD 7E FF         [19] 4367 	ld	a, -1 (ix)
    0000171D DD 96 E9         [19] 4368 	sub	a, -23 (ix)
    00001720 28 5C            [12] 4369 	jr	Z, 00242$
    00001722 DD 7E FB         [19] 4370 	ld	a, -5 (ix)
    00001725 DD 77 FD         [19] 4371 	ld	-3 (ix), a
    00001728 DD 7E FC         [19] 4372 	ld	a, -4 (ix)
    0000172B DD 77 FE         [19] 4373 	ld	-2 (ix), a
    0000172E DD 6E FD         [19] 4374 	ld	l, -3 (ix)
    00001731 DD 66 FE         [19] 4375 	ld	h, -2 (ix)
    00001734 11 0D 00         [10] 4376 	ld	de, #0x000d
    00001737 19               [11] 4377 	add	hl, de
    00001738 7E               [ 7] 4378 	ld	a, (hl)
    00001739 DD 77 FE         [19] 4379 	ld	-2 (ix), a
    0000173C B7               [ 4] 4380 	or	a, a
    0000173D 28 3F            [12] 4381 	jr	Z, 00242$
                                   4382 ;E:\Dropbox\FAUSTO\SVILUPPI\MSX\CODE\C\MSXgl\projects\soccerlg/soccerlg_s2_b1.c:798: u8 tx = g_Players[c].TargetX;
    0000173F DD 7E FB         [19] 4383 	ld	a, -5 (ix)
    00001742 DD 77 FD         [19] 4384 	ld	-3 (ix), a
    00001745 DD 7E FC         [19] 4385 	ld	a, -4 (ix)
    00001748 DD 77 FE         [19] 4386 	ld	-2 (ix), a
    0000174B DD 6E FD         [19] 4387 	ld	l, -3 (ix)
    0000174E DD 66 FE         [19] 4388 	ld	h, -2 (ix)
    00001751 11 10 00         [10] 4389 	ld	de, #0x0010
    00001754 19               [11] 4390 	add	hl, de
    00001755 7E               [ 7] 4391 	ld	a, (hl)
                                   4392 ;E:\Dropbox\FAUSTO\SVILUPPI\MSX\CODE\C\MSXgl\projects\soccerlg/soccerlg_s2_b1.c:800: if (tx >= 40 && tx <= 110) candLeft = c;
    00001756 DD 77 FE         [19] 4393 	ld	-2 (ix), a
    00001759 D6 28            [ 7] 4394 	sub	a, #0x28
    0000175B 38 0D            [12] 4395 	jr	C, 00175$
    0000175D 3E 6E            [ 7] 4396 	ld	a, #0x6e
    0000175F DD 96 FE         [19] 4397 	sub	a, -2 (ix)
    00001762 38 06            [12] 4398 	jr	C, 00175$
    00001764 DD 7E FF         [19] 4399 	ld	a, -1 (ix)
    00001767 DD 77 F9         [19] 4400 	ld	-7 (ix), a
    0000176A                       4401 00175$:
                                   4402 ;E:\Dropbox\FAUSTO\SVILUPPI\MSX\CODE\C\MSXgl\projects\soccerlg/soccerlg_s2_b1.c:801: if (tx >= 130 && tx <= 220) candRight = c;
    0000176A DD 7E FE         [19] 4403 	ld	a, -2 (ix)
    0000176D D6 82            [ 7] 4404 	sub	a, #0x82
    0000176F 38 0D            [12] 4405 	jr	C, 00242$
    00001771 3E DC            [ 7] 4406 	ld	a, #0xdc
    00001773 DD 96 FE         [19] 4407 	sub	a, -2 (ix)
    00001776 38 06            [12] 4408 	jr	C, 00242$
    00001778 DD 7E FF         [19] 4409 	ld	a, -1 (ix)
    0000177B DD 77 FA         [19] 4410 	ld	-6 (ix), a
    0000177E                       4411 00242$:
                                   4412 ;E:\Dropbox\FAUSTO\SVILUPPI\MSX\CODE\C\MSXgl\projects\soccerlg/soccerlg_s2_b1.c:796: for(u8 c=0; c<14; c++) {
    0000177E DD 34 FF         [23] 4413 	inc	-1 (ix)
    00001781 C3rD5r16         [10] 4414 	jp	00241$
    00001784                       4415 00184$:
                                   4416 ;E:\Dropbox\FAUSTO\SVILUPPI\MSX\CODE\C\MSXgl\projects\soccerlg/soccerlg_s2_b1.c:804: if (candLeft == NO_VALUE) candLeft = GetPlayerIdByRole(TEAM_1, PLAYER_ROLE_LEFT_HALFFIELDER);
    00001784 DD 7E F9         [19] 4417 	ld	a, -7 (ix)
    00001787 3C               [ 4] 4418 	inc	a
    00001788 20 0A            [12] 4419 	jr	NZ, 00186$
    0000178A 2E 03            [ 7] 4420 	ld	l, #0x03
                                   4421 ;	spillPairReg hl
                                   4422 ;	spillPairReg hl
    0000178C 3E 01            [ 7] 4423 	ld	a, #0x01
    0000178E CDr49r09         [17] 4424 	call	_GetPlayerIdByRole
    00001791 DD 77 F9         [19] 4425 	ld	-7 (ix), a
    00001794                       4426 00186$:
                                   4427 ;E:\Dropbox\FAUSTO\SVILUPPI\MSX\CODE\C\MSXgl\projects\soccerlg/soccerlg_s2_b1.c:805: if (candRight == NO_VALUE) candRight = GetPlayerIdByRole(TEAM_1, PLAYER_ROLE_RIGHT_HALFFIELDER);
    00001794 DD 7E FA         [19] 4428 	ld	a, -6 (ix)
    00001797 3C               [ 4] 4429 	inc	a
    00001798 20 0A            [12] 4430 	jr	NZ, 00188$
    0000179A 2E 04            [ 7] 4431 	ld	l, #0x04
                                   4432 ;	spillPairReg hl
                                   4433 ;	spillPairReg hl
    0000179C 3E 01            [ 7] 4434 	ld	a, #0x01
    0000179E CDr49r09         [17] 4435 	call	_GetPlayerIdByRole
    000017A1 DD 77 FA         [19] 4436 	ld	-6 (ix), a
    000017A4                       4437 00188$:
                                   4438 ;E:\Dropbox\FAUSTO\SVILUPPI\MSX\CODE\C\MSXgl\projects\soccerlg/soccerlg_s2_b1.c:807: if (g_CornerKickTargetId == NO_VALUE) {
    000017A4 3Ar00r00         [13] 4439 	ld	a, (_g_CornerKickTargetId+0)
    000017A7 3C               [ 4] 4440 	inc	a
    000017A8 20 1B            [12] 4441 	jr	NZ, 00195$
                                   4442 ;E:\Dropbox\FAUSTO\SVILUPPI\MSX\CODE\C\MSXgl\projects\soccerlg/soccerlg_s2_b1.c:808: if (candLeft != NO_VALUE) g_CornerKickTargetId = candLeft;
    000017AA DD 7E F9         [19] 4443 	ld	a, -7 (ix)
    000017AD 3C               [ 4] 4444 	inc	a
    000017AE 28 09            [12] 4445 	jr	Z, 00192$
    000017B0 DD 7E F9         [19] 4446 	ld	a, -7 (ix)
    000017B3 32r00r00         [13] 4447 	ld	(_g_CornerKickTargetId+0), a
    000017B6 C3rC5r17         [10] 4448 	jp	00195$
    000017B9                       4449 00192$:
                                   4450 ;E:\Dropbox\FAUSTO\SVILUPPI\MSX\CODE\C\MSXgl\projects\soccerlg/soccerlg_s2_b1.c:809: else if (candRight != NO_VALUE) g_CornerKickTargetId = candRight; 
    000017B9 DD 7E FA         [19] 4451 	ld	a, -6 (ix)
    000017BC 3C               [ 4] 4452 	inc	a
    000017BD 28 06            [12] 4453 	jr	Z, 00195$
    000017BF DD 7E FA         [19] 4454 	ld	a, -6 (ix)
    000017C2 32r00r00         [13] 4455 	ld	(_g_CornerKickTargetId+0), a
    000017C5                       4456 00195$:
                                   4457 ;E:\Dropbox\FAUSTO\SVILUPPI\MSX\CODE\C\MSXgl\projects\soccerlg/soccerlg_s2_b1.c:813: u8 joyDir = GetJoystickDirection();
    000017C5 CDr17r00         [17] 4458 	call	_GetJoystickDirection
                                   4459 ;E:\Dropbox\FAUSTO\SVILUPPI\MSX\CODE\C\MSXgl\projects\soccerlg/soccerlg_s2_b1.c:816: if (joyDir == DIRECTION_LEFT && !joyMoved && candLeft != NO_VALUE) {
    000017C8 DD 77 FF         [19] 4460 	ld	-1 (ix), a
    000017CB D6 07            [ 7] 4461 	sub	a, #0x07
    000017CD 20 1A            [12] 4462 	jr	NZ, 00204$
    000017CF 3Ar02r00         [13] 4463 	ld	a, (_TickCornerKick_joyMoved_131078_1423+0)
    000017D2 B7               [ 4] 4464 	or	a, a
    000017D3 20 14            [12] 4465 	jr	NZ, 00204$
    000017D5 DD 7E F9         [19] 4466 	ld	a, -7 (ix)
    000017D8 3C               [ 4] 4467 	inc	a
    000017D9 28 0E            [12] 4468 	jr	Z, 00204$
                                   4469 ;E:\Dropbox\FAUSTO\SVILUPPI\MSX\CODE\C\MSXgl\projects\soccerlg/soccerlg_s2_b1.c:817: g_CornerKickTargetId = candLeft; joyMoved = true;
    000017DB DD 7E F9         [19] 4470 	ld	a, -7 (ix)
    000017DE 32r00r00         [13] 4471 	ld	(_g_CornerKickTargetId+0), a
    000017E1 21r02r00         [10] 4472 	ld	hl, #_TickCornerKick_joyMoved_131078_1423
    000017E4 36 01            [10] 4473 	ld	(hl), #0x01
    000017E6 C3r15r18         [10] 4474 	jp	00205$
    000017E9                       4475 00204$:
                                   4476 ;E:\Dropbox\FAUSTO\SVILUPPI\MSX\CODE\C\MSXgl\projects\soccerlg/soccerlg_s2_b1.c:818: } else if (joyDir == DIRECTION_RIGHT && !joyMoved && candRight != NO_VALUE) {
    000017E9 DD 7E FF         [19] 4477 	ld	a, -1 (ix)
    000017EC D6 03            [ 7] 4478 	sub	a, #0x03
    000017EE 20 1A            [12] 4479 	jr	NZ, 00199$
    000017F0 3Ar02r00         [13] 4480 	ld	a, (_TickCornerKick_joyMoved_131078_1423+0)
    000017F3 B7               [ 4] 4481 	or	a, a
    000017F4 20 14            [12] 4482 	jr	NZ, 00199$
    000017F6 DD 7E FA         [19] 4483 	ld	a, -6 (ix)
    000017F9 3C               [ 4] 4484 	inc	a
    000017FA 28 0E            [12] 4485 	jr	Z, 00199$
                                   4486 ;E:\Dropbox\FAUSTO\SVILUPPI\MSX\CODE\C\MSXgl\projects\soccerlg/soccerlg_s2_b1.c:819: g_CornerKickTargetId = candRight; joyMoved = true;
    000017FC DD 7E FA         [19] 4487 	ld	a, -6 (ix)
    000017FF 32r00r00         [13] 4488 	ld	(_g_CornerKickTargetId+0), a
    00001802 21r02r00         [10] 4489 	ld	hl, #_TickCornerKick_joyMoved_131078_1423
    00001805 36 01            [10] 4490 	ld	(hl), #0x01
    00001807 C3r15r18         [10] 4491 	jp	00205$
    0000180A                       4492 00199$:
                                   4493 ;E:\Dropbox\FAUSTO\SVILUPPI\MSX\CODE\C\MSXgl\projects\soccerlg/soccerlg_s2_b1.c:820: } else if (joyDir == DIRECTION_NONE) {
    0000180A DD 7E FF         [19] 4494 	ld	a, -1 (ix)
    0000180D B7               [ 4] 4495 	or	a, a
    0000180E 20 05            [12] 4496 	jr	NZ, 00205$
                                   4497 ;E:\Dropbox\FAUSTO\SVILUPPI\MSX\CODE\C\MSXgl\projects\soccerlg/soccerlg_s2_b1.c:821: joyMoved = false;
    00001810 21r02r00         [10] 4498 	ld	hl, #_TickCornerKick_joyMoved_131078_1423
    00001813 36 00            [10] 4499 	ld	(hl), #0x00
    00001815                       4500 00205$:
                                   4501 ;E:\Dropbox\FAUSTO\SVILUPPI\MSX\CODE\C\MSXgl\projects\soccerlg/soccerlg_s2_b1.c:828: if (kickerId != NO_VALUE) {
    00001815 DD CB EB 46      [20] 4502 	bit	0, -21 (ix)
    00001819 C2r1Dr19         [10] 4503 	jp	NZ, 00209$
                                   4504 ;E:\Dropbox\FAUSTO\SVILUPPI\MSX\CODE\C\MSXgl\projects\soccerlg/soccerlg_s2_b1.c:829: u8 kDir = (g_CornerKickSide == CORNER_SIDE_LEFT) ? DIRECTION_DOWN_RIGHT : DIRECTION_DOWN_LEFT;
    0000181C 3Ar00r00         [13] 4505 	ld	a, (_g_CornerKickSide+0)
    0000181F B7               [ 4] 4506 	or	a, a
    00001820 20 0B            [12] 4507 	jr	NZ, 00269$
    00001822 DD 36 FE 04      [19] 4508 	ld	-2 (ix), #0x04
    00001826 DD 36 FF 00      [19] 4509 	ld	-1 (ix), #0
    0000182A C3r35r18         [10] 4510 	jp	00270$
    0000182D                       4511 00269$:
    0000182D DD 36 FE 06      [19] 4512 	ld	-2 (ix), #0x06
    00001831 DD 36 FF 00      [19] 4513 	ld	-1 (ix), #0
    00001835                       4514 00270$:
    00001835 DD 7E FE         [19] 4515 	ld	a, -2 (ix)
    00001838 DD 77 FD         [19] 4516 	ld	-3 (ix), a
                                   4517 ;E:\Dropbox\FAUSTO\SVILUPPI\MSX\CODE\C\MSXgl\projects\soccerlg/soccerlg_s2_b1.c:830: g_Players[kickerId].Direction = kDir;
    0000183B DD 4E E9         [19] 4518 	ld	c, -23 (ix)
    0000183E 06 00            [ 7] 4519 	ld	b, #0x00
    00001840 69               [ 4] 4520 	ld	l, c
    00001841 60               [ 4] 4521 	ld	h, b
    00001842 29               [11] 4522 	add	hl, hl
    00001843 29               [11] 4523 	add	hl, hl
    00001844 09               [11] 4524 	add	hl, bc
    00001845 29               [11] 4525 	add	hl, hl
    00001846 29               [11] 4526 	add	hl, hl
    00001847 09               [11] 4527 	add	hl, bc
    00001848 DD 75 FE         [19] 4528 	ld	-2 (ix), l
    0000184B DD 74 FF         [19] 4529 	ld	-1 (ix), h
    0000184E 3Er00            [ 7] 4530 	ld	a, #<(_g_Players)
    00001850 DD 86 FE         [19] 4531 	add	a, -2 (ix)
    00001853 DD 77 FA         [19] 4532 	ld	-6 (ix), a
    00001856 3Es00            [ 7] 4533 	ld	a, #>(_g_Players)
    00001858 DD 8E FF         [19] 4534 	adc	a, -1 (ix)
    0000185B DD 77 FB         [19] 4535 	ld	-5 (ix), a
    0000185E DD 7E FA         [19] 4536 	ld	a, -6 (ix)
    00001861 C6 0A            [ 7] 4537 	add	a, #0x0a
    00001863 DD 77 FE         [19] 4538 	ld	-2 (ix), a
    00001866 DD 7E FB         [19] 4539 	ld	a, -5 (ix)
    00001869 CE 00            [ 7] 4540 	adc	a, #0x00
    0000186B DD 77 FF         [19] 4541 	ld	-1 (ix), a
    0000186E DD 6E FE         [19] 4542 	ld	l, -2 (ix)
    00001871 DD 66 FF         [19] 4543 	ld	h, -1 (ix)
    00001874 DD 7E FD         [19] 4544 	ld	a, -3 (ix)
    00001877 77               [ 7] 4545 	ld	(hl), a
                                   4546 ;E:\Dropbox\FAUSTO\SVILUPPI\MSX\CODE\C\MSXgl\projects\soccerlg/soccerlg_s2_b1.c:831: g_Players[kickerId].PatternId = Trampoline_U8_P1(4,GetNoMovingPlayerPatternId,kDir);
    00001878 DD 7E FA         [19] 4547 	ld	a, -6 (ix)
    0000187B C6 08            [ 7] 4548 	add	a, #0x08
    0000187D DD 77 FE         [19] 4549 	ld	-2 (ix), a
    00001880 DD 7E FB         [19] 4550 	ld	a, -5 (ix)
    00001883 CE 00            [ 7] 4551 	adc	a, #0x00
    00001885 DD 77 FF         [19] 4552 	ld	-1 (ix), a
    00001888 DD 7E FD         [19] 4553 	ld	a, -3 (ix)
    0000188B F5               [11] 4554 	push	af
    0000188C 33               [ 6] 4555 	inc	sp
    0000188D 11r00r00         [10] 4556 	ld	de, #_GetNoMovingPlayerPatternId
    00001890 3E 04            [ 7] 4557 	ld	a, #0x04
    00001892 CDr00r00         [17] 4558 	call	_Trampoline_U8_P1
    00001895 DD 77 FD         [19] 4559 	ld	-3 (ix), a
    00001898 DD 6E FE         [19] 4560 	ld	l, -2 (ix)
    0000189B DD 66 FF         [19] 4561 	ld	h, -1 (ix)
    0000189E DD 7E FD         [19] 4562 	ld	a, -3 (ix)
    000018A1 77               [ 7] 4563 	ld	(hl), a
                                   4564 ;E:\Dropbox\FAUSTO\SVILUPPI\MSX\CODE\C\MSXgl\projects\soccerlg/soccerlg_s2_b1.c:832: g_Players[kickerId].X = g_Players[kickerId].TargetX;
    000018A2 DD 7E FA         [19] 4565 	ld	a, -6 (ix)
    000018A5 C6 02            [ 7] 4566 	add	a, #0x02
    000018A7 DD 77 FC         [19] 4567 	ld	-4 (ix), a
    000018AA DD 7E FB         [19] 4568 	ld	a, -5 (ix)
    000018AD CE 00            [ 7] 4569 	adc	a, #0x00
    000018AF DD 77 FD         [19] 4570 	ld	-3 (ix), a
    000018B2 DD 7E FA         [19] 4571 	ld	a, -6 (ix)
    000018B5 DD 77 FE         [19] 4572 	ld	-2 (ix), a
    000018B8 DD 7E FB         [19] 4573 	ld	a, -5 (ix)
    000018BB DD 77 FF         [19] 4574 	ld	-1 (ix), a
    000018BE DD 6E FE         [19] 4575 	ld	l, -2 (ix)
    000018C1 DD 66 FF         [19] 4576 	ld	h, -1 (ix)
    000018C4 11 10 00         [10] 4577 	ld	de, #0x0010
    000018C7 19               [11] 4578 	add	hl, de
    000018C8 7E               [ 7] 4579 	ld	a, (hl)
    000018C9 DD 77 FE         [19] 4580 	ld	-2 (ix), a
    000018CC 23               [ 6] 4581 	inc	hl
    000018CD 7E               [ 7] 4582 	ld	a, (hl)
    000018CE DD 77 FF         [19] 4583 	ld	-1 (ix), a
    000018D1 DD 6E FC         [19] 4584 	ld	l, -4 (ix)
    000018D4 DD 66 FD         [19] 4585 	ld	h, -3 (ix)
    000018D7 DD 7E FE         [19] 4586 	ld	a, -2 (ix)
    000018DA 77               [ 7] 4587 	ld	(hl), a
    000018DB 23               [ 6] 4588 	inc	hl
    000018DC DD 7E FF         [19] 4589 	ld	a, -1 (ix)
    000018DF 77               [ 7] 4590 	ld	(hl), a
                                   4591 ;E:\Dropbox\FAUSTO\SVILUPPI\MSX\CODE\C\MSXgl\projects\soccerlg/soccerlg_s2_b1.c:833: g_Players[kickerId].Y = g_Players[kickerId].TargetY;
    000018E0 DD 7E FA         [19] 4592 	ld	a, -6 (ix)
    000018E3 DD 77 FE         [19] 4593 	ld	-2 (ix), a
    000018E6 DD 7E FB         [19] 4594 	ld	a, -5 (ix)
    000018E9 DD 77 FF         [19] 4595 	ld	-1 (ix), a
    000018EC DD 6E FE         [19] 4596 	ld	l, -2 (ix)
    000018EF DD 66 FF         [19] 4597 	ld	h, -1 (ix)
    000018F2 11 0E 00         [10] 4598 	ld	de, #0x000e
    000018F5 19               [11] 4599 	add	hl, de
    000018F6 7E               [ 7] 4600 	ld	a, (hl)
    000018F7 DD 77 FE         [19] 4601 	ld	-2 (ix), a
    000018FA 23               [ 6] 4602 	inc	hl
    000018FB 7E               [ 7] 4603 	ld	a, (hl)
    000018FC DD 77 FF         [19] 4604 	ld	-1 (ix), a
    000018FF DD 6E FA         [19] 4605 	ld	l, -6 (ix)
    00001902 DD 66 FB         [19] 4606 	ld	h, -5 (ix)
    00001905 DD 7E FE         [19] 4607 	ld	a, -2 (ix)
    00001908 77               [ 7] 4608 	ld	(hl), a
    00001909 23               [ 6] 4609 	inc	hl
    0000190A DD 7E FF         [19] 4610 	ld	a, -1 (ix)
    0000190D 77               [ 7] 4611 	ld	(hl), a
                                   4612 ;E:\Dropbox\FAUSTO\SVILUPPI\MSX\CODE\C\MSXgl\projects\soccerlg/soccerlg_s2_b1.c:835: g_Players[kickerId].Status = PLAYER_STATUS_POSITIONED; 
    0000190E DD 6E FA         [19] 4613 	ld	l, -6 (ix)
    00001911 DD 66 FB         [19] 4614 	ld	h, -5 (ix)
    00001914 11 12 00         [10] 4615 	ld	de, #0x0012
    00001917 19               [11] 4616 	add	hl, de
    00001918 36 04            [10] 4617 	ld	(hl), #0x04
    0000191A 23               [ 6] 4618 	inc	hl
    0000191B 36 00            [10] 4619 	ld	(hl), #0x00
    0000191D                       4620 00209$:
                                   4621 ;E:\Dropbox\FAUSTO\SVILUPPI\MSX\CODE\C\MSXgl\projects\soccerlg/soccerlg_s2_b1.c:838: bool t1Trigger = IsJoystickTriggerPressed();
    0000191D CDrE6r19         [17] 4622 	call	_IsJoystickTriggerPressed
    00001920 4F               [ 4] 4623 	ld	c, a
                                   4624 ;E:\Dropbox\FAUSTO\SVILUPPI\MSX\CODE\C\MSXgl\projects\soccerlg/soccerlg_s2_b1.c:840: if (g_Timer == 180) t1Latched = true;
    00001921 3Ar00r00         [13] 4625 	ld	a, (_g_Timer+0)
    00001924 D6 B4            [ 7] 4626 	sub	a, #0xb4
    00001926 20 05            [12] 4627 	jr	NZ, 00211$
    00001928 21r03r00         [10] 4628 	ld	hl, #_TickCornerKick_t1Latched_131079_1428
    0000192B 36 01            [10] 4629 	ld	(hl), #0x01
    0000192D                       4630 00211$:
                                   4631 ;E:\Dropbox\FAUSTO\SVILUPPI\MSX\CODE\C\MSXgl\projects\soccerlg/soccerlg_s2_b1.c:841: if (!t1Trigger) t1Latched = false;
    0000192D 79               [ 4] 4632 	ld	a, c
    0000192E B7               [ 4] 4633 	or	a, a
    0000192F 20 05            [12] 4634 	jr	NZ, 00213$
    00001931 21r03r00         [10] 4635 	ld	hl, #_TickCornerKick_t1Latched_131079_1428
    00001934 36 00            [10] 4636 	ld	(hl), #0x00
    00001936                       4637 00213$:
                                   4638 ;E:\Dropbox\FAUSTO\SVILUPPI\MSX\CODE\C\MSXgl\projects\soccerlg/soccerlg_s2_b1.c:844: if (g_CornerKickTargetId != NO_VALUE) {
    00001936 3Ar00r00         [13] 4639 	ld	a, (_g_CornerKickTargetId+0)
    00001939 3C               [ 4] 4640 	inc	a
    0000193A 28 0D            [12] 4641 	jr	Z, 00215$
                                   4642 ;E:\Dropbox\FAUSTO\SVILUPPI\MSX\CODE\C\MSXgl\projects\soccerlg/soccerlg_s2_b1.c:845: g_Ball.PassTargetPlayerId = g_CornerKickTargetId;
    0000193C 21r10r00         [10] 4643 	ld	hl, #(_g_Ball + 16)
    0000193F 3Ar00r00         [13] 4644 	ld	a, (_g_CornerKickTargetId+0)
    00001942 77               [ 7] 4645 	ld	(hl), a
                                   4646 ;E:\Dropbox\FAUSTO\SVILUPPI\MSX\CODE\C\MSXgl\projects\soccerlg/soccerlg_s2_b1.c:846: g_PassTargetPlayer = g_CornerKickTargetId;
    00001943 3Ar00r00         [13] 4647 	ld	a, (_g_CornerKickTargetId+0)
    00001946 32r00r00         [13] 4648 	ld	(_g_PassTargetPlayer+0), a
    00001949                       4649 00215$:
                                   4650 ;E:\Dropbox\FAUSTO\SVILUPPI\MSX\CODE\C\MSXgl\projects\soccerlg/soccerlg_s2_b1.c:848: if ((t1Trigger && !t1Latched || s_ForceKickTimer > 240) && g_CornerKickTargetId != NO_VALUE) {
    00001949 79               [ 4] 4651 	ld	a, c
    0000194A B7               [ 4] 4652 	or	a, a
    0000194B 28 06            [12] 4653 	jr	Z, 00219$
    0000194D 3Ar03r00         [13] 4654 	ld	a, (_TickCornerKick_t1Latched_131079_1428+0)
    00001950 B7               [ 4] 4655 	or	a, a
    00001951 28 0C            [12] 4656 	jr	Z, 00220$
    00001953                       4657 00219$:
    00001953 2Ar00r00         [16] 4658 	ld	hl, (_TickCornerKick_s_ForceKickTimer_65537_1390)
    00001956 3E F0            [ 7] 4659 	ld	a, #0xf0
    00001958 BD               [ 4] 4660 	cp	a, l
    00001959 3E 00            [ 7] 4661 	ld	a, #0x00
    0000195B 9C               [ 4] 4662 	sbc	a, h
    0000195C D2rE1r19         [10] 4663 	jp	NC, 00243$
    0000195F                       4664 00220$:
    0000195F 3Ar00r00         [13] 4665 	ld	a, (_g_CornerKickTargetId+0)
    00001962 3C               [ 4] 4666 	inc	a
    00001963 28 7C            [12] 4667 	jr	Z, 00243$
                                   4668 ;E:\Dropbox\FAUSTO\SVILUPPI\MSX\CODE\C\MSXgl\projects\soccerlg/soccerlg_s2_b1.c:849: PerformPass(g_CornerKickTargetId);
    00001965 3Ar00r00         [13] 4669 	ld	a, (_g_CornerKickTargetId+0)
    00001968 CDrFDr19         [17] 4670 	call	_PerformPass
                                   4671 ;E:\Dropbox\FAUSTO\SVILUPPI\MSX\CODE\C\MSXgl\projects\soccerlg/soccerlg_s2_b1.c:850: g_MatchStatus = MATCH_IN_ACTION;
    0000196B 21r00r00         [10] 4672 	ld	hl, #_g_MatchStatus
    0000196E 36 0C            [10] 4673 	ld	(hl), #0x0c
                                   4674 ;E:\Dropbox\FAUSTO\SVILUPPI\MSX\CODE\C\MSXgl\projects\soccerlg/soccerlg_s2_b1.c:851: g_CornerKickTargetId = NO_VALUE;
    00001970 21r00r00         [10] 4675 	ld	hl, #_g_CornerKickTargetId
    00001973 36 FF            [10] 4676 	ld	(hl), #0xff
    00001975 C3rE1r19         [10] 4677 	jp	00243$
    00001978                       4678 00233$:
                                   4679 ;E:\Dropbox\FAUSTO\SVILUPPI\MSX\CODE\C\MSXgl\projects\soccerlg/soccerlg_s2_b1.c:857: if (g_CornerKickTargetId == NO_VALUE) {
    00001978 3Ar00r00         [13] 4680 	ld	a, (_g_CornerKickTargetId+0)
    0000197B 3C               [ 4] 4681 	inc	a
    0000197C 20 32            [12] 4682 	jr	NZ, 00226$
                                   4683 ;E:\Dropbox\FAUSTO\SVILUPPI\MSX\CODE\C\MSXgl\projects\soccerlg/soccerlg_s2_b1.c:858: u8 randomRole = ((g_Timer & 1) == 0) ? PLAYER_ROLE_LEFT_STRIKER : PLAYER_ROLE_RIGHT_STRIKER;
    0000197E 3Ar00r00         [13] 4684 	ld	a, (_g_Timer+0)
    00001981 0F               [ 4] 4685 	rrca
    00001982 38 06            [12] 4686 	jr	C, 00271$
    00001984 21 05 00         [10] 4687 	ld	hl, #0x0005
    00001987 C3r8Dr19         [10] 4688 	jp	00272$
    0000198A                       4689 00271$:
    0000198A 21 06 00         [10] 4690 	ld	hl, #0x0006
    0000198D                       4691 00272$:
                                   4692 ;E:\Dropbox\FAUSTO\SVILUPPI\MSX\CODE\C\MSXgl\projects\soccerlg/soccerlg_s2_b1.c:859: u8 strikerId = GetPlayerIdByRole(g_RestartKickTeamId, randomRole);
    0000198D 3Ar00r00         [13] 4693 	ld	a, (_g_RestartKickTeamId+0)
    00001990 CDr49r09         [17] 4694 	call	_GetPlayerIdByRole
                                   4695 ;E:\Dropbox\FAUSTO\SVILUPPI\MSX\CODE\C\MSXgl\projects\soccerlg/soccerlg_s2_b1.c:862: if (strikerId != NO_VALUE && strikerId != kickerId) {
    00001993 4F               [ 4] 4696 	ld	c, a
    00001994 3C               [ 4] 4697 	inc	a
    00001995 28 0D            [12] 4698 	jr	Z, 00222$
    00001997 DD 7E E9         [19] 4699 	ld	a, -23 (ix)
    0000199A 91               [ 4] 4700 	sub	a, c
    0000199B 28 07            [12] 4701 	jr	Z, 00222$
                                   4702 ;E:\Dropbox\FAUSTO\SVILUPPI\MSX\CODE\C\MSXgl\projects\soccerlg/soccerlg_s2_b1.c:863: g_CornerKickTargetId = strikerId;
    0000199D 21r00r00         [10] 4703 	ld	hl, #_g_CornerKickTargetId
    000019A0 71               [ 7] 4704 	ld	(hl), c
    000019A1 C3rB0r19         [10] 4705 	jp	00226$
    000019A4                       4706 00222$:
                                   4707 ;E:\Dropbox\FAUSTO\SVILUPPI\MSX\CODE\C\MSXgl\projects\soccerlg/soccerlg_s2_b1.c:865: g_CornerKickTargetId = GetClosestPlayerToBall(g_RestartKickTeamId, kickerId);
    000019A4 DD 6E E9         [19] 4708 	ld	l, -23 (ix)
                                   4709 ;	spillPairReg hl
                                   4710 ;	spillPairReg hl
    000019A7 3Ar00r00         [13] 4711 	ld	a, (_g_RestartKickTeamId+0)
    000019AA CDrA4r09         [17] 4712 	call	_GetClosestPlayerToBall
    000019AD 32r00r00         [13] 4713 	ld	(_g_CornerKickTargetId+0), a
    000019B0                       4714 00226$:
                                   4715 ;E:\Dropbox\FAUSTO\SVILUPPI\MSX\CODE\C\MSXgl\projects\soccerlg/soccerlg_s2_b1.c:869: if (g_Timer > 200) {
    000019B0 3E C8            [ 7] 4716 	ld	a, #0xc8
    000019B2 21r00r00         [10] 4717 	ld	hl, #_g_Timer
    000019B5 96               [ 7] 4718 	sub	a, (hl)
    000019B6 30 25            [12] 4719 	jr	NC, 00230$
                                   4720 ;E:\Dropbox\FAUSTO\SVILUPPI\MSX\CODE\C\MSXgl\projects\soccerlg/soccerlg_s2_b1.c:870: if (g_CornerKickTargetId == NO_VALUE) g_CornerKickTargetId = GetClosestPlayerToBall(g_RestartKickTeamId, kickerId);
    000019B8 3Ar00r00         [13] 4721 	ld	a, (_g_CornerKickTargetId+0)
    000019BB 3C               [ 4] 4722 	inc	a
    000019BC 20 0C            [12] 4723 	jr	NZ, 00228$
    000019BE DD 6E E9         [19] 4724 	ld	l, -23 (ix)
                                   4725 ;	spillPairReg hl
                                   4726 ;	spillPairReg hl
    000019C1 3Ar00r00         [13] 4727 	ld	a, (_g_RestartKickTeamId+0)
    000019C4 CDrA4r09         [17] 4728 	call	_GetClosestPlayerToBall
    000019C7 32r00r00         [13] 4729 	ld	(_g_CornerKickTargetId+0), a
    000019CA                       4730 00228$:
                                   4731 ;E:\Dropbox\FAUSTO\SVILUPPI\MSX\CODE\C\MSXgl\projects\soccerlg/soccerlg_s2_b1.c:872: PerformPass(g_CornerKickTargetId);
    000019CA 3Ar00r00         [13] 4732 	ld	a, (_g_CornerKickTargetId+0)
    000019CD CDrFDr19         [17] 4733 	call	_PerformPass
                                   4734 ;E:\Dropbox\FAUSTO\SVILUPPI\MSX\CODE\C\MSXgl\projects\soccerlg/soccerlg_s2_b1.c:873: g_MatchStatus = MATCH_IN_ACTION; 
    000019D0 21r00r00         [10] 4735 	ld	hl, #_g_MatchStatus
    000019D3 36 0C            [10] 4736 	ld	(hl), #0x0c
                                   4737 ;E:\Dropbox\FAUSTO\SVILUPPI\MSX\CODE\C\MSXgl\projects\soccerlg/soccerlg_s2_b1.c:874: g_CornerKickTargetId = NO_VALUE;
    000019D5 21r00r00         [10] 4738 	ld	hl, #_g_CornerKickTargetId
    000019D8 36 FF            [10] 4739 	ld	(hl), #0xff
    000019DA C3rE1r19         [10] 4740 	jp	00243$
    000019DD                       4741 00230$:
                                   4742 ;E:\Dropbox\FAUSTO\SVILUPPI\MSX\CODE\C\MSXgl\projects\soccerlg/soccerlg_s2_b1.c:876: g_Timer++;
    000019DD 21r00r00         [10] 4743 	ld	hl, #_g_Timer
    000019E0 34               [11] 4744 	inc	(hl)
    000019E1                       4745 00243$:
                                   4746 ;E:\Dropbox\FAUSTO\SVILUPPI\MSX\CODE\C\MSXgl\projects\soccerlg/soccerlg_s2_b1.c:879: }
    000019E1 DD F9            [10] 4747 	ld	sp, ix
    000019E3 DD E1            [14] 4748 	pop	ix
    000019E5 C9               [10] 4749 	ret
                                   4750 ;E:\Dropbox\FAUSTO\SVILUPPI\MSX\CODE\C\MSXgl\projects\soccerlg/soccerlg_s2_b1.c:881: bool IsJoystickTriggerPressed(){
                                   4751 ;	---------------------------------
                                   4752 ; Function IsJoystickTriggerPressed
                                   4753 ; ---------------------------------
    000019E6                       4754 _IsJoystickTriggerPressed::
                                   4755 ;E:\Dropbox\FAUSTO\SVILUPPI\MSX\CODE\C\MSXgl\projects\soccerlg/soccerlg_s2_b1.c:882: u8 joyStat = Joystick_Read(JOY_PORT_1);
    000019E6 2E 0F            [ 7] 4756 	ld	l, #0x0f
                                   4757 ;	spillPairReg hl
                                   4758 ;	spillPairReg hl
    000019E8 CDr00r00         [17] 4759 	call	_Joystick_Read
                                   4760 ;E:\Dropbox\FAUSTO\SVILUPPI\MSX\CODE\C\MSXgl\projects\soccerlg/soccerlg_s2_b1.c:883: if (IS_JOY_PRESSED(joyStat, JOY_INPUT_TRIGGER_A))
    000019EB CB 65            [ 8] 4761 	bit	4, l
    000019ED 20 03            [12] 4762 	jr	NZ, 00102$
                                   4763 ;E:\Dropbox\FAUSTO\SVILUPPI\MSX\CODE\C\MSXgl\projects\soccerlg/soccerlg_s2_b1.c:885: return TRUE;
    000019EF 3E 01            [ 7] 4764 	ld	a, #0x01
    000019F1 C9               [10] 4765 	ret
    000019F2                       4766 00102$:
                                   4767 ;E:\Dropbox\FAUSTO\SVILUPPI\MSX\CODE\C\MSXgl\projects\soccerlg/soccerlg_s2_b1.c:888: if(Keyboard_IsKeyPressed(KEY_SPACE))
    000019F2 3E 08            [ 7] 4768 	ld	a, #0x08
    000019F4 CDr00r00         [17] 4769 	call	_Keyboard_IsKeyPressed
    000019F7 B7               [ 4] 4770 	or	a, a
                                   4771 ;E:\Dropbox\FAUSTO\SVILUPPI\MSX\CODE\C\MSXgl\projects\soccerlg/soccerlg_s2_b1.c:890: return TRUE;
                                   4772 ;E:\Dropbox\FAUSTO\SVILUPPI\MSX\CODE\C\MSXgl\projects\soccerlg/soccerlg_s2_b1.c:892: return FALSE;
    000019F8 3E 01            [ 7] 4773 	ld	a, #0x01
    000019FA C0               [11] 4774 	ret	NZ
    000019FB AF               [ 4] 4775 	xor	a, a
                                   4776 ;E:\Dropbox\FAUSTO\SVILUPPI\MSX\CODE\C\MSXgl\projects\soccerlg/soccerlg_s2_b1.c:893: }
    000019FC C9               [10] 4777 	ret
                                   4778 ;E:\Dropbox\FAUSTO\SVILUPPI\MSX\CODE\C\MSXgl\projects\soccerlg/soccerlg_s2_b1.c:895: void PerformPass(u8 toPlayerId) {
                                   4779 ;	---------------------------------
                                   4780 ; Function PerformPass
                                   4781 ; ---------------------------------
    000019FD                       4782 _PerformPass::
    000019FD DD E5            [15] 4783 	push	ix
    000019FF DD 21 00 00      [14] 4784 	ld	ix,#0
    00001A03 DD 39            [15] 4785 	add	ix,sp
    00001A05 21 EB FF         [10] 4786 	ld	hl, #-21
    00001A08 39               [11] 4787 	add	hl, sp
    00001A09 F9               [ 6] 4788 	ld	sp, hl
    00001A0A DD 77 FF         [19] 4789 	ld	-1 (ix), a
                                   4790 ;E:\Dropbox\FAUSTO\SVILUPPI\MSX\CODE\C\MSXgl\projects\soccerlg/soccerlg_s2_b1.c:897: u8 fromId = g_Ball.PossessionPlayerId;
    00001A0D 3Ar06r00         [13] 4791 	ld	a, (#(_g_Ball + 6) + 0)
                                   4792 ;E:\Dropbox\FAUSTO\SVILUPPI\MSX\CODE\C\MSXgl\projects\soccerlg/soccerlg_s2_b1.c:901: if (fromId == NO_VALUE) return;
    00001A10 DD 77 FE         [19] 4793 	ld	-2 (ix), a
    00001A13 3C               [ 4] 4794 	inc	a
    00001A14 CArC6r1D         [10] 4795 	jp	Z,00155$
    00001A17 C3r1Ar1A         [10] 4796 	jp	00102$
    00001A1A                       4797 00102$:
                                   4798 ;E:\Dropbox\FAUSTO\SVILUPPI\MSX\CODE\C\MSXgl\projects\soccerlg/soccerlg_s2_b1.c:902: if (toPlayerId == NO_VALUE) return;
    00001A1A DD 7E FF         [19] 4799 	ld	a, -1 (ix)
    00001A1D 3C               [ 4] 4800 	inc	a
    00001A1E CArC6r1D         [10] 4801 	jp	Z,00155$
    00001A21 C3r24r1A         [10] 4802 	jp	00104$
    00001A24                       4803 00104$:
                                   4804 ;E:\Dropbox\FAUSTO\SVILUPPI\MSX\CODE\C\MSXgl\projects\soccerlg/soccerlg_s2_b1.c:905: if (g_Players[toPlayerId].Role == PLAYER_ROLE_GOALKEEPER) return;
    00001A24 01r00r00         [10] 4805 	ld	bc, #_g_Players+0
    00001A27 DD 5E FF         [19] 4806 	ld	e, -1 (ix)
    00001A2A 16 00            [ 7] 4807 	ld	d, #0x00
    00001A2C 6B               [ 4] 4808 	ld	l, e
    00001A2D 62               [ 4] 4809 	ld	h, d
    00001A2E 29               [11] 4810 	add	hl, hl
    00001A2F 29               [11] 4811 	add	hl, hl
    00001A30 19               [11] 4812 	add	hl, de
    00001A31 29               [11] 4813 	add	hl, hl
    00001A32 29               [11] 4814 	add	hl, hl
    00001A33 19               [11] 4815 	add	hl, de
    00001A34 09               [11] 4816 	add	hl, bc
    00001A35 E3               [19] 4817 	ex	(sp), hl
    00001A36 D1               [10] 4818 	pop	de
    00001A37 D5               [11] 4819 	push	de
    00001A38 21 0D 00         [10] 4820 	ld	hl, #13
    00001A3B 19               [11] 4821 	add	hl, de
    00001A3C 7E               [ 7] 4822 	ld	a, (hl)
    00001A3D B7               [ 4] 4823 	or	a, a
    00001A3E CArC6r1D         [10] 4824 	jp	Z,00155$
                                   4825 ;E:\Dropbox\FAUSTO\SVILUPPI\MSX\CODE\C\MSXgl\projects\soccerlg/soccerlg_s2_b1.c:909: if (g_Players[fromId].Role != PLAYER_ROLE_GOALKEEPER) {
    00001A41 DD 5E FE         [19] 4826 	ld	e, -2 (ix)
    00001A44 16 00            [ 7] 4827 	ld	d, #0x00
    00001A46 6B               [ 4] 4828 	ld	l, e
    00001A47 62               [ 4] 4829 	ld	h, d
    00001A48 29               [11] 4830 	add	hl, hl
    00001A49 29               [11] 4831 	add	hl, hl
    00001A4A 19               [11] 4832 	add	hl, de
    00001A4B 29               [11] 4833 	add	hl, hl
    00001A4C 29               [11] 4834 	add	hl, hl
    00001A4D 19               [11] 4835 	add	hl, de
    00001A4E 09               [11] 4836 	add	hl, bc
    00001A4F DD 75 ED         [19] 4837 	ld	-19 (ix), l
    00001A52 DD 74 EE         [19] 4838 	ld	-18 (ix), h
    00001A55 DD 7E ED         [19] 4839 	ld	a, -19 (ix)
    00001A58 C6 0D            [ 7] 4840 	add	a, #0x0d
    00001A5A DD 77 EF         [19] 4841 	ld	-17 (ix), a
    00001A5D DD 7E EE         [19] 4842 	ld	a, -18 (ix)
    00001A60 CE 00            [ 7] 4843 	adc	a, #0x00
    00001A62 DD 77 F0         [19] 4844 	ld	-16 (ix), a
    00001A65 DD 6E EF         [19] 4845 	ld	l, -17 (ix)
    00001A68 DD 66 F0         [19] 4846 	ld	h, -16 (ix)
    00001A6B 7E               [ 7] 4847 	ld	a, (hl)
    00001A6C B7               [ 4] 4848 	or	a, a
    00001A6D 28 0A            [12] 4849 	jr	Z, 00110$
                                   4850 ;E:\Dropbox\FAUSTO\SVILUPPI\MSX\CODE\C\MSXgl\projects\soccerlg/soccerlg_s2_b1.c:910: if (IsOffside(toPlayerId)) {
    00001A6F DD 7E FF         [19] 4851 	ld	a, -1 (ix)
    00001A72 CDrCBr1D         [17] 4852 	call	_IsOffside
    00001A75 B7               [ 4] 4853 	or	a, a
                                   4854 ;E:\Dropbox\FAUSTO\SVILUPPI\MSX\CODE\C\MSXgl\projects\soccerlg/soccerlg_s2_b1.c:912: return;
    00001A76 C2rC6r1D         [10] 4855 	jp	NZ,00155$
    00001A79                       4856 00110$:
                                   4857 ;E:\Dropbox\FAUSTO\SVILUPPI\MSX\CODE\C\MSXgl\projects\soccerlg/soccerlg_s2_b1.c:917: dx = (i16)g_Players[toPlayerId].X - (i16)g_Players[fromId].X;
    00001A79 DD 7E EB         [19] 4858 	ld	a, -21 (ix)
    00001A7C C6 02            [ 7] 4859 	add	a, #0x02
    00001A7E DD 77 F1         [19] 4860 	ld	-15 (ix), a
    00001A81 DD 7E EC         [19] 4861 	ld	a, -20 (ix)
    00001A84 CE 00            [ 7] 4862 	adc	a, #0x00
    00001A86 DD 77 F2         [19] 4863 	ld	-14 (ix), a
    00001A89 DD 6E F1         [19] 4864 	ld	l, -15 (ix)
    00001A8C DD 66 F2         [19] 4865 	ld	h, -14 (ix)
    00001A8F 4E               [ 7] 4866 	ld	c, (hl)
    00001A90 23               [ 6] 4867 	inc	hl
    00001A91 46               [ 7] 4868 	ld	b, (hl)
    00001A92 DD 7E ED         [19] 4869 	ld	a, -19 (ix)
    00001A95 C6 02            [ 7] 4870 	add	a, #0x02
    00001A97 DD 77 F3         [19] 4871 	ld	-13 (ix), a
    00001A9A DD 7E EE         [19] 4872 	ld	a, -18 (ix)
    00001A9D CE 00            [ 7] 4873 	adc	a, #0x00
    00001A9F DD 77 F4         [19] 4874 	ld	-12 (ix), a
    00001AA2 DD 6E F3         [19] 4875 	ld	l, -13 (ix)
    00001AA5 DD 66 F4         [19] 4876 	ld	h, -12 (ix)
    00001AA8 5E               [ 7] 4877 	ld	e, (hl)
    00001AA9 23               [ 6] 4878 	inc	hl
    00001AAA 56               [ 7] 4879 	ld	d, (hl)
    00001AAB 79               [ 4] 4880 	ld	a, c
    00001AAC 93               [ 4] 4881 	sub	a, e
    00001AAD DD 77 FB         [19] 4882 	ld	-5 (ix), a
    00001AB0 78               [ 4] 4883 	ld	a, b
    00001AB1 9A               [ 4] 4884 	sbc	a, d
    00001AB2 DD 77 FC         [19] 4885 	ld	-4 (ix), a
                                   4886 ;E:\Dropbox\FAUSTO\SVILUPPI\MSX\CODE\C\MSXgl\projects\soccerlg/soccerlg_s2_b1.c:918: dy = (i16)g_Players[toPlayerId].Y - (i16)g_Players[fromId].Y;
    00001AB5 E1               [10] 4887 	pop	hl
    00001AB6 E5               [11] 4888 	push	hl
    00001AB7 4E               [ 7] 4889 	ld	c, (hl)
    00001AB8 23               [ 6] 4890 	inc	hl
    00001AB9 46               [ 7] 4891 	ld	b, (hl)
    00001ABA DD 6E ED         [19] 4892 	ld	l, -19 (ix)
    00001ABD DD 66 EE         [19] 4893 	ld	h, -18 (ix)
    00001AC0 5E               [ 7] 4894 	ld	e, (hl)
    00001AC1 23               [ 6] 4895 	inc	hl
    00001AC2 56               [ 7] 4896 	ld	d, (hl)
    00001AC3 79               [ 4] 4897 	ld	a, c
    00001AC4 93               [ 4] 4898 	sub	a, e
    00001AC5 DD 77 F5         [19] 4899 	ld	-11 (ix), a
    00001AC8 78               [ 4] 4900 	ld	a, b
    00001AC9 9A               [ 4] 4901 	sbc	a, d
    00001ACA DD 77 F6         [19] 4902 	ld	-10 (ix), a
                                   4903 ;E:\Dropbox\FAUSTO\SVILUPPI\MSX\CODE\C\MSXgl\projects\soccerlg/soccerlg_s2_b1.c:919: adx = (dx < 0) ? -dx : dx;
    00001ACD DD 7E FB         [19] 4904 	ld	a, -5 (ix)
    00001AD0 DD 77 F7         [19] 4905 	ld	-9 (ix), a
    00001AD3 DD 7E FC         [19] 4906 	ld	a, -4 (ix)
    00001AD6 DD 77 F8         [19] 4907 	ld	-8 (ix), a
    00001AD9 DD CB F8 7E      [20] 4908 	bit	7, -8 (ix)
    00001ADD 28 11            [12] 4909 	jr	Z, 00157$
    00001ADF AF               [ 4] 4910 	xor	a, a
    00001AE0 DD 96 FB         [19] 4911 	sub	a, -5 (ix)
    00001AE3 DD 77 FD         [19] 4912 	ld	-3 (ix), a
    00001AE6 9F               [ 4] 4913 	sbc	a, a
    00001AE7 DD 96 FC         [19] 4914 	sub	a, -4 (ix)
    00001AEA DD 77 FE         [19] 4915 	ld	-2 (ix), a
    00001AED C3rFCr1A         [10] 4916 	jp	00158$
    00001AF0                       4917 00157$:
    00001AF0 DD 7E FB         [19] 4918 	ld	a, -5 (ix)
    00001AF3 DD 77 FD         [19] 4919 	ld	-3 (ix), a
    00001AF6 DD 7E FC         [19] 4920 	ld	a, -4 (ix)
    00001AF9 DD 77 FE         [19] 4921 	ld	-2 (ix), a
    00001AFC                       4922 00158$:
    00001AFC DD 7E FD         [19] 4923 	ld	a, -3 (ix)
    00001AFF DD 77 F9         [19] 4924 	ld	-7 (ix), a
    00001B02 DD 7E FE         [19] 4925 	ld	a, -2 (ix)
    00001B05 DD 77 FA         [19] 4926 	ld	-6 (ix), a
                                   4927 ;E:\Dropbox\FAUSTO\SVILUPPI\MSX\CODE\C\MSXgl\projects\soccerlg/soccerlg_s2_b1.c:920: ady = (dy < 0) ? -dy : dy;
    00001B08 DD 7E F5         [19] 4928 	ld	a, -11 (ix)
    00001B0B DD 77 FB         [19] 4929 	ld	-5 (ix), a
    00001B0E DD 7E F6         [19] 4930 	ld	a, -10 (ix)
    00001B11 DD 77 FC         [19] 4931 	ld	-4 (ix), a
    00001B14 DD CB FC 7E      [20] 4932 	bit	7, -4 (ix)
    00001B18 28 11            [12] 4933 	jr	Z, 00159$
    00001B1A AF               [ 4] 4934 	xor	a, a
    00001B1B DD 96 F5         [19] 4935 	sub	a, -11 (ix)
    00001B1E DD 77 FD         [19] 4936 	ld	-3 (ix), a
    00001B21 9F               [ 4] 4937 	sbc	a, a
    00001B22 DD 96 F6         [19] 4938 	sub	a, -10 (ix)
    00001B25 DD 77 FE         [19] 4939 	ld	-2 (ix), a
    00001B28 C3r37r1B         [10] 4940 	jp	00160$
    00001B2B                       4941 00159$:
    00001B2B DD 7E F5         [19] 4942 	ld	a, -11 (ix)
    00001B2E DD 77 FD         [19] 4943 	ld	-3 (ix), a
    00001B31 DD 7E F6         [19] 4944 	ld	a, -10 (ix)
    00001B34 DD 77 FE         [19] 4945 	ld	-2 (ix), a
    00001B37                       4946 00160$:
    00001B37 DD 4E FD         [19] 4947 	ld	c, -3 (ix)
    00001B3A DD 46 FE         [19] 4948 	ld	b, -2 (ix)
                                   4949 ;E:\Dropbox\FAUSTO\SVILUPPI\MSX\CODE\C\MSXgl\projects\soccerlg/soccerlg_s2_b1.c:922: if (adx > ady * 2) {
    00001B3D 69               [ 4] 4950 	ld	l, c
    00001B3E 60               [ 4] 4951 	ld	h, b
    00001B3F 29               [11] 4952 	add	hl, hl
    00001B40 DD 5E F9         [19] 4953 	ld	e, -7 (ix)
    00001B43 DD 56 FA         [19] 4954 	ld	d, -6 (ix)
    00001B46 7D               [ 4] 4955 	ld	a, l
    00001B47 93               [ 4] 4956 	sub	a, e
    00001B48 7C               [ 4] 4957 	ld	a, h
    00001B49 9A               [ 4] 4958 	sbc	a, d
    00001B4A E2r4Fr1B         [10] 4959 	jp	PO, 00322$
    00001B4D EE 80            [ 7] 4960 	xor	a, #0x80
    00001B4F                       4961 00322$:
    00001B4F F2r70r1B         [10] 4962 	jp	P, 00118$
                                   4963 ;E:\Dropbox\FAUSTO\SVILUPPI\MSX\CODE\C\MSXgl\projects\soccerlg/soccerlg_s2_b1.c:923: newDir = (dx > 0) ? DIRECTION_RIGHT : DIRECTION_LEFT;
    00001B52 AF               [ 4] 4964 	xor	a, a
    00001B53 DD BE F7         [19] 4965 	cp	a, -9 (ix)
    00001B56 DD 9E F8         [19] 4966 	sbc	a, -8 (ix)
    00001B59 E2r5Er1B         [10] 4967 	jp	PO, 00323$
    00001B5C EE 80            [ 7] 4968 	xor	a, #0x80
    00001B5E                       4969 00323$:
    00001B5E F2r67r1B         [10] 4970 	jp	P, 00161$
    00001B61 01 03 00         [10] 4971 	ld	bc, #0x0003
    00001B64 C3r6Ar1B         [10] 4972 	jp	00162$
    00001B67                       4973 00161$:
    00001B67 01 07 00         [10] 4974 	ld	bc, #0x0007
    00001B6A                       4975 00162$:
    00001B6A DD 71 FC         [19] 4976 	ld	-4 (ix), c
    00001B6D C3rD4r1B         [10] 4977 	jp	00119$
    00001B70                       4978 00118$:
                                   4979 ;E:\Dropbox\FAUSTO\SVILUPPI\MSX\CODE\C\MSXgl\projects\soccerlg/soccerlg_s2_b1.c:924: } else if (ady > adx * 2) {
    00001B70 EB               [ 4] 4980 	ex	de, hl
    00001B71 29               [11] 4981 	add	hl, hl
    00001B72 EB               [ 4] 4982 	ex	de, hl
                                   4983 ;E:\Dropbox\FAUSTO\SVILUPPI\MSX\CODE\C\MSXgl\projects\soccerlg/soccerlg_s2_b1.c:925: newDir = (dy > 0) ? DIRECTION_DOWN : DIRECTION_UP;
    00001B73 AF               [ 4] 4984 	xor	a, a
    00001B74 DD BE FB         [19] 4985 	cp	a, -5 (ix)
    00001B77 DD 9E FC         [19] 4986 	sbc	a, -4 (ix)
    00001B7A E2r7Fr1B         [10] 4987 	jp	PO, 00324$
    00001B7D EE 80            [ 7] 4988 	xor	a, #0x80
    00001B7F                       4989 00324$:
    00001B7F 07               [ 4] 4990 	rlca
    00001B80 E6 01            [ 7] 4991 	and	a,#0x01
    00001B82 6F               [ 4] 4992 	ld	l, a
                                   4993 ;	spillPairReg hl
                                   4994 ;	spillPairReg hl
                                   4995 ;E:\Dropbox\FAUSTO\SVILUPPI\MSX\CODE\C\MSXgl\projects\soccerlg/soccerlg_s2_b1.c:924: } else if (ady > adx * 2) {
    00001B83 7B               [ 4] 4996 	ld	a, e
    00001B84 91               [ 4] 4997 	sub	a, c
    00001B85 7A               [ 4] 4998 	ld	a, d
    00001B86 98               [ 4] 4999 	sbc	a, b
    00001B87 E2r8Cr1B         [10] 5000 	jp	PO, 00325$
    00001B8A EE 80            [ 7] 5001 	xor	a, #0x80
    00001B8C                       5002 00325$:
    00001B8C F2rA2r1B         [10] 5003 	jp	P, 00115$
                                   5004 ;E:\Dropbox\FAUSTO\SVILUPPI\MSX\CODE\C\MSXgl\projects\soccerlg/soccerlg_s2_b1.c:925: newDir = (dy > 0) ? DIRECTION_DOWN : DIRECTION_UP;
    00001B8F 7D               [ 4] 5005 	ld	a, l
    00001B90 B7               [ 4] 5006 	or	a, a
    00001B91 28 06            [12] 5007 	jr	Z, 00163$
    00001B93 01 05 00         [10] 5008 	ld	bc, #0x0005
    00001B96 C3r9Cr1B         [10] 5009 	jp	00164$
    00001B99                       5010 00163$:
    00001B99 01 01 00         [10] 5011 	ld	bc, #0x0001
    00001B9C                       5012 00164$:
    00001B9C DD 71 FC         [19] 5013 	ld	-4 (ix), c
    00001B9F C3rD4r1B         [10] 5014 	jp	00119$
    00001BA2                       5015 00115$:
                                   5016 ;E:\Dropbox\FAUSTO\SVILUPPI\MSX\CODE\C\MSXgl\projects\soccerlg/soccerlg_s2_b1.c:927: if (dx > 0) newDir = (dy > 0) ? DIRECTION_DOWN_RIGHT : DIRECTION_UP_RIGHT;
    00001BA2 AF               [ 4] 5017 	xor	a, a
    00001BA3 DD BE F7         [19] 5018 	cp	a, -9 (ix)
    00001BA6 DD 9E F8         [19] 5019 	sbc	a, -8 (ix)
    00001BA9 E2rAEr1B         [10] 5020 	jp	PO, 00326$
    00001BAC EE 80            [ 7] 5021 	xor	a, #0x80
    00001BAE                       5022 00326$:
    00001BAE F2rC4r1B         [10] 5023 	jp	P, 00112$
    00001BB1 7D               [ 4] 5024 	ld	a, l
    00001BB2 B7               [ 4] 5025 	or	a, a
    00001BB3 28 06            [12] 5026 	jr	Z, 00165$
    00001BB5 01 04 00         [10] 5027 	ld	bc, #0x0004
    00001BB8 C3rBEr1B         [10] 5028 	jp	00166$
    00001BBB                       5029 00165$:
    00001BBB 01 02 00         [10] 5030 	ld	bc, #0x0002
    00001BBE                       5031 00166$:
    00001BBE DD 71 FC         [19] 5032 	ld	-4 (ix), c
    00001BC1 C3rD4r1B         [10] 5033 	jp	00119$
    00001BC4                       5034 00112$:
                                   5035 ;E:\Dropbox\FAUSTO\SVILUPPI\MSX\CODE\C\MSXgl\projects\soccerlg/soccerlg_s2_b1.c:928: else newDir = (dy > 0) ? DIRECTION_DOWN_LEFT : DIRECTION_UP_LEFT;
    00001BC4 7D               [ 4] 5036 	ld	a, l
    00001BC5 B7               [ 4] 5037 	or	a, a
    00001BC6 28 06            [12] 5038 	jr	Z, 00167$
    00001BC8 01 06 00         [10] 5039 	ld	bc, #0x0006
    00001BCB C3rD1r1B         [10] 5040 	jp	00168$
    00001BCE                       5041 00167$:
    00001BCE 01 08 00         [10] 5042 	ld	bc, #0x0008
    00001BD1                       5043 00168$:
    00001BD1 DD 71 FC         [19] 5044 	ld	-4 (ix), c
    00001BD4                       5045 00119$:
                                   5046 ;E:\Dropbox\FAUSTO\SVILUPPI\MSX\CODE\C\MSXgl\projects\soccerlg/soccerlg_s2_b1.c:930: g_Players[fromId].Direction = newDir;
    00001BD4 DD 6E ED         [19] 5047 	ld	l, -19 (ix)
    00001BD7 DD 66 EE         [19] 5048 	ld	h, -18 (ix)
    00001BDA 11 0A 00         [10] 5049 	ld	de, #0x000a
    00001BDD 19               [11] 5050 	add	hl, de
    00001BDE DD 7E FC         [19] 5051 	ld	a, -4 (ix)
    00001BE1 77               [ 7] 5052 	ld	(hl), a
                                   5053 ;E:\Dropbox\FAUSTO\SVILUPPI\MSX\CODE\C\MSXgl\projects\soccerlg/soccerlg_s2_b1.c:933: if (newDir == DIRECTION_UP || newDir == DIRECTION_UP_LEFT || newDir == DIRECTION_UP_RIGHT) g_Players[fromId].PatternId = PLAYER_POSE_SHOT_FRONT;
    00001BE2 DD 7E FC         [19] 5054 	ld	a, -4 (ix)
    00001BE5 3D               [ 4] 5055 	dec	a
    00001BE6 28 0E            [12] 5056 	jr	Z, 00130$
    00001BE8 DD 7E FC         [19] 5057 	ld	a, -4 (ix)
    00001BEB D6 08            [ 7] 5058 	sub	a, #0x08
    00001BED 28 07            [12] 5059 	jr	Z, 00130$
    00001BEF DD 7E FC         [19] 5060 	ld	a, -4 (ix)
    00001BF2 D6 02            [ 7] 5061 	sub	a, #0x02
    00001BF4 20 1B            [12] 5062 	jr	NZ, 00131$
    00001BF6                       5063 00130$:
    00001BF6 DD 7E ED         [19] 5064 	ld	a, -19 (ix)
    00001BF9 C6 08            [ 7] 5065 	add	a, #0x08
    00001BFB DD 77 FD         [19] 5066 	ld	-3 (ix), a
    00001BFE DD 7E EE         [19] 5067 	ld	a, -18 (ix)
    00001C01 CE 00            [ 7] 5068 	adc	a, #0x00
    00001C03 DD 77 FE         [19] 5069 	ld	-2 (ix), a
    00001C06 DD 6E FD         [19] 5070 	ld	l, -3 (ix)
    00001C09 DD 66 FE         [19] 5071 	ld	h, -2 (ix)
    00001C0C 36 18            [10] 5072 	ld	(hl), #0x18
    00001C0E C3r5Er1C         [10] 5073 	jp	00132$
    00001C11                       5074 00131$:
                                   5075 ;E:\Dropbox\FAUSTO\SVILUPPI\MSX\CODE\C\MSXgl\projects\soccerlg/soccerlg_s2_b1.c:934: else if (newDir == DIRECTION_DOWN || newDir == DIRECTION_DOWN_LEFT || newDir == DIRECTION_DOWN_RIGHT) g_Players[fromId].PatternId = PLAYER_POSE_SHOT_BACK;
    00001C11 DD 7E FC         [19] 5076 	ld	a, -4 (ix)
    00001C14 D6 05            [ 7] 5077 	sub	a, #0x05
    00001C16 28 0E            [12] 5078 	jr	Z, 00125$
    00001C18 DD 7E FC         [19] 5079 	ld	a, -4 (ix)
    00001C1B D6 06            [ 7] 5080 	sub	a, #0x06
    00001C1D 28 07            [12] 5081 	jr	Z, 00125$
    00001C1F DD 7E FC         [19] 5082 	ld	a, -4 (ix)
    00001C22 D6 04            [ 7] 5083 	sub	a, #0x04
    00001C24 20 0F            [12] 5084 	jr	NZ, 00126$
    00001C26                       5085 00125$:
    00001C26 DD 6E ED         [19] 5086 	ld	l, -19 (ix)
    00001C29 DD 66 EE         [19] 5087 	ld	h, -18 (ix)
    00001C2C 11 08 00         [10] 5088 	ld	de, #0x0008
    00001C2F 19               [11] 5089 	add	hl, de
    00001C30 36 15            [10] 5090 	ld	(hl), #0x15
    00001C32 C3r5Er1C         [10] 5091 	jp	00132$
    00001C35                       5092 00126$:
                                   5093 ;E:\Dropbox\FAUSTO\SVILUPPI\MSX\CODE\C\MSXgl\projects\soccerlg/soccerlg_s2_b1.c:935: else if (newDir == DIRECTION_LEFT) g_Players[fromId].PatternId = PLAYER_POSE_SHOT_LEFT;
    00001C35 DD 7E FC         [19] 5094 	ld	a, -4 (ix)
    00001C38 D6 07            [ 7] 5095 	sub	a, #0x07
    00001C3A 20 0F            [12] 5096 	jr	NZ, 00123$
    00001C3C DD 6E ED         [19] 5097 	ld	l, -19 (ix)
    00001C3F DD 66 EE         [19] 5098 	ld	h, -18 (ix)
    00001C42 11 08 00         [10] 5099 	ld	de, #0x0008
    00001C45 19               [11] 5100 	add	hl, de
    00001C46 36 A4            [10] 5101 	ld	(hl), #0xa4
    00001C48 C3r5Er1C         [10] 5102 	jp	00132$
    00001C4B                       5103 00123$:
                                   5104 ;E:\Dropbox\FAUSTO\SVILUPPI\MSX\CODE\C\MSXgl\projects\soccerlg/soccerlg_s2_b1.c:936: else if (newDir == DIRECTION_RIGHT) g_Players[fromId].PatternId = PLAYER_POSE_SHOT_RIGHT;
    00001C4B DD 7E FC         [19] 5105 	ld	a, -4 (ix)
    00001C4E D6 03            [ 7] 5106 	sub	a, #0x03
    00001C50 20 0C            [12] 5107 	jr	NZ, 00132$
    00001C52 DD 6E ED         [19] 5108 	ld	l, -19 (ix)
    00001C55 DD 66 EE         [19] 5109 	ld	h, -18 (ix)
    00001C58 11 08 00         [10] 5110 	ld	de, #0x0008
    00001C5B 19               [11] 5111 	add	hl, de
    00001C5C 36 1B            [10] 5112 	ld	(hl), #0x1b
    00001C5E                       5113 00132$:
                                   5114 ;E:\Dropbox\FAUSTO\SVILUPPI\MSX\CODE\C\MSXgl\projects\soccerlg/soccerlg_s2_b1.c:938: g_Players[fromId].Status = PLAYER_STATUS_POSITIONED; // Lock pose for this frame
    00001C5E DD 6E ED         [19] 5115 	ld	l, -19 (ix)
    00001C61 DD 66 EE         [19] 5116 	ld	h, -18 (ix)
    00001C64 11 12 00         [10] 5117 	ld	de, #0x0012
    00001C67 19               [11] 5118 	add	hl, de
    00001C68 36 04            [10] 5119 	ld	(hl), #0x04
    00001C6A 23               [ 6] 5120 	inc	hl
    00001C6B 36 00            [10] 5121 	ld	(hl), #0x00
                                   5122 ;E:\Dropbox\FAUSTO\SVILUPPI\MSX\CODE\C\MSXgl\projects\soccerlg/soccerlg_s2_b1.c:941: g_Players[fromId].TargetX = g_Players[fromId].X;
    00001C6D DD 7E ED         [19] 5123 	ld	a, -19 (ix)
    00001C70 C6 10            [ 7] 5124 	add	a, #0x10
    00001C72 4F               [ 4] 5125 	ld	c, a
    00001C73 DD 7E EE         [19] 5126 	ld	a, -18 (ix)
    00001C76 CE 00            [ 7] 5127 	adc	a, #0x00
    00001C78 47               [ 4] 5128 	ld	b, a
    00001C79 DD 6E F3         [19] 5129 	ld	l, -13 (ix)
    00001C7C DD 66 F4         [19] 5130 	ld	h, -12 (ix)
    00001C7F 5E               [ 7] 5131 	ld	e, (hl)
    00001C80 23               [ 6] 5132 	inc	hl
    00001C81 56               [ 7] 5133 	ld	d, (hl)
    00001C82 7B               [ 4] 5134 	ld	a, e
    00001C83 02               [ 7] 5135 	ld	(bc), a
    00001C84 03               [ 6] 5136 	inc	bc
    00001C85 7A               [ 4] 5137 	ld	a, d
    00001C86 02               [ 7] 5138 	ld	(bc), a
                                   5139 ;E:\Dropbox\FAUSTO\SVILUPPI\MSX\CODE\C\MSXgl\projects\soccerlg/soccerlg_s2_b1.c:942: g_Players[fromId].TargetY = g_Players[fromId].Y;
    00001C87 DD 7E ED         [19] 5140 	ld	a, -19 (ix)
    00001C8A C6 0E            [ 7] 5141 	add	a, #0x0e
    00001C8C 4F               [ 4] 5142 	ld	c, a
    00001C8D DD 7E EE         [19] 5143 	ld	a, -18 (ix)
    00001C90 CE 00            [ 7] 5144 	adc	a, #0x00
    00001C92 47               [ 4] 5145 	ld	b, a
    00001C93 DD 6E ED         [19] 5146 	ld	l, -19 (ix)
    00001C96 DD 66 EE         [19] 5147 	ld	h, -18 (ix)
    00001C99 5E               [ 7] 5148 	ld	e, (hl)
    00001C9A 23               [ 6] 5149 	inc	hl
    00001C9B 56               [ 7] 5150 	ld	d, (hl)
    00001C9C 7B               [ 4] 5151 	ld	a, e
    00001C9D 02               [ 7] 5152 	ld	(bc), a
    00001C9E 03               [ 6] 5153 	inc	bc
    00001C9F 7A               [ 4] 5154 	ld	a, d
    00001CA0 02               [ 7] 5155 	ld	(bc), a
                                   5156 ;E:\Dropbox\FAUSTO\SVILUPPI\MSX\CODE\C\MSXgl\projects\soccerlg/soccerlg_s2_b1.c:945: SetPlayerBallPossession(NO_VALUE); 
    00001CA1 3E FF            [ 7] 5157 	ld	a, #0xff
    00001CA3 CDrC7r0A         [17] 5158 	call	_SetPlayerBallPossession
                                   5159 ;E:\Dropbox\FAUSTO\SVILUPPI\MSX\CODE\C\MSXgl\projects\soccerlg/soccerlg_s2_b1.c:946: g_Ball.PossessionPlayerId = NO_VALUE; 
    00001CA6 21r06r00         [10] 5160 	ld	hl, #(_g_Ball + 6)
    00001CA9 36 FF            [10] 5161 	ld	(hl), #0xff
                                   5162 ;E:\Dropbox\FAUSTO\SVILUPPI\MSX\CODE\C\MSXgl\projects\soccerlg/soccerlg_s2_b1.c:948: g_Ball.PassTargetPlayerId = toPlayerId;
    00001CAB 21r10r00         [10] 5163 	ld	hl, #(_g_Ball + 16)
    00001CAE DD 7E FF         [19] 5164 	ld	a, -1 (ix)
    00001CB1 77               [ 7] 5165 	ld	(hl), a
                                   5166 ;E:\Dropbox\FAUSTO\SVILUPPI\MSX\CODE\C\MSXgl\projects\soccerlg/soccerlg_s2_b1.c:949: g_Ball.ShotActive = 0; // Not a shot
    00001CB2 21r1Br00         [10] 5167 	ld	hl, #(_g_Ball + 27)
    00001CB5 36 00            [10] 5168 	ld	(hl), #0x00
                                   5169 ;E:\Dropbox\FAUSTO\SVILUPPI\MSX\CODE\C\MSXgl\projects\soccerlg/soccerlg_s2_b1.c:952: if (g_Players[fromId].Role == PLAYER_ROLE_GOALKEEPER) {
    00001CB7 DD 6E EF         [19] 5170 	ld	l, -17 (ix)
    00001CBA DD 66 F0         [19] 5171 	ld	h, -16 (ix)
                                   5172 ;E:\Dropbox\FAUSTO\SVILUPPI\MSX\CODE\C\MSXgl\projects\soccerlg/soccerlg_s2_b1.c:964: g_Ball.X = g_Ball.X; 
                                   5173 ;E:\Dropbox\FAUSTO\SVILUPPI\MSX\CODE\C\MSXgl\projects\soccerlg/soccerlg_s2_b1.c:952: if (g_Players[fromId].Role == PLAYER_ROLE_GOALKEEPER) {
    00001CBD 7E               [ 7] 5174 	ld	a, (hl)
    00001CBE B7               [ 4] 5175 	or	a, a
    00001CBF C2r6Br1D         [10] 5176 	jp	NZ, 00154$
                                   5177 ;E:\Dropbox\FAUSTO\SVILUPPI\MSX\CODE\C\MSXgl\projects\soccerlg/soccerlg_s2_b1.c:955: bool applyOffset = true;
    00001CC2 0E 01            [ 7] 5178 	ld	c, #0x01
                                   5179 ;E:\Dropbox\FAUSTO\SVILUPPI\MSX\CODE\C\MSXgl\projects\soccerlg/soccerlg_s2_b1.c:957: if (g_GkIsGroundKick) {
    00001CC4 3Ar00r00         [13] 5180 	ld	a, (_g_GkIsGroundKick+0)
    00001CC7 B7               [ 4] 5181 	or	a, a
    00001CC8 28 12            [12] 5182 	jr	Z, 00136$
                                   5183 ;E:\Dropbox\FAUSTO\SVILUPPI\MSX\CODE\C\MSXgl\projects\soccerlg/soccerlg_s2_b1.c:958: applyOffset = false;
    00001CCA 0E 00            [ 7] 5184 	ld	c, #0x00
                                   5185 ;E:\Dropbox\FAUSTO\SVILUPPI\MSX\CODE\C\MSXgl\projects\soccerlg/soccerlg_s2_b1.c:964: g_Ball.X = g_Ball.X; 
    00001CCC ED 5Br02r00      [20] 5186 	ld	de, (#(_g_Ball + 2) + 0)
    00001CD0 ED 53r02r00      [20] 5187 	ld	((_g_Ball + 2)), de
                                   5188 ;E:\Dropbox\FAUSTO\SVILUPPI\MSX\CODE\C\MSXgl\projects\soccerlg/soccerlg_s2_b1.c:965: g_Ball.Y = g_Ball.Y;
    00001CD4 ED 5Br00r00      [20] 5189 	ld	de, (#_g_Ball + 0)
    00001CD8 ED 53r00r00      [20] 5190 	ld	(_g_Ball), de
    00001CDC                       5191 00136$:
                                   5192 ;E:\Dropbox\FAUSTO\SVILUPPI\MSX\CODE\C\MSXgl\projects\soccerlg/soccerlg_s2_b1.c:969: if (g_MatchStatus == MATCH_CORNER_KICK || g_MatchStatus == MATCH_BEFORE_CORNER_KICK ||
    00001CDC 3Ar00r00         [13] 5193 	ld	a,(_g_MatchStatus+0)
    00001CDF FE 09            [ 7] 5194 	cp	a,#0x09
    00001CE1 28 0C            [12] 5195 	jr	Z, 00137$
                                   5196 ;E:\Dropbox\FAUSTO\SVILUPPI\MSX\CODE\C\MSXgl\projects\soccerlg/soccerlg_s2_b1.c:970: g_MatchStatus == MATCH_GOAL_KICK || g_MatchStatus == MATCH_BEFORE_GOAL_KICK) {
    00001CE3 FE 02            [ 7] 5197 	cp	a,#0x02
    00001CE5 28 08            [12] 5198 	jr	Z, 00137$
    00001CE7 FE 0A            [ 7] 5199 	cp	a,#0x0a
    00001CE9 28 04            [12] 5200 	jr	Z, 00137$
    00001CEB D6 05            [ 7] 5201 	sub	a, #0x05
    00001CED 20 02            [12] 5202 	jr	NZ, 00138$
    00001CEF                       5203 00137$:
                                   5204 ;E:\Dropbox\FAUSTO\SVILUPPI\MSX\CODE\C\MSXgl\projects\soccerlg/soccerlg_s2_b1.c:971: applyOffset = false;
    00001CEF 0E 00            [ 7] 5205 	ld	c, #0x00
    00001CF1                       5206 00138$:
                                   5207 ;E:\Dropbox\FAUSTO\SVILUPPI\MSX\CODE\C\MSXgl\projects\soccerlg/soccerlg_s2_b1.c:976: if (applyOffset) {
    00001CF1 79               [ 4] 5208 	ld	a, c
    00001CF2 B7               [ 4] 5209 	or	a, a
    00001CF3 28 76            [12] 5210 	jr	Z, 00154$
                                   5211 ;E:\Dropbox\FAUSTO\SVILUPPI\MSX\CODE\C\MSXgl\projects\soccerlg/soccerlg_s2_b1.c:977: i8 offX = 0; i8 offY = 0;
    00001CF5 01 00 00         [10] 5212 	ld	bc, #0x0
                                   5213 ;E:\Dropbox\FAUSTO\SVILUPPI\MSX\CODE\C\MSXgl\projects\soccerlg/soccerlg_s2_b1.c:978: switch (newDir) {
    00001CF8 3E 08            [ 7] 5214 	ld	a, #0x08
    00001CFA DD 96 FC         [19] 5215 	sub	a, -4 (ix)
    00001CFD 38 50            [12] 5216 	jr	C, 00150$
    00001CFF DD 5E FC         [19] 5217 	ld	e, -4 (ix)
    00001D02 16 00            [ 7] 5218 	ld	d, #0x00
    00001D04 21r0Br1D         [10] 5219 	ld	hl, #00344$
    00001D07 19               [11] 5220 	add	hl, de
    00001D08 19               [11] 5221 	add	hl, de
    00001D09 19               [11] 5222 	add	hl, de
    00001D0A E9               [ 4] 5223 	jp	(hl)
    00001D0B                       5224 00344$:
    00001D0B C3r4Fr1D         [10] 5225 	jp	00150$
    00001D0E C3r26r1D         [10] 5226 	jp	00142$
    00001D11 C3r40r1D         [10] 5227 	jp	00147$
    00001D14 C3r35r1D         [10] 5228 	jp	00145$
    00001D17 C3r4Cr1D         [10] 5229 	jp	00149$
    00001D1A C3r2Br1D         [10] 5230 	jp	00143$
    00001D1D C3r46r1D         [10] 5231 	jp	00148$
    00001D20 C3r30r1D         [10] 5232 	jp	00144$
    00001D23 C3r3Ar1D         [10] 5233 	jp	00146$
                                   5234 ;E:\Dropbox\FAUSTO\SVILUPPI\MSX\CODE\C\MSXgl\projects\soccerlg/soccerlg_s2_b1.c:979: case DIRECTION_UP:        offY = -30; break;
    00001D26                       5235 00142$:
    00001D26 06 E2            [ 7] 5236 	ld	b, #0xe2
    00001D28 C3r4Fr1D         [10] 5237 	jp	00150$
                                   5238 ;E:\Dropbox\FAUSTO\SVILUPPI\MSX\CODE\C\MSXgl\projects\soccerlg/soccerlg_s2_b1.c:980: case DIRECTION_DOWN:      offY = 30; break;
    00001D2B                       5239 00143$:
    00001D2B 06 1E            [ 7] 5240 	ld	b, #0x1e
    00001D2D C3r4Fr1D         [10] 5241 	jp	00150$
                                   5242 ;E:\Dropbox\FAUSTO\SVILUPPI\MSX\CODE\C\MSXgl\projects\soccerlg/soccerlg_s2_b1.c:981: case DIRECTION_LEFT:      offX = -30; break;
    00001D30                       5243 00144$:
    00001D30 0E E2            [ 7] 5244 	ld	c, #0xe2
    00001D32 C3r4Fr1D         [10] 5245 	jp	00150$
                                   5246 ;E:\Dropbox\FAUSTO\SVILUPPI\MSX\CODE\C\MSXgl\projects\soccerlg/soccerlg_s2_b1.c:982: case DIRECTION_RIGHT:     offX = 30; break;
    00001D35                       5247 00145$:
    00001D35 0E 1E            [ 7] 5248 	ld	c, #0x1e
    00001D37 C3r4Fr1D         [10] 5249 	jp	00150$
                                   5250 ;E:\Dropbox\FAUSTO\SVILUPPI\MSX\CODE\C\MSXgl\projects\soccerlg/soccerlg_s2_b1.c:983: case DIRECTION_UP_LEFT:   offX = -21; offY = -21; break;
    00001D3A                       5251 00146$:
    00001D3A 01 EB EB         [10] 5252 	ld	bc, #0xebeb
    00001D3D C3r4Fr1D         [10] 5253 	jp	00150$
                                   5254 ;E:\Dropbox\FAUSTO\SVILUPPI\MSX\CODE\C\MSXgl\projects\soccerlg/soccerlg_s2_b1.c:984: case DIRECTION_UP_RIGHT:  offX = 21; offY = -21; break;
    00001D40                       5255 00147$:
    00001D40 01 15 EB         [10] 5256 	ld	bc, #0xeb15
    00001D43 C3r4Fr1D         [10] 5257 	jp	00150$
                                   5258 ;E:\Dropbox\FAUSTO\SVILUPPI\MSX\CODE\C\MSXgl\projects\soccerlg/soccerlg_s2_b1.c:985: case DIRECTION_DOWN_LEFT: offX = -21; offY = 21; break;
    00001D46                       5259 00148$:
    00001D46 01 EB 15         [10] 5260 	ld	bc, #0x15eb
    00001D49 C3r4Fr1D         [10] 5261 	jp	00150$
                                   5262 ;E:\Dropbox\FAUSTO\SVILUPPI\MSX\CODE\C\MSXgl\projects\soccerlg/soccerlg_s2_b1.c:986: case DIRECTION_DOWN_RIGHT:offX = 21; offY = 21; break;
    00001D4C                       5263 00149$:
    00001D4C 01 15 15         [10] 5264 	ld	bc, #0x1515
                                   5265 ;E:\Dropbox\FAUSTO\SVILUPPI\MSX\CODE\C\MSXgl\projects\soccerlg/soccerlg_s2_b1.c:987: }
    00001D4F                       5266 00150$:
                                   5267 ;E:\Dropbox\FAUSTO\SVILUPPI\MSX\CODE\C\MSXgl\projects\soccerlg/soccerlg_s2_b1.c:988: g_Ball.X += offX;
    00001D4F 2Ar02r00         [16] 5268 	ld	hl, (#(_g_Ball + 2) + 0)
    00001D52 79               [ 4] 5269 	ld	a, c
    00001D53 5F               [ 4] 5270 	ld	e, a
    00001D54 07               [ 4] 5271 	rlca
    00001D55 9F               [ 4] 5272 	sbc	a, a
    00001D56 57               [ 4] 5273 	ld	d, a
    00001D57 19               [11] 5274 	add	hl, de
    00001D58 EB               [ 4] 5275 	ex	de, hl
    00001D59 ED 53r02r00      [20] 5276 	ld	((_g_Ball + 2)), de
                                   5277 ;E:\Dropbox\FAUSTO\SVILUPPI\MSX\CODE\C\MSXgl\projects\soccerlg/soccerlg_s2_b1.c:989: g_Ball.Y += offY;
    00001D5D 2Ar00r00         [16] 5278 	ld	hl, (#_g_Ball + 0)
    00001D60 78               [ 4] 5279 	ld	a, b
    00001D61 4F               [ 4] 5280 	ld	c, a
    00001D62 07               [ 4] 5281 	rlca
    00001D63 9F               [ 4] 5282 	sbc	a, a
    00001D64 47               [ 4] 5283 	ld	b, a
    00001D65 09               [11] 5284 	add	hl, bc
    00001D66 EB               [ 4] 5285 	ex	de, hl
    00001D67 ED 53r00r00      [20] 5286 	ld	(_g_Ball), de
    00001D6B                       5287 00154$:
                                   5288 ;E:\Dropbox\FAUSTO\SVILUPPI\MSX\CODE\C\MSXgl\projects\soccerlg/soccerlg_s2_b1.c:995: g_Ball.PassStartX = g_Ball.X;
    00001D6B ED 4Br02r00      [20] 5289 	ld	bc, (#(_g_Ball + 2) + 0)
    00001D6F ED 43r11r00      [20] 5290 	ld	((_g_Ball + 17)), bc
                                   5291 ;E:\Dropbox\FAUSTO\SVILUPPI\MSX\CODE\C\MSXgl\projects\soccerlg/soccerlg_s2_b1.c:996: g_Ball.PassStartY = g_Ball.Y;
    00001D73 ED 4Br00r00      [20] 5292 	ld	bc, (#_g_Ball + 0)
    00001D77 ED 43r13r00      [20] 5293 	ld	((_g_Ball + 19)), bc
                                   5294 ;E:\Dropbox\FAUSTO\SVILUPPI\MSX\CODE\C\MSXgl\projects\soccerlg/soccerlg_s2_b1.c:999: g_ActionCooldown = 20;
    00001D7B 21r00r00         [10] 5295 	ld	hl, #_g_ActionCooldown
    00001D7E 36 14            [10] 5296 	ld	(hl), #0x14
                                   5297 ;E:\Dropbox\FAUSTO\SVILUPPI\MSX\CODE\C\MSXgl\projects\soccerlg/soccerlg_s2_b1.c:1000: g_Ball.KickMoveState = 0;
    00001D80 21r0Dr00         [10] 5298 	ld	hl, #(_g_Ball + 13)
    00001D83 36 00            [10] 5299 	ld	(hl), #0x00
                                   5300 ;E:\Dropbox\FAUSTO\SVILUPPI\MSX\CODE\C\MSXgl\projects\soccerlg/soccerlg_s2_b1.c:1002: dx = (i16)g_Players[toPlayerId].X - (i16)g_Ball.X;
    00001D85 DD 6E F1         [19] 5301 	ld	l, -15 (ix)
    00001D88 DD 66 F2         [19] 5302 	ld	h, -14 (ix)
    00001D8B 4E               [ 7] 5303 	ld	c, (hl)
    00001D8C 23               [ 6] 5304 	inc	hl
    00001D8D 46               [ 7] 5305 	ld	b, (hl)
    00001D8E 2Ar02r00         [16] 5306 	ld	hl, (#(_g_Ball + 2) + 0)
    00001D91 79               [ 4] 5307 	ld	a, c
    00001D92 95               [ 4] 5308 	sub	a, l
    00001D93 4F               [ 4] 5309 	ld	c, a
    00001D94 78               [ 4] 5310 	ld	a, b
    00001D95 9C               [ 4] 5311 	sbc	a, h
    00001D96 47               [ 4] 5312 	ld	b, a
                                   5313 ;E:\Dropbox\FAUSTO\SVILUPPI\MSX\CODE\C\MSXgl\projects\soccerlg/soccerlg_s2_b1.c:1003: dy = (i16)g_Players[toPlayerId].Y - (i16)g_Ball.Y;
    00001D97 E1               [10] 5314 	pop	hl
    00001D98 E5               [11] 5315 	push	hl
    00001D99 5E               [ 7] 5316 	ld	e, (hl)
    00001D9A 23               [ 6] 5317 	inc	hl
    00001D9B 56               [ 7] 5318 	ld	d, (hl)
    00001D9C 2Ar00r00         [16] 5319 	ld	hl, (#_g_Ball + 0)
    00001D9F 7B               [ 4] 5320 	ld	a, e
    00001DA0 95               [ 4] 5321 	sub	a, l
    00001DA1 5F               [ 4] 5322 	ld	e, a
    00001DA2 7A               [ 4] 5323 	ld	a, d
    00001DA3 9C               [ 4] 5324 	sbc	a, h
    00001DA4 57               [ 4] 5325 	ld	d, a
                                   5326 ;E:\Dropbox\FAUSTO\SVILUPPI\MSX\CODE\C\MSXgl\projects\soccerlg/soccerlg_s2_b1.c:1004: g_Ball.PassTotalDist = (u16)((dx<0?-dx:dx) + (dy<0?-dy:dy)); 
                                   5327 ;	spillPairReg hl
                                   5328 ;	spillPairReg hl
    00001DA5 60               [ 4] 5329 	ld	h, b
                                   5330 ;	spillPairReg hl
                                   5331 ;	spillPairReg hl
    00001DA6 CB 7C            [ 8] 5332 	bit	7, h
    00001DA8 28 06            [12] 5333 	jr	Z, 00169$
    00001DAA AF               [ 4] 5334 	xor	a, a
    00001DAB 91               [ 4] 5335 	sub	a, c
    00001DAC 4F               [ 4] 5336 	ld	c, a
    00001DAD 9F               [ 4] 5337 	sbc	a, a
    00001DAE 90               [ 4] 5338 	sub	a, b
    00001DAF 47               [ 4] 5339 	ld	b, a
    00001DB0                       5340 00169$:
    00001DB0 6B               [ 4] 5341 	ld	l, e
                                   5342 ;	spillPairReg hl
                                   5343 ;	spillPairReg hl
    00001DB1 62               [ 4] 5344 	ld	h, d
                                   5345 ;	spillPairReg hl
                                   5346 ;	spillPairReg hl
    00001DB2 CB 7C            [ 8] 5347 	bit	7, h
    00001DB4 28 09            [12] 5348 	jr	Z, 00171$
    00001DB6 21 00 00         [10] 5349 	ld	hl, #0x0000
    00001DB9 BF               [ 4] 5350 	cp	a, a
    00001DBA ED 52            [15] 5351 	sbc	hl, de
    00001DBC C3rC0r1D         [10] 5352 	jp	00172$
    00001DBF                       5353 00171$:
    00001DBF EB               [ 4] 5354 	ex	de, hl
    00001DC0                       5355 00172$:
    00001DC0 09               [11] 5356 	add	hl, bc
    00001DC1 EB               [ 4] 5357 	ex	de, hl
    00001DC2 ED 53r15r00      [20] 5358 	ld	((_g_Ball + 21)), de
    00001DC6                       5359 00155$:
                                   5360 ;E:\Dropbox\FAUSTO\SVILUPPI\MSX\CODE\C\MSXgl\projects\soccerlg/soccerlg_s2_b1.c:1005: }
    00001DC6 DD F9            [10] 5361 	ld	sp, ix
    00001DC8 DD E1            [14] 5362 	pop	ix
    00001DCA C9               [10] 5363 	ret
                                   5364 ;E:\Dropbox\FAUSTO\SVILUPPI\MSX\CODE\C\MSXgl\projects\soccerlg/soccerlg_s2_b1.c:1007: bool IsOffside(u8 playerId) {
                                   5365 ;	---------------------------------
                                   5366 ; Function IsOffside
                                   5367 ; ---------------------------------
    00001DCB                       5368 _IsOffside::
    00001DCB DD E5            [15] 5369 	push	ix
    00001DCD DD 21 00 00      [14] 5370 	ld	ix,#0
    00001DD1 DD 39            [15] 5371 	add	ix,sp
    00001DD3 21 F9 FF         [10] 5372 	ld	hl, #-7
    00001DD6 39               [11] 5373 	add	hl, sp
    00001DD7 F9               [ 6] 5374 	ld	sp, hl
    00001DD8 4F               [ 4] 5375 	ld	c, a
                                   5376 ;E:\Dropbox\FAUSTO\SVILUPPI\MSX\CODE\C\MSXgl\projects\soccerlg/soccerlg_s2_b1.c:1008: u8 teamId = g_Players[playerId].TeamId;
    00001DD9 06 00            [ 7] 5377 	ld	b, #0x00
    00001DDB 69               [ 4] 5378 	ld	l, c
    00001DDC 60               [ 4] 5379 	ld	h, b
    00001DDD 29               [11] 5380 	add	hl, hl
    00001DDE 29               [11] 5381 	add	hl, hl
    00001DDF 09               [11] 5382 	add	hl, bc
    00001DE0 29               [11] 5383 	add	hl, hl
    00001DE1 29               [11] 5384 	add	hl, hl
    00001DE2 09               [11] 5385 	add	hl, bc
    00001DE3 EB               [ 4] 5386 	ex	de, hl
    00001DE4 21r00r00         [10] 5387 	ld	hl, #_g_Players
    00001DE7 19               [11] 5388 	add	hl, de
    00001DE8 EB               [ 4] 5389 	ex	de, hl
    00001DE9 D5               [11] 5390 	push	de
    00001DEA FD E1            [14] 5391 	pop	iy
    00001DEC FD 7E 09         [19] 5392 	ld	a, 9 (iy)
    00001DEF DD 77 F9         [19] 5393 	ld	-7 (ix), a
                                   5394 ;E:\Dropbox\FAUSTO\SVILUPPI\MSX\CODE\C\MSXgl\projects\soccerlg/soccerlg_s2_b1.c:1009: u16 playerY = g_Players[playerId].Y;
    00001DF2 1A               [ 7] 5395 	ld	a, (de)
    00001DF3 DD 77 FA         [19] 5396 	ld	-6 (ix), a
    00001DF6 13               [ 6] 5397 	inc	de
    00001DF7 1A               [ 7] 5398 	ld	a, (de)
    00001DF8 DD 77 FB         [19] 5399 	ld	-5 (ix), a
                                   5400 ;E:\Dropbox\FAUSTO\SVILUPPI\MSX\CODE\C\MSXgl\projects\soccerlg/soccerlg_s2_b1.c:1010: u8 opponentCount = 0;
    00001DFB DD 36 FF 00      [19] 5401 	ld	-1 (ix), #0x00
                                   5402 ;E:\Dropbox\FAUSTO\SVILUPPI\MSX\CODE\C\MSXgl\projects\soccerlg/soccerlg_s2_b1.c:1014: if (teamId == TEAM_1) {
    00001DFF DD 7E F9         [19] 5403 	ld	a, -7 (ix)
    00001E02 3D               [ 4] 5404 	dec	a
    00001E03 3E 01            [ 7] 5405 	ld	a, #0x01
    00001E05 28 01            [12] 5406 	jr	Z, 00198$
    00001E07 AF               [ 4] 5407 	xor	a, a
    00001E08                       5408 00198$:
    00001E08 DD 77 FC         [19] 5409 	ld	-4 (ix), a
                                   5410 ;E:\Dropbox\FAUSTO\SVILUPPI\MSX\CODE\C\MSXgl\projects\soccerlg/soccerlg_s2_b1.c:1015: if (playerY >= FIELD_POS_Y_CENTER) return FALSE; // Own half
    00001E0B DD 7E FA         [19] 5411 	ld	a, -6 (ix)
    00001E0E DD 77 FD         [19] 5412 	ld	-3 (ix), a
    00001E11 DD 7E FB         [19] 5413 	ld	a, -5 (ix)
    00001E14 DD 77 FE         [19] 5414 	ld	-2 (ix), a
                                   5415 ;E:\Dropbox\FAUSTO\SVILUPPI\MSX\CODE\C\MSXgl\projects\soccerlg/soccerlg_s2_b1.c:1014: if (teamId == TEAM_1) {
    00001E17 DD 7E FC         [19] 5416 	ld	a, -4 (ix)
    00001E1A B7               [ 4] 5417 	or	a, a
    00001E1B 28 10            [12] 5418 	jr	Z, 00106$
                                   5419 ;E:\Dropbox\FAUSTO\SVILUPPI\MSX\CODE\C\MSXgl\projects\soccerlg/soccerlg_s2_b1.c:1015: if (playerY >= FIELD_POS_Y_CENTER) return FALSE; // Own half
    00001E1D DD 7E FD         [19] 5420 	ld	a, -3 (ix)
    00001E20 D6 F3            [ 7] 5421 	sub	a, #0xf3
    00001E22 DD 7E FE         [19] 5422 	ld	a, -2 (ix)
    00001E25 DE 00            [ 7] 5423 	sbc	a, #0x00
    00001E27 38 14            [12] 5424 	jr	C, 00107$
    00001E29 AF               [ 4] 5425 	xor	a, a
    00001E2A C3rBDr1E         [10] 5426 	jp	00129$
    00001E2D                       5427 00106$:
                                   5428 ;E:\Dropbox\FAUSTO\SVILUPPI\MSX\CODE\C\MSXgl\projects\soccerlg/soccerlg_s2_b1.c:1017: if (playerY <= FIELD_POS_Y_CENTER) return FALSE; // Own half
    00001E2D 3E F3            [ 7] 5429 	ld	a, #0xf3
    00001E2F DD BE FD         [19] 5430 	cp	a, -3 (ix)
    00001E32 3E 00            [ 7] 5431 	ld	a, #0x00
    00001E34 DD 9E FE         [19] 5432 	sbc	a, -2 (ix)
    00001E37 38 04            [12] 5433 	jr	C, 00107$
    00001E39 AF               [ 4] 5434 	xor	a, a
    00001E3A C3rBDr1E         [10] 5435 	jp	00129$
    00001E3D                       5436 00107$:
                                   5437 ;E:\Dropbox\FAUSTO\SVILUPPI\MSX\CODE\C\MSXgl\projects\soccerlg/soccerlg_s2_b1.c:1022: if (teamId == TEAM_1) {
    00001E3D DD 7E FC         [19] 5438 	ld	a, -4 (ix)
    00001E40 B7               [ 4] 5439 	or	a, a
    00001E41 28 11            [12] 5440 	jr	Z, 00113$
                                   5441 ;E:\Dropbox\FAUSTO\SVILUPPI\MSX\CODE\C\MSXgl\projects\soccerlg/soccerlg_s2_b1.c:1023: if (playerY >= g_Ball.Y) return FALSE; 
    00001E43 2Ar00r00         [16] 5442 	ld	hl, (#_g_Ball + 0)
    00001E46 DD 7E FA         [19] 5443 	ld	a, -6 (ix)
    00001E49 95               [ 4] 5444 	sub	a, l
    00001E4A DD 7E FB         [19] 5445 	ld	a, -5 (ix)
    00001E4D 9C               [ 4] 5446 	sbc	a, h
    00001E4E 38 15            [12] 5447 	jr	C, 00141$
    00001E50 AF               [ 4] 5448 	xor	a, a
    00001E51 C3rBDr1E         [10] 5449 	jp	00129$
    00001E54                       5450 00113$:
                                   5451 ;E:\Dropbox\FAUSTO\SVILUPPI\MSX\CODE\C\MSXgl\projects\soccerlg/soccerlg_s2_b1.c:1025: if (playerY <= g_Ball.Y) return FALSE;
    00001E54 2Ar00r00         [16] 5452 	ld	hl, (#_g_Ball + 0)
    00001E57 7D               [ 4] 5453 	ld	a, l
    00001E58 DD 96 FA         [19] 5454 	sub	a, -6 (ix)
    00001E5B 7C               [ 4] 5455 	ld	a, h
    00001E5C DD 9E FB         [19] 5456 	sbc	a, -5 (ix)
    00001E5F 38 04            [12] 5457 	jr	C, 00141$
    00001E61 AF               [ 4] 5458 	xor	a, a
    00001E62 C3rBDr1E         [10] 5459 	jp	00129$
                                   5460 ;E:\Dropbox\FAUSTO\SVILUPPI\MSX\CODE\C\MSXgl\projects\soccerlg/soccerlg_s2_b1.c:1029: for (i = 0; i < 14; i++) {
    00001E65                       5461 00141$:
    00001E65 0E 00            [ 7] 5462 	ld	c, #0x00
    00001E67                       5463 00128$:
                                   5464 ;E:\Dropbox\FAUSTO\SVILUPPI\MSX\CODE\C\MSXgl\projects\soccerlg/soccerlg_s2_b1.c:1030: if (g_Players[i].TeamId == teamId) continue;
    00001E67 06 00            [ 7] 5465 	ld	b, #0x00
    00001E69 69               [ 4] 5466 	ld	l, c
    00001E6A 60               [ 4] 5467 	ld	h, b
    00001E6B 29               [11] 5468 	add	hl, hl
    00001E6C 29               [11] 5469 	add	hl, hl
    00001E6D 09               [11] 5470 	add	hl, bc
    00001E6E 29               [11] 5471 	add	hl, hl
    00001E6F 29               [11] 5472 	add	hl, hl
    00001E70 09               [11] 5473 	add	hl, bc
    00001E71 11r00r00         [10] 5474 	ld	de, #_g_Players
    00001E74 19               [11] 5475 	add	hl, de
                                   5476 ;	spillPairReg hl
                                   5477 ;	spillPairReg hl
    00001E75 5D               [ 4] 5478 	ld	e, l
    00001E76 54               [ 4] 5479 	ld	d, h
                                   5480 ;	spillPairReg hl
                                   5481 ;	spillPairReg hl
    00001E77 C5               [11] 5482 	push	bc
    00001E78 01 09 00         [10] 5483 	ld	bc, #0x0009
    00001E7B 09               [11] 5484 	add	hl, bc
    00001E7C C1               [10] 5485 	pop	bc
    00001E7D DD 7E F9         [19] 5486 	ld	a,-7 (ix)
    00001E80 96               [ 7] 5487 	sub	a,(hl)
    00001E81 28 27            [12] 5488 	jr	Z, 00124$
                                   5489 ;E:\Dropbox\FAUSTO\SVILUPPI\MSX\CODE\C\MSXgl\projects\soccerlg/soccerlg_s2_b1.c:1034: if (g_Players[i].Y <= playerY) opponentCount++;
    00001E83 EB               [ 4] 5490 	ex	de,hl
    00001E84 5E               [ 7] 5491 	ld	e, (hl)
    00001E85 23               [ 6] 5492 	inc	hl
    00001E86 56               [ 7] 5493 	ld	d, (hl)
                                   5494 ;E:\Dropbox\FAUSTO\SVILUPPI\MSX\CODE\C\MSXgl\projects\soccerlg/soccerlg_s2_b1.c:1033: if (teamId == TEAM_1) { // Attacking UP
    00001E87 DD 7E FC         [19] 5495 	ld	a, -4 (ix)
    00001E8A B7               [ 4] 5496 	or	a, a
    00001E8B 28 10            [12] 5497 	jr	Z, 00122$
                                   5498 ;E:\Dropbox\FAUSTO\SVILUPPI\MSX\CODE\C\MSXgl\projects\soccerlg/soccerlg_s2_b1.c:1034: if (g_Players[i].Y <= playerY) opponentCount++;
    00001E8D DD 7E FA         [19] 5499 	ld	a, -6 (ix)
    00001E90 93               [ 4] 5500 	sub	a, e
    00001E91 DD 7E FB         [19] 5501 	ld	a, -5 (ix)
    00001E94 9A               [ 4] 5502 	sbc	a, d
    00001E95 38 13            [12] 5503 	jr	C, 00124$
    00001E97 DD 34 FF         [23] 5504 	inc	-1 (ix)
    00001E9A C3rAAr1E         [10] 5505 	jp	00124$
    00001E9D                       5506 00122$:
                                   5507 ;E:\Dropbox\FAUSTO\SVILUPPI\MSX\CODE\C\MSXgl\projects\soccerlg/soccerlg_s2_b1.c:1036: if (g_Players[i].Y >= playerY) opponentCount++;
    00001E9D 7B               [ 4] 5508 	ld	a, e
    00001E9E DD 96 FA         [19] 5509 	sub	a, -6 (ix)
    00001EA1 7A               [ 4] 5510 	ld	a, d
    00001EA2 DD 9E FB         [19] 5511 	sbc	a, -5 (ix)
    00001EA5 38 03            [12] 5512 	jr	C, 00124$
    00001EA7 DD 34 FF         [23] 5513 	inc	-1 (ix)
    00001EAA                       5514 00124$:
                                   5515 ;E:\Dropbox\FAUSTO\SVILUPPI\MSX\CODE\C\MSXgl\projects\soccerlg/soccerlg_s2_b1.c:1029: for (i = 0; i < 14; i++) {
    00001EAA 0C               [ 4] 5516 	inc	c
    00001EAB 79               [ 4] 5517 	ld	a, c
    00001EAC D6 0E            [ 7] 5518 	sub	a, #0x0e
    00001EAE 38 B7            [12] 5519 	jr	C, 00128$
                                   5520 ;E:\Dropbox\FAUSTO\SVILUPPI\MSX\CODE\C\MSXgl\projects\soccerlg/soccerlg_s2_b1.c:1040: if (opponentCount < 2) return TRUE;
    00001EB0 DD 7E FF         [19] 5521 	ld	a, -1 (ix)
    00001EB3 D6 02            [ 7] 5522 	sub	a, #0x02
    00001EB5 30 05            [12] 5523 	jr	NC, 00127$
    00001EB7 3E 01            [ 7] 5524 	ld	a, #0x01
    00001EB9 C3rBDr1E         [10] 5525 	jp	00129$
    00001EBC                       5526 00127$:
                                   5527 ;E:\Dropbox\FAUSTO\SVILUPPI\MSX\CODE\C\MSXgl\projects\soccerlg/soccerlg_s2_b1.c:1041: return FALSE;
    00001EBC AF               [ 4] 5528 	xor	a, a
    00001EBD                       5529 00129$:
                                   5530 ;E:\Dropbox\FAUSTO\SVILUPPI\MSX\CODE\C\MSXgl\projects\soccerlg/soccerlg_s2_b1.c:1042: }
    00001EBD DD F9            [10] 5531 	ld	sp, ix
    00001EBF DD E1            [14] 5532 	pop	ix
    00001EC1 C9               [10] 5533 	ret
                                   5534 ;E:\Dropbox\FAUSTO\SVILUPPI\MSX\CODE\C\MSXgl\projects\soccerlg/soccerlg_s2_b1.c:1044: void TickGoalKick() {
                                   5535 ;	---------------------------------
                                   5536 ; Function TickGoalKick
                                   5537 ; ---------------------------------
    00001EC2                       5538 _TickGoalKick::
    00001EC2 DD E5            [15] 5539 	push	ix
    00001EC4 DD 21 00 00      [14] 5540 	ld	ix,#0
    00001EC8 DD 39            [15] 5541 	add	ix,sp
    00001ECA 21 F6 FF         [10] 5542 	ld	hl, #-10
    00001ECD 39               [11] 5543 	add	hl, sp
    00001ECE F9               [ 6] 5544 	ld	sp, hl
                                   5545 ;E:\Dropbox\FAUSTO\SVILUPPI\MSX\CODE\C\MSXgl\projects\soccerlg/soccerlg_s2_b1.c:1045: if (g_MatchStatus != MATCH_BEFORE_GOAL_KICK) return;
    00001ECF 3Ar00r00         [13] 5546 	ld	a, (_g_MatchStatus+0)
    00001ED2 D6 05            [ 7] 5547 	sub	a, #0x05
    00001ED4 C2r71r24         [10] 5548 	jp	NZ,00244$
                                   5549 ;E:\Dropbox\FAUSTO\SVILUPPI\MSX\CODE\C\MSXgl\projects\soccerlg/soccerlg_s2_b1.c:1052: if (g_RestartKickTeamId == TEAM_1) gkId = GetPlayerIdByRole(TEAM_1, PLAYER_ROLE_GOALKEEPER);
    00001ED7 3Ar00r00         [13] 5550 	ld	a, (_g_RestartKickTeamId+0)
    00001EDA 3D               [ 4] 5551 	dec	a
    00001EDB 20 0C            [12] 5552 	jr	NZ, 00104$
    00001EDD 6F               [ 4] 5553 	ld	l,a
                                   5554 ;	spillPairReg hl
                                   5555 ;	spillPairReg hl
    00001EDE 3E 01            [ 7] 5556 	ld	a, #0x01
    00001EE0 CDr49r09         [17] 5557 	call	_GetPlayerIdByRole
    00001EE3 DD 77 F6         [19] 5558 	ld	-10 (ix), a
    00001EE6 C3rF3r1E         [10] 5559 	jp	00105$
    00001EE9                       5560 00104$:
                                   5561 ;E:\Dropbox\FAUSTO\SVILUPPI\MSX\CODE\C\MSXgl\projects\soccerlg/soccerlg_s2_b1.c:1053: else gkId = GetPlayerIdByRole(TEAM_2, PLAYER_ROLE_GOALKEEPER);
    00001EE9 2E 00            [ 7] 5562 	ld	l, #0x00
                                   5563 ;	spillPairReg hl
                                   5564 ;	spillPairReg hl
    00001EEB 3E 02            [ 7] 5565 	ld	a, #0x02
    00001EED CDr49r09         [17] 5566 	call	_GetPlayerIdByRole
    00001EF0 DD 77 F6         [19] 5567 	ld	-10 (ix), a
    00001EF3                       5568 00105$:
                                   5569 ;E:\Dropbox\FAUSTO\SVILUPPI\MSX\CODE\C\MSXgl\projects\soccerlg/soccerlg_s2_b1.c:1055: if (gkId == NO_VALUE) return; 
    00001EF3 DD 7E F6         [19] 5570 	ld	a, -10 (ix)
    00001EF6 3C               [ 4] 5571 	inc	a
    00001EF7 CAr71r24         [10] 5572 	jp	Z,00244$
    00001EFA C3rFDr1E         [10] 5573 	jp	00107$
    00001EFD                       5574 00107$:
                                   5575 ;E:\Dropbox\FAUSTO\SVILUPPI\MSX\CODE\C\MSXgl\projects\soccerlg/soccerlg_s2_b1.c:1058: if (g_Timer < 10) {
    00001EFD 3Ar00r00         [13] 5576 	ld	a, (_g_Timer+0)
    00001F00 D6 0A            [ 7] 5577 	sub	a, #0x0a
    00001F02 30 0B            [12] 5578 	jr	NC, 00109$
                                   5579 ;E:\Dropbox\FAUSTO\SVILUPPI\MSX\CODE\C\MSXgl\projects\soccerlg/soccerlg_s2_b1.c:1059: s_SetupDone = false;
    00001F04 21r06r00         [10] 5580 	ld	hl, #_TickGoalKick_s_SetupDone_65537_1463
    00001F07 36 00            [10] 5581 	ld	(hl), #0x00
                                   5582 ;E:\Dropbox\FAUSTO\SVILUPPI\MSX\CODE\C\MSXgl\projects\soccerlg/soccerlg_s2_b1.c:1060: s_SafetyTimeout = 0;
    00001F09 21 00 00         [10] 5583 	ld	hl, #0x0000
    00001F0C 22r04r00         [16] 5584 	ld	(_TickGoalKick_s_SafetyTimeout_65537_1463), hl
    00001F0F                       5585 00109$:
                                   5586 ;E:\Dropbox\FAUSTO\SVILUPPI\MSX\CODE\C\MSXgl\projects\soccerlg/soccerlg_s2_b1.c:1064: if (g_Timer < 60) {
    00001F0F 3Ar00r00         [13] 5587 	ld	a, (_g_Timer+0)
    00001F12 D6 3C            [ 7] 5588 	sub	a, #0x3c
    00001F14 30 07            [12] 5589 	jr	NC, 00111$
                                   5590 ;E:\Dropbox\FAUSTO\SVILUPPI\MSX\CODE\C\MSXgl\projects\soccerlg/soccerlg_s2_b1.c:1065: g_Timer++;
    00001F16 21r00r00         [10] 5591 	ld	hl, #_g_Timer
    00001F19 34               [11] 5592 	inc	(hl)
                                   5593 ;E:\Dropbox\FAUSTO\SVILUPPI\MSX\CODE\C\MSXgl\projects\soccerlg/soccerlg_s2_b1.c:1066: return;
    00001F1A C3r71r24         [10] 5594 	jp	00244$
    00001F1D                       5595 00111$:
                                   5596 ;E:\Dropbox\FAUSTO\SVILUPPI\MSX\CODE\C\MSXgl\projects\soccerlg/soccerlg_s2_b1.c:1068: g_Ball.Size = 1;
    00001F1D 21r04r00         [10] 5597 	ld	hl, #(_g_Ball + 4)
    00001F20 36 01            [10] 5598 	ld	(hl), #0x01
                                   5599 ;E:\Dropbox\FAUSTO\SVILUPPI\MSX\CODE\C\MSXgl\projects\soccerlg/soccerlg_s2_b1.c:1070: if (!s_SetupDone) {
    00001F22 3Ar06r00         [13] 5600 	ld	a, (_TickGoalKick_s_SetupDone_65537_1463+0)
    00001F25 B7               [ 4] 5601 	or	a, a
    00001F26 C2rADr21         [10] 5602 	jp	NZ, 00177$
                                   5603 ;E:\Dropbox\FAUSTO\SVILUPPI\MSX\CODE\C\MSXgl\projects\soccerlg/soccerlg_s2_b1.c:1071: s_SetupDone = true;
    00001F29 21r06r00         [10] 5604 	ld	hl, #_TickGoalKick_s_SetupDone_65537_1463
    00001F2C 36 01            [10] 5605 	ld	(hl), #0x01
                                   5606 ;E:\Dropbox\FAUSTO\SVILUPPI\MSX\CODE\C\MSXgl\projects\soccerlg/soccerlg_s2_b1.c:1072: s_SafetyTimeout = 0;
    00001F2E 21 00 00         [10] 5607 	ld	hl, #0x0000
    00001F31 22r04r00         [16] 5608 	ld	(_TickGoalKick_s_SafetyTimeout_65537_1463), hl
                                   5609 ;E:\Dropbox\FAUSTO\SVILUPPI\MSX\CODE\C\MSXgl\projects\soccerlg/soccerlg_s2_b1.c:1075: if (g_GoalKickSide == CORNER_SIDE_LEFT) targetX = GK_BOX_X_MIN;
    00001F34 3Ar00r00         [13] 5610 	ld	a, (_g_GoalKickSide+0)
    00001F37 B7               [ 4] 5611 	or	a, a
    00001F38 20 06            [12] 5612 	jr	NZ, 00113$
    00001F3A 01 50 00         [10] 5613 	ld	bc, #0x0050
    00001F3D C3r43r1F         [10] 5614 	jp	00114$
    00001F40                       5615 00113$:
                                   5616 ;E:\Dropbox\FAUSTO\SVILUPPI\MSX\CODE\C\MSXgl\projects\soccerlg/soccerlg_s2_b1.c:1076: else targetX = GK_BOX_X_MAX;
    00001F40 01 A0 00         [10] 5617 	ld	bc, #0x00a0
    00001F43                       5618 00114$:
                                   5619 ;E:\Dropbox\FAUSTO\SVILUPPI\MSX\CODE\C\MSXgl\projects\soccerlg/soccerlg_s2_b1.c:1079: if (g_RestartKickTeamId == TEAM_1) { // Bottom Goal
    00001F43 3Ar00r00         [13] 5620 	ld	a, (_g_RestartKickTeamId+0)
    00001F46 3D               [ 4] 5621 	dec	a
    00001F47 20 06            [12] 5622 	jr	NZ, 00116$
                                   5623 ;E:\Dropbox\FAUSTO\SVILUPPI\MSX\CODE\C\MSXgl\projects\soccerlg/soccerlg_s2_b1.c:1080: ballY = GK_BOX_Y_BOTTOM_MIN; 
    00001F49 11 95 01         [10] 5624 	ld	de, #0x0195
    00001F4C C3r52r1F         [10] 5625 	jp	00117$
    00001F4F                       5626 00116$:
                                   5627 ;E:\Dropbox\FAUSTO\SVILUPPI\MSX\CODE\C\MSXgl\projects\soccerlg/soccerlg_s2_b1.c:1082: ballY = GK_BOX_Y_TOP_MAX; 
    00001F4F 11 4B 00         [10] 5628 	ld	de, #0x004b
    00001F52                       5629 00117$:
                                   5630 ;E:\Dropbox\FAUSTO\SVILUPPI\MSX\CODE\C\MSXgl\projects\soccerlg/soccerlg_s2_b1.c:1086: g_Ball.X = targetX;
    00001F52 ED 43r02r00      [20] 5631 	ld	((_g_Ball + 2)), bc
                                   5632 ;E:\Dropbox\FAUSTO\SVILUPPI\MSX\CODE\C\MSXgl\projects\soccerlg/soccerlg_s2_b1.c:1087: g_Ball.Y = ballY;
    00001F56 ED 53r00r00      [20] 5633 	ld	(_g_Ball), de
                                   5634 ;E:\Dropbox\FAUSTO\SVILUPPI\MSX\CODE\C\MSXgl\projects\soccerlg/soccerlg_s2_b1.c:1088: g_Ball.PossessionPlayerId = NO_VALUE;
    00001F5A 21r06r00         [10] 5635 	ld	hl, #(_g_Ball + 6)
    00001F5D 36 FF            [10] 5636 	ld	(hl), #0xff
                                   5637 ;E:\Dropbox\FAUSTO\SVILUPPI\MSX\CODE\C\MSXgl\projects\soccerlg/soccerlg_s2_b1.c:1093: runStartY = ballY + 32; 
                                   5638 ;E:\Dropbox\FAUSTO\SVILUPPI\MSX\CODE\C\MSXgl\projects\soccerlg/soccerlg_s2_b1.c:1092: if (g_RestartKickTeamId == TEAM_1) {
    00001F5F 3Ar00r00         [13] 5639 	ld	a, (_g_RestartKickTeamId+0)
    00001F62 3D               [ 4] 5640 	dec	a
    00001F63 20 1E            [12] 5641 	jr	NZ, 00123$
                                   5642 ;E:\Dropbox\FAUSTO\SVILUPPI\MSX\CODE\C\MSXgl\projects\soccerlg/soccerlg_s2_b1.c:1093: runStartY = ballY + 32; 
    00001F65 21 20 00         [10] 5643 	ld	hl, #0x0020
    00001F68 19               [11] 5644 	add	hl, de
                                   5645 ;E:\Dropbox\FAUSTO\SVILUPPI\MSX\CODE\C\MSXgl\projects\soccerlg/soccerlg_s2_b1.c:1094: if(runStartY > FIELD_BOUND_Y_BOTTOM) runStartY = FIELD_BOUND_Y_BOTTOM;
    00001F69 DD 75 FE         [19] 5646 	ld	-2 (ix), l
    00001F6C DD 74 FF         [19] 5647 	ld	-1 (ix), h
    00001F6F EB               [ 4] 5648 	ex	de,hl
    00001F70 3E B3            [ 7] 5649 	ld	a, #0xb3
    00001F72 BB               [ 4] 5650 	cp	a, e
    00001F73 3E 01            [ 7] 5651 	ld	a, #0x01
    00001F75 9A               [ 4] 5652 	sbc	a, d
    00001F76 30 29            [12] 5653 	jr	NC, 00124$
    00001F78 DD 36 FE B3      [19] 5654 	ld	-2 (ix), #0xb3
    00001F7C DD 36 FF 01      [19] 5655 	ld	-1 (ix), #0x01
    00001F80 C3rA1r1F         [10] 5656 	jp	00124$
    00001F83                       5657 00123$:
                                   5658 ;E:\Dropbox\FAUSTO\SVILUPPI\MSX\CODE\C\MSXgl\projects\soccerlg/soccerlg_s2_b1.c:1096: runStartY = ballY - 32;
    00001F83 7B               [ 4] 5659 	ld	a, e
    00001F84 C6 E0            [ 7] 5660 	add	a, #0xe0
    00001F86 5F               [ 4] 5661 	ld	e, a
    00001F87 7A               [ 4] 5662 	ld	a, d
    00001F88 CE FF            [ 7] 5663 	adc	a, #0xff
                                   5664 ;E:\Dropbox\FAUSTO\SVILUPPI\MSX\CODE\C\MSXgl\projects\soccerlg/soccerlg_s2_b1.c:1097: if(runStartY < FIELD_BOUND_Y_TOP) runStartY = FIELD_BOUND_Y_TOP;
    00001F8A DD 73 FE         [19] 5665 	ld	-2 (ix), e
    00001F8D DD 77 FF         [19] 5666 	ld	-1 (ix), a
    00001F90 57               [ 4] 5667 	ld	d, a
    00001F91 7B               [ 4] 5668 	ld	a, e
    00001F92 D6 32            [ 7] 5669 	sub	a, #0x32
    00001F94 7A               [ 4] 5670 	ld	a, d
    00001F95 DE 00            [ 7] 5671 	sbc	a, #0x00
    00001F97 30 08            [12] 5672 	jr	NC, 00124$
    00001F99 DD 36 FE 32      [19] 5673 	ld	-2 (ix), #0x32
    00001F9D DD 36 FF 00      [19] 5674 	ld	-1 (ix), #0
    00001FA1                       5675 00124$:
                                   5676 ;E:\Dropbox\FAUSTO\SVILUPPI\MSX\CODE\C\MSXgl\projects\soccerlg/soccerlg_s2_b1.c:1100: g_Players[gkId].TargetX = targetX;
    00001FA1 DD 5E F6         [19] 5677 	ld	e, -10 (ix)
    00001FA4 16 00            [ 7] 5678 	ld	d, #0x00
    00001FA6 6B               [ 4] 5679 	ld	l, e
    00001FA7 62               [ 4] 5680 	ld	h, d
    00001FA8 29               [11] 5681 	add	hl, hl
    00001FA9 29               [11] 5682 	add	hl, hl
    00001FAA 19               [11] 5683 	add	hl, de
    00001FAB 29               [11] 5684 	add	hl, hl
    00001FAC 29               [11] 5685 	add	hl, hl
    00001FAD 19               [11] 5686 	add	hl, de
    00001FAE EB               [ 4] 5687 	ex	de, hl
    00001FAF 21r00r00         [10] 5688 	ld	hl, #_g_Players
    00001FB2 19               [11] 5689 	add	hl, de
    00001FB3 EB               [ 4] 5690 	ex	de, hl
    00001FB4 21 10 00         [10] 5691 	ld	hl, #0x0010
    00001FB7 19               [11] 5692 	add	hl, de
    00001FB8 71               [ 7] 5693 	ld	(hl), c
    00001FB9 23               [ 6] 5694 	inc	hl
    00001FBA 70               [ 7] 5695 	ld	(hl), b
                                   5696 ;E:\Dropbox\FAUSTO\SVILUPPI\MSX\CODE\C\MSXgl\projects\soccerlg/soccerlg_s2_b1.c:1101: g_Players[gkId].TargetY = runStartY;
    00001FBB 21 0E 00         [10] 5697 	ld	hl, #0x000e
    00001FBE 19               [11] 5698 	add	hl, de
    00001FBF DD 7E FE         [19] 5699 	ld	a, -2 (ix)
    00001FC2 77               [ 7] 5700 	ld	(hl), a
    00001FC3 23               [ 6] 5701 	inc	hl
    00001FC4 DD 7E FF         [19] 5702 	ld	a, -1 (ix)
    00001FC7 77               [ 7] 5703 	ld	(hl), a
                                   5704 ;E:\Dropbox\FAUSTO\SVILUPPI\MSX\CODE\C\MSXgl\projects\soccerlg/soccerlg_s2_b1.c:1102: g_Players[gkId].Status = PLAYER_STATUS_NONE; 
    00001FC8 21 12 00         [10] 5705 	ld	hl, #0x0012
    00001FCB 19               [11] 5706 	add	hl, de
    00001FCC AF               [ 4] 5707 	xor	a, a
    00001FCD 77               [ 7] 5708 	ld	(hl), a
    00001FCE 23               [ 6] 5709 	inc	hl
    00001FCF 77               [ 7] 5710 	ld	(hl), a
                                   5711 ;E:\Dropbox\FAUSTO\SVILUPPI\MSX\CODE\C\MSXgl\projects\soccerlg/soccerlg_s2_b1.c:1104: if (g_RestartKickTeamId == TEAM_1) g_Players[gkId].Direction = DIRECTION_UP;
    00001FD0 21 0A 00         [10] 5712 	ld	hl, #0x000a
    00001FD3 19               [11] 5713 	add	hl, de
    00001FD4 3Ar00r00         [13] 5714 	ld	a, (_g_RestartKickTeamId+0)
    00001FD7 3D               [ 4] 5715 	dec	a
    00001FD8 20 05            [12] 5716 	jr	NZ, 00126$
    00001FDA 36 01            [10] 5717 	ld	(hl), #0x01
    00001FDC C3rE1r1F         [10] 5718 	jp	00127$
    00001FDF                       5719 00126$:
                                   5720 ;E:\Dropbox\FAUSTO\SVILUPPI\MSX\CODE\C\MSXgl\projects\soccerlg/soccerlg_s2_b1.c:1105: else g_Players[gkId].Direction = DIRECTION_DOWN;
    00001FDF 36 05            [10] 5721 	ld	(hl), #0x05
    00001FE1                       5722 00127$:
                                   5723 ;E:\Dropbox\FAUSTO\SVILUPPI\MSX\CODE\C\MSXgl\projects\soccerlg/soccerlg_s2_b1.c:1107: if (g_RestartKickTeamId == TEAM_1) g_FieldScrollingActionInProgress=FIELD_SOUTH_ZONE;
    00001FE1 3Ar00r00         [13] 5724 	ld	a, (_g_RestartKickTeamId+0)
    00001FE4 3D               [ 4] 5725 	dec	a
    00001FE5 20 08            [12] 5726 	jr	NZ, 00129$
    00001FE7 3E 02            [ 7] 5727 	ld	a, #0x02
    00001FE9 32r00r00         [13] 5728 	ld	(#_g_FieldScrollingActionInProgress), a
    00001FEC C3rF3r1F         [10] 5729 	jp	00287$
    00001FEF                       5730 00129$:
                                   5731 ;E:\Dropbox\FAUSTO\SVILUPPI\MSX\CODE\C\MSXgl\projects\soccerlg/soccerlg_s2_b1.c:1108: else g_FieldScrollingActionInProgress=FIELD_NORTH_ZONE;
    00001FEF AF               [ 4] 5732 	xor	a, a
    00001FF0 32r00r00         [13] 5733 	ld	(#_g_FieldScrollingActionInProgress), a
                                   5734 ;E:\Dropbox\FAUSTO\SVILUPPI\MSX\CODE\C\MSXgl\projects\soccerlg/soccerlg_s2_b1.c:1111: for(u8 i=0; i<14; i++){
    00001FF3                       5735 00287$:
    00001FF3 DD 36 FF 00      [19] 5736 	ld	-1 (ix), #0x00
    00001FF7                       5737 00241$:
    00001FF7 DD 7E FF         [19] 5738 	ld	a, -1 (ix)
    00001FFA D6 0E            [ 7] 5739 	sub	a, #0x0e
    00001FFC D2rADr21         [10] 5740 	jp	NC, 00177$
                                   5741 ;E:\Dropbox\FAUSTO\SVILUPPI\MSX\CODE\C\MSXgl\projects\soccerlg/soccerlg_s2_b1.c:1112: if(i == gkId) continue;
    00001FFF DD 7E F6         [19] 5742 	ld	a, -10 (ix)
    00002002 DD 96 FF         [19] 5743 	sub	a, -1 (ix)
    00002005 CArA7r21         [10] 5744 	jp	Z,00174$
                                   5745 ;E:\Dropbox\FAUSTO\SVILUPPI\MSX\CODE\C\MSXgl\projects\soccerlg/soccerlg_s2_b1.c:1113: if(g_Players[i].TeamId == REFEREE) continue;
    00002008 DD 4E FF         [19] 5746 	ld	c, -1 (ix)
    0000200B 06 00            [ 7] 5747 	ld	b, #0x00
    0000200D 69               [ 4] 5748 	ld	l, c
    0000200E 60               [ 4] 5749 	ld	h, b
    0000200F 29               [11] 5750 	add	hl, hl
    00002010 29               [11] 5751 	add	hl, hl
    00002011 09               [11] 5752 	add	hl, bc
    00002012 29               [11] 5753 	add	hl, hl
    00002013 29               [11] 5754 	add	hl, hl
    00002014 09               [11] 5755 	add	hl, bc
    00002015 11r00r00         [10] 5756 	ld	de, #_g_Players
    00002018 19               [11] 5757 	add	hl, de
    00002019 DD 75 F7         [19] 5758 	ld	-9 (ix), l
    0000201C DD 74 F8         [19] 5759 	ld	-8 (ix), h
    0000201F FD 21 09 00      [14] 5760 	ld	iy, #0x0009
    00002023 DD 5E F7         [19] 5761 	ld	e, -9 (ix)
    00002026 DD 56 F8         [19] 5762 	ld	d, -8 (ix)
    00002029 FD 19            [15] 5763 	add	iy, de
    0000202B FD 7E 00         [19] 5764 	ld	a, 0 (iy)
    0000202E D6 0E            [ 7] 5765 	sub	a, #0x0e
    00002030 CArA7r21         [10] 5766 	jp	Z,00174$
                                   5767 ;E:\Dropbox\FAUSTO\SVILUPPI\MSX\CODE\C\MSXgl\projects\soccerlg/soccerlg_s2_b1.c:1114: if(g_Players[i].Role == PLAYER_ROLE_GOALKEEPER) continue;
    00002033 DD 7E F7         [19] 5768 	ld	a, -9 (ix)
    00002036 C6 0D            [ 7] 5769 	add	a, #0x0d
    00002038 5F               [ 4] 5770 	ld	e, a
    00002039 DD 7E F8         [19] 5771 	ld	a, -8 (ix)
    0000203C CE 00            [ 7] 5772 	adc	a, #0x00
    0000203E 57               [ 4] 5773 	ld	d, a
    0000203F 1A               [ 7] 5774 	ld	a, (de)
    00002040 B7               [ 4] 5775 	or	a, a
    00002041 CArA7r21         [10] 5776 	jp	Z, 00174$
                                   5777 ;E:\Dropbox\FAUSTO\SVILUPPI\MSX\CODE\C\MSXgl\projects\soccerlg/soccerlg_s2_b1.c:1117: g_Players[i].Status = PLAYER_STATUS_NONE;
    00002044 DD 6E F7         [19] 5778 	ld	l, -9 (ix)
    00002047 DD 66 F8         [19] 5779 	ld	h, -8 (ix)
    0000204A 01 12 00         [10] 5780 	ld	bc, #0x0012
    0000204D 09               [11] 5781 	add	hl, bc
    0000204E AF               [ 4] 5782 	xor	a, a
    0000204F 77               [ 7] 5783 	ld	(hl), a
    00002050 23               [ 6] 5784 	inc	hl
    00002051 77               [ 7] 5785 	ld	(hl), a
                                   5786 ;E:\Dropbox\FAUSTO\SVILUPPI\MSX\CODE\C\MSXgl\projects\soccerlg/soccerlg_s2_b1.c:1120: u16 targetX = g_Players[i].X;
    00002052 DD 6E F7         [19] 5787 	ld	l, -9 (ix)
                                   5788 ;	spillPairReg hl
                                   5789 ;	spillPairReg hl
    00002055 DD 66 F8         [19] 5790 	ld	h, -8 (ix)
                                   5791 ;	spillPairReg hl
                                   5792 ;	spillPairReg hl
    00002058 23               [ 6] 5793 	inc	hl
    00002059 23               [ 6] 5794 	inc	hl
    0000205A 7E               [ 7] 5795 	ld	a, (hl)
    0000205B DD 77 F9         [19] 5796 	ld	-7 (ix), a
    0000205E 23               [ 6] 5797 	inc	hl
    0000205F 7E               [ 7] 5798 	ld	a, (hl)
    00002060 DD 77 FA         [19] 5799 	ld	-6 (ix), a
                                   5800 ;E:\Dropbox\FAUSTO\SVILUPPI\MSX\CODE\C\MSXgl\projects\soccerlg/soccerlg_s2_b1.c:1113: if(g_Players[i].TeamId == REFEREE) continue;
    00002063 FD 4E 00         [19] 5801 	ld	c, 0 (iy)
                                   5802 ;E:\Dropbox\FAUSTO\SVILUPPI\MSX\CODE\C\MSXgl\projects\soccerlg/soccerlg_s2_b1.c:1114: if(g_Players[i].Role == PLAYER_ROLE_GOALKEEPER) continue;
    00002066 1A               [ 7] 5803 	ld	a, (de)
                                   5804 ;E:\Dropbox\FAUSTO\SVILUPPI\MSX\CODE\C\MSXgl\projects\soccerlg/soccerlg_s2_b1.c:1127: if (g_Players[i].Role == PLAYER_ROLE_LEFT_STRIKER || g_Players[i].Role == PLAYER_ROLE_RIGHT_STRIKER) targetY = 200;
    00002067 DD 77 FB         [19] 5805 	ld	-5 (ix), a
    0000206A D6 05            [ 7] 5806 	sub	a, #0x05
    0000206C 3E 01            [ 7] 5807 	ld	a, #0x01
    0000206E 28 01            [12] 5808 	jr	Z, 00583$
    00002070 AF               [ 4] 5809 	xor	a, a
    00002071                       5810 00583$:
    00002071 5F               [ 4] 5811 	ld	e, a
                                   5812 ;E:\Dropbox\FAUSTO\SVILUPPI\MSX\CODE\C\MSXgl\projects\soccerlg/soccerlg_s2_b1.c:1128: if (g_Players[i].Role == PLAYER_ROLE_LEFT_DEFENDER || g_Players[i].Role == PLAYER_ROLE_RIGHT_DEFENDER) targetY = 320; // Defenders move out of box (Safe < 350)
    00002072 DD 7E FB         [19] 5813 	ld	a, -5 (ix)
    00002075 3D               [ 4] 5814 	dec	a
    00002076 3E 01            [ 7] 5815 	ld	a, #0x01
    00002078 28 01            [12] 5816 	jr	Z, 00585$
    0000207A AF               [ 4] 5817 	xor	a, a
    0000207B                       5818 00585$:
    0000207B DD 77 FC         [19] 5819 	ld	-4 (ix), a
                                   5820 ;E:\Dropbox\FAUSTO\SVILUPPI\MSX\CODE\C\MSXgl\projects\soccerlg/soccerlg_s2_b1.c:1122: if (g_RestartKickTeamId == TEAM_1) {
    0000207E 3Ar00r00         [13] 5821 	ld	a, (_g_RestartKickTeamId+0)
    00002081 3D               [ 4] 5822 	dec	a
    00002082 20 6A            [12] 5823 	jr	NZ, 00168$
                                   5824 ;E:\Dropbox\FAUSTO\SVILUPPI\MSX\CODE\C\MSXgl\projects\soccerlg/soccerlg_s2_b1.c:1124: if(g_Players[i].TeamId == TEAM_1) {
    00002084 0D               [ 4] 5825 	dec	c
    00002085 20 34            [12] 5826 	jr	NZ, 00150$
                                   5827 ;E:\Dropbox\FAUSTO\SVILUPPI\MSX\CODE\C\MSXgl\projects\soccerlg/soccerlg_s2_b1.c:1126: targetY = 260; // Midfielders (Closer to center)
    00002087 DD 36 FD 04      [19] 5828 	ld	-3 (ix), #0x04
    0000208B DD 36 FE 01      [19] 5829 	ld	-2 (ix), #0x01
                                   5830 ;E:\Dropbox\FAUSTO\SVILUPPI\MSX\CODE\C\MSXgl\projects\soccerlg/soccerlg_s2_b1.c:1127: if (g_Players[i].Role == PLAYER_ROLE_LEFT_STRIKER || g_Players[i].Role == PLAYER_ROLE_RIGHT_STRIKER) targetY = 200;
    0000208F 7B               [ 4] 5831 	ld	a, e
    00002090 B7               [ 4] 5832 	or	a, a
    00002091 20 07            [12] 5833 	jr	NZ, 00137$
    00002093 DD 7E FB         [19] 5834 	ld	a, -5 (ix)
    00002096 D6 06            [ 7] 5835 	sub	a, #0x06
    00002098 20 08            [12] 5836 	jr	NZ, 00138$
    0000209A                       5837 00137$:
    0000209A DD 36 FD C8      [19] 5838 	ld	-3 (ix), #0xc8
    0000209E DD 36 FE 00      [19] 5839 	ld	-2 (ix), #0
    000020A2                       5840 00138$:
                                   5841 ;E:\Dropbox\FAUSTO\SVILUPPI\MSX\CODE\C\MSXgl\projects\soccerlg/soccerlg_s2_b1.c:1128: if (g_Players[i].Role == PLAYER_ROLE_LEFT_DEFENDER || g_Players[i].Role == PLAYER_ROLE_RIGHT_DEFENDER) targetY = 320; // Defenders move out of box (Safe < 350)
    000020A2 DD 7E FC         [19] 5842 	ld	a, -4 (ix)
    000020A5 B7               [ 4] 5843 	or	a, a
    000020A6 20 08            [12] 5844 	jr	NZ, 00140$
    000020A8 DD 7E FB         [19] 5845 	ld	a, -5 (ix)
    000020AB D6 02            [ 7] 5846 	sub	a, #0x02
    000020AD C2r56r21         [10] 5847 	jp	NZ,00169$
    000020B0                       5848 00140$:
    000020B0 DD 36 FD 40      [19] 5849 	ld	-3 (ix), #0x40
    000020B4 DD 36 FE 01      [19] 5850 	ld	-2 (ix), #0x01
    000020B8 C3r56r21         [10] 5851 	jp	00169$
    000020BB                       5852 00150$:
                                   5853 ;E:\Dropbox\FAUSTO\SVILUPPI\MSX\CODE\C\MSXgl\projects\soccerlg/soccerlg_s2_b1.c:1130: targetY = 250;
    000020BB DD 36 FD FA      [19] 5854 	ld	-3 (ix), #0xfa
    000020BF DD 36 FE 00      [19] 5855 	ld	-2 (ix), #0
                                   5856 ;E:\Dropbox\FAUSTO\SVILUPPI\MSX\CODE\C\MSXgl\projects\soccerlg/soccerlg_s2_b1.c:1131: if (g_Players[i].Role == PLAYER_ROLE_LEFT_STRIKER || g_Players[i].Role == PLAYER_ROLE_RIGHT_STRIKER) targetY = 240; // Keep distance (Safer < 250)
    000020C3 7B               [ 4] 5857 	ld	a, e
    000020C4 B7               [ 4] 5858 	or	a, a
    000020C5 20 07            [12] 5859 	jr	NZ, 00143$
    000020C7 DD 7E FB         [19] 5860 	ld	a, -5 (ix)
    000020CA D6 06            [ 7] 5861 	sub	a, #0x06
    000020CC 20 08            [12] 5862 	jr	NZ, 00144$
    000020CE                       5863 00143$:
    000020CE DD 36 FD F0      [19] 5864 	ld	-3 (ix), #0xf0
    000020D2 DD 36 FE 00      [19] 5865 	ld	-2 (ix), #0
    000020D6                       5866 00144$:
                                   5867 ;E:\Dropbox\FAUSTO\SVILUPPI\MSX\CODE\C\MSXgl\projects\soccerlg/soccerlg_s2_b1.c:1132: if (g_Players[i].Role == PLAYER_ROLE_LEFT_DEFENDER || g_Players[i].Role == PLAYER_ROLE_RIGHT_DEFENDER) targetY = 150;
    000020D6 DD 7E FC         [19] 5868 	ld	a, -4 (ix)
    000020D9 B7               [ 4] 5869 	or	a, a
    000020DA 20 07            [12] 5870 	jr	NZ, 00146$
    000020DC DD 7E FB         [19] 5871 	ld	a, -5 (ix)
    000020DF D6 02            [ 7] 5872 	sub	a, #0x02
    000020E1 20 73            [12] 5873 	jr	NZ, 00169$
    000020E3                       5874 00146$:
    000020E3 DD 36 FD 96      [19] 5875 	ld	-3 (ix), #0x96
    000020E7 DD 36 FE 00      [19] 5876 	ld	-2 (ix), #0
    000020EB C3r56r21         [10] 5877 	jp	00169$
    000020EE                       5878 00168$:
                                   5879 ;E:\Dropbox\FAUSTO\SVILUPPI\MSX\CODE\C\MSXgl\projects\soccerlg/soccerlg_s2_b1.c:1136: if(g_Players[i].TeamId == TEAM_2) {
    000020EE 79               [ 4] 5880 	ld	a, c
    000020EF D6 02            [ 7] 5881 	sub	a, #0x02
    000020F1 20 33            [12] 5882 	jr	NZ, 00165$
                                   5883 ;E:\Dropbox\FAUSTO\SVILUPPI\MSX\CODE\C\MSXgl\projects\soccerlg/soccerlg_s2_b1.c:1138: targetY = 220; // Midfielders (Closer to center)
    000020F3 DD 36 FD DC      [19] 5884 	ld	-3 (ix), #0xdc
    000020F7 DD 36 FE 00      [19] 5885 	ld	-2 (ix), #0
                                   5886 ;E:\Dropbox\FAUSTO\SVILUPPI\MSX\CODE\C\MSXgl\projects\soccerlg/soccerlg_s2_b1.c:1139: if (g_Players[i].Role == PLAYER_ROLE_LEFT_STRIKER || g_Players[i].Role == PLAYER_ROLE_RIGHT_STRIKER) targetY = 250;
    000020FB 7B               [ 4] 5887 	ld	a, e
    000020FC B7               [ 4] 5888 	or	a, a
    000020FD 20 07            [12] 5889 	jr	NZ, 00152$
    000020FF DD 7E FB         [19] 5890 	ld	a, -5 (ix)
    00002102 D6 06            [ 7] 5891 	sub	a, #0x06
    00002104 20 08            [12] 5892 	jr	NZ, 00153$
    00002106                       5893 00152$:
    00002106 DD 36 FD FA      [19] 5894 	ld	-3 (ix), #0xfa
    0000210A DD 36 FE 00      [19] 5895 	ld	-2 (ix), #0
    0000210E                       5896 00153$:
                                   5897 ;E:\Dropbox\FAUSTO\SVILUPPI\MSX\CODE\C\MSXgl\projects\soccerlg/soccerlg_s2_b1.c:1140: if (g_Players[i].Role == PLAYER_ROLE_LEFT_DEFENDER || g_Players[i].Role == PLAYER_ROLE_RIGHT_DEFENDER) targetY = 160; // Defenders move out of box (Safe > 130)
    0000210E DD 7E FC         [19] 5898 	ld	a, -4 (ix)
    00002111 B7               [ 4] 5899 	or	a, a
    00002112 20 07            [12] 5900 	jr	NZ, 00155$
    00002114 DD 7E FB         [19] 5901 	ld	a, -5 (ix)
    00002117 D6 02            [ 7] 5902 	sub	a, #0x02
    00002119 20 3B            [12] 5903 	jr	NZ, 00169$
    0000211B                       5904 00155$:
    0000211B DD 36 FD A0      [19] 5905 	ld	-3 (ix), #0xa0
    0000211F DD 36 FE 00      [19] 5906 	ld	-2 (ix), #0
    00002123 C3r56r21         [10] 5907 	jp	00169$
    00002126                       5908 00165$:
                                   5909 ;E:\Dropbox\FAUSTO\SVILUPPI\MSX\CODE\C\MSXgl\projects\soccerlg/soccerlg_s2_b1.c:1142: targetY = 240; // Keep distance (Safer > 230)
    00002126 DD 36 FD F0      [19] 5910 	ld	-3 (ix), #0xf0
    0000212A DD 36 FE 00      [19] 5911 	ld	-2 (ix), #0
                                   5912 ;E:\Dropbox\FAUSTO\SVILUPPI\MSX\CODE\C\MSXgl\projects\soccerlg/soccerlg_s2_b1.c:1143: if (g_Players[i].Role == PLAYER_ROLE_LEFT_STRIKER || g_Players[i].Role == PLAYER_ROLE_RIGHT_STRIKER) targetY = 240; // Keep distance
    0000212E 7B               [ 4] 5913 	ld	a, e
    0000212F B7               [ 4] 5914 	or	a, a
    00002130 20 07            [12] 5915 	jr	NZ, 00158$
    00002132 DD 7E FB         [19] 5916 	ld	a, -5 (ix)
    00002135 D6 06            [ 7] 5917 	sub	a, #0x06
    00002137 20 08            [12] 5918 	jr	NZ, 00159$
    00002139                       5919 00158$:
    00002139 DD 36 FD F0      [19] 5920 	ld	-3 (ix), #0xf0
    0000213D DD 36 FE 00      [19] 5921 	ld	-2 (ix), #0
    00002141                       5922 00159$:
                                   5923 ;E:\Dropbox\FAUSTO\SVILUPPI\MSX\CODE\C\MSXgl\projects\soccerlg/soccerlg_s2_b1.c:1144: if (g_Players[i].Role == PLAYER_ROLE_LEFT_DEFENDER || g_Players[i].Role == PLAYER_ROLE_RIGHT_DEFENDER) targetY = 300;
    00002141 DD 7E FC         [19] 5924 	ld	a, -4 (ix)
    00002144 B7               [ 4] 5925 	or	a, a
    00002145 20 07            [12] 5926 	jr	NZ, 00161$
    00002147 DD 7E FB         [19] 5927 	ld	a, -5 (ix)
    0000214A D6 02            [ 7] 5928 	sub	a, #0x02
    0000214C 20 08            [12] 5929 	jr	NZ, 00169$
    0000214E                       5930 00161$:
    0000214E DD 36 FD 2C      [19] 5931 	ld	-3 (ix), #0x2c
    00002152 DD 36 FE 01      [19] 5932 	ld	-2 (ix), #0x01
    00002156                       5933 00169$:
                                   5934 ;E:\Dropbox\FAUSTO\SVILUPPI\MSX\CODE\C\MSXgl\projects\soccerlg/soccerlg_s2_b1.c:1149: if (targetX < 30) targetX = 30;
    00002156 DD 7E F9         [19] 5935 	ld	a, -7 (ix)
    00002159 DD 46 FA         [19] 5936 	ld	b, -6 (ix)
    0000215C D6 1E            [ 7] 5937 	sub	a, #0x1e
    0000215E 78               [ 4] 5938 	ld	a, b
    0000215F DE 00            [ 7] 5939 	sbc	a, #0x00
    00002161 30 08            [12] 5940 	jr	NC, 00171$
    00002163 DD 36 F9 1E      [19] 5941 	ld	-7 (ix), #0x1e
    00002167 DD 36 FA 00      [19] 5942 	ld	-6 (ix), #0
    0000216B                       5943 00171$:
                                   5944 ;E:\Dropbox\FAUSTO\SVILUPPI\MSX\CODE\C\MSXgl\projects\soccerlg/soccerlg_s2_b1.c:1150: if (targetX > 220) targetX = 220;
    0000216B DD 4E F9         [19] 5945 	ld	c, -7 (ix)
    0000216E DD 46 FA         [19] 5946 	ld	b, -6 (ix)
    00002171 3E DC            [ 7] 5947 	ld	a, #0xdc
    00002173 B9               [ 4] 5948 	cp	a, c
    00002174 3E 00            [ 7] 5949 	ld	a, #0x00
    00002176 98               [ 4] 5950 	sbc	a, b
    00002177 30 08            [12] 5951 	jr	NC, 00173$
    00002179 DD 36 F9 DC      [19] 5952 	ld	-7 (ix), #0xdc
    0000217D DD 36 FA 00      [19] 5953 	ld	-6 (ix), #0
    00002181                       5954 00173$:
                                   5955 ;E:\Dropbox\FAUSTO\SVILUPPI\MSX\CODE\C\MSXgl\projects\soccerlg/soccerlg_s2_b1.c:1152: g_Players[i].TargetX = targetX;
    00002181 DD 6E F7         [19] 5956 	ld	l, -9 (ix)
    00002184 DD 66 F8         [19] 5957 	ld	h, -8 (ix)
    00002187 11 10 00         [10] 5958 	ld	de, #0x0010
    0000218A 19               [11] 5959 	add	hl, de
    0000218B DD 7E F9         [19] 5960 	ld	a, -7 (ix)
    0000218E 77               [ 7] 5961 	ld	(hl), a
    0000218F 23               [ 6] 5962 	inc	hl
    00002190 DD 7E FA         [19] 5963 	ld	a, -6 (ix)
    00002193 77               [ 7] 5964 	ld	(hl), a
                                   5965 ;E:\Dropbox\FAUSTO\SVILUPPI\MSX\CODE\C\MSXgl\projects\soccerlg/soccerlg_s2_b1.c:1153: g_Players[i].TargetY = targetY;
    00002194 DD 6E F7         [19] 5966 	ld	l, -9 (ix)
    00002197 DD 66 F8         [19] 5967 	ld	h, -8 (ix)
    0000219A 11 0E 00         [10] 5968 	ld	de, #0x000e
    0000219D 19               [11] 5969 	add	hl, de
    0000219E DD 7E FD         [19] 5970 	ld	a, -3 (ix)
    000021A1 77               [ 7] 5971 	ld	(hl), a
    000021A2 23               [ 6] 5972 	inc	hl
    000021A3 DD 7E FE         [19] 5973 	ld	a, -2 (ix)
    000021A6 77               [ 7] 5974 	ld	(hl), a
    000021A7                       5975 00174$:
                                   5976 ;E:\Dropbox\FAUSTO\SVILUPPI\MSX\CODE\C\MSXgl\projects\soccerlg/soccerlg_s2_b1.c:1111: for(u8 i=0; i<14; i++){
    000021A7 DD 34 FF         [23] 5977 	inc	-1 (ix)
    000021AA C3rF7r1F         [10] 5978 	jp	00241$
    000021AD                       5979 00177$:
                                   5980 ;E:\Dropbox\FAUSTO\SVILUPPI\MSX\CODE\C\MSXgl\projects\soccerlg/soccerlg_s2_b1.c:1158: if (g_Timer >= 60 && g_Timer < 115) {
    000021AD 3Ar00r00         [13] 5981 	ld	a,(_g_Timer+0)
    000021B0 FE 3C            [ 7] 5982 	cp	a,#0x3c
    000021B2 38 2F            [12] 5983 	jr	C, 00185$
    000021B4 D6 73            [ 7] 5984 	sub	a, #0x73
    000021B6 30 2B            [12] 5985 	jr	NC, 00185$
                                   5986 ;E:\Dropbox\FAUSTO\SVILUPPI\MSX\CODE\C\MSXgl\projects\soccerlg/soccerlg_s2_b1.c:1160: if (g_RestartKickTeamId == TEAM_1) ballY = GK_BOX_Y_BOTTOM_MIN; 
    000021B8 3Ar00r00         [13] 5987 	ld	a, (_g_RestartKickTeamId+0)
    000021BB 3D               [ 4] 5988 	dec	a
    000021BC 20 06            [12] 5989 	jr	NZ, 00179$
    000021BE 01 95 01         [10] 5990 	ld	bc, #0x0195
    000021C1 C3rC7r21         [10] 5991 	jp	00180$
    000021C4                       5992 00179$:
                                   5993 ;E:\Dropbox\FAUSTO\SVILUPPI\MSX\CODE\C\MSXgl\projects\soccerlg/soccerlg_s2_b1.c:1161: else ballY = GK_BOX_Y_TOP_MAX;
    000021C4 01 4B 00         [10] 5994 	ld	bc, #0x004b
    000021C7                       5995 00180$:
                                   5996 ;E:\Dropbox\FAUSTO\SVILUPPI\MSX\CODE\C\MSXgl\projects\soccerlg/soccerlg_s2_b1.c:1164: if (g_GoalKickSide == CORNER_SIDE_LEFT) targetX = GK_BOX_X_MIN;
    000021C7 3Ar00r00         [13] 5997 	ld	a, (_g_GoalKickSide+0)
    000021CA B7               [ 4] 5998 	or	a, a
    000021CB 20 06            [12] 5999 	jr	NZ, 00182$
    000021CD 11 50 00         [10] 6000 	ld	de, #0x0050
    000021D0 C3rD6r21         [10] 6001 	jp	00183$
    000021D3                       6002 00182$:
                                   6003 ;E:\Dropbox\FAUSTO\SVILUPPI\MSX\CODE\C\MSXgl\projects\soccerlg/soccerlg_s2_b1.c:1165: else targetX = GK_BOX_X_MAX;
    000021D3 11 A0 00         [10] 6004 	ld	de, #0x00a0
    000021D6                       6005 00183$:
                                   6006 ;E:\Dropbox\FAUSTO\SVILUPPI\MSX\CODE\C\MSXgl\projects\soccerlg/soccerlg_s2_b1.c:1167: g_Ball.X = targetX;
    000021D6 ED 53r02r00      [20] 6007 	ld	((_g_Ball + 2)), de
                                   6008 ;E:\Dropbox\FAUSTO\SVILUPPI\MSX\CODE\C\MSXgl\projects\soccerlg/soccerlg_s2_b1.c:1168: g_Ball.Y = ballY;
    000021DA ED 43r00r00      [20] 6009 	ld	(_g_Ball), bc
                                   6010 ;E:\Dropbox\FAUSTO\SVILUPPI\MSX\CODE\C\MSXgl\projects\soccerlg/soccerlg_s2_b1.c:1169: g_Ball.PossessionPlayerId = NO_VALUE; // Ensure no one grabs it
    000021DE 21r06r00         [10] 6011 	ld	hl, #(_g_Ball + 6)
    000021E1 36 FF            [10] 6012 	ld	(hl), #0xff
    000021E3                       6013 00185$:
                                   6014 ;E:\Dropbox\FAUSTO\SVILUPPI\MSX\CODE\C\MSXgl\projects\soccerlg/soccerlg_s2_b1.c:1173: i16 dx = (i16)g_Players[gkId].X - (i16)g_Players[gkId].TargetX;
    000021E3 DD 4E F6         [19] 6015 	ld	c, -10 (ix)
    000021E6 06 00            [ 7] 6016 	ld	b, #0x00
    000021E8 69               [ 4] 6017 	ld	l, c
    000021E9 60               [ 4] 6018 	ld	h, b
    000021EA 29               [11] 6019 	add	hl, hl
    000021EB 29               [11] 6020 	add	hl, hl
    000021EC 09               [11] 6021 	add	hl, bc
    000021ED 29               [11] 6022 	add	hl, hl
    000021EE 29               [11] 6023 	add	hl, hl
    000021EF 09               [11] 6024 	add	hl, bc
    000021F0 EB               [ 4] 6025 	ex	de, hl
    000021F1 21r00r00         [10] 6026 	ld	hl, #_g_Players
    000021F4 19               [11] 6027 	add	hl, de
    000021F5 EB               [ 4] 6028 	ex	de, hl
    000021F6 21 02 00         [10] 6029 	ld	hl, #0x0002
    000021F9 19               [11] 6030 	add	hl, de
    000021FA DD 75 F8         [19] 6031 	ld	-8 (ix), l
    000021FD DD 74 F9         [19] 6032 	ld	-7 (ix), h
    00002200 4E               [ 7] 6033 	ld	c, (hl)
    00002201 23               [ 6] 6034 	inc	hl
    00002202 46               [ 7] 6035 	ld	b, (hl)
    00002203 D5               [11] 6036 	push	de
    00002204 FD E1            [14] 6037 	pop	iy
    00002206 FD 7E 10         [19] 6038 	ld	a, 16 (iy)
    00002209 DD 77 FA         [19] 6039 	ld	-6 (ix), a
    0000220C FD 7E 11         [19] 6040 	ld	a, 17 (iy)
    0000220F DD 77 FB         [19] 6041 	ld	-5 (ix), a
    00002212 DD 6E FA         [19] 6042 	ld	l, -6 (ix)
                                   6043 ;	spillPairReg hl
                                   6044 ;	spillPairReg hl
    00002215 DD 66 FB         [19] 6045 	ld	h, -5 (ix)
                                   6046 ;	spillPairReg hl
                                   6047 ;	spillPairReg hl
    00002218 79               [ 4] 6048 	ld	a, c
    00002219 95               [ 4] 6049 	sub	a, l
    0000221A 4F               [ 4] 6050 	ld	c, a
    0000221B 78               [ 4] 6051 	ld	a, b
    0000221C 9C               [ 4] 6052 	sbc	a, h
    0000221D 47               [ 4] 6053 	ld	b, a
    0000221E DD 71 FC         [19] 6054 	ld	-4 (ix), c
    00002221 DD 70 FD         [19] 6055 	ld	-3 (ix), b
                                   6056 ;E:\Dropbox\FAUSTO\SVILUPPI\MSX\CODE\C\MSXgl\projects\soccerlg/soccerlg_s2_b1.c:1174: i16 dy = (i16)g_Players[gkId].Y - (i16)g_Players[gkId].TargetY;
    00002224 6B               [ 4] 6057 	ld	l, e
    00002225 62               [ 4] 6058 	ld	h, d
    00002226 4E               [ 7] 6059 	ld	c, (hl)
    00002227 23               [ 6] 6060 	inc	hl
    00002228 46               [ 7] 6061 	ld	b, (hl)
    00002229 21 0E 00         [10] 6062 	ld	hl, #0x000e
    0000222C 19               [11] 6063 	add	hl, de
    0000222D DD 75 FE         [19] 6064 	ld	-2 (ix), l
    00002230 DD 74 FF         [19] 6065 	ld	-1 (ix), h
    00002233 7E               [ 7] 6066 	ld	a, (hl)
    00002234 23               [ 6] 6067 	inc	hl
    00002235 66               [ 7] 6068 	ld	h, (hl)
                                   6069 ;	spillPairReg hl
    00002236 6F               [ 4] 6070 	ld	l, a
                                   6071 ;	spillPairReg hl
                                   6072 ;	spillPairReg hl
    00002237 79               [ 4] 6073 	ld	a, c
    00002238 95               [ 4] 6074 	sub	a, l
    00002239 4F               [ 4] 6075 	ld	c, a
    0000223A 78               [ 4] 6076 	ld	a, b
    0000223B 9C               [ 4] 6077 	sbc	a, h
    0000223C 47               [ 4] 6078 	ld	b, a
                                   6079 ;E:\Dropbox\FAUSTO\SVILUPPI\MSX\CODE\C\MSXgl\projects\soccerlg/soccerlg_s2_b1.c:1176: bool arrived = (dx >= -4 && dx <= 4 && dy >= -4 && dy <= 4);
    0000223D DD 7E FC         [19] 6080 	ld	a, -4 (ix)
    00002240 D6 FC            [ 7] 6081 	sub	a, #0xfc
    00002242 DD 7E FD         [19] 6082 	ld	a, -3 (ix)
    00002245 17               [ 4] 6083 	rla
    00002246 3F               [ 4] 6084 	ccf
    00002247 1F               [ 4] 6085 	rra
    00002248 DE 7F            [ 7] 6086 	sbc	a, #0x7f
    0000224A 38 2D            [12] 6087 	jr	C, 00246$
    0000224C DD 6E FC         [19] 6088 	ld	l, -4 (ix)
                                   6089 ;	spillPairReg hl
                                   6090 ;	spillPairReg hl
    0000224F DD 66 FD         [19] 6091 	ld	h, -3 (ix)
                                   6092 ;	spillPairReg hl
                                   6093 ;	spillPairReg hl
    00002252 3E 04            [ 7] 6094 	ld	a, #0x04
    00002254 BD               [ 4] 6095 	cp	a, l
    00002255 3E 00            [ 7] 6096 	ld	a, #0x00
    00002257 9C               [ 4] 6097 	sbc	a, h
    00002258 E2r5Dr22         [10] 6098 	jp	PO, 00610$
    0000225B EE 80            [ 7] 6099 	xor	a, #0x80
    0000225D                       6100 00610$:
    0000225D FAr79r22         [10] 6101 	jp	M, 00246$
    00002260 79               [ 4] 6102 	ld	a, c
    00002261 D6 FC            [ 7] 6103 	sub	a, #0xfc
    00002263 78               [ 4] 6104 	ld	a, b
    00002264 17               [ 4] 6105 	rla
    00002265 3F               [ 4] 6106 	ccf
    00002266 1F               [ 4] 6107 	rra
    00002267 DE 7F            [ 7] 6108 	sbc	a, #0x7f
    00002269 38 0E            [12] 6109 	jr	C, 00246$
    0000226B 3E 04            [ 7] 6110 	ld	a, #0x04
    0000226D B9               [ 4] 6111 	cp	a, c
    0000226E 3E 00            [ 7] 6112 	ld	a, #0x00
    00002270 98               [ 4] 6113 	sbc	a, b
    00002271 E2r76r22         [10] 6114 	jp	PO, 00611$
    00002274 EE 80            [ 7] 6115 	xor	a, #0x80
    00002276                       6116 00611$:
    00002276 F2r7Dr22         [10] 6117 	jp	P, 00247$
    00002279                       6118 00246$:
    00002279 AF               [ 4] 6119 	xor	a, a
    0000227A C3r7Fr22         [10] 6120 	jp	00248$
    0000227D                       6121 00247$:
    0000227D 3E 01            [ 7] 6122 	ld	a, #0x01
    0000227F                       6123 00248$:
                                   6124 ;E:\Dropbox\FAUSTO\SVILUPPI\MSX\CODE\C\MSXgl\projects\soccerlg/soccerlg_s2_b1.c:1178: if (arrived) {
    0000227F B7               [ 4] 6125 	or	a, a
    00002280 CAr5Dr24         [10] 6126 	jp	Z, 00238$
                                   6127 ;E:\Dropbox\FAUSTO\SVILUPPI\MSX\CODE\C\MSXgl\projects\soccerlg/soccerlg_s2_b1.c:1179: g_Players[gkId].X = g_Players[gkId].TargetX;
    00002283 C1               [10] 6128 	pop	bc
    00002284 E1               [10] 6129 	pop	hl
    00002285 E5               [11] 6130 	push	hl
    00002286 C5               [11] 6131 	push	bc
    00002287 DD 7E FA         [19] 6132 	ld	a, -6 (ix)
    0000228A 77               [ 7] 6133 	ld	(hl), a
    0000228B 23               [ 6] 6134 	inc	hl
    0000228C DD 7E FB         [19] 6135 	ld	a, -5 (ix)
    0000228F 77               [ 7] 6136 	ld	(hl), a
                                   6137 ;E:\Dropbox\FAUSTO\SVILUPPI\MSX\CODE\C\MSXgl\projects\soccerlg/soccerlg_s2_b1.c:1180: g_Players[gkId].Y = g_Players[gkId].TargetY;
    00002290 DD 6E FE         [19] 6138 	ld	l, -2 (ix)
    00002293 DD 66 FF         [19] 6139 	ld	h, -1 (ix)
    00002296 4E               [ 7] 6140 	ld	c, (hl)
    00002297 23               [ 6] 6141 	inc	hl
    00002298 46               [ 7] 6142 	ld	b, (hl)
    00002299 6B               [ 4] 6143 	ld	l, e
    0000229A 62               [ 4] 6144 	ld	h, d
    0000229B 71               [ 7] 6145 	ld	(hl), c
    0000229C 23               [ 6] 6146 	inc	hl
    0000229D 70               [ 7] 6147 	ld	(hl), b
                                   6148 ;E:\Dropbox\FAUSTO\SVILUPPI\MSX\CODE\C\MSXgl\projects\soccerlg/soccerlg_s2_b1.c:1182: if (g_RestartKickTeamId == TEAM_1) g_Players[gkId].Direction = DIRECTION_UP;
    0000229E 21 0A 00         [10] 6149 	ld	hl, #0x000a
    000022A1 19               [11] 6150 	add	hl, de
    000022A2 4D               [ 4] 6151 	ld	c, l
    000022A3 44               [ 4] 6152 	ld	b, h
    000022A4 3Ar00r00         [13] 6153 	ld	a, (_g_RestartKickTeamId+0)
    000022A7 3D               [ 4] 6154 	dec	a
    000022A8 20 06            [12] 6155 	jr	NZ, 00188$
    000022AA 3E 01            [ 7] 6156 	ld	a, #0x01
    000022AC 02               [ 7] 6157 	ld	(bc), a
    000022AD C3rB3r22         [10] 6158 	jp	00189$
    000022B0                       6159 00188$:
                                   6160 ;E:\Dropbox\FAUSTO\SVILUPPI\MSX\CODE\C\MSXgl\projects\soccerlg/soccerlg_s2_b1.c:1183: else g_Players[gkId].Direction = DIRECTION_DOWN;
    000022B0 3E 05            [ 7] 6161 	ld	a, #0x05
    000022B2 02               [ 7] 6162 	ld	(bc), a
    000022B3                       6163 00189$:
                                   6164 ;E:\Dropbox\FAUSTO\SVILUPPI\MSX\CODE\C\MSXgl\projects\soccerlg/soccerlg_s2_b1.c:1184: g_Players[gkId].PatternId = Trampoline_U8_P1(4,GetNoMovingPlayerPatternId,g_Players[gkId].Direction);
    000022B3 21 08 00         [10] 6165 	ld	hl, #0x0008
    000022B6 19               [11] 6166 	add	hl, de
    000022B7 0A               [ 7] 6167 	ld	a, (bc)
    000022B8 E5               [11] 6168 	push	hl
    000022B9 D5               [11] 6169 	push	de
    000022BA F5               [11] 6170 	push	af
    000022BB 33               [ 6] 6171 	inc	sp
    000022BC 11r00r00         [10] 6172 	ld	de, #_GetNoMovingPlayerPatternId
    000022BF 3E 04            [ 7] 6173 	ld	a, #0x04
    000022C1 CDr00r00         [17] 6174 	call	_Trampoline_U8_P1
    000022C4 D1               [10] 6175 	pop	de
    000022C5 E1               [10] 6176 	pop	hl
    000022C6 77               [ 7] 6177 	ld	(hl), a
                                   6178 ;E:\Dropbox\FAUSTO\SVILUPPI\MSX\CODE\C\MSXgl\projects\soccerlg/soccerlg_s2_b1.c:1185: g_Players[gkId].Status = PLAYER_STATUS_POSITIONED;
    000022C7 21 12 00         [10] 6179 	ld	hl, #0x0012
    000022CA 19               [11] 6180 	add	hl, de
    000022CB 4D               [ 4] 6181 	ld	c,l
    000022CC 44               [ 4] 6182 	ld	b,h
    000022CD 36 04            [10] 6183 	ld	(hl), #0x04
    000022CF 23               [ 6] 6184 	inc	hl
    000022D0 36 00            [10] 6185 	ld	(hl), #0x00
                                   6186 ;E:\Dropbox\FAUSTO\SVILUPPI\MSX\CODE\C\MSXgl\projects\soccerlg/soccerlg_s2_b1.c:1174: i16 dy = (i16)g_Players[gkId].Y - (i16)g_Players[gkId].TargetY;
    000022D2 EB               [ 4] 6187 	ex	de,hl
    000022D3 5E               [ 7] 6188 	ld	e, (hl)
    000022D4 23               [ 6] 6189 	inc	hl
    000022D5 56               [ 7] 6190 	ld	d, (hl)
                                   6191 ;E:\Dropbox\FAUSTO\SVILUPPI\MSX\CODE\C\MSXgl\projects\soccerlg/soccerlg_s2_b1.c:1188: u16 distY = (g_Players[gkId].Y > g_Ball.Y) ? (g_Players[gkId].Y - g_Ball.Y) : (g_Ball.Y - g_Players[gkId].Y);
    000022D6 21r00r00         [10] 6192 	ld	hl, #_g_Ball
    000022D9 7E               [ 7] 6193 	ld	a, (hl)
    000022DA DD 77 FC         [19] 6194 	ld	-4 (ix), a
    000022DD 23               [ 6] 6195 	inc	hl
    000022DE 7E               [ 7] 6196 	ld	a, (hl)
    000022DF DD 77 FD         [19] 6197 	ld	-3 (ix), a
    000022E2 DD 7E FC         [19] 6198 	ld	a, -4 (ix)
    000022E5 93               [ 4] 6199 	sub	a, e
    000022E6 DD 7E FD         [19] 6200 	ld	a, -3 (ix)
    000022E9 9A               [ 4] 6201 	sbc	a, d
    000022EA 30 0C            [12] 6202 	jr	NC, 00255$
    000022EC 7B               [ 4] 6203 	ld	a, e
    000022ED DD 96 FC         [19] 6204 	sub	a, -4 (ix)
    000022F0 5F               [ 4] 6205 	ld	e, a
    000022F1 7A               [ 4] 6206 	ld	a, d
    000022F2 DD 9E FD         [19] 6207 	sbc	a, -3 (ix)
    000022F5 C3r01r23         [10] 6208 	jp	00256$
    000022F8                       6209 00255$:
    000022F8 DD 7E FC         [19] 6210 	ld	a, -4 (ix)
    000022FB 93               [ 4] 6211 	sub	a, e
    000022FC 5F               [ 4] 6212 	ld	e, a
    000022FD DD 7E FD         [19] 6213 	ld	a, -3 (ix)
    00002300 9A               [ 4] 6214 	sbc	a, d
    00002301                       6215 00256$:
                                   6216 ;E:\Dropbox\FAUSTO\SVILUPPI\MSX\CODE\C\MSXgl\projects\soccerlg/soccerlg_s2_b1.c:1190: if (distY > 16) {
    00002301 57               [ 4] 6217 	ld	d, a
    00002302 3E 10            [ 7] 6218 	ld	a, #0x10
    00002304 BB               [ 4] 6219 	cp	a, e
    00002305 3E 00            [ 7] 6220 	ld	a, #0x00
    00002307 9A               [ 4] 6221 	sbc	a, d
    00002308 D2r34r24         [10] 6222 	jp	NC, 00232$
                                   6223 ;E:\Dropbox\FAUSTO\SVILUPPI\MSX\CODE\C\MSXgl\projects\soccerlg/soccerlg_s2_b1.c:1194: bool areaSafe = true;
    0000230B 1E 01            [ 7] 6224 	ld	e, #0x01
                                   6225 ;E:\Dropbox\FAUSTO\SVILUPPI\MSX\CODE\C\MSXgl\projects\soccerlg/soccerlg_s2_b1.c:1195: for(u8 i=0; i<14; i++) {
    0000230D DD 36 FD 00      [19] 6226 	ld	-3 (ix), #0x00
    00002311                       6227 00243$:
    00002311 DD 7E FD         [19] 6228 	ld	a, -3 (ix)
    00002314 D6 0E            [ 7] 6229 	sub	a, #0x0e
    00002316 D2rCCr23         [10] 6230 	jp	NC, 00214$
                                   6231 ;E:\Dropbox\FAUSTO\SVILUPPI\MSX\CODE\C\MSXgl\projects\soccerlg/soccerlg_s2_b1.c:1196: if (i == gkId) continue;
    00002319 DD 7E F6         [19] 6232 	ld	a, -10 (ix)
    0000231C DD 96 FD         [19] 6233 	sub	a, -3 (ix)
    0000231F CArC6r23         [10] 6234 	jp	Z,00213$
                                   6235 ;E:\Dropbox\FAUSTO\SVILUPPI\MSX\CODE\C\MSXgl\projects\soccerlg/soccerlg_s2_b1.c:1197: if (g_Players[i].TeamId == REFEREE) continue;
    00002322 D5               [11] 6236 	push	de
    00002323 DD 5E FD         [19] 6237 	ld	e, -3 (ix)
    00002326 16 00            [ 7] 6238 	ld	d, #0x00
    00002328 6B               [ 4] 6239 	ld	l, e
    00002329 62               [ 4] 6240 	ld	h, d
    0000232A 29               [11] 6241 	add	hl, hl
    0000232B 29               [11] 6242 	add	hl, hl
    0000232C 19               [11] 6243 	add	hl, de
    0000232D 29               [11] 6244 	add	hl, hl
    0000232E 29               [11] 6245 	add	hl, hl
    0000232F 19               [11] 6246 	add	hl, de
    00002330 D1               [10] 6247 	pop	de
    00002331 FD 21r00r00      [14] 6248 	ld	iy, #_g_Players
    00002335 C5               [11] 6249 	push	bc
    00002336 4D               [ 4] 6250 	ld	c, l
    00002337 44               [ 4] 6251 	ld	b, h
    00002338 FD 09            [15] 6252 	add	iy, bc
    0000233A C1               [10] 6253 	pop	bc
    0000233B FD E5            [15] 6254 	push	iy
    0000233D E1               [10] 6255 	pop	hl
    0000233E C5               [11] 6256 	push	bc
    0000233F 01 09 00         [10] 6257 	ld	bc, #0x0009
    00002342 09               [11] 6258 	add	hl, bc
    00002343 C1               [10] 6259 	pop	bc
    00002344 56               [ 7] 6260 	ld	d, (hl)
    00002345 7A               [ 4] 6261 	ld	a, d
    00002346 D6 0E            [ 7] 6262 	sub	a, #0x0e
    00002348 28 7C            [12] 6263 	jr	Z, 00213$
                                   6264 ;E:\Dropbox\FAUSTO\SVILUPPI\MSX\CODE\C\MSXgl\projects\soccerlg/soccerlg_s2_b1.c:1199: u16 py = g_Players[i].Y;
    0000234A FD 7E 00         [19] 6265 	ld	a, 0 (iy)
    0000234D DD 77 FB         [19] 6266 	ld	-5 (ix), a
    00002350 FD 7E 01         [19] 6267 	ld	a, 1 (iy)
    00002353 DD 77 FC         [19] 6268 	ld	-4 (ix), a
                                   6269 ;E:\Dropbox\FAUSTO\SVILUPPI\MSX\CODE\C\MSXgl\projects\soccerlg/soccerlg_s2_b1.c:1201: if (g_RestartKickTeamId == TEAM_1) { // Bottom Goal (Y=430)
    00002356 3Ar00r00         [13] 6270 	ld	a, (_g_RestartKickTeamId+0)
    00002359 3D               [ 4] 6271 	dec	a
    0000235A 20 34            [12] 6272 	jr	NZ, 00209$
                                   6273 ;E:\Dropbox\FAUSTO\SVILUPPI\MSX\CODE\C\MSXgl\projects\soccerlg/soccerlg_s2_b1.c:1203: if (g_Players[i].TeamId == TEAM_1 && py > 350) areaSafe = false;
    0000235C 15               [ 4] 6274 	dec	d
    0000235D 3E 01            [ 7] 6275 	ld	a, #0x01
    0000235F 28 01            [12] 6276 	jr	Z, 00619$
    00002361 AF               [ 4] 6277 	xor	a, a
    00002362                       6278 00619$:
    00002362 57               [ 4] 6279 	ld	d, a
    00002363 B7               [ 4] 6280 	or	a, a
    00002364 28 13            [12] 6281 	jr	Z, 00198$
    00002366 DD 6E FB         [19] 6282 	ld	l, -5 (ix)
                                   6283 ;	spillPairReg hl
                                   6284 ;	spillPairReg hl
    00002369 DD 66 FC         [19] 6285 	ld	h, -4 (ix)
                                   6286 ;	spillPairReg hl
                                   6287 ;	spillPairReg hl
    0000236C 3E 5E            [ 7] 6288 	ld	a, #0x5e
    0000236E BD               [ 4] 6289 	cp	a, l
    0000236F 3E 01            [ 7] 6290 	ld	a, #0x01
    00002371 9C               [ 4] 6291 	sbc	a, h
    00002372 30 05            [12] 6292 	jr	NC, 00198$
    00002374 1E 00            [ 7] 6293 	ld	e, #0x00
    00002376 C3rC2r23         [10] 6294 	jp	00210$
    00002379                       6295 00198$:
                                   6296 ;E:\Dropbox\FAUSTO\SVILUPPI\MSX\CODE\C\MSXgl\projects\soccerlg/soccerlg_s2_b1.c:1204: else if (g_Players[i].TeamId != TEAM_1 && py > 280) areaSafe = false; // Relaxed to 280
    00002379 CB 42            [ 8] 6297 	bit	0, d
    0000237B 20 45            [12] 6298 	jr	NZ, 00210$
    0000237D DD 56 FB         [19] 6299 	ld	d, -5 (ix)
    00002380 DD 6E FC         [19] 6300 	ld	l, -4 (ix)
                                   6301 ;	spillPairReg hl
                                   6302 ;	spillPairReg hl
    00002383 3E 18            [ 7] 6303 	ld	a, #0x18
    00002385 BA               [ 4] 6304 	cp	a, d
    00002386 3E 01            [ 7] 6305 	ld	a, #0x01
    00002388 9D               [ 4] 6306 	sbc	a, l
    00002389 30 37            [12] 6307 	jr	NC, 00210$
    0000238B 1E 00            [ 7] 6308 	ld	e, #0x00
    0000238D C3rC2r23         [10] 6309 	jp	00210$
    00002390                       6310 00209$:
                                   6311 ;E:\Dropbox\FAUSTO\SVILUPPI\MSX\CODE\C\MSXgl\projects\soccerlg/soccerlg_s2_b1.c:1207: if (g_Players[i].TeamId == TEAM_2 && py < 130) areaSafe = false;
    00002390 7A               [ 4] 6312 	ld	a, d
    00002391 D6 02            [ 7] 6313 	sub	a, #0x02
    00002393 3E 01            [ 7] 6314 	ld	a, #0x01
    00002395 28 01            [12] 6315 	jr	Z, 00621$
    00002397 AF               [ 4] 6316 	xor	a, a
    00002398                       6317 00621$:
    00002398 57               [ 4] 6318 	ld	d, a
    00002399 B7               [ 4] 6319 	or	a, a
    0000239A 28 12            [12] 6320 	jr	Z, 00205$
                                   6321 ;	spillPairReg hl
                                   6322 ;	spillPairReg hl
                                   6323 ;	spillPairReg hl
                                   6324 ;	spillPairReg hl
    0000239C DD 7E FB         [19] 6325 	ld	a, -5 (ix)
    0000239F DD 66 FC         [19] 6326 	ld	h, -4 (ix)
    000023A2 D6 82            [ 7] 6327 	sub	a, #0x82
    000023A4 7C               [ 4] 6328 	ld	a, h
    000023A5 DE 00            [ 7] 6329 	sbc	a, #0x00
    000023A7 30 05            [12] 6330 	jr	NC, 00205$
    000023A9 1E 00            [ 7] 6331 	ld	e, #0x00
    000023AB C3rC2r23         [10] 6332 	jp	00210$
    000023AE                       6333 00205$:
                                   6334 ;E:\Dropbox\FAUSTO\SVILUPPI\MSX\CODE\C\MSXgl\projects\soccerlg/soccerlg_s2_b1.c:1208: else if (g_Players[i].TeamId != TEAM_2 && py < 200) areaSafe = false; // Relaxed to 200
    000023AE CB 42            [ 8] 6335 	bit	0, d
    000023B0 20 10            [12] 6336 	jr	NZ, 00210$
    000023B2 DD 56 FB         [19] 6337 	ld	d, -5 (ix)
    000023B5 DD 6E FC         [19] 6338 	ld	l, -4 (ix)
                                   6339 ;	spillPairReg hl
                                   6340 ;	spillPairReg hl
    000023B8 7A               [ 4] 6341 	ld	a, d
    000023B9 D6 C8            [ 7] 6342 	sub	a, #0xc8
    000023BB 7D               [ 4] 6343 	ld	a, l
    000023BC DE 00            [ 7] 6344 	sbc	a, #0x00
    000023BE 30 02            [12] 6345 	jr	NC, 00210$
    000023C0 1E 00            [ 7] 6346 	ld	e, #0x00
    000023C2                       6347 00210$:
                                   6348 ;E:\Dropbox\FAUSTO\SVILUPPI\MSX\CODE\C\MSXgl\projects\soccerlg/soccerlg_s2_b1.c:1210: if (!areaSafe) break;
    000023C2 7B               [ 4] 6349 	ld	a, e
    000023C3 B7               [ 4] 6350 	or	a, a
    000023C4 28 06            [12] 6351 	jr	Z, 00214$
    000023C6                       6352 00213$:
                                   6353 ;E:\Dropbox\FAUSTO\SVILUPPI\MSX\CODE\C\MSXgl\projects\soccerlg/soccerlg_s2_b1.c:1195: for(u8 i=0; i<14; i++) {
    000023C6 DD 34 FD         [23] 6354 	inc	-3 (ix)
    000023C9 C3r11r23         [10] 6355 	jp	00243$
    000023CC                       6356 00214$:
                                   6357 ;E:\Dropbox\FAUSTO\SVILUPPI\MSX\CODE\C\MSXgl\projects\soccerlg/soccerlg_s2_b1.c:1213: if (areaSafe) {
    000023CC 7B               [ 4] 6358 	ld	a, e
    000023CD B7               [ 4] 6359 	or	a, a
    000023CE 28 07            [12] 6360 	jr	Z, 00222$
                                   6361 ;E:\Dropbox\FAUSTO\SVILUPPI\MSX\CODE\C\MSXgl\projects\soccerlg/soccerlg_s2_b1.c:1214: g_Timer++;
    000023D0 21r00r00         [10] 6362 	ld	hl, #_g_Timer
    000023D3 34               [11] 6363 	inc	(hl)
    000023D4 C3r03r24         [10] 6364 	jp	00223$
    000023D7                       6365 00222$:
                                   6366 ;E:\Dropbox\FAUSTO\SVILUPPI\MSX\CODE\C\MSXgl\projects\soccerlg/soccerlg_s2_b1.c:1216: s_SafetyTimeout++;
    000023D7 2Ar04r00         [16] 6367 	ld	hl, (_TickGoalKick_s_SafetyTimeout_65537_1463)
    000023DA 23               [ 6] 6368 	inc	hl
                                   6369 ;E:\Dropbox\FAUSTO\SVILUPPI\MSX\CODE\C\MSXgl\projects\soccerlg/soccerlg_s2_b1.c:1217: if (s_SafetyTimeout > 240) { // 4 seconds timeout force proceed
    000023DB 22r04r00         [16] 6370 	ld	(_TickGoalKick_s_SafetyTimeout_65537_1463), hl
    000023DE 3E F0            [ 7] 6371 	ld	a, #0xf0
    000023E0 BD               [ 4] 6372 	cp	a, l
    000023E1 3E 00            [ 7] 6373 	ld	a, #0x00
    000023E3 9C               [ 4] 6374 	sbc	a, h
    000023E4 30 07            [12] 6375 	jr	NC, 00219$
                                   6376 ;E:\Dropbox\FAUSTO\SVILUPPI\MSX\CODE\C\MSXgl\projects\soccerlg/soccerlg_s2_b1.c:1218: g_Timer++;
    000023E6 21r00r00         [10] 6377 	ld	hl, #_g_Timer
    000023E9 34               [11] 6378 	inc	(hl)
    000023EA C3r03r24         [10] 6379 	jp	00223$
    000023ED                       6380 00219$:
                                   6381 ;E:\Dropbox\FAUSTO\SVILUPPI\MSX\CODE\C\MSXgl\projects\soccerlg/soccerlg_s2_b1.c:1220: if (g_Timer > 90) g_Timer = 90; // Hold timer until safe
    000023ED 3E 5A            [ 7] 6382 	ld	a, #0x5a
    000023EF FD 21r00r00      [14] 6383 	ld	iy, #_g_Timer
    000023F3 FD 96 00         [19] 6384 	sub	a, 0 (iy)
    000023F6 30 07            [12] 6385 	jr	NC, 00216$
    000023F8 FD 36 00 5A      [19] 6386 	ld	0 (iy), #0x5a
    000023FC C3r03r24         [10] 6387 	jp	00223$
    000023FF                       6388 00216$:
                                   6389 ;E:\Dropbox\FAUSTO\SVILUPPI\MSX\CODE\C\MSXgl\projects\soccerlg/soccerlg_s2_b1.c:1221: else g_Timer++; // Allow advancing up to wait point
    000023FF 21r00r00         [10] 6390 	ld	hl, #_g_Timer
    00002402 34               [11] 6391 	inc	(hl)
    00002403                       6392 00223$:
                                   6393 ;E:\Dropbox\FAUSTO\SVILUPPI\MSX\CODE\C\MSXgl\projects\soccerlg/soccerlg_s2_b1.c:1225: if (g_Timer > 100) {
    00002403 3E 64            [ 7] 6394 	ld	a, #0x64
    00002405 21r00r00         [10] 6395 	ld	hl, #_g_Timer
    00002408 96               [ 7] 6396 	sub	a, (hl)
    00002409 30 66            [12] 6397 	jr	NC, 00244$
                                   6398 ;E:\Dropbox\FAUSTO\SVILUPPI\MSX\CODE\C\MSXgl\projects\soccerlg/soccerlg_s2_b1.c:1188: u16 distY = (g_Players[gkId].Y > g_Ball.Y) ? (g_Players[gkId].Y - g_Ball.Y) : (g_Ball.Y - g_Players[gkId].Y);
    0000240B ED 5Br00r00      [20] 6399 	ld	de, (#_g_Ball + 0)
                                   6400 ;E:\Dropbox\FAUSTO\SVILUPPI\MSX\CODE\C\MSXgl\projects\soccerlg/soccerlg_s2_b1.c:1228: if (g_RestartKickTeamId == TEAM_1) kickY = g_Ball.Y + 4; // Adjusted for perfect foot alignment
    0000240F 3Ar00r00         [13] 6401 	ld	a, (_g_RestartKickTeamId+0)
    00002412 3D               [ 4] 6402 	dec	a
    00002413 20 07            [12] 6403 	jr	NZ, 00225$
    00002415 13               [ 6] 6404 	inc	de
    00002416 13               [ 6] 6405 	inc	de
    00002417 13               [ 6] 6406 	inc	de
    00002418 13               [ 6] 6407 	inc	de
    00002419 C3r24r24         [10] 6408 	jp	00226$
    0000241C                       6409 00225$:
                                   6410 ;E:\Dropbox\FAUSTO\SVILUPPI\MSX\CODE\C\MSXgl\projects\soccerlg/soccerlg_s2_b1.c:1229: else kickY = g_Ball.Y - 6;
    0000241C 7B               [ 4] 6411 	ld	a, e
    0000241D C6 FA            [ 7] 6412 	add	a, #0xfa
    0000241F 5F               [ 4] 6413 	ld	e, a
    00002420 7A               [ 4] 6414 	ld	a, d
    00002421 CE FF            [ 7] 6415 	adc	a, #0xff
    00002423 57               [ 4] 6416 	ld	d, a
    00002424                       6417 00226$:
                                   6418 ;E:\Dropbox\FAUSTO\SVILUPPI\MSX\CODE\C\MSXgl\projects\soccerlg/soccerlg_s2_b1.c:1231: g_Players[gkId].TargetY = kickY;
    00002424 DD 6E FE         [19] 6419 	ld	l, -2 (ix)
    00002427 DD 66 FF         [19] 6420 	ld	h, -1 (ix)
    0000242A 73               [ 7] 6421 	ld	(hl), e
    0000242B 23               [ 6] 6422 	inc	hl
    0000242C 72               [ 7] 6423 	ld	(hl), d
                                   6424 ;E:\Dropbox\FAUSTO\SVILUPPI\MSX\CODE\C\MSXgl\projects\soccerlg/soccerlg_s2_b1.c:1232: g_Players[gkId].Status = PLAYER_STATUS_NONE;
    0000242D AF               [ 4] 6425 	xor	a, a
    0000242E 02               [ 7] 6426 	ld	(bc), a
    0000242F 03               [ 6] 6427 	inc	bc
    00002430 02               [ 7] 6428 	ld	(bc), a
    00002431 C3r71r24         [10] 6429 	jp	00244$
    00002434                       6430 00232$:
                                   6431 ;E:\Dropbox\FAUSTO\SVILUPPI\MSX\CODE\C\MSXgl\projects\soccerlg/soccerlg_s2_b1.c:1236: g_Timer++;
    00002434 FD 21r00r00      [14] 6432 	ld	iy, #_g_Timer
    00002438 FD 34 00         [23] 6433 	inc	0 (iy)
                                   6434 ;E:\Dropbox\FAUSTO\SVILUPPI\MSX\CODE\C\MSXgl\projects\soccerlg/soccerlg_s2_b1.c:1237: if (g_Timer > 102) { // Kick immediately upon arrival (was 110)
    0000243B 3E 66            [ 7] 6435 	ld	a, #0x66
    0000243D FD 96 00         [19] 6436 	sub	a, 0 (iy)
    00002440 30 2F            [12] 6437 	jr	NC, 00244$
                                   6438 ;E:\Dropbox\FAUSTO\SVILUPPI\MSX\CODE\C\MSXgl\projects\soccerlg/soccerlg_s2_b1.c:1238: V9990_ClearTextFromLayerA(10, 18, 9); 
    00002442 3E 09            [ 7] 6439 	ld	a, #0x09
    00002444 F5               [11] 6440 	push	af
    00002445 33               [ 6] 6441 	inc	sp
    00002446 2E 12            [ 7] 6442 	ld	l, #0x12
                                   6443 ;	spillPairReg hl
                                   6444 ;	spillPairReg hl
    00002448 3E 0A            [ 7] 6445 	ld	a, #0x0a
    0000244A CDr00r00         [17] 6446 	call	_V9990_ClearTextFromLayerA
                                   6447 ;E:\Dropbox\FAUSTO\SVILUPPI\MSX\CODE\C\MSXgl\projects\soccerlg/soccerlg_s2_b1.c:1239: GoalkeeperWithBall(g_RestartKickTeamId, true); 
    0000244D 2E 01            [ 7] 6448 	ld	l, #0x01
                                   6449 ;	spillPairReg hl
                                   6450 ;	spillPairReg hl
    0000244F 3Ar00r00         [13] 6451 	ld	a, (_g_RestartKickTeamId+0)
    00002452 CDr76r24         [17] 6452 	call	_GoalkeeperWithBall
                                   6453 ;E:\Dropbox\FAUSTO\SVILUPPI\MSX\CODE\C\MSXgl\projects\soccerlg/soccerlg_s2_b1.c:1240: g_GkRecoilY = 0;
    00002455 21r00r00         [10] 6454 	ld	hl, #_g_GkRecoilY
    00002458 36 00            [10] 6455 	ld	(hl), #0x00
    0000245A C3r71r24         [10] 6456 	jp	00244$
    0000245D                       6457 00238$:
                                   6458 ;E:\Dropbox\FAUSTO\SVILUPPI\MSX\CODE\C\MSXgl\projects\soccerlg/soccerlg_s2_b1.c:1245: if (g_Timer < 100) g_Timer = 61; // Hold at 61 while moving to start
    0000245D 3Ar00r00         [13] 6459 	ld	a, (_g_Timer+0)
    00002460 D6 64            [ 7] 6460 	sub	a, #0x64
    00002462 30 08            [12] 6461 	jr	NC, 00235$
    00002464 21r00r00         [10] 6462 	ld	hl, #_g_Timer
    00002467 36 3D            [10] 6463 	ld	(hl), #0x3d
    00002469 C3r71r24         [10] 6464 	jp	00244$
    0000246C                       6465 00235$:
                                   6466 ;E:\Dropbox\FAUSTO\SVILUPPI\MSX\CODE\C\MSXgl\projects\soccerlg/soccerlg_s2_b1.c:1246: else g_Timer = 101; // Hold at 101 while moving to ball
    0000246C 21r00r00         [10] 6467 	ld	hl, #_g_Timer
    0000246F 36 65            [10] 6468 	ld	(hl), #0x65
    00002471                       6469 00244$:
                                   6470 ;E:\Dropbox\FAUSTO\SVILUPPI\MSX\CODE\C\MSXgl\projects\soccerlg/soccerlg_s2_b1.c:1248: }
    00002471 DD F9            [10] 6471 	ld	sp, ix
    00002473 DD E1            [14] 6472 	pop	ix
    00002475 C9               [10] 6473 	ret
                                   6474 ;E:\Dropbox\FAUSTO\SVILUPPI\MSX\CODE\C\MSXgl\projects\soccerlg/soccerlg_s2_b1.c:1250: void GoalkeeperWithBall(u8 teamId, bool isSteal) {
                                   6475 ;	---------------------------------
                                   6476 ; Function GoalkeeperWithBall
                                   6477 ; ---------------------------------
    00002476                       6478 _GoalkeeperWithBall::
    00002476 DD E5            [15] 6479 	push	ix
    00002478 DD 21 00 00      [14] 6480 	ld	ix,#0
    0000247C DD 39            [15] 6481 	add	ix,sp
    0000247E FD 21 F9 FF      [14] 6482 	ld	iy, #-7
    00002482 FD 39            [15] 6483 	add	iy, sp
    00002484 FD F9            [10] 6484 	ld	sp, iy
    00002486 DD 77 FE         [19] 6485 	ld	-2 (ix), a
    00002489 DD 75 FD         [19] 6486 	ld	-3 (ix), l
                                   6487 ;E:\Dropbox\FAUSTO\SVILUPPI\MSX\CODE\C\MSXgl\projects\soccerlg/soccerlg_s2_b1.c:1251: u8 gkId = GetPlayerIdByRole(teamId, PLAYER_ROLE_GOALKEEPER);
    0000248C 2E 00            [ 7] 6488 	ld	l, #0x00
                                   6489 ;	spillPairReg hl
                                   6490 ;	spillPairReg hl
    0000248E DD 7E FE         [19] 6491 	ld	a, -2 (ix)
    00002491 CDr49r09         [17] 6492 	call	_GetPlayerIdByRole
                                   6493 ;E:\Dropbox\FAUSTO\SVILUPPI\MSX\CODE\C\MSXgl\projects\soccerlg/soccerlg_s2_b1.c:1252: if(gkId == NO_VALUE) return;
    00002494 DD 77 F9         [19] 6494 	ld	-7 (ix), a
    00002497 3C               [ 4] 6495 	inc	a
    00002498 CAr83r26         [10] 6496 	jp	Z,00162$
    0000249B C3r9Er24         [10] 6497 	jp	00102$
    0000249E                       6498 00102$:
                                   6499 ;E:\Dropbox\FAUSTO\SVILUPPI\MSX\CODE\C\MSXgl\projects\soccerlg/soccerlg_s2_b1.c:1254: g_GkAnimPlayerId = gkId;
    0000249E DD 7E F9         [19] 6500 	ld	a, -7 (ix)
    000024A1 32r00r00         [13] 6501 	ld	(_g_GkAnimPlayerId+0), a
                                   6502 ;E:\Dropbox\FAUSTO\SVILUPPI\MSX\CODE\C\MSXgl\projects\soccerlg/soccerlg_s2_b1.c:1255: g_GkAnimTimer = 0;
    000024A4 21r00r00         [10] 6503 	ld	hl, #_g_GkAnimTimer
    000024A7 36 00            [10] 6504 	ld	(hl), #0x00
                                   6505 ;E:\Dropbox\FAUSTO\SVILUPPI\MSX\CODE\C\MSXgl\projects\soccerlg/soccerlg_s2_b1.c:1258: if (teamId == TEAM_1) {
    000024A9 DD 7E FE         [19] 6506 	ld	a, -2 (ix)
    000024AC 3D               [ 4] 6507 	dec	a
    000024AD 3E 01            [ 7] 6508 	ld	a, #0x01
    000024AF 28 01            [12] 6509 	jr	Z, 00283$
    000024B1 AF               [ 4] 6510 	xor	a, a
    000024B2                       6511 00283$:
    000024B2 DD 77 FA         [19] 6512 	ld	-6 (ix), a
                                   6513 ;E:\Dropbox\FAUSTO\SVILUPPI\MSX\CODE\C\MSXgl\projects\soccerlg/soccerlg_s2_b1.c:1259: if (isSteal) g_Players[gkId].PatternId = PLAYER_POSE_BACK;
    000024B5 DD 4E F9         [19] 6514 	ld	c, -7 (ix)
    000024B8 06 00            [ 7] 6515 	ld	b, #0x00
    000024BA 69               [ 4] 6516 	ld	l, c
    000024BB 60               [ 4] 6517 	ld	h, b
    000024BC 29               [11] 6518 	add	hl, hl
    000024BD 29               [11] 6519 	add	hl, hl
    000024BE 09               [11] 6520 	add	hl, bc
    000024BF 29               [11] 6521 	add	hl, hl
    000024C0 29               [11] 6522 	add	hl, hl
    000024C1 09               [11] 6523 	add	hl, bc
    000024C2 DD 75 FB         [19] 6524 	ld	-5 (ix), l
    000024C5 DD 74 FC         [19] 6525 	ld	-4 (ix), h
                                   6526 ;E:\Dropbox\FAUSTO\SVILUPPI\MSX\CODE\C\MSXgl\projects\soccerlg/soccerlg_s2_b1.c:1258: if (teamId == TEAM_1) {
    000024C8 DD 7E FA         [19] 6527 	ld	a, -6 (ix)
    000024CB B7               [ 4] 6528 	or	a, a
    000024CC 28 3E            [12] 6529 	jr	Z, 00107$
                                   6530 ;E:\Dropbox\FAUSTO\SVILUPPI\MSX\CODE\C\MSXgl\projects\soccerlg/soccerlg_s2_b1.c:1259: if (isSteal) g_Players[gkId].PatternId = PLAYER_POSE_BACK;
    000024CE DD 7E FD         [19] 6531 	ld	a, -3 (ix)
    000024D1 B7               [ 4] 6532 	or	a, a
    000024D2 28 13            [12] 6533 	jr	Z, 00104$
    000024D4 01r00r00         [10] 6534 	ld	bc, #_g_Players+0
    000024D7 DD 6E FB         [19] 6535 	ld	l, -5 (ix)
    000024DA DD 66 FC         [19] 6536 	ld	h, -4 (ix)
    000024DD 09               [11] 6537 	add	hl, bc
    000024DE 01 08 00         [10] 6538 	ld	bc, #0x0008
    000024E1 09               [11] 6539 	add	hl, bc
    000024E2 36 11            [10] 6540 	ld	(hl), #0x11
    000024E4 C3rF9r24         [10] 6541 	jp	00105$
    000024E7                       6542 00104$:
                                   6543 ;E:\Dropbox\FAUSTO\SVILUPPI\MSX\CODE\C\MSXgl\projects\soccerlg/soccerlg_s2_b1.c:1260: else g_Players[gkId].PatternId = PLAYER_POSE_TEAM1_GK_BALL_FRONT;
    000024E7 3Er00            [ 7] 6544 	ld	a, #<(_g_Players)
    000024E9 DD 86 FB         [19] 6545 	add	a, -5 (ix)
    000024EC 4F               [ 4] 6546 	ld	c, a
    000024ED 3Es00            [ 7] 6547 	ld	a, #>(_g_Players)
    000024EF DD 8E FC         [19] 6548 	adc	a, -4 (ix)
    000024F2 47               [ 4] 6549 	ld	b, a
    000024F3 21 08 00         [10] 6550 	ld	hl, #0x0008
    000024F6 09               [11] 6551 	add	hl, bc
    000024F7 36 9E            [10] 6552 	ld	(hl), #0x9e
    000024F9                       6553 00105$:
                                   6554 ;E:\Dropbox\FAUSTO\SVILUPPI\MSX\CODE\C\MSXgl\projects\soccerlg/soccerlg_s2_b1.c:1261: g_Players[gkId].Direction = DIRECTION_UP; // Face Up (Attack Direction)
    000024F9 01r00r00         [10] 6555 	ld	bc, #_g_Players+0
    000024FC DD 6E FB         [19] 6556 	ld	l, -5 (ix)
    000024FF DD 66 FC         [19] 6557 	ld	h, -4 (ix)
    00002502 09               [11] 6558 	add	hl, bc
    00002503 01 0A 00         [10] 6559 	ld	bc, #0x000a
    00002506 09               [11] 6560 	add	hl, bc
    00002507 36 01            [10] 6561 	ld	(hl), #0x01
    00002509 C3r24r25         [10] 6562 	jp	00108$
    0000250C                       6563 00107$:
                                   6564 ;E:\Dropbox\FAUSTO\SVILUPPI\MSX\CODE\C\MSXgl\projects\soccerlg/soccerlg_s2_b1.c:1264: g_Players[gkId].PatternId = PLAYER_POSE_FRONT; // Team 2 GK plays like a player (feet)
    0000250C DD 7E FB         [19] 6565 	ld	a, -5 (ix)
    0000250F C6r00            [ 7] 6566 	add	a, #<(_g_Players)
    00002511 4F               [ 4] 6567 	ld	c, a
    00002512 DD 7E FC         [19] 6568 	ld	a, -4 (ix)
    00002515 CEs00            [ 7] 6569 	adc	a, #>(_g_Players)
    00002517 47               [ 4] 6570 	ld	b, a
    00002518 21 08 00         [10] 6571 	ld	hl, #0x0008
    0000251B 09               [11] 6572 	add	hl, bc
    0000251C 36 10            [10] 6573 	ld	(hl), #0x10
                                   6574 ;E:\Dropbox\FAUSTO\SVILUPPI\MSX\CODE\C\MSXgl\projects\soccerlg/soccerlg_s2_b1.c:1265: g_Players[gkId].Direction = DIRECTION_DOWN; // Face Down (Attack Direction)
    0000251E 21 0A 00         [10] 6575 	ld	hl, #0x000a
    00002521 09               [11] 6576 	add	hl, bc
    00002522 36 05            [10] 6577 	ld	(hl), #0x05
    00002524                       6578 00108$:
                                   6579 ;E:\Dropbox\FAUSTO\SVILUPPI\MSX\CODE\C\MSXgl\projects\soccerlg/soccerlg_s2_b1.c:1269: g_Players[gkId].Status = PLAYER_STATUS_POSITIONED;
    00002524 DD 7E FB         [19] 6580 	ld	a, -5 (ix)
    00002527 C6r00            [ 7] 6581 	add	a, #<(_g_Players)
    00002529 4F               [ 4] 6582 	ld	c, a
    0000252A DD 7E FC         [19] 6583 	ld	a, -4 (ix)
    0000252D CEs00            [ 7] 6584 	adc	a, #>(_g_Players)
    0000252F 47               [ 4] 6585 	ld	b, a
    00002530 21 12 00         [10] 6586 	ld	hl, #0x0012
    00002533 09               [11] 6587 	add	hl, bc
    00002534 36 04            [10] 6588 	ld	(hl), #0x04
    00002536 23               [ 6] 6589 	inc	hl
                                   6590 ;E:\Dropbox\FAUSTO\SVILUPPI\MSX\CODE\C\MSXgl\projects\soccerlg/soccerlg_s2_b1.c:1273: bool closeToLine = false;
    00002537 36 00            [10] 6591 	ld	(hl), #0x00
    00002539 5E               [ 7] 6592 	ld	e, (hl)
                                   6593 ;E:\Dropbox\FAUSTO\SVILUPPI\MSX\CODE\C\MSXgl\projects\soccerlg/soccerlg_s2_b1.c:1274: if (teamId == TEAM_2) { // GK 2 (Top)
    0000253A DD 7E FE         [19] 6594 	ld	a, -2 (ix)
    0000253D D6 02            [ 7] 6595 	sub	a, #0x02
    0000253F 20 17            [12] 6596 	jr	NZ, 00114$
                                   6597 ;E:\Dropbox\FAUSTO\SVILUPPI\MSX\CODE\C\MSXgl\projects\soccerlg/soccerlg_s2_b1.c:1275: g_GkRecoilY = -1;
    00002541 21r00r00         [10] 6598 	ld	hl, #_g_GkRecoilY
    00002544 36 FF            [10] 6599 	ld	(hl), #0xff
                                   6600 ;E:\Dropbox\FAUSTO\SVILUPPI\MSX\CODE\C\MSXgl\projects\soccerlg/soccerlg_s2_b1.c:1276: if (g_Players[gkId].Y <= FIELD_BOUND_Y_TOP + 4) closeToLine = true;
    00002546 69               [ 4] 6601 	ld	l, c
    00002547 60               [ 4] 6602 	ld	h, b
    00002548 4E               [ 7] 6603 	ld	c, (hl)
    00002549 23               [ 6] 6604 	inc	hl
    0000254A 46               [ 7] 6605 	ld	b, (hl)
    0000254B 3E 36            [ 7] 6606 	ld	a, #0x36
    0000254D B9               [ 4] 6607 	cp	a, c
    0000254E 3E 00            [ 7] 6608 	ld	a, #0x00
    00002550 98               [ 4] 6609 	sbc	a, b
    00002551 38 19            [12] 6610 	jr	C, 00115$
    00002553 1E 01            [ 7] 6611 	ld	e, #0x01
    00002555 C3r6Cr25         [10] 6612 	jp	00115$
    00002558                       6613 00114$:
                                   6614 ;E:\Dropbox\FAUSTO\SVILUPPI\MSX\CODE\C\MSXgl\projects\soccerlg/soccerlg_s2_b1.c:1278: g_GkRecoilY = 1;
    00002558 21r00r00         [10] 6615 	ld	hl, #_g_GkRecoilY
    0000255B 36 01            [10] 6616 	ld	(hl), #0x01
                                   6617 ;E:\Dropbox\FAUSTO\SVILUPPI\MSX\CODE\C\MSXgl\projects\soccerlg/soccerlg_s2_b1.c:1279: if (g_Players[gkId].Y >= FIELD_BOUND_Y_BOTTOM - 4) closeToLine = true;
    0000255D 69               [ 4] 6618 	ld	l, c
    0000255E 60               [ 4] 6619 	ld	h, b
    0000255F 4E               [ 7] 6620 	ld	c, (hl)
    00002560 23               [ 6] 6621 	inc	hl
    00002561 46               [ 7] 6622 	ld	b, (hl)
    00002562 79               [ 4] 6623 	ld	a, c
    00002563 D6 AF            [ 7] 6624 	sub	a, #0xaf
    00002565 78               [ 4] 6625 	ld	a, b
    00002566 DE 01            [ 7] 6626 	sbc	a, #0x01
    00002568 38 02            [12] 6627 	jr	C, 00115$
    0000256A 1E 01            [ 7] 6628 	ld	e, #0x01
    0000256C                       6629 00115$:
                                   6630 ;E:\Dropbox\FAUSTO\SVILUPPI\MSX\CODE\C\MSXgl\projects\soccerlg/soccerlg_s2_b1.c:1282: if (closeToLine || isSteal) g_GkRecoilY = 0; // No recoil for Steals
    0000256C 7B               [ 4] 6631 	ld	a, e
    0000256D B7               [ 4] 6632 	or	a, a
    0000256E 20 06            [12] 6633 	jr	NZ, 00116$
    00002570 DD 7E FD         [19] 6634 	ld	a, -3 (ix)
    00002573 B7               [ 4] 6635 	or	a, a
    00002574 28 05            [12] 6636 	jr	Z, 00117$
    00002576                       6637 00116$:
    00002576 21r00r00         [10] 6638 	ld	hl, #_g_GkRecoilY
    00002579 36 00            [10] 6639 	ld	(hl), #0x00
    0000257B                       6640 00117$:
                                   6641 ;E:\Dropbox\FAUSTO\SVILUPPI\MSX\CODE\C\MSXgl\projects\soccerlg/soccerlg_s2_b1.c:1283: g_GkIsGroundKick = isSteal; // Track if this is a ground kick (no offset needed)
    0000257B DD 7E FD         [19] 6642 	ld	a, -3 (ix)
    0000257E 32r00r00         [13] 6643 	ld	(_g_GkIsGroundKick+0), a
                                   6644 ;E:\Dropbox\FAUSTO\SVILUPPI\MSX\CODE\C\MSXgl\projects\soccerlg/soccerlg_s2_b1.c:1286: SetPlayerBallPossession(gkId);
    00002581 DD 7E F9         [19] 6645 	ld	a, -7 (ix)
    00002584 CDrC7r0A         [17] 6646 	call	_SetPlayerBallPossession
                                   6647 ;E:\Dropbox\FAUSTO\SVILUPPI\MSX\CODE\C\MSXgl\projects\soccerlg/soccerlg_s2_b1.c:1287: g_Ball.PossessionPlayerId = gkId; // Fix: Ensure AI knows GK has ball immediately to prevent chasing
    00002587 21r06r00         [10] 6648 	ld	hl, #(_g_Ball + 6)
    0000258A DD 7E F9         [19] 6649 	ld	a, -7 (ix)
    0000258D 77               [ 7] 6650 	ld	(hl), a
                                   6651 ;E:\Dropbox\FAUSTO\SVILUPPI\MSX\CODE\C\MSXgl\projects\soccerlg/soccerlg_s2_b1.c:1288: g_Ball.ShotActive = 0;
    0000258E 21r1Br00         [10] 6652 	ld	hl, #(_g_Ball + 27)
    00002591 36 00            [10] 6653 	ld	(hl), #0x00
                                   6654 ;E:\Dropbox\FAUSTO\SVILUPPI\MSX\CODE\C\MSXgl\projects\soccerlg/soccerlg_s2_b1.c:1290: g_MatchStatus = MATCH_BALL_ON_GOALKEEPER;
    00002593 21r00r00         [10] 6655 	ld	hl, #_g_MatchStatus
    00002596 36 0D            [10] 6656 	ld	(hl), #0x0d
                                   6657 ;E:\Dropbox\FAUSTO\SVILUPPI\MSX\CODE\C\MSXgl\projects\soccerlg/soccerlg_s2_b1.c:1293: for(u8 i=0; i<14; i++) {
    00002598 DD 36 FF 00      [19] 6658 	ld	-1 (ix), #0x00
    0000259C                       6659 00161$:
    0000259C DD 7E FF         [19] 6660 	ld	a, -1 (ix)
    0000259F D6 0E            [ 7] 6661 	sub	a, #0x0e
    000025A1 D2r83r26         [10] 6662 	jp	NC, 00162$
                                   6663 ;E:\Dropbox\FAUSTO\SVILUPPI\MSX\CODE\C\MSXgl\projects\soccerlg/soccerlg_s2_b1.c:1294: if(i == gkId) continue;
    000025A4 DD 7E F9         [19] 6664 	ld	a, -7 (ix)
    000025A7 DD 96 FF         [19] 6665 	sub	a, -1 (ix)
    000025AA CAr7Dr26         [10] 6666 	jp	Z,00158$
                                   6667 ;E:\Dropbox\FAUSTO\SVILUPPI\MSX\CODE\C\MSXgl\projects\soccerlg/soccerlg_s2_b1.c:1295: if(g_Players[i].TeamId == REFEREE) continue;
    000025AD DD 4E FF         [19] 6668 	ld	c, -1 (ix)
    000025B0 06 00            [ 7] 6669 	ld	b, #0x00
    000025B2 69               [ 4] 6670 	ld	l, c
    000025B3 60               [ 4] 6671 	ld	h, b
    000025B4 29               [11] 6672 	add	hl, hl
    000025B5 29               [11] 6673 	add	hl, hl
    000025B6 09               [11] 6674 	add	hl, bc
    000025B7 29               [11] 6675 	add	hl, hl
    000025B8 29               [11] 6676 	add	hl, hl
    000025B9 09               [11] 6677 	add	hl, bc
    000025BA EB               [ 4] 6678 	ex	de, hl
    000025BB 21r00r00         [10] 6679 	ld	hl, #_g_Players
    000025BE 19               [11] 6680 	add	hl, de
    000025BF DD 75 FB         [19] 6681 	ld	-5 (ix), l
    000025C2 DD 74 FC         [19] 6682 	ld	-4 (ix), h
    000025C5 01 09 00         [10] 6683 	ld	bc,#9
    000025C8 09               [11] 6684 	add	hl,bc
    000025C9 46               [ 7] 6685 	ld	b, (hl)
    000025CA 78               [ 4] 6686 	ld	a, b
    000025CB D6 0E            [ 7] 6687 	sub	a, #0x0e
    000025CD CAr7Dr26         [10] 6688 	jp	Z,00158$
                                   6689 ;E:\Dropbox\FAUSTO\SVILUPPI\MSX\CODE\C\MSXgl\projects\soccerlg/soccerlg_s2_b1.c:1296: if(g_Players[i].Role == PLAYER_ROLE_GOALKEEPER) continue;
    000025D0 DD 5E FB         [19] 6690 	ld	e, -5 (ix)
    000025D3 DD 56 FC         [19] 6691 	ld	d, -4 (ix)
    000025D6 21 0D 00         [10] 6692 	ld	hl, #13
    000025D9 19               [11] 6693 	add	hl, de
    000025DA 4E               [ 7] 6694 	ld	c, (hl)
    000025DB 79               [ 4] 6695 	ld	a, c
    000025DC B7               [ 4] 6696 	or	a, a
    000025DD CAr7Dr26         [10] 6697 	jp	Z, 00158$
                                   6698 ;E:\Dropbox\FAUSTO\SVILUPPI\MSX\CODE\C\MSXgl\projects\soccerlg/soccerlg_s2_b1.c:1306: if (g_Players[i].Role >= PLAYER_ROLE_LEFT_STRIKER) ty = 160;
    000025E0 79               [ 4] 6699 	ld	a, c
    000025E1 D6 05            [ 7] 6700 	sub	a, #0x05
    000025E3 3E 00            [ 7] 6701 	ld	a, #0x00
    000025E5 17               [ 4] 6702 	rla
    000025E6 5F               [ 4] 6703 	ld	e, a
                                   6704 ;E:\Dropbox\FAUSTO\SVILUPPI\MSX\CODE\C\MSXgl\projects\soccerlg/soccerlg_s2_b1.c:1302: if(g_Players[i].TeamId == teamId) {
    000025E7 DD 7E FE         [19] 6705 	ld	a, -2 (ix)
    000025EA 90               [ 4] 6706 	sub	a, b
    000025EB 20 3C            [12] 6707 	jr	NZ, 00156$
                                   6708 ;E:\Dropbox\FAUSTO\SVILUPPI\MSX\CODE\C\MSXgl\projects\soccerlg/soccerlg_s2_b1.c:1305: if(teamId == TEAM_1) { // Moving UP
    000025ED DD 7E FA         [19] 6709 	ld	a, -6 (ix)
    000025F0 B7               [ 4] 6710 	or	a, a
    000025F1 28 1B            [12] 6711 	jr	Z, 00138$
                                   6712 ;E:\Dropbox\FAUSTO\SVILUPPI\MSX\CODE\C\MSXgl\projects\soccerlg/soccerlg_s2_b1.c:1306: if (g_Players[i].Role >= PLAYER_ROLE_LEFT_STRIKER) ty = 160;
    000025F3 CB 43            [ 8] 6713 	bit	0, e
    000025F5 20 06            [12] 6714 	jr	NZ, 00129$
    000025F7 11 A0 00         [10] 6715 	ld	de, #0x00a0
    000025FA C3r62r26         [10] 6716 	jp	00157$
    000025FD                       6717 00129$:
                                   6718 ;E:\Dropbox\FAUSTO\SVILUPPI\MSX\CODE\C\MSXgl\projects\soccerlg/soccerlg_s2_b1.c:1307: else if (g_Players[i].Role >= PLAYER_ROLE_LEFT_HALFFIELDER) ty = 240;
    000025FD 79               [ 4] 6719 	ld	a, c
    000025FE D6 03            [ 7] 6720 	sub	a, #0x03
    00002600 38 06            [12] 6721 	jr	C, 00126$
    00002602 11 F0 00         [10] 6722 	ld	de, #0x00f0
    00002605 C3r62r26         [10] 6723 	jp	00157$
    00002608                       6724 00126$:
                                   6725 ;E:\Dropbox\FAUSTO\SVILUPPI\MSX\CODE\C\MSXgl\projects\soccerlg/soccerlg_s2_b1.c:1308: else ty = 350;
    00002608 11 5E 01         [10] 6726 	ld	de, #0x015e
    0000260B C3r62r26         [10] 6727 	jp	00157$
    0000260E                       6728 00138$:
                                   6729 ;E:\Dropbox\FAUSTO\SVILUPPI\MSX\CODE\C\MSXgl\projects\soccerlg/soccerlg_s2_b1.c:1310: if (g_Players[i].Role >= PLAYER_ROLE_LEFT_STRIKER) ty = 320;
    0000260E CB 43            [ 8] 6730 	bit	0, e
    00002610 20 06            [12] 6731 	jr	NZ, 00135$
    00002612 11 40 01         [10] 6732 	ld	de, #0x0140
    00002615 C3r62r26         [10] 6733 	jp	00157$
    00002618                       6734 00135$:
                                   6735 ;E:\Dropbox\FAUSTO\SVILUPPI\MSX\CODE\C\MSXgl\projects\soccerlg/soccerlg_s2_b1.c:1311: else if (g_Players[i].Role >= PLAYER_ROLE_LEFT_HALFFIELDER) ty = 240;
    00002618 79               [ 4] 6736 	ld	a, c
    00002619 D6 03            [ 7] 6737 	sub	a, #0x03
    0000261B 38 06            [12] 6738 	jr	C, 00132$
    0000261D 11 F0 00         [10] 6739 	ld	de, #0x00f0
    00002620 C3r62r26         [10] 6740 	jp	00157$
    00002623                       6741 00132$:
                                   6742 ;E:\Dropbox\FAUSTO\SVILUPPI\MSX\CODE\C\MSXgl\projects\soccerlg/soccerlg_s2_b1.c:1312: else ty = 130;
    00002623 11 82 00         [10] 6743 	ld	de, #0x0082
    00002626 C3r62r26         [10] 6744 	jp	00157$
    00002629                       6745 00156$:
                                   6746 ;E:\Dropbox\FAUSTO\SVILUPPI\MSX\CODE\C\MSXgl\projects\soccerlg/soccerlg_s2_b1.c:1317: if(teamId == TEAM_1) { // Opponent is Team 2 (Top) -> Retreat UP? No, Team 2 Defends Top.
    00002629 DD 7E FA         [19] 6747 	ld	a, -6 (ix)
    0000262C B7               [ 4] 6748 	or	a, a
    0000262D 28 1B            [12] 6749 	jr	Z, 00153$
                                   6750 ;E:\Dropbox\FAUSTO\SVILUPPI\MSX\CODE\C\MSXgl\projects\soccerlg/soccerlg_s2_b1.c:1319: if (g_Players[i].Role >= PLAYER_ROLE_LEFT_STRIKER) ty = 243; // Midfield
    0000262F CB 43            [ 8] 6751 	bit	0, e
    00002631 20 06            [12] 6752 	jr	NZ, 00144$
    00002633 11 F3 00         [10] 6753 	ld	de, #0x00f3
    00002636 C3r62r26         [10] 6754 	jp	00157$
    00002639                       6755 00144$:
                                   6756 ;E:\Dropbox\FAUSTO\SVILUPPI\MSX\CODE\C\MSXgl\projects\soccerlg/soccerlg_s2_b1.c:1320: else if (g_Players[i].Role >= PLAYER_ROLE_LEFT_HALFFIELDER) ty = 106;
    00002639 79               [ 4] 6757 	ld	a, c
    0000263A D6 03            [ 7] 6758 	sub	a, #0x03
    0000263C 38 06            [12] 6759 	jr	C, 00141$
    0000263E 11 6A 00         [10] 6760 	ld	de, #0x006a
    00002641 C3r62r26         [10] 6761 	jp	00157$
    00002644                       6762 00141$:
                                   6763 ;E:\Dropbox\FAUSTO\SVILUPPI\MSX\CODE\C\MSXgl\projects\soccerlg/soccerlg_s2_b1.c:1321: else ty = 130;
    00002644 11 82 00         [10] 6764 	ld	de, #0x0082
    00002647 C3r62r26         [10] 6765 	jp	00157$
    0000264A                       6766 00153$:
                                   6767 ;E:\Dropbox\FAUSTO\SVILUPPI\MSX\CODE\C\MSXgl\projects\soccerlg/soccerlg_s2_b1.c:1324: if (g_Players[i].Role >= PLAYER_ROLE_LEFT_STRIKER) ty = 243;
    0000264A CB 43            [ 8] 6768 	bit	0, e
    0000264C 20 06            [12] 6769 	jr	NZ, 00150$
    0000264E 11 F3 00         [10] 6770 	ld	de, #0x00f3
    00002651 C3r62r26         [10] 6771 	jp	00157$
    00002654                       6772 00150$:
                                   6773 ;E:\Dropbox\FAUSTO\SVILUPPI\MSX\CODE\C\MSXgl\projects\soccerlg/soccerlg_s2_b1.c:1325: else if (g_Players[i].Role >= PLAYER_ROLE_LEFT_HALFFIELDER) ty = 318;
    00002654 79               [ 4] 6774 	ld	a, c
    00002655 D6 03            [ 7] 6775 	sub	a, #0x03
    00002657 38 06            [12] 6776 	jr	C, 00147$
    00002659 11 3E 01         [10] 6777 	ld	de, #0x013e
    0000265C C3r62r26         [10] 6778 	jp	00157$
    0000265F                       6779 00147$:
                                   6780 ;E:\Dropbox\FAUSTO\SVILUPPI\MSX\CODE\C\MSXgl\projects\soccerlg/soccerlg_s2_b1.c:1326: else ty = 350;
    0000265F 11 5E 01         [10] 6781 	ld	de, #0x015e
    00002662                       6782 00157$:
                                   6783 ;E:\Dropbox\FAUSTO\SVILUPPI\MSX\CODE\C\MSXgl\projects\soccerlg/soccerlg_s2_b1.c:1331: g_Players[i].TargetY = ty;
    00002662 DD 6E FB         [19] 6784 	ld	l, -5 (ix)
    00002665 DD 66 FC         [19] 6785 	ld	h, -4 (ix)
    00002668 01 0E 00         [10] 6786 	ld	bc, #0x000e
    0000266B 09               [11] 6787 	add	hl, bc
    0000266C 73               [ 7] 6788 	ld	(hl), e
    0000266D 23               [ 6] 6789 	inc	hl
    0000266E 72               [ 7] 6790 	ld	(hl), d
                                   6791 ;E:\Dropbox\FAUSTO\SVILUPPI\MSX\CODE\C\MSXgl\projects\soccerlg/soccerlg_s2_b1.c:1332: g_Players[i].Status = PLAYER_STATUS_NONE; // Unlock movement
    0000266F DD 6E FB         [19] 6792 	ld	l, -5 (ix)
    00002672 DD 66 FC         [19] 6793 	ld	h, -4 (ix)
    00002675 11 12 00         [10] 6794 	ld	de, #0x0012
    00002678 19               [11] 6795 	add	hl, de
    00002679 AF               [ 4] 6796 	xor	a, a
    0000267A 77               [ 7] 6797 	ld	(hl), a
    0000267B 23               [ 6] 6798 	inc	hl
    0000267C 77               [ 7] 6799 	ld	(hl), a
    0000267D                       6800 00158$:
                                   6801 ;E:\Dropbox\FAUSTO\SVILUPPI\MSX\CODE\C\MSXgl\projects\soccerlg/soccerlg_s2_b1.c:1293: for(u8 i=0; i<14; i++) {
    0000267D DD 34 FF         [23] 6802 	inc	-1 (ix)
    00002680 C3r9Cr25         [10] 6803 	jp	00161$
    00002683                       6804 00162$:
                                   6805 ;E:\Dropbox\FAUSTO\SVILUPPI\MSX\CODE\C\MSXgl\projects\soccerlg/soccerlg_s2_b1.c:1334: }
    00002683 DD F9            [10] 6806 	ld	sp, ix
    00002685 DD E1            [14] 6807 	pop	ix
    00002687 C9               [10] 6808 	ret
                                   6809 ;E:\Dropbox\FAUSTO\SVILUPPI\MSX\CODE\C\MSXgl\projects\soccerlg/soccerlg_s2_b1.c:1337: void TickPlayerToOwnTarget(){
                                   6810 ;	---------------------------------
                                   6811 ; Function TickPlayerToOwnTarget
                                   6812 ; ---------------------------------
    00002688                       6813 _TickPlayerToOwnTarget::
    00002688 DD E5            [15] 6814 	push	ix
    0000268A DD 21 00 00      [14] 6815 	ld	ix,#0
    0000268E DD 39            [15] 6816 	add	ix,sp
    00002690 21 E9 FF         [10] 6817 	ld	hl, #-23
    00002693 39               [11] 6818 	add	hl, sp
    00002694 F9               [ 6] 6819 	ld	sp, hl
                                   6820 ;E:\Dropbox\FAUSTO\SVILUPPI\MSX\CODE\C\MSXgl\projects\soccerlg/soccerlg_s2_b1.c:1338: if(g_MatchStatus!=MATCH_NOT_STARTED){
    00002695 3Ar00r00         [13] 6821 	ld	a, (_g_MatchStatus+0)
    00002698 B7               [ 4] 6822 	or	a, a
    00002699 CArE1r30         [10] 6823 	jp	Z, 00307$
                                   6824 ;E:\Dropbox\FAUSTO\SVILUPPI\MSX\CODE\C\MSXgl\projects\soccerlg/soccerlg_s2_b1.c:1339: bool allPlayersInPosition = true;
    0000269C DD 36 EB 01      [19] 6825 	ld	-21 (ix), #0x01
                                   6826 ;E:\Dropbox\FAUSTO\SVILUPPI\MSX\CODE\C\MSXgl\projects\soccerlg/soccerlg_s2_b1.c:1342: s_GkMoveTick++;
    000026A0 21r07r00         [10] 6827 	ld	hl, #_TickPlayerToOwnTarget_s_GkMoveTick_131072_1519
    000026A3 34               [11] 6828 	inc	(hl)
                                   6829 ;E:\Dropbox\FAUSTO\SVILUPPI\MSX\CODE\C\MSXgl\projects\soccerlg/soccerlg_s2_b1.c:1343: for(u8 i=0;i<15;i++){
    000026A4 DD 36 FF 00      [19] 6830 	ld	-1 (ix), #0x00
    000026A8                       6831 00306$:
    000026A8 DD 7E FF         [19] 6832 	ld	a, -1 (ix)
    000026AB D6 0F            [ 7] 6833 	sub	a, #0x0f
    000026AD D2rAEr30         [10] 6834 	jp	NC, 00298$
                                   6835 ;E:\Dropbox\FAUSTO\SVILUPPI\MSX\CODE\C\MSXgl\projects\soccerlg/soccerlg_s2_b1.c:1344: if (g_MatchStatus == MATCH_IN_ACTION && g_Players[i].Role == PLAYER_ROLE_GOALKEEPER) {
    000026B0 3Ar00r00         [13] 6836 	ld	a, (_g_MatchStatus+0)
    000026B3 D6 0C            [ 7] 6837 	sub	a, #0x0c
    000026B5 C2r2Ar28         [10] 6838 	jp	NZ,00117$
    000026B8 DD 4E FF         [19] 6839 	ld	c, -1 (ix)
    000026BB 06 00            [ 7] 6840 	ld	b, #0x00
    000026BD 69               [ 4] 6841 	ld	l, c
    000026BE 60               [ 4] 6842 	ld	h, b
    000026BF 29               [11] 6843 	add	hl, hl
    000026C0 29               [11] 6844 	add	hl, hl
    000026C1 09               [11] 6845 	add	hl, bc
    000026C2 29               [11] 6846 	add	hl, hl
    000026C3 29               [11] 6847 	add	hl, hl
    000026C4 09               [11] 6848 	add	hl, bc
    000026C5 EB               [ 4] 6849 	ex	de, hl
    000026C6 21r00r00         [10] 6850 	ld	hl, #_g_Players
    000026C9 19               [11] 6851 	add	hl, de
    000026CA DD 75 F3         [19] 6852 	ld	-13 (ix), l
    000026CD DD 74 F4         [19] 6853 	ld	-12 (ix), h
    000026D0 01 0D 00         [10] 6854 	ld	bc,#13
    000026D3 09               [11] 6855 	add	hl,bc
    000026D4 7E               [ 7] 6856 	ld	a, (hl)
    000026D5 B7               [ 4] 6857 	or	a, a
    000026D6 C2r2Ar28         [10] 6858 	jp	NZ, 00117$
                                   6859 ;E:\Dropbox\FAUSTO\SVILUPPI\MSX\CODE\C\MSXgl\projects\soccerlg/soccerlg_s2_b1.c:1345: if (g_Ball.ShotActive) continue; 
    000026D9 3Ar1Br00         [13] 6860 	ld	a, (#_g_Ball + 27)
    000026DC B7               [ 4] 6861 	or	a, a
    000026DD C2rA8r30         [10] 6862 	jp	NZ, 00297$
                                   6863 ;E:\Dropbox\FAUSTO\SVILUPPI\MSX\CODE\C\MSXgl\projects\soccerlg/soccerlg_s2_b1.c:1347: if ((s_GkMoveTick & 1) == 0) { 
    000026E0 3Ar07r00         [13] 6864 	ld	a, (_TickPlayerToOwnTarget_s_GkMoveTick_131072_1519+0)
    000026E3 4F               [ 4] 6865 	ld	c, a
                                   6866 ;E:\Dropbox\FAUSTO\SVILUPPI\MSX\CODE\C\MSXgl\projects\soccerlg/soccerlg_s2_b1.c:1360: i16 diff = (i16)desiredX - (i16)g_Players[i].X;
    000026E4 DD 7E F3         [19] 6867 	ld	a, -13 (ix)
    000026E7 C6 02            [ 7] 6868 	add	a, #0x02
    000026E9 DD 77 F5         [19] 6869 	ld	-11 (ix), a
    000026EC DD 7E F4         [19] 6870 	ld	a, -12 (ix)
    000026EF CE 00            [ 7] 6871 	adc	a, #0x00
    000026F1 DD 77 F6         [19] 6872 	ld	-10 (ix), a
                                   6873 ;E:\Dropbox\FAUSTO\SVILUPPI\MSX\CODE\C\MSXgl\projects\soccerlg/soccerlg_s2_b1.c:1347: if ((s_GkMoveTick & 1) == 0) { 
    000026F4 CB 41            [ 8] 6874 	bit	0, c
    000026F6 C2r10r28         [10] 6875 	jp	NZ,00115$
                                   6876 ;E:\Dropbox\FAUSTO\SVILUPPI\MSX\CODE\C\MSXgl\projects\soccerlg/soccerlg_s2_b1.c:1350: u16 desiredX = g_Ball.X;
    000026F9 21r02r00         [10] 6877 	ld	hl, #(_g_Ball + 2)
    000026FC 7E               [ 7] 6878 	ld	a, (hl)
    000026FD DD 77 FD         [19] 6879 	ld	-3 (ix), a
    00002700 23               [ 6] 6880 	inc	hl
    00002701 7E               [ 7] 6881 	ld	a, (hl)
    00002702 DD 77 FE         [19] 6882 	ld	-2 (ix), a
                                   6883 ;E:\Dropbox\FAUSTO\SVILUPPI\MSX\CODE\C\MSXgl\projects\soccerlg/soccerlg_s2_b1.c:1352: const TeamStats* stats = GetTeamStats(g_Players[i].TeamId);
    00002705 DD 7E F3         [19] 6884 	ld	a, -13 (ix)
    00002708 DD 77 FB         [19] 6885 	ld	-5 (ix), a
    0000270B DD 7E F4         [19] 6886 	ld	a, -12 (ix)
    0000270E DD 77 FC         [19] 6887 	ld	-4 (ix), a
    00002711 DD 6E FB         [19] 6888 	ld	l, -5 (ix)
    00002714 DD 66 FC         [19] 6889 	ld	h, -4 (ix)
    00002717 11 09 00         [10] 6890 	ld	de, #0x0009
    0000271A 19               [11] 6891 	add	hl, de
    0000271B 7E               [ 7] 6892 	ld	a, (hl)
    0000271C CDr00r00         [17] 6893 	call	_GetTeamStats
                                   6894 ;E:\Dropbox\FAUSTO\SVILUPPI\MSX\CODE\C\MSXgl\projects\soccerlg/soccerlg_s2_b1.c:1353: if (stats->GkSkill >= 15) {
    0000271F DD 73 FB         [19] 6895 	ld	-5 (ix), e
    00002722 DD 72 FC         [19] 6896 	ld	-4 (ix), d
    00002725 EB               [ 4] 6897 	ex	de,hl
    00002726 11 04 00         [10] 6898 	ld	de, #0x0004
    00002729 19               [11] 6899 	add	hl, de
    0000272A 7E               [ 7] 6900 	ld	a, (hl)
    0000272B D6 0F            [ 7] 6901 	sub	a, #0x0f
    0000272D 38 30            [12] 6902 	jr	C, 00104$
                                   6903 ;E:\Dropbox\FAUSTO\SVILUPPI\MSX\CODE\C\MSXgl\projects\soccerlg/soccerlg_s2_b1.c:1354: desiredX = (g_Ball.X + FIELD_POS_X_CENTER) / 2;
    0000272F 21r02r00         [10] 6904 	ld	hl, #(_g_Ball + 2)
    00002732 7E               [ 7] 6905 	ld	a, (hl)
    00002733 DD 77 FD         [19] 6906 	ld	-3 (ix), a
    00002736 23               [ 6] 6907 	inc	hl
    00002737 7E               [ 7] 6908 	ld	a, (hl)
    00002738 DD 77 FE         [19] 6909 	ld	-2 (ix), a
    0000273B DD 7E FD         [19] 6910 	ld	a, -3 (ix)
    0000273E DD 77 FB         [19] 6911 	ld	-5 (ix), a
    00002741 DD 7E FE         [19] 6912 	ld	a, -2 (ix)
    00002744 DD 77 FC         [19] 6913 	ld	-4 (ix), a
    00002747 DD 7E FB         [19] 6914 	ld	a, -5 (ix)
    0000274A C6 78            [ 7] 6915 	add	a, #0x78
    0000274C DD 77 FD         [19] 6916 	ld	-3 (ix), a
    0000274F DD 7E FC         [19] 6917 	ld	a, -4 (ix)
    00002752 CE 00            [ 7] 6918 	adc	a, #0x00
    00002754 DD 77 FE         [19] 6919 	ld	-2 (ix), a
    00002757 DD CB FE 3E      [23] 6920 	srl	-2 (ix)
    0000275B DD CB FD 1E      [23] 6921 	rr	-3 (ix)
    0000275F                       6922 00104$:
                                   6923 ;E:\Dropbox\FAUSTO\SVILUPPI\MSX\CODE\C\MSXgl\projects\soccerlg/soccerlg_s2_b1.c:1357: if (desiredX < minX) desiredX = minX;
    0000275F DD 7E FD         [19] 6924 	ld	a, -3 (ix)
    00002762 D6 60            [ 7] 6925 	sub	a, #0x60
    00002764 DD 7E FE         [19] 6926 	ld	a, -2 (ix)
    00002767 DE 00            [ 7] 6927 	sbc	a, #0x00
    00002769 30 08            [12] 6928 	jr	NC, 00106$
    0000276B DD 36 FD 60      [19] 6929 	ld	-3 (ix), #0x60
    0000276F DD 36 FE 00      [19] 6930 	ld	-2 (ix), #0
    00002773                       6931 00106$:
                                   6932 ;E:\Dropbox\FAUSTO\SVILUPPI\MSX\CODE\C\MSXgl\projects\soccerlg/soccerlg_s2_b1.c:1358: if (desiredX > maxX) desiredX = maxX;
    00002773 3E 90            [ 7] 6933 	ld	a, #0x90
    00002775 DD BE FD         [19] 6934 	cp	a, -3 (ix)
    00002778 3E 00            [ 7] 6935 	ld	a, #0x00
    0000277A DD 9E FE         [19] 6936 	sbc	a, -2 (ix)
    0000277D 30 08            [12] 6937 	jr	NC, 00108$
    0000277F DD 36 FD 90      [19] 6938 	ld	-3 (ix), #0x90
    00002783 DD 36 FE 00      [19] 6939 	ld	-2 (ix), #0
    00002787                       6940 00108$:
                                   6941 ;E:\Dropbox\FAUSTO\SVILUPPI\MSX\CODE\C\MSXgl\projects\soccerlg/soccerlg_s2_b1.c:1360: i16 diff = (i16)desiredX - (i16)g_Players[i].X;
    00002787 DD 7E FD         [19] 6942 	ld	a, -3 (ix)
    0000278A DD 77 F7         [19] 6943 	ld	-9 (ix), a
    0000278D DD 7E FE         [19] 6944 	ld	a, -2 (ix)
    00002790 DD 77 F8         [19] 6945 	ld	-8 (ix), a
    00002793 DD 6E F5         [19] 6946 	ld	l, -11 (ix)
    00002796 DD 66 F6         [19] 6947 	ld	h, -10 (ix)
    00002799 7E               [ 7] 6948 	ld	a, (hl)
    0000279A DD 77 F9         [19] 6949 	ld	-7 (ix), a
    0000279D 23               [ 6] 6950 	inc	hl
    0000279E 7E               [ 7] 6951 	ld	a, (hl)
    0000279F DD 77 FA         [19] 6952 	ld	-6 (ix), a
    000027A2 DD 7E F9         [19] 6953 	ld	a, -7 (ix)
    000027A5 DD 77 FB         [19] 6954 	ld	-5 (ix), a
    000027A8 DD 7E FA         [19] 6955 	ld	a, -6 (ix)
    000027AB DD 77 FC         [19] 6956 	ld	-4 (ix), a
    000027AE DD 7E F7         [19] 6957 	ld	a, -9 (ix)
    000027B1 DD 96 FB         [19] 6958 	sub	a, -5 (ix)
    000027B4 DD 77 FD         [19] 6959 	ld	-3 (ix), a
    000027B7 DD 7E F8         [19] 6960 	ld	a, -8 (ix)
    000027BA DD 9E FC         [19] 6961 	sbc	a, -4 (ix)
    000027BD DD 77 FE         [19] 6962 	ld	-2 (ix), a
                                   6963 ;E:\Dropbox\FAUSTO\SVILUPPI\MSX\CODE\C\MSXgl\projects\soccerlg/soccerlg_s2_b1.c:1363: if (diff > 2) g_Players[i].X++;
    000027C0 DD 7E FD         [19] 6964 	ld	a, -3 (ix)
    000027C3 DD 77 FB         [19] 6965 	ld	-5 (ix), a
    000027C6 DD 7E FE         [19] 6966 	ld	a, -2 (ix)
    000027C9 DD 77 FC         [19] 6967 	ld	-4 (ix), a
    000027CC 3E 02            [ 7] 6968 	ld	a, #0x02
    000027CE DD BE FB         [19] 6969 	cp	a, -5 (ix)
    000027D1 3E 00            [ 7] 6970 	ld	a, #0x00
    000027D3 DD 9E FC         [19] 6971 	sbc	a, -4 (ix)
    000027D6 E2rDBr27         [10] 6972 	jp	PO, 00854$
    000027D9 EE 80            [ 7] 6973 	xor	a, #0x80
    000027DB                       6974 00854$:
    000027DB F2rF1r27         [10] 6975 	jp	P, 00112$
    000027DE DD 4E F9         [19] 6976 	ld	c, -7 (ix)
    000027E1 DD 46 FA         [19] 6977 	ld	b, -6 (ix)
    000027E4 03               [ 6] 6978 	inc	bc
    000027E5 DD 6E F5         [19] 6979 	ld	l, -11 (ix)
    000027E8 DD 66 F6         [19] 6980 	ld	h, -10 (ix)
    000027EB 71               [ 7] 6981 	ld	(hl), c
    000027EC 23               [ 6] 6982 	inc	hl
    000027ED 70               [ 7] 6983 	ld	(hl), b
    000027EE C3r10r28         [10] 6984 	jp	00115$
    000027F1                       6985 00112$:
                                   6986 ;E:\Dropbox\FAUSTO\SVILUPPI\MSX\CODE\C\MSXgl\projects\soccerlg/soccerlg_s2_b1.c:1364: else if (diff < -2) g_Players[i].X--;
    000027F1 DD 7E FD         [19] 6987 	ld	a, -3 (ix)
    000027F4 D6 FE            [ 7] 6988 	sub	a, #0xfe
    000027F6 DD 7E FE         [19] 6989 	ld	a, -2 (ix)
    000027F9 17               [ 4] 6990 	rla
    000027FA 3F               [ 4] 6991 	ccf
    000027FB 1F               [ 4] 6992 	rra
    000027FC DE 7F            [ 7] 6993 	sbc	a, #0x7f
    000027FE 30 10            [12] 6994 	jr	NC, 00115$
    00002800 DD 4E F9         [19] 6995 	ld	c, -7 (ix)
    00002803 DD 46 FA         [19] 6996 	ld	b, -6 (ix)
    00002806 0B               [ 6] 6997 	dec	bc
    00002807 DD 6E F5         [19] 6998 	ld	l, -11 (ix)
    0000280A DD 66 F6         [19] 6999 	ld	h, -10 (ix)
    0000280D 71               [ 7] 7000 	ld	(hl), c
    0000280E 23               [ 6] 7001 	inc	hl
    0000280F 70               [ 7] 7002 	ld	(hl), b
    00002810                       7003 00115$:
                                   7004 ;E:\Dropbox\FAUSTO\SVILUPPI\MSX\CODE\C\MSXgl\projects\soccerlg/soccerlg_s2_b1.c:1367: g_Players[i].TargetX = g_Players[i].X;
    00002810 DD 7E F3         [19] 7005 	ld	a, -13 (ix)
    00002813 C6 10            [ 7] 7006 	add	a, #0x10
    00002815 4F               [ 4] 7007 	ld	c, a
    00002816 DD 7E F4         [19] 7008 	ld	a, -12 (ix)
    00002819 CE 00            [ 7] 7009 	adc	a, #0x00
    0000281B 47               [ 4] 7010 	ld	b, a
    0000281C DD 6E F5         [19] 7011 	ld	l, -11 (ix)
    0000281F DD 66 F6         [19] 7012 	ld	h, -10 (ix)
    00002822 5E               [ 7] 7013 	ld	e, (hl)
    00002823 23               [ 6] 7014 	inc	hl
    00002824 56               [ 7] 7015 	ld	d, (hl)
    00002825 7B               [ 4] 7016 	ld	a, e
    00002826 02               [ 7] 7017 	ld	(bc), a
    00002827 03               [ 6] 7018 	inc	bc
    00002828 7A               [ 4] 7019 	ld	a, d
    00002829 02               [ 7] 7020 	ld	(bc), a
    0000282A                       7021 00117$:
                                   7022 ;E:\Dropbox\FAUSTO\SVILUPPI\MSX\CODE\C\MSXgl\projects\soccerlg/soccerlg_s2_b1.c:1371: if(i != REFEREE) continue;
    0000282A DD 7E FF         [19] 7023 	ld	a, -1 (ix)
    0000282D D6 0E            [ 7] 7024 	sub	a, #0x0e
    0000282F 3E 01            [ 7] 7025 	ld	a, #0x01
    00002831 28 01            [12] 7026 	jr	Z, 00856$
    00002833 AF               [ 4] 7027 	xor	a, a
    00002834                       7028 00856$:
    00002834 DD 77 FA         [19] 7029 	ld	-6 (ix), a
                                   7030 ;E:\Dropbox\FAUSTO\SVILUPPI\MSX\CODE\C\MSXgl\projects\soccerlg/soccerlg_s2_b1.c:1370: if(g_MatchStatus == MATCH_AFTER_IN_GOAL) {
    00002837 3Ar00r00         [13] 7031 	ld	a, (_g_MatchStatus+0)
    0000283A D6 06            [ 7] 7032 	sub	a, #0x06
    0000283C 20 60            [12] 7033 	jr	NZ, 00122$
                                   7034 ;E:\Dropbox\FAUSTO\SVILUPPI\MSX\CODE\C\MSXgl\projects\soccerlg/soccerlg_s2_b1.c:1371: if(i != REFEREE) continue;
    0000283E DD CB FA 46      [20] 7035 	bit	0, -6 (ix)
    00002842 CArA8r30         [10] 7036 	jp	Z, 00297$
                                   7037 ;E:\Dropbox\FAUSTO\SVILUPPI\MSX\CODE\C\MSXgl\projects\soccerlg/soccerlg_s2_b1.c:1373: g_Players[i].TargetX=FIELD_POS_X_CENTER - 30; 
    00002845 DD 4E FF         [19] 7038 	ld	c, -1 (ix)
    00002848 06 00            [ 7] 7039 	ld	b, #0x00
    0000284A 69               [ 4] 7040 	ld	l, c
    0000284B 60               [ 4] 7041 	ld	h, b
    0000284C 29               [11] 7042 	add	hl, hl
    0000284D 29               [11] 7043 	add	hl, hl
    0000284E 09               [11] 7044 	add	hl, bc
    0000284F 29               [11] 7045 	add	hl, hl
    00002850 29               [11] 7046 	add	hl, hl
    00002851 09               [11] 7047 	add	hl, bc
    00002852 DD 75 FD         [19] 7048 	ld	-3 (ix), l
    00002855 DD 74 FE         [19] 7049 	ld	-2 (ix), h
    00002858 3Er00            [ 7] 7050 	ld	a, #<(_g_Players)
    0000285A DD 86 FD         [19] 7051 	add	a, -3 (ix)
    0000285D DD 77 FB         [19] 7052 	ld	-5 (ix), a
    00002860 3Es00            [ 7] 7053 	ld	a, #>(_g_Players)
    00002862 DD 8E FE         [19] 7054 	adc	a, -2 (ix)
    00002865 DD 77 FC         [19] 7055 	ld	-4 (ix), a
    00002868 DD 7E FB         [19] 7056 	ld	a, -5 (ix)
    0000286B C6 10            [ 7] 7057 	add	a, #0x10
    0000286D DD 77 FD         [19] 7058 	ld	-3 (ix), a
    00002870 DD 7E FC         [19] 7059 	ld	a, -4 (ix)
    00002873 CE 00            [ 7] 7060 	adc	a, #0x00
    00002875 DD 77 FE         [19] 7061 	ld	-2 (ix), a
    00002878 DD 6E FD         [19] 7062 	ld	l, -3 (ix)
    0000287B DD 66 FE         [19] 7063 	ld	h, -2 (ix)
    0000287E 36 5A            [10] 7064 	ld	(hl), #0x5a
    00002880 23               [ 6] 7065 	inc	hl
    00002881 36 00            [10] 7066 	ld	(hl), #0x00
                                   7067 ;E:\Dropbox\FAUSTO\SVILUPPI\MSX\CODE\C\MSXgl\projects\soccerlg/soccerlg_s2_b1.c:1374: g_Players[i].TargetY=FIELD_POS_Y_CENTER - 40; 
    00002883 DD 7E FB         [19] 7068 	ld	a, -5 (ix)
    00002886 C6 0E            [ 7] 7069 	add	a, #0x0e
    00002888 DD 77 FD         [19] 7070 	ld	-3 (ix), a
    0000288B DD 7E FC         [19] 7071 	ld	a, -4 (ix)
    0000288E CE 00            [ 7] 7072 	adc	a, #0x00
    00002890 DD 77 FE         [19] 7073 	ld	-2 (ix), a
    00002893 DD 6E FD         [19] 7074 	ld	l, -3 (ix)
    00002896 DD 66 FE         [19] 7075 	ld	h, -2 (ix)
    00002899 36 CB            [10] 7076 	ld	(hl), #0xcb
    0000289B 23               [ 6] 7077 	inc	hl
    0000289C 36 00            [10] 7078 	ld	(hl), #0x00
    0000289E                       7079 00122$:
                                   7080 ;E:\Dropbox\FAUSTO\SVILUPPI\MSX\CODE\C\MSXgl\projects\soccerlg/soccerlg_s2_b1.c:1377: if (i == REFEREE && (g_MatchStatus == MATCH_IN_ACTION || g_MatchStatus == MATCH_BALL_ON_GOALKEEPER)) continue;
    0000289E DD 7E FA         [19] 7081 	ld	a, -6 (ix)
    000028A1 B7               [ 4] 7082 	or	a, a
    000028A2 28 0D            [12] 7083 	jr	Z, 00124$
    000028A4 3Ar00r00         [13] 7084 	ld	a,(_g_MatchStatus+0)
    000028A7 FE 0C            [ 7] 7085 	cp	a,#0x0c
    000028A9 CArA8r30         [10] 7086 	jp	Z,00297$
    000028AC D6 0D            [ 7] 7087 	sub	a, #0x0d
    000028AE CArA8r30         [10] 7088 	jp	Z,00297$
    000028B1                       7089 00124$:
                                   7090 ;E:\Dropbox\FAUSTO\SVILUPPI\MSX\CODE\C\MSXgl\projects\soccerlg/soccerlg_s2_b1.c:1380: bool isSetPieceSetup = (g_MatchStatus == MATCH_BEFORE_CORNER_KICK || g_MatchStatus == MATCH_BEFORE_GOAL_KICK || g_MatchStatus == MATCH_BEFORE_OFFSIDE || g_MatchStatus == MATCH_BEFORE_THROW_IN);
    000028B1 3Ar00r00         [13] 7091 	ld	a,(_g_MatchStatus+0)
    000028B4 FE 02            [ 7] 7092 	cp	a,#0x02
    000028B6 28 10            [12] 7093 	jr	Z, 00310$
    000028B8 FE 05            [ 7] 7094 	cp	a,#0x05
    000028BA 28 0C            [12] 7095 	jr	Z, 00310$
    000028BC FE 0E            [ 7] 7096 	cp	a,#0x0e
    000028BE 28 08            [12] 7097 	jr	Z, 00310$
    000028C0 D6 03            [ 7] 7098 	sub	a, #0x03
    000028C2 28 04            [12] 7099 	jr	Z, 00310$
    000028C4 AF               [ 4] 7100 	xor	a, a
    000028C5 C3rCAr28         [10] 7101 	jp	00311$
    000028C8                       7102 00310$:
    000028C8 3E 01            [ 7] 7103 	ld	a, #0x01
    000028CA                       7104 00311$:
    000028CA DD 77 EC         [19] 7105 	ld	-20 (ix), a
                                   7106 ;E:\Dropbox\FAUSTO\SVILUPPI\MSX\CODE\C\MSXgl\projects\soccerlg/soccerlg_s2_b1.c:1381: bool isGkRestart = (g_MatchStatus == MATCH_BALL_ON_GOALKEEPER);
    000028CD 3Ar00r00         [13] 7107 	ld	a, (_g_MatchStatus+0)
    000028D0 D6 0D            [ 7] 7108 	sub	a, #0x0d
    000028D2 3E 01            [ 7] 7109 	ld	a, #0x01
    000028D4 28 01            [12] 7110 	jr	Z, 00866$
    000028D6 AF               [ 4] 7111 	xor	a, a
    000028D7                       7112 00866$:
    000028D7 4F               [ 4] 7113 	ld	c, a
                                   7114 ;E:\Dropbox\FAUSTO\SVILUPPI\MSX\CODE\C\MSXgl\projects\soccerlg/soccerlg_s2_b1.c:1383: if (!isSetPieceSetup && !isGkRestart) {
    000028D8 DD 7E EC         [19] 7115 	ld	a, -20 (ix)
    000028DB B7               [ 4] 7116 	or	a,a
    000028DC 20 29            [12] 7117 	jr	NZ, 00135$
    000028DE B1               [ 4] 7118 	or	a,c
    000028DF 20 26            [12] 7119 	jr	NZ, 00135$
                                   7120 ;E:\Dropbox\FAUSTO\SVILUPPI\MSX\CODE\C\MSXgl\projects\soccerlg/soccerlg_s2_b1.c:1384: if (g_Team1ActivePlayer != NO_VALUE && i == g_Team1ActivePlayer) continue;
    000028E1 3Ar00r00         [13] 7121 	ld	a, (_g_Team1ActivePlayer+0)
    000028E4 3C               [ 4] 7122 	inc	a
    000028E5 28 0A            [12] 7123 	jr	Z, 00128$
    000028E7 DD 7E FF         [19] 7124 	ld	a, -1 (ix)
    000028EA 21r00r00         [10] 7125 	ld	hl, #_g_Team1ActivePlayer
    000028ED 96               [ 7] 7126 	sub	a, (hl)
    000028EE CArA8r30         [10] 7127 	jp	Z,00297$
    000028F1                       7128 00128$:
                                   7129 ;E:\Dropbox\FAUSTO\SVILUPPI\MSX\CODE\C\MSXgl\projects\soccerlg/soccerlg_s2_b1.c:1385: if (g_GameWith2Players && g_Team2ActivePlayer != NO_VALUE && i == g_Team2ActivePlayer) continue;
    000028F1 3Ar00r00         [13] 7130 	ld	a, (_g_GameWith2Players+0)
    000028F4 B7               [ 4] 7131 	or	a, a
    000028F5 28 10            [12] 7132 	jr	Z, 00135$
    000028F7 3Ar00r00         [13] 7133 	ld	a, (_g_Team2ActivePlayer+0)
    000028FA 3C               [ 4] 7134 	inc	a
    000028FB 28 0A            [12] 7135 	jr	Z, 00135$
    000028FD DD 7E FF         [19] 7136 	ld	a, -1 (ix)
    00002900 21r00r00         [10] 7137 	ld	hl, #_g_Team2ActivePlayer
    00002903 96               [ 7] 7138 	sub	a, (hl)
    00002904 CArA8r30         [10] 7139 	jp	Z,00297$
    00002907                       7140 00135$:
                                   7141 ;E:\Dropbox\FAUSTO\SVILUPPI\MSX\CODE\C\MSXgl\projects\soccerlg/soccerlg_s2_b1.c:1389: bool playerInPosition = (g_Players[i].X == g_Players[i].TargetX && g_Players[i].Y == g_Players[i].TargetY);
    00002907 DD 4E FF         [19] 7142 	ld	c, -1 (ix)
    0000290A 06 00            [ 7] 7143 	ld	b, #0x00
    0000290C 69               [ 4] 7144 	ld	l, c
    0000290D 60               [ 4] 7145 	ld	h, b
    0000290E 29               [11] 7146 	add	hl, hl
    0000290F 29               [11] 7147 	add	hl, hl
    00002910 09               [11] 7148 	add	hl, bc
    00002911 29               [11] 7149 	add	hl, hl
    00002912 29               [11] 7150 	add	hl, hl
    00002913 09               [11] 7151 	add	hl, bc
    00002914 11r00r00         [10] 7152 	ld	de, #_g_Players
    00002917 19               [11] 7153 	add	hl, de
    00002918 DD 75 ED         [19] 7154 	ld	-19 (ix), l
    0000291B DD 74 EE         [19] 7155 	ld	-18 (ix), h
    0000291E DD 7E ED         [19] 7156 	ld	a, -19 (ix)
    00002921 C6 02            [ 7] 7157 	add	a, #0x02
    00002923 DD 77 EF         [19] 7158 	ld	-17 (ix), a
    00002926 DD 7E EE         [19] 7159 	ld	a, -18 (ix)
    00002929 CE 00            [ 7] 7160 	adc	a, #0x00
    0000292B DD 77 F0         [19] 7161 	ld	-16 (ix), a
    0000292E DD 6E EF         [19] 7162 	ld	l, -17 (ix)
    00002931 DD 66 F0         [19] 7163 	ld	h, -16 (ix)
    00002934 4E               [ 7] 7164 	ld	c, (hl)
    00002935 23               [ 6] 7165 	inc	hl
    00002936 46               [ 7] 7166 	ld	b, (hl)
    00002937 DD 7E ED         [19] 7167 	ld	a, -19 (ix)
    0000293A C6 10            [ 7] 7168 	add	a, #0x10
    0000293C DD 77 FD         [19] 7169 	ld	-3 (ix), a
    0000293F DD 7E EE         [19] 7170 	ld	a, -18 (ix)
    00002942 CE 00            [ 7] 7171 	adc	a, #0x00
    00002944 DD 77 FE         [19] 7172 	ld	-2 (ix), a
    00002947 DD 6E FD         [19] 7173 	ld	l, -3 (ix)
    0000294A DD 66 FE         [19] 7174 	ld	h, -2 (ix)
    0000294D 5E               [ 7] 7175 	ld	e, (hl)
    0000294E 23               [ 6] 7176 	inc	hl
    0000294F 66               [ 7] 7177 	ld	h, (hl)
                                   7178 ;	spillPairReg hl
    00002950 6B               [ 4] 7179 	ld	l, e
    00002951 BF               [ 4] 7180 	cp	a, a
    00002952 ED 42            [15] 7181 	sbc	hl, bc
    00002954 20 3E            [12] 7182 	jr	NZ, 00318$
    00002956 DD 6E ED         [19] 7183 	ld	l, -19 (ix)
    00002959 DD 66 EE         [19] 7184 	ld	h, -18 (ix)
    0000295C 7E               [ 7] 7185 	ld	a, (hl)
    0000295D DD 77 F9         [19] 7186 	ld	-7 (ix), a
    00002960 23               [ 6] 7187 	inc	hl
    00002961 7E               [ 7] 7188 	ld	a, (hl)
    00002962 DD 77 FA         [19] 7189 	ld	-6 (ix), a
    00002965 DD 7E ED         [19] 7190 	ld	a, -19 (ix)
    00002968 DD 77 FB         [19] 7191 	ld	-5 (ix), a
    0000296B DD 7E EE         [19] 7192 	ld	a, -18 (ix)
    0000296E DD 77 FC         [19] 7193 	ld	-4 (ix), a
    00002971 DD 6E FB         [19] 7194 	ld	l, -5 (ix)
    00002974 DD 66 FC         [19] 7195 	ld	h, -4 (ix)
    00002977 11 0E 00         [10] 7196 	ld	de, #0x000e
    0000297A 19               [11] 7197 	add	hl, de
    0000297B 7E               [ 7] 7198 	ld	a, (hl)
    0000297C DD 77 FB         [19] 7199 	ld	-5 (ix), a
    0000297F 23               [ 6] 7200 	inc	hl
    00002980 7E               [ 7] 7201 	ld	a, (hl)
    00002981 DD 77 FC         [19] 7202 	ld	-4 (ix), a
    00002984 DD 7E F9         [19] 7203 	ld	a, -7 (ix)
    00002987 DD 96 FB         [19] 7204 	sub	a, -5 (ix)
    0000298A 20 08            [12] 7205 	jr	NZ, 00873$
    0000298C DD 7E FA         [19] 7206 	ld	a, -6 (ix)
    0000298F DD 96 FC         [19] 7207 	sub	a, -4 (ix)
    00002992 28 04            [12] 7208 	jr	Z, 00319$
    00002994                       7209 00873$:
    00002994                       7210 00318$:
    00002994 AF               [ 4] 7211 	xor	a, a
    00002995 C3r9Ar29         [10] 7212 	jp	00320$
    00002998                       7213 00319$:
    00002998 3E 01            [ 7] 7214 	ld	a, #0x01
    0000299A                       7215 00320$:
    0000299A DD 77 F1         [19] 7216 	ld	-15 (ix), a
                                   7217 ;E:\Dropbox\FAUSTO\SVILUPPI\MSX\CODE\C\MSXgl\projects\soccerlg/soccerlg_s2_b1.c:1392: if (g_MatchStatus == MATCH_BEFORE_KICK_OFF && !playerInPosition) {
    0000299D 3Ar00r00         [13] 7218 	ld	a, (_g_MatchStatus+0)
    000029A0 3D               [ 4] 7219 	dec	a
    000029A1 20 0A            [12] 7220 	jr	NZ, 00138$
    000029A3 DD 7E F1         [19] 7221 	ld	a, -15 (ix)
    000029A6 B7               [ 4] 7222 	or	a, a
    000029A7 20 04            [12] 7223 	jr	NZ, 00138$
                                   7224 ;E:\Dropbox\FAUSTO\SVILUPPI\MSX\CODE\C\MSXgl\projects\soccerlg/soccerlg_s2_b1.c:1393: allPlayersInPosition = false;
    000029A9 DD 36 EB 00      [19] 7225 	ld	-21 (ix), #0x00
    000029AD                       7226 00138$:
                                   7227 ;E:\Dropbox\FAUSTO\SVILUPPI\MSX\CODE\C\MSXgl\projects\soccerlg/soccerlg_s2_b1.c:1396: u8 step = 1;
    000029AD DD 36 F2 01      [19] 7228 	ld	-14 (ix), #0x01
                                   7229 ;E:\Dropbox\FAUSTO\SVILUPPI\MSX\CODE\C\MSXgl\projects\soccerlg/soccerlg_s2_b1.c:1398: if(g_MatchStatus==MATCH_IN_ACTION){
    000029B1 3Ar00r00         [13] 7230 	ld	a, (_g_MatchStatus+0)
    000029B4 D6 0C            [ 7] 7231 	sub	a, #0x0c
    000029B6 C2rD3r2A         [10] 7232 	jp	NZ,00181$
                                   7233 ;E:\Dropbox\FAUSTO\SVILUPPI\MSX\CODE\C\MSXgl\projects\soccerlg/soccerlg_s2_b1.c:1399: u8 countryId = (g_Players[i].TeamId == TEAM_1) ? g_Team1PaletteId : g_Team2PaletteId;
    000029B9 DD 4E ED         [19] 7234 	ld	c, -19 (ix)
    000029BC DD 46 EE         [19] 7235 	ld	b, -18 (ix)
    000029BF 21 09 00         [10] 7236 	ld	hl, #9
    000029C2 09               [11] 7237 	add	hl, bc
    000029C3 7E               [ 7] 7238 	ld	a, (hl)
    000029C4 3D               [ 4] 7239 	dec	a
    000029C5 20 06            [12] 7240 	jr	NZ, 00321$
    000029C7 3Ar00r00         [13] 7241 	ld	a, (_g_Team1PaletteId+0)
    000029CA C3rD0r29         [10] 7242 	jp	00322$
    000029CD                       7243 00321$:
    000029CD 3Ar00r00         [13] 7244 	ld	a, (_g_Team2PaletteId+0)
    000029D0                       7245 00322$:
                                   7246 ;E:\Dropbox\FAUSTO\SVILUPPI\MSX\CODE\C\MSXgl\projects\soccerlg/soccerlg_s2_b1.c:1400: const TeamStats* stats = GetTeamStats(countryId);
    000029D0 CDr00r00         [17] 7247 	call	_GetTeamStats
                                   7248 ;E:\Dropbox\FAUSTO\SVILUPPI\MSX\CODE\C\MSXgl\projects\soccerlg/soccerlg_s2_b1.c:1401: u8 speed = stats->Speed;
    000029D3 1A               [ 7] 7249 	ld	a, (de)
    000029D4 4F               [ 4] 7250 	ld	c, a
                                   7251 ;E:\Dropbox\FAUSTO\SVILUPPI\MSX\CODE\C\MSXgl\projects\soccerlg/soccerlg_s2_b1.c:1412: u8 tick = g_FrameCounter % 12; // Common multiple
    000029D5 3Ar00r00         [13] 7252 	ld	a, (_g_FrameCounter+0)
    000029D8 6F               [ 4] 7253 	ld	l, a
                                   7254 ;	spillPairReg hl
                                   7255 ;	spillPairReg hl
    000029D9 26 00            [ 7] 7256 	ld	h, #0x00
                                   7257 ;	spillPairReg hl
                                   7258 ;	spillPairReg hl
    000029DB C5               [11] 7259 	push	bc
    000029DC 11 0C 00         [10] 7260 	ld	de, #0x000c
    000029DF CDr00r00         [17] 7261 	call	__modsint
    000029E2 C1               [10] 7262 	pop	bc
    000029E3 DD 73 FC         [19] 7263 	ld	-4 (ix), e
                                   7264 ;E:\Dropbox\FAUSTO\SVILUPPI\MSX\CODE\C\MSXgl\projects\soccerlg/soccerlg_s2_b1.c:1413: bool move = false;
    000029E6 DD 36 FA 00      [19] 7265 	ld	-6 (ix), #0x00
                                   7266 ;E:\Dropbox\FAUSTO\SVILUPPI\MSX\CODE\C\MSXgl\projects\soccerlg/soccerlg_s2_b1.c:1414: if (speed == 0) { if ((tick % 4) == 0) move = true; }
    000029EA 79               [ 4] 7267 	ld	a, c
    000029EB B7               [ 4] 7268 	or	a, a
    000029EC 20 0F            [12] 7269 	jr	NZ, 00170$
    000029EE DD 7E FC         [19] 7270 	ld	a, -4 (ix)
    000029F1 E6 03            [ 7] 7271 	and	a, #0x03
    000029F3 C2rCAr2A         [10] 7272 	jp	NZ,00171$
    000029F6 DD 36 FA 01      [19] 7273 	ld	-6 (ix), #0x01
    000029FA C3rCAr2A         [10] 7274 	jp	00171$
    000029FD                       7275 00170$:
                                   7276 ;E:\Dropbox\FAUSTO\SVILUPPI\MSX\CODE\C\MSXgl\projects\soccerlg/soccerlg_s2_b1.c:1415: else if (speed == 1) { if ((tick % 3) == 0) move = true; }
    000029FD 79               [ 4] 7277 	ld	a, c
    000029FE 3D               [ 4] 7278 	dec	a
    000029FF 20 17            [12] 7279 	jr	NZ, 00167$
    00002A01 DD 6E FC         [19] 7280 	ld	l, -4 (ix)
                                   7281 ;	spillPairReg hl
                                   7282 ;	spillPairReg hl
    00002A04 26 00            [ 7] 7283 	ld	h, #0x00
                                   7284 ;	spillPairReg hl
                                   7285 ;	spillPairReg hl
    00002A06 11 03 00         [10] 7286 	ld	de, #0x0003
    00002A09 CDr00r00         [17] 7287 	call	__modsint
    00002A0C 7A               [ 4] 7288 	ld	a, d
    00002A0D B3               [ 4] 7289 	or	a, e
    00002A0E C2rCAr2A         [10] 7290 	jp	NZ, 00171$
    00002A11 DD 36 FA 01      [19] 7291 	ld	-6 (ix), #0x01
    00002A15 C3rCAr2A         [10] 7292 	jp	00171$
    00002A18                       7293 00167$:
                                   7294 ;E:\Dropbox\FAUSTO\SVILUPPI\MSX\CODE\C\MSXgl\projects\soccerlg/soccerlg_s2_b1.c:1416: else if (speed == 2) { if ((tick % 2) == 0) move = true; }
    00002A18 79               [ 4] 7295 	ld	a, c
    00002A19 D6 02            [ 7] 7296 	sub	a, #0x02
    00002A1B 20 0E            [12] 7297 	jr	NZ, 00164$
    00002A1D DD CB FC 46      [20] 7298 	bit	0, -4 (ix)
    00002A21 C2rCAr2A         [10] 7299 	jp	NZ,00171$
    00002A24 DD 36 FA 01      [19] 7300 	ld	-6 (ix), #0x01
    00002A28 C3rCAr2A         [10] 7301 	jp	00171$
    00002A2B                       7302 00164$:
                                   7303 ;E:\Dropbox\FAUSTO\SVILUPPI\MSX\CODE\C\MSXgl\projects\soccerlg/soccerlg_s2_b1.c:1417: else if (speed == 3) { 
    00002A2B 79               [ 4] 7304 	ld	a, c
    00002A2C D6 03            [ 7] 7305 	sub	a, #0x03
    00002A2E 20 0B            [12] 7306 	jr	NZ, 00161$
                                   7307 ;E:\Dropbox\FAUSTO\SVILUPPI\MSX\CODE\C\MSXgl\projects\soccerlg/soccerlg_s2_b1.c:1419: move = true; 
    00002A30 DD 36 FA 01      [19] 7308 	ld	-6 (ix), #0x01
                                   7309 ;E:\Dropbox\FAUSTO\SVILUPPI\MSX\CODE\C\MSXgl\projects\soccerlg/soccerlg_s2_b1.c:1420: step = 1; 
    00002A34 DD 36 F2 01      [19] 7310 	ld	-14 (ix), #0x01
    00002A38 C3rCAr2A         [10] 7311 	jp	00171$
    00002A3B                       7312 00161$:
                                   7313 ;E:\Dropbox\FAUSTO\SVILUPPI\MSX\CODE\C\MSXgl\projects\soccerlg/soccerlg_s2_b1.c:1422: else if (speed == 4) { if ((tick % 4) != 3) move = true; }
    00002A3B 79               [ 4] 7314 	ld	a, c
    00002A3C D6 04            [ 7] 7315 	sub	a, #0x04
    00002A3E 20 15            [12] 7316 	jr	NZ, 00158$
    00002A40 DD 7E FC         [19] 7317 	ld	a, -4 (ix)
    00002A43 E6 03            [ 7] 7318 	and	a, #0x03
    00002A45 4F               [ 4] 7319 	ld	c, a
    00002A46 06 00            [ 7] 7320 	ld	b, #0x00
    00002A48 79               [ 4] 7321 	ld	a, c
    00002A49 D6 03            [ 7] 7322 	sub	a, #0x03
    00002A4B B0               [ 4] 7323 	or	a, b
    00002A4C 28 7C            [12] 7324 	jr	Z, 00171$
    00002A4E DD 36 FA 01      [19] 7325 	ld	-6 (ix), #0x01
    00002A52 C3rCAr2A         [10] 7326 	jp	00171$
    00002A55                       7327 00158$:
                                   7328 ;E:\Dropbox\FAUSTO\SVILUPPI\MSX\CODE\C\MSXgl\projects\soccerlg/soccerlg_s2_b1.c:1423: else if (speed == 6) {
    00002A55 79               [ 4] 7329 	ld	a, c
    00002A56 D6 06            [ 7] 7330 	sub	a, #0x06
    00002A58 20 27            [12] 7331 	jr	NZ, 00155$
                                   7332 ;E:\Dropbox\FAUSTO\SVILUPPI\MSX\CODE\C\MSXgl\projects\soccerlg/soccerlg_s2_b1.c:1425: move = true;
    00002A5A DD 36 FA 01      [19] 7333 	ld	-6 (ix), #0x01
                                   7334 ;E:\Dropbox\FAUSTO\SVILUPPI\MSX\CODE\C\MSXgl\projects\soccerlg/soccerlg_s2_b1.c:1426: step = ((tick % 4) == 0) ? 2 : 1;
    00002A5E DD 7E FC         [19] 7335 	ld	a, -4 (ix)
    00002A61 E6 03            [ 7] 7336 	and	a, #0x03
    00002A63 20 0B            [12] 7337 	jr	NZ, 00323$
    00002A65 DD 36 FB 02      [19] 7338 	ld	-5 (ix), #0x02
    00002A69 DD 36 FC 00      [19] 7339 	ld	-4 (ix), #0
    00002A6D C3r78r2A         [10] 7340 	jp	00324$
    00002A70                       7341 00323$:
    00002A70 DD 36 FB 01      [19] 7342 	ld	-5 (ix), #0x01
    00002A74 DD 36 FC 00      [19] 7343 	ld	-4 (ix), #0
    00002A78                       7344 00324$:
    00002A78 DD 7E FB         [19] 7345 	ld	a, -5 (ix)
    00002A7B DD 77 F2         [19] 7346 	ld	-14 (ix), a
    00002A7E C3rCAr2A         [10] 7347 	jp	00171$
    00002A81                       7348 00155$:
                                   7349 ;E:\Dropbox\FAUSTO\SVILUPPI\MSX\CODE\C\MSXgl\projects\soccerlg/soccerlg_s2_b1.c:1428: else if (speed == 7) {
    00002A81 79               [ 4] 7350 	ld	a, c
    00002A82 D6 07            [ 7] 7351 	sub	a, #0x07
    00002A84 20 22            [12] 7352 	jr	NZ, 00152$
                                   7353 ;E:\Dropbox\FAUSTO\SVILUPPI\MSX\CODE\C\MSXgl\projects\soccerlg/soccerlg_s2_b1.c:1430: move = true;
    00002A86 DD 36 FA 01      [19] 7354 	ld	-6 (ix), #0x01
                                   7355 ;E:\Dropbox\FAUSTO\SVILUPPI\MSX\CODE\C\MSXgl\projects\soccerlg/soccerlg_s2_b1.c:1431: step = ((tick % 3) == 0) ? 2 : 1;
    00002A8A DD 6E FC         [19] 7356 	ld	l, -4 (ix)
                                   7357 ;	spillPairReg hl
                                   7358 ;	spillPairReg hl
    00002A8D 26 00            [ 7] 7359 	ld	h, #0x00
                                   7360 ;	spillPairReg hl
                                   7361 ;	spillPairReg hl
    00002A8F 11 03 00         [10] 7362 	ld	de, #0x0003
    00002A92 CDr00r00         [17] 7363 	call	__modsint
    00002A95 7A               [ 4] 7364 	ld	a, d
    00002A96 B3               [ 4] 7365 	or	a, e
    00002A97 20 06            [12] 7366 	jr	NZ, 00325$
    00002A99 01 02 00         [10] 7367 	ld	bc, #0x0002
    00002A9C C3rA2r2A         [10] 7368 	jp	00326$
    00002A9F                       7369 00325$:
    00002A9F 01 01 00         [10] 7370 	ld	bc, #0x0001
    00002AA2                       7371 00326$:
    00002AA2 DD 71 F2         [19] 7372 	ld	-14 (ix), c
    00002AA5 C3rCAr2A         [10] 7373 	jp	00171$
    00002AA8                       7374 00152$:
                                   7375 ;E:\Dropbox\FAUSTO\SVILUPPI\MSX\CODE\C\MSXgl\projects\soccerlg/soccerlg_s2_b1.c:1433: else if (speed >= 8) { 
    00002AA8 79               [ 4] 7376 	ld	a, c
    00002AA9 D6 08            [ 7] 7377 	sub	a, #0x08
    00002AAB 38 19            [12] 7378 	jr	C, 00149$
                                   7379 ;E:\Dropbox\FAUSTO\SVILUPPI\MSX\CODE\C\MSXgl\projects\soccerlg/soccerlg_s2_b1.c:1435: move = true;
    00002AAD DD 36 FA 01      [19] 7380 	ld	-6 (ix), #0x01
                                   7381 ;E:\Dropbox\FAUSTO\SVILUPPI\MSX\CODE\C\MSXgl\projects\soccerlg/soccerlg_s2_b1.c:1436: step = ((tick % 2) == 0) ? 2 : 1;
    00002AB1 DD CB FC 46      [20] 7382 	bit	0, -4 (ix)
    00002AB5 20 06            [12] 7383 	jr	NZ, 00327$
    00002AB7 01 02 00         [10] 7384 	ld	bc, #0x0002
    00002ABA C3rC0r2A         [10] 7385 	jp	00328$
    00002ABD                       7386 00327$:
    00002ABD 01 01 00         [10] 7387 	ld	bc, #0x0001
    00002AC0                       7388 00328$:
    00002AC0 DD 71 F2         [19] 7389 	ld	-14 (ix), c
    00002AC3 C3rCAr2A         [10] 7390 	jp	00171$
    00002AC6                       7391 00149$:
                                   7392 ;E:\Dropbox\FAUSTO\SVILUPPI\MSX\CODE\C\MSXgl\projects\soccerlg/soccerlg_s2_b1.c:1438: else move = true;
    00002AC6 DD 36 FA 01      [19] 7393 	ld	-6 (ix), #0x01
    00002ACA                       7394 00171$:
                                   7395 ;E:\Dropbox\FAUSTO\SVILUPPI\MSX\CODE\C\MSXgl\projects\soccerlg/soccerlg_s2_b1.c:1440: if (!move) continue;
    00002ACA DD 7E FA         [19] 7396 	ld	a, -6 (ix)
    00002ACD B7               [ 4] 7397 	or	a, a
    00002ACE 20 2A            [12] 7398 	jr	NZ, 00182$
    00002AD0 C3rA8r30         [10] 7399 	jp	00297$
    00002AD3                       7400 00181$:
                                   7401 ;E:\Dropbox\FAUSTO\SVILUPPI\MSX\CODE\C\MSXgl\projects\soccerlg/soccerlg_s2_b1.c:1442: g_Players[i].AiTickCounter=0;
    00002AD3 DD 6E ED         [19] 7402 	ld	l, -19 (ix)
    00002AD6 DD 66 EE         [19] 7403 	ld	h, -18 (ix)
    00002AD9 11 14 00         [10] 7404 	ld	de, #0x0014
    00002ADC 19               [11] 7405 	add	hl, de
    00002ADD 36 00            [10] 7406 	ld	(hl), #0x00
                                   7407 ;E:\Dropbox\FAUSTO\SVILUPPI\MSX\CODE\C\MSXgl\projects\soccerlg/soccerlg_s2_b1.c:1444: if (g_MatchStatus == MATCH_BEFORE_GOAL_KICK || g_MatchStatus == MATCH_BEFORE_CORNER_KICK || 
    00002ADF 3Ar00r00         [13] 7408 	ld	a,(_g_MatchStatus+0)
    00002AE2 FE 05            [ 7] 7409 	cp	a,#0x05
    00002AE4 28 10            [12] 7410 	jr	Z, 00174$
                                   7411 ;E:\Dropbox\FAUSTO\SVILUPPI\MSX\CODE\C\MSXgl\projects\soccerlg/soccerlg_s2_b1.c:1445: g_MatchStatus == MATCH_BEFORE_THROW_IN || g_MatchStatus == MATCH_BEFORE_OFFSIDE ||
    00002AE6 FE 02            [ 7] 7412 	cp	a,#0x02
    00002AE8 28 0C            [12] 7413 	jr	Z, 00174$
    00002AEA FE 03            [ 7] 7414 	cp	a,#0x03
    00002AEC 28 08            [12] 7415 	jr	Z, 00174$
                                   7416 ;E:\Dropbox\FAUSTO\SVILUPPI\MSX\CODE\C\MSXgl\projects\soccerlg/soccerlg_s2_b1.c:1446: g_MatchStatus == MATCH_BALL_ON_GOALKEEPER) {
    00002AEE FE 0E            [ 7] 7417 	cp	a,#0x0e
    00002AF0 28 04            [12] 7418 	jr	Z, 00174$
    00002AF2 D6 0D            [ 7] 7419 	sub	a, #0x0d
    00002AF4 20 04            [12] 7420 	jr	NZ, 00182$
    00002AF6                       7421 00174$:
                                   7422 ;E:\Dropbox\FAUSTO\SVILUPPI\MSX\CODE\C\MSXgl\projects\soccerlg/soccerlg_s2_b1.c:1447: step = 2;
    00002AF6 DD 36 F2 02      [19] 7423 	ld	-14 (ix), #0x02
    00002AFA                       7424 00182$:
                                   7425 ;E:\Dropbox\FAUSTO\SVILUPPI\MSX\CODE\C\MSXgl\projects\soccerlg/soccerlg_s2_b1.c:1451: if(!playerInPosition){
    00002AFA DD 7E F1         [19] 7426 	ld	a, -15 (ix)
    00002AFD B7               [ 4] 7427 	or	a, a
    00002AFE C2rDBr2E         [10] 7428 	jp	NZ, 00241$
                                   7429 ;E:\Dropbox\FAUSTO\SVILUPPI\MSX\CODE\C\MSXgl\projects\soccerlg/soccerlg_s2_b1.c:1452: g_Players[i].Status=PLAYER_STATUS_NONE;
    00002B01 DD 6E ED         [19] 7430 	ld	l, -19 (ix)
    00002B04 DD 66 EE         [19] 7431 	ld	h, -18 (ix)
    00002B07 11 12 00         [10] 7432 	ld	de, #0x0012
    00002B0A 19               [11] 7433 	add	hl, de
    00002B0B AF               [ 4] 7434 	xor	a, a
    00002B0C 77               [ 7] 7435 	ld	(hl), a
    00002B0D 23               [ 6] 7436 	inc	hl
    00002B0E 77               [ 7] 7437 	ld	(hl), a
                                   7438 ;E:\Dropbox\FAUSTO\SVILUPPI\MSX\CODE\C\MSXgl\projects\soccerlg/soccerlg_s2_b1.c:1454: i16 dx = (i16)g_Players[i].TargetX - (i16)g_Players[i].X;
    00002B0F DD 6E FD         [19] 7439 	ld	l, -3 (ix)
    00002B12 DD 66 FE         [19] 7440 	ld	h, -2 (ix)
    00002B15 7E               [ 7] 7441 	ld	a, (hl)
    00002B16 DD 77 E9         [19] 7442 	ld	-23 (ix), a
    00002B19 23               [ 6] 7443 	inc	hl
    00002B1A 7E               [ 7] 7444 	ld	a, (hl)
    00002B1B DD 77 EA         [19] 7445 	ld	-22 (ix), a
    00002B1E C1               [10] 7446 	pop	bc
    00002B1F C5               [11] 7447 	push	bc
    00002B20 DD 6E EF         [19] 7448 	ld	l, -17 (ix)
    00002B23 DD 66 F0         [19] 7449 	ld	h, -16 (ix)
    00002B26 7E               [ 7] 7450 	ld	a, (hl)
    00002B27 DD 77 FB         [19] 7451 	ld	-5 (ix), a
    00002B2A 23               [ 6] 7452 	inc	hl
    00002B2B 7E               [ 7] 7453 	ld	a, (hl)
    00002B2C DD 77 FC         [19] 7454 	ld	-4 (ix), a
    00002B2F DD 5E FB         [19] 7455 	ld	e, -5 (ix)
    00002B32 DD 56 FC         [19] 7456 	ld	d, -4 (ix)
    00002B35 79               [ 4] 7457 	ld	a, c
    00002B36 93               [ 4] 7458 	sub	a, e
    00002B37 4F               [ 4] 7459 	ld	c, a
    00002B38 78               [ 4] 7460 	ld	a, b
    00002B39 9A               [ 4] 7461 	sbc	a, d
    00002B3A DD 71 FD         [19] 7462 	ld	-3 (ix), c
    00002B3D DD 77 FE         [19] 7463 	ld	-2 (ix), a
                                   7464 ;E:\Dropbox\FAUSTO\SVILUPPI\MSX\CODE\C\MSXgl\projects\soccerlg/soccerlg_s2_b1.c:1455: i16 dy = (i16)g_Players[i].TargetY - (i16)g_Players[i].Y;
    00002B40 DD 7E ED         [19] 7465 	ld	a, -19 (ix)
    00002B43 C6 0E            [ 7] 7466 	add	a, #0x0e
    00002B45 DD 77 F3         [19] 7467 	ld	-13 (ix), a
    00002B48 DD 7E EE         [19] 7468 	ld	a, -18 (ix)
    00002B4B CE 00            [ 7] 7469 	adc	a, #0x00
    00002B4D DD 77 F4         [19] 7470 	ld	-12 (ix), a
    00002B50 DD 6E F3         [19] 7471 	ld	l, -13 (ix)
    00002B53 DD 66 F4         [19] 7472 	ld	h, -12 (ix)
    00002B56 4E               [ 7] 7473 	ld	c, (hl)
    00002B57 23               [ 6] 7474 	inc	hl
    00002B58 46               [ 7] 7475 	ld	b, (hl)
    00002B59 DD 6E ED         [19] 7476 	ld	l, -19 (ix)
    00002B5C DD 66 EE         [19] 7477 	ld	h, -18 (ix)
    00002B5F 5E               [ 7] 7478 	ld	e, (hl)
    00002B60 23               [ 6] 7479 	inc	hl
    00002B61 56               [ 7] 7480 	ld	d, (hl)
    00002B62 79               [ 4] 7481 	ld	a, c
    00002B63 93               [ 4] 7482 	sub	a, e
    00002B64 4F               [ 4] 7483 	ld	c, a
    00002B65 78               [ 4] 7484 	ld	a, b
    00002B66 9A               [ 4] 7485 	sbc	a, d
    00002B67 DD 71 F5         [19] 7486 	ld	-11 (ix), c
    00002B6A DD 77 F6         [19] 7487 	ld	-10 (ix), a
                                   7488 ;E:\Dropbox\FAUSTO\SVILUPPI\MSX\CODE\C\MSXgl\projects\soccerlg/soccerlg_s2_b1.c:1457: if (dx > 0) {
    00002B6D DD 7E FD         [19] 7489 	ld	a, -3 (ix)
    00002B70 DD 77 F7         [19] 7490 	ld	-9 (ix), a
    00002B73 DD 7E FE         [19] 7491 	ld	a, -2 (ix)
    00002B76 DD 77 F8         [19] 7492 	ld	-8 (ix), a
    00002B79 AF               [ 4] 7493 	xor	a, a
    00002B7A DD BE F7         [19] 7494 	cp	a, -9 (ix)
    00002B7D DD 9E F8         [19] 7495 	sbc	a, -8 (ix)
    00002B80 E2r85r2B         [10] 7496 	jp	PO, 00907$
    00002B83 EE 80            [ 7] 7497 	xor	a, #0x80
    00002B85                       7498 00907$:
    00002B85 07               [ 4] 7499 	rlca
    00002B86 E6 01            [ 7] 7500 	and	a,#0x01
    00002B88 DD 77 F9         [19] 7501 	ld	-7 (ix), a
    00002B8B B7               [ 4] 7502 	or	a, a
    00002B8C 28 40            [12] 7503 	jr	Z, 00192$
                                   7504 ;E:\Dropbox\FAUSTO\SVILUPPI\MSX\CODE\C\MSXgl\projects\soccerlg/soccerlg_s2_b1.c:1458: if (dx < step) g_Players[i].X = g_Players[i].TargetX;
    00002B8E DD 4E F2         [19] 7505 	ld	c, -14 (ix)
    00002B91 06 00            [ 7] 7506 	ld	b, #0x00
    00002B93 DD 7E FD         [19] 7507 	ld	a, -3 (ix)
    00002B96 91               [ 4] 7508 	sub	a, c
    00002B97 DD 7E FE         [19] 7509 	ld	a, -2 (ix)
    00002B9A 98               [ 4] 7510 	sbc	a, b
    00002B9B E2rA0r2B         [10] 7511 	jp	PO, 00908$
    00002B9E EE 80            [ 7] 7512 	xor	a, #0x80
    00002BA0                       7513 00908$:
    00002BA0 F2rB5r2B         [10] 7514 	jp	P, 00184$
    00002BA3 DD 6E EF         [19] 7515 	ld	l, -17 (ix)
    00002BA6 DD 66 F0         [19] 7516 	ld	h, -16 (ix)
    00002BA9 DD 7E E9         [19] 7517 	ld	a, -23 (ix)
    00002BAC 77               [ 7] 7518 	ld	(hl), a
    00002BAD 23               [ 6] 7519 	inc	hl
    00002BAE DD 7E EA         [19] 7520 	ld	a, -22 (ix)
    00002BB1 77               [ 7] 7521 	ld	(hl), a
    00002BB2 C3r19r2C         [10] 7522 	jp	00193$
    00002BB5                       7523 00184$:
                                   7524 ;E:\Dropbox\FAUSTO\SVILUPPI\MSX\CODE\C\MSXgl\projects\soccerlg/soccerlg_s2_b1.c:1459: else g_Players[i].X += step;
    00002BB5 DD 4E F2         [19] 7525 	ld	c, -14 (ix)
    00002BB8 06 00            [ 7] 7526 	ld	b, #0x00
    00002BBA DD 6E FB         [19] 7527 	ld	l, -5 (ix)
                                   7528 ;	spillPairReg hl
                                   7529 ;	spillPairReg hl
    00002BBD DD 66 FC         [19] 7530 	ld	h, -4 (ix)
                                   7531 ;	spillPairReg hl
                                   7532 ;	spillPairReg hl
    00002BC0 09               [11] 7533 	add	hl, bc
    00002BC1 EB               [ 4] 7534 	ex	de, hl
    00002BC2 DD 6E EF         [19] 7535 	ld	l, -17 (ix)
    00002BC5 DD 66 F0         [19] 7536 	ld	h, -16 (ix)
    00002BC8 73               [ 7] 7537 	ld	(hl), e
    00002BC9 23               [ 6] 7538 	inc	hl
    00002BCA 72               [ 7] 7539 	ld	(hl), d
    00002BCB C3r19r2C         [10] 7540 	jp	00193$
    00002BCE                       7541 00192$:
                                   7542 ;E:\Dropbox\FAUSTO\SVILUPPI\MSX\CODE\C\MSXgl\projects\soccerlg/soccerlg_s2_b1.c:1460: } else if (dx < 0) {
    00002BCE DD CB F8 7E      [20] 7543 	bit	7, -8 (ix)
    00002BD2 28 45            [12] 7544 	jr	Z, 00193$
                                   7545 ;E:\Dropbox\FAUSTO\SVILUPPI\MSX\CODE\C\MSXgl\projects\soccerlg/soccerlg_s2_b1.c:1461: if (-dx < step) g_Players[i].X = g_Players[i].TargetX;
    00002BD4 AF               [ 4] 7546 	xor	a, a
    00002BD5 DD 96 FD         [19] 7547 	sub	a, -3 (ix)
    00002BD8 4F               [ 4] 7548 	ld	c, a
    00002BD9 9F               [ 4] 7549 	sbc	a, a
    00002BDA DD 96 FE         [19] 7550 	sub	a, -2 (ix)
    00002BDD 47               [ 4] 7551 	ld	b, a
    00002BDE DD 5E F2         [19] 7552 	ld	e, -14 (ix)
    00002BE1 16 00            [ 7] 7553 	ld	d, #0x00
    00002BE3 79               [ 4] 7554 	ld	a, c
    00002BE4 93               [ 4] 7555 	sub	a, e
    00002BE5 78               [ 4] 7556 	ld	a, b
    00002BE6 9A               [ 4] 7557 	sbc	a, d
    00002BE7 E2rECr2B         [10] 7558 	jp	PO, 00909$
    00002BEA EE 80            [ 7] 7559 	xor	a, #0x80
    00002BEC                       7560 00909$:
    00002BEC F2r01r2C         [10] 7561 	jp	P, 00187$
    00002BEF DD 6E EF         [19] 7562 	ld	l, -17 (ix)
    00002BF2 DD 66 F0         [19] 7563 	ld	h, -16 (ix)
    00002BF5 DD 7E E9         [19] 7564 	ld	a, -23 (ix)
    00002BF8 77               [ 7] 7565 	ld	(hl), a
    00002BF9 23               [ 6] 7566 	inc	hl
    00002BFA DD 7E EA         [19] 7567 	ld	a, -22 (ix)
    00002BFD 77               [ 7] 7568 	ld	(hl), a
    00002BFE C3r19r2C         [10] 7569 	jp	00193$
    00002C01                       7570 00187$:
                                   7571 ;E:\Dropbox\FAUSTO\SVILUPPI\MSX\CODE\C\MSXgl\projects\soccerlg/soccerlg_s2_b1.c:1462: else g_Players[i].X -= step;
    00002C01 DD 4E F2         [19] 7572 	ld	c, -14 (ix)
    00002C04 06 00            [ 7] 7573 	ld	b, #0x00
    00002C06 DD 6E FB         [19] 7574 	ld	l, -5 (ix)
                                   7575 ;	spillPairReg hl
                                   7576 ;	spillPairReg hl
    00002C09 DD 66 FC         [19] 7577 	ld	h, -4 (ix)
                                   7578 ;	spillPairReg hl
                                   7579 ;	spillPairReg hl
    00002C0C BF               [ 4] 7580 	cp	a, a
    00002C0D ED 42            [15] 7581 	sbc	hl, bc
    00002C0F EB               [ 4] 7582 	ex	de, hl
    00002C10 DD 6E EF         [19] 7583 	ld	l, -17 (ix)
    00002C13 DD 66 F0         [19] 7584 	ld	h, -16 (ix)
    00002C16 73               [ 7] 7585 	ld	(hl), e
    00002C17 23               [ 6] 7586 	inc	hl
    00002C18 72               [ 7] 7587 	ld	(hl), d
    00002C19                       7588 00193$:
                                   7589 ;E:\Dropbox\FAUSTO\SVILUPPI\MSX\CODE\C\MSXgl\projects\soccerlg/soccerlg_s2_b1.c:1465: if (dy > 0) {
    00002C19 DD 7E F5         [19] 7590 	ld	a, -11 (ix)
    00002C1C DD 77 FA         [19] 7591 	ld	-6 (ix), a
    00002C1F DD 7E F6         [19] 7592 	ld	a, -10 (ix)
    00002C22 DD 77 FB         [19] 7593 	ld	-5 (ix), a
    00002C25 AF               [ 4] 7594 	xor	a, a
    00002C26 DD BE FA         [19] 7595 	cp	a, -6 (ix)
    00002C29 DD 9E FB         [19] 7596 	sbc	a, -5 (ix)
    00002C2C E2r31r2C         [10] 7597 	jp	PO, 00910$
    00002C2F EE 80            [ 7] 7598 	xor	a, #0x80
    00002C31                       7599 00910$:
    00002C31 07               [ 4] 7600 	rlca
    00002C32 E6 01            [ 7] 7601 	and	a,#0x01
    00002C34 DD 77 FC         [19] 7602 	ld	-4 (ix), a
    00002C37 B7               [ 4] 7603 	or	a, a
    00002C38 CArC3r2C         [10] 7604 	jp	Z, 00203$
                                   7605 ;E:\Dropbox\FAUSTO\SVILUPPI\MSX\CODE\C\MSXgl\projects\soccerlg/soccerlg_s2_b1.c:1466: if (dy < step) g_Players[i].Y = g_Players[i].TargetY;
    00002C3B DD 7E F2         [19] 7606 	ld	a, -14 (ix)
    00002C3E DD 77 FD         [19] 7607 	ld	-3 (ix), a
    00002C41 DD 36 FE 00      [19] 7608 	ld	-2 (ix), #0x00
    00002C45 DD 7E F5         [19] 7609 	ld	a, -11 (ix)
    00002C48 DD 96 FD         [19] 7610 	sub	a, -3 (ix)
    00002C4B DD 7E F6         [19] 7611 	ld	a, -10 (ix)
    00002C4E DD 9E FE         [19] 7612 	sbc	a, -2 (ix)
    00002C51 E2r56r2C         [10] 7613 	jp	PO, 00911$
    00002C54 EE 80            [ 7] 7614 	xor	a, #0x80
    00002C56                       7615 00911$:
    00002C56 F2r7Ar2C         [10] 7616 	jp	P, 00195$
    00002C59 DD 6E F3         [19] 7617 	ld	l, -13 (ix)
    00002C5C DD 66 F4         [19] 7618 	ld	h, -12 (ix)
    00002C5F 7E               [ 7] 7619 	ld	a, (hl)
    00002C60 DD 77 FD         [19] 7620 	ld	-3 (ix), a
    00002C63 23               [ 6] 7621 	inc	hl
    00002C64 7E               [ 7] 7622 	ld	a, (hl)
    00002C65 DD 77 FE         [19] 7623 	ld	-2 (ix), a
    00002C68 DD 6E ED         [19] 7624 	ld	l, -19 (ix)
    00002C6B DD 66 EE         [19] 7625 	ld	h, -18 (ix)
    00002C6E DD 7E FD         [19] 7626 	ld	a, -3 (ix)
    00002C71 77               [ 7] 7627 	ld	(hl), a
    00002C72 23               [ 6] 7628 	inc	hl
    00002C73 DD 7E FE         [19] 7629 	ld	a, -2 (ix)
    00002C76 77               [ 7] 7630 	ld	(hl), a
    00002C77 C3r48r2D         [10] 7631 	jp	00204$
    00002C7A                       7632 00195$:
                                   7633 ;E:\Dropbox\FAUSTO\SVILUPPI\MSX\CODE\C\MSXgl\projects\soccerlg/soccerlg_s2_b1.c:1467: else g_Players[i].Y += step;
    00002C7A DD 6E ED         [19] 7634 	ld	l, -19 (ix)
    00002C7D DD 66 EE         [19] 7635 	ld	h, -18 (ix)
    00002C80 7E               [ 7] 7636 	ld	a, (hl)
    00002C81 DD 77 F5         [19] 7637 	ld	-11 (ix), a
    00002C84 23               [ 6] 7638 	inc	hl
    00002C85 7E               [ 7] 7639 	ld	a, (hl)
    00002C86 DD 77 F6         [19] 7640 	ld	-10 (ix), a
    00002C89 DD 7E F2         [19] 7641 	ld	a, -14 (ix)
    00002C8C DD 77 FD         [19] 7642 	ld	-3 (ix), a
    00002C8F DD 36 FE 00      [19] 7643 	ld	-2 (ix), #0x00
    00002C93 DD 7E F5         [19] 7644 	ld	a, -11 (ix)
    00002C96 DD 86 FD         [19] 7645 	add	a, -3 (ix)
    00002C99 DD 77 F3         [19] 7646 	ld	-13 (ix), a
    00002C9C DD 7E F6         [19] 7647 	ld	a, -10 (ix)
    00002C9F DD 8E FE         [19] 7648 	adc	a, -2 (ix)
    00002CA2 DD 77 F4         [19] 7649 	ld	-12 (ix), a
    00002CA5 DD 7E F3         [19] 7650 	ld	a, -13 (ix)
    00002CA8 DD 77 FD         [19] 7651 	ld	-3 (ix), a
    00002CAB DD 7E F4         [19] 7652 	ld	a, -12 (ix)
    00002CAE DD 77 FE         [19] 7653 	ld	-2 (ix), a
    00002CB1 DD 6E ED         [19] 7654 	ld	l, -19 (ix)
    00002CB4 DD 66 EE         [19] 7655 	ld	h, -18 (ix)
    00002CB7 DD 7E FD         [19] 7656 	ld	a, -3 (ix)
    00002CBA 77               [ 7] 7657 	ld	(hl), a
    00002CBB 23               [ 6] 7658 	inc	hl
    00002CBC DD 7E FE         [19] 7659 	ld	a, -2 (ix)
    00002CBF 77               [ 7] 7660 	ld	(hl), a
    00002CC0 C3r48r2D         [10] 7661 	jp	00204$
    00002CC3                       7662 00203$:
                                   7663 ;E:\Dropbox\FAUSTO\SVILUPPI\MSX\CODE\C\MSXgl\projects\soccerlg/soccerlg_s2_b1.c:1468: } else if (dy < 0) {
    00002CC3 DD CB FB 7E      [20] 7664 	bit	7, -5 (ix)
    00002CC7 CAr48r2D         [10] 7665 	jp	Z, 00204$
                                   7666 ;E:\Dropbox\FAUSTO\SVILUPPI\MSX\CODE\C\MSXgl\projects\soccerlg/soccerlg_s2_b1.c:1469: if (-dy < step) g_Players[i].Y = g_Players[i].TargetY;
    00002CCA AF               [ 4] 7667 	xor	a, a
    00002CCB DD 96 F5         [19] 7668 	sub	a, -11 (ix)
    00002CCE DD 77 FD         [19] 7669 	ld	-3 (ix), a
    00002CD1 9F               [ 4] 7670 	sbc	a, a
    00002CD2 DD 96 F6         [19] 7671 	sub	a, -10 (ix)
    00002CD5 DD 77 FE         [19] 7672 	ld	-2 (ix), a
    00002CD8 DD 4E F2         [19] 7673 	ld	c, -14 (ix)
    00002CDB 06 00            [ 7] 7674 	ld	b, #0x00
    00002CDD DD 7E FD         [19] 7675 	ld	a, -3 (ix)
    00002CE0 91               [ 4] 7676 	sub	a, c
    00002CE1 DD 7E FE         [19] 7677 	ld	a, -2 (ix)
    00002CE4 98               [ 4] 7678 	sbc	a, b
    00002CE5 E2rEAr2C         [10] 7679 	jp	PO, 00912$
    00002CE8 EE 80            [ 7] 7680 	xor	a, #0x80
    00002CEA                       7681 00912$:
    00002CEA F2r02r2D         [10] 7682 	jp	P, 00198$
    00002CED DD 6E F3         [19] 7683 	ld	l, -13 (ix)
    00002CF0 DD 66 F4         [19] 7684 	ld	h, -12 (ix)
    00002CF3 4E               [ 7] 7685 	ld	c, (hl)
    00002CF4 23               [ 6] 7686 	inc	hl
    00002CF5 46               [ 7] 7687 	ld	b, (hl)
    00002CF6 DD 6E ED         [19] 7688 	ld	l, -19 (ix)
    00002CF9 DD 66 EE         [19] 7689 	ld	h, -18 (ix)
    00002CFC 71               [ 7] 7690 	ld	(hl), c
    00002CFD 23               [ 6] 7691 	inc	hl
    00002CFE 70               [ 7] 7692 	ld	(hl), b
    00002CFF C3r48r2D         [10] 7693 	jp	00204$
    00002D02                       7694 00198$:
                                   7695 ;E:\Dropbox\FAUSTO\SVILUPPI\MSX\CODE\C\MSXgl\projects\soccerlg/soccerlg_s2_b1.c:1470: else g_Players[i].Y -= step;
    00002D02 DD 6E ED         [19] 7696 	ld	l, -19 (ix)
    00002D05 DD 66 EE         [19] 7697 	ld	h, -18 (ix)
    00002D08 7E               [ 7] 7698 	ld	a, (hl)
    00002D09 DD 77 F5         [19] 7699 	ld	-11 (ix), a
    00002D0C 23               [ 6] 7700 	inc	hl
    00002D0D 7E               [ 7] 7701 	ld	a, (hl)
    00002D0E DD 77 F6         [19] 7702 	ld	-10 (ix), a
    00002D11 DD 7E F2         [19] 7703 	ld	a, -14 (ix)
    00002D14 DD 77 FD         [19] 7704 	ld	-3 (ix), a
    00002D17 DD 36 FE 00      [19] 7705 	ld	-2 (ix), #0x00
    00002D1B DD 7E F5         [19] 7706 	ld	a, -11 (ix)
    00002D1E DD 96 FD         [19] 7707 	sub	a, -3 (ix)
    00002D21 DD 77 F3         [19] 7708 	ld	-13 (ix), a
    00002D24 DD 7E F6         [19] 7709 	ld	a, -10 (ix)
    00002D27 DD 9E FE         [19] 7710 	sbc	a, -2 (ix)
    00002D2A DD 77 F4         [19] 7711 	ld	-12 (ix), a
    00002D2D DD 7E F3         [19] 7712 	ld	a, -13 (ix)
    00002D30 DD 77 FD         [19] 7713 	ld	-3 (ix), a
    00002D33 DD 7E F4         [19] 7714 	ld	a, -12 (ix)
    00002D36 DD 77 FE         [19] 7715 	ld	-2 (ix), a
    00002D39 DD 6E ED         [19] 7716 	ld	l, -19 (ix)
    00002D3C DD 66 EE         [19] 7717 	ld	h, -18 (ix)
    00002D3F DD 7E FD         [19] 7718 	ld	a, -3 (ix)
    00002D42 77               [ 7] 7719 	ld	(hl), a
    00002D43 23               [ 6] 7720 	inc	hl
    00002D44 DD 7E FE         [19] 7721 	ld	a, -2 (ix)
    00002D47 77               [ 7] 7722 	ld	(hl), a
    00002D48                       7723 00204$:
                                   7724 ;E:\Dropbox\FAUSTO\SVILUPPI\MSX\CODE\C\MSXgl\projects\soccerlg/soccerlg_s2_b1.c:1473: if(dx > 0 && dy < 0) g_Players[i].Direction=DIRECTION_UP_RIGHT;
    00002D48 DD 7E F9         [19] 7725 	ld	a, -7 (ix)
    00002D4B B7               [ 4] 7726 	or	a, a
    00002D4C 28 21            [12] 7727 	jr	Z, 00229$
    00002D4E DD CB FB 7E      [20] 7728 	bit	7, -5 (ix)
    00002D52 28 1B            [12] 7729 	jr	Z, 00229$
    00002D54 DD 7E ED         [19] 7730 	ld	a, -19 (ix)
    00002D57 C6 0A            [ 7] 7731 	add	a, #0x0a
    00002D59 DD 77 FD         [19] 7732 	ld	-3 (ix), a
    00002D5C DD 7E EE         [19] 7733 	ld	a, -18 (ix)
    00002D5F CE 00            [ 7] 7734 	adc	a, #0x00
    00002D61 DD 77 FE         [19] 7735 	ld	-2 (ix), a
    00002D64 DD 6E FD         [19] 7736 	ld	l, -3 (ix)
    00002D67 DD 66 FE         [19] 7737 	ld	h, -2 (ix)
    00002D6A 36 02            [10] 7738 	ld	(hl), #0x02
    00002D6C C3r6Br2E         [10] 7739 	jp	00230$
    00002D6F                       7740 00229$:
                                   7741 ;E:\Dropbox\FAUSTO\SVILUPPI\MSX\CODE\C\MSXgl\projects\soccerlg/soccerlg_s2_b1.c:1474: else if(dx < 0 && dy < 0) g_Players[i].Direction=DIRECTION_UP_LEFT;
    00002D6F DD 7E F8         [19] 7742 	ld	a, -8 (ix)
    00002D72 07               [ 4] 7743 	rlca
    00002D73 E6 01            [ 7] 7744 	and	a,#0x01
    00002D75 DD 77 FE         [19] 7745 	ld	-2 (ix), a
    00002D78 B7               [ 4] 7746 	or	a, a
    00002D79 28 21            [12] 7747 	jr	Z, 00225$
    00002D7B DD CB FB 7E      [20] 7748 	bit	7, -5 (ix)
    00002D7F 28 1B            [12] 7749 	jr	Z, 00225$
    00002D81 DD 7E ED         [19] 7750 	ld	a, -19 (ix)
    00002D84 C6 0A            [ 7] 7751 	add	a, #0x0a
    00002D86 DD 77 FD         [19] 7752 	ld	-3 (ix), a
    00002D89 DD 7E EE         [19] 7753 	ld	a, -18 (ix)
    00002D8C CE 00            [ 7] 7754 	adc	a, #0x00
    00002D8E DD 77 FE         [19] 7755 	ld	-2 (ix), a
    00002D91 DD 6E FD         [19] 7756 	ld	l, -3 (ix)
    00002D94 DD 66 FE         [19] 7757 	ld	h, -2 (ix)
    00002D97 36 08            [10] 7758 	ld	(hl), #0x08
    00002D99 C3r6Br2E         [10] 7759 	jp	00230$
    00002D9C                       7760 00225$:
                                   7761 ;E:\Dropbox\FAUSTO\SVILUPPI\MSX\CODE\C\MSXgl\projects\soccerlg/soccerlg_s2_b1.c:1475: else if(dx < 0 && dy > 0) g_Players[i].Direction=DIRECTION_DOWN_LEFT;
    00002D9C DD 7E FE         [19] 7762 	ld	a, -2 (ix)
    00002D9F B7               [ 4] 7763 	or	a, a
    00002DA0 28 21            [12] 7764 	jr	Z, 00221$
    00002DA2 DD 7E FC         [19] 7765 	ld	a, -4 (ix)
    00002DA5 B7               [ 4] 7766 	or	a, a
    00002DA6 28 1B            [12] 7767 	jr	Z, 00221$
    00002DA8 DD 7E ED         [19] 7768 	ld	a, -19 (ix)
    00002DAB C6 0A            [ 7] 7769 	add	a, #0x0a
    00002DAD DD 77 FD         [19] 7770 	ld	-3 (ix), a
    00002DB0 DD 7E EE         [19] 7771 	ld	a, -18 (ix)
    00002DB3 CE 00            [ 7] 7772 	adc	a, #0x00
    00002DB5 DD 77 FE         [19] 7773 	ld	-2 (ix), a
    00002DB8 DD 6E FD         [19] 7774 	ld	l, -3 (ix)
    00002DBB DD 66 FE         [19] 7775 	ld	h, -2 (ix)
    00002DBE 36 06            [10] 7776 	ld	(hl), #0x06
    00002DC0 C3r6Br2E         [10] 7777 	jp	00230$
    00002DC3                       7778 00221$:
                                   7779 ;E:\Dropbox\FAUSTO\SVILUPPI\MSX\CODE\C\MSXgl\projects\soccerlg/soccerlg_s2_b1.c:1476: else if(dx > 0 && dy > 0) g_Players[i].Direction=DIRECTION_DOWN_RIGHT;
    00002DC3 DD 7E F9         [19] 7780 	ld	a, -7 (ix)
    00002DC6 B7               [ 4] 7781 	or	a, a
    00002DC7 28 21            [12] 7782 	jr	Z, 00217$
    00002DC9 DD 7E FC         [19] 7783 	ld	a, -4 (ix)
    00002DCC B7               [ 4] 7784 	or	a, a
    00002DCD 28 1B            [12] 7785 	jr	Z, 00217$
    00002DCF DD 7E ED         [19] 7786 	ld	a, -19 (ix)
    00002DD2 C6 0A            [ 7] 7787 	add	a, #0x0a
    00002DD4 DD 77 FD         [19] 7788 	ld	-3 (ix), a
    00002DD7 DD 7E EE         [19] 7789 	ld	a, -18 (ix)
    00002DDA CE 00            [ 7] 7790 	adc	a, #0x00
    00002DDC DD 77 FE         [19] 7791 	ld	-2 (ix), a
    00002DDF DD 6E FD         [19] 7792 	ld	l, -3 (ix)
    00002DE2 DD 66 FE         [19] 7793 	ld	h, -2 (ix)
    00002DE5 36 04            [10] 7794 	ld	(hl), #0x04
    00002DE7 C3r6Br2E         [10] 7795 	jp	00230$
    00002DEA                       7796 00217$:
                                   7797 ;E:\Dropbox\FAUSTO\SVILUPPI\MSX\CODE\C\MSXgl\projects\soccerlg/soccerlg_s2_b1.c:1477: else if(dy < 0) g_Players[i].Direction=DIRECTION_UP;
    00002DEA DD CB FB 7E      [20] 7798 	bit	7, -5 (ix)
    00002DEE 28 1B            [12] 7799 	jr	Z, 00214$
    00002DF0 DD 7E ED         [19] 7800 	ld	a, -19 (ix)
    00002DF3 C6 0A            [ 7] 7801 	add	a, #0x0a
    00002DF5 DD 77 FD         [19] 7802 	ld	-3 (ix), a
    00002DF8 DD 7E EE         [19] 7803 	ld	a, -18 (ix)
    00002DFB CE 00            [ 7] 7804 	adc	a, #0x00
    00002DFD DD 77 FE         [19] 7805 	ld	-2 (ix), a
    00002E00 DD 6E FD         [19] 7806 	ld	l, -3 (ix)
    00002E03 DD 66 FE         [19] 7807 	ld	h, -2 (ix)
    00002E06 36 01            [10] 7808 	ld	(hl), #0x01
    00002E08 C3r6Br2E         [10] 7809 	jp	00230$
    00002E0B                       7810 00214$:
                                   7811 ;E:\Dropbox\FAUSTO\SVILUPPI\MSX\CODE\C\MSXgl\projects\soccerlg/soccerlg_s2_b1.c:1478: else if(dy > 0) g_Players[i].Direction=DIRECTION_DOWN;
    00002E0B DD 7E FC         [19] 7812 	ld	a, -4 (ix)
    00002E0E B7               [ 4] 7813 	or	a, a
    00002E0F 28 1B            [12] 7814 	jr	Z, 00211$
    00002E11 DD 7E ED         [19] 7815 	ld	a, -19 (ix)
    00002E14 C6 0A            [ 7] 7816 	add	a, #0x0a
    00002E16 DD 77 FD         [19] 7817 	ld	-3 (ix), a
    00002E19 DD 7E EE         [19] 7818 	ld	a, -18 (ix)
    00002E1C CE 00            [ 7] 7819 	adc	a, #0x00
    00002E1E DD 77 FE         [19] 7820 	ld	-2 (ix), a
    00002E21 DD 6E FD         [19] 7821 	ld	l, -3 (ix)
    00002E24 DD 66 FE         [19] 7822 	ld	h, -2 (ix)
    00002E27 36 05            [10] 7823 	ld	(hl), #0x05
    00002E29 C3r6Br2E         [10] 7824 	jp	00230$
    00002E2C                       7825 00211$:
                                   7826 ;E:\Dropbox\FAUSTO\SVILUPPI\MSX\CODE\C\MSXgl\projects\soccerlg/soccerlg_s2_b1.c:1479: else if(dx > 0) g_Players[i].Direction=DIRECTION_RIGHT;
    00002E2C DD 7E F9         [19] 7827 	ld	a, -7 (ix)
    00002E2F B7               [ 4] 7828 	or	a, a
    00002E30 28 1B            [12] 7829 	jr	Z, 00208$
    00002E32 DD 7E ED         [19] 7830 	ld	a, -19 (ix)
    00002E35 C6 0A            [ 7] 7831 	add	a, #0x0a
    00002E37 DD 77 FD         [19] 7832 	ld	-3 (ix), a
    00002E3A DD 7E EE         [19] 7833 	ld	a, -18 (ix)
    00002E3D CE 00            [ 7] 7834 	adc	a, #0x00
    00002E3F DD 77 FE         [19] 7835 	ld	-2 (ix), a
    00002E42 DD 6E FD         [19] 7836 	ld	l, -3 (ix)
    00002E45 DD 66 FE         [19] 7837 	ld	h, -2 (ix)
    00002E48 36 03            [10] 7838 	ld	(hl), #0x03
    00002E4A C3r6Br2E         [10] 7839 	jp	00230$
    00002E4D                       7840 00208$:
                                   7841 ;E:\Dropbox\FAUSTO\SVILUPPI\MSX\CODE\C\MSXgl\projects\soccerlg/soccerlg_s2_b1.c:1480: else if(dx < 0) g_Players[i].Direction=DIRECTION_LEFT;
    00002E4D DD 7E FE         [19] 7842 	ld	a, -2 (ix)
    00002E50 B7               [ 4] 7843 	or	a, a
    00002E51 28 18            [12] 7844 	jr	Z, 00230$
    00002E53 DD 7E ED         [19] 7845 	ld	a, -19 (ix)
    00002E56 C6 0A            [ 7] 7846 	add	a, #0x0a
    00002E58 DD 77 FD         [19] 7847 	ld	-3 (ix), a
    00002E5B DD 7E EE         [19] 7848 	ld	a, -18 (ix)
    00002E5E CE 00            [ 7] 7849 	adc	a, #0x00
    00002E60 DD 77 FE         [19] 7850 	ld	-2 (ix), a
    00002E63 DD 6E FD         [19] 7851 	ld	l, -3 (ix)
    00002E66 DD 66 FE         [19] 7852 	ld	h, -2 (ix)
    00002E69 36 07            [10] 7853 	ld	(hl), #0x07
    00002E6B                       7854 00230$:
                                   7855 ;E:\Dropbox\FAUSTO\SVILUPPI\MSX\CODE\C\MSXgl\projects\soccerlg/soccerlg_s2_b1.c:1483: if(g_Players[i].Y < FIELD_BOUND_Y_TOP) g_Players[i].Y = FIELD_BOUND_Y_TOP;
    00002E6B DD 6E ED         [19] 7856 	ld	l, -19 (ix)
    00002E6E DD 66 EE         [19] 7857 	ld	h, -18 (ix)
    00002E71 4E               [ 7] 7858 	ld	c, (hl)
    00002E72 23               [ 6] 7859 	inc	hl
    00002E73 46               [ 7] 7860 	ld	b, (hl)
    00002E74 79               [ 4] 7861 	ld	a, c
    00002E75 D6 32            [ 7] 7862 	sub	a, #0x32
    00002E77 78               [ 4] 7863 	ld	a, b
    00002E78 DE 00            [ 7] 7864 	sbc	a, #0x00
    00002E7A 30 0B            [12] 7865 	jr	NC, 00233$
    00002E7C DD 6E ED         [19] 7866 	ld	l, -19 (ix)
    00002E7F DD 66 EE         [19] 7867 	ld	h, -18 (ix)
    00002E82 36 32            [10] 7868 	ld	(hl), #0x32
    00002E84 23               [ 6] 7869 	inc	hl
    00002E85 36 00            [10] 7870 	ld	(hl), #0x00
    00002E87                       7871 00233$:
                                   7872 ;E:\Dropbox\FAUSTO\SVILUPPI\MSX\CODE\C\MSXgl\projects\soccerlg/soccerlg_s2_b1.c:1484: if(g_Players[i].Y > FIELD_BOUND_Y_BOTTOM) g_Players[i].Y = FIELD_BOUND_Y_BOTTOM;
    00002E87 DD 6E ED         [19] 7873 	ld	l, -19 (ix)
    00002E8A DD 66 EE         [19] 7874 	ld	h, -18 (ix)
    00002E8D 4E               [ 7] 7875 	ld	c, (hl)
    00002E8E 23               [ 6] 7876 	inc	hl
    00002E8F 46               [ 7] 7877 	ld	b, (hl)
    00002E90 3E B3            [ 7] 7878 	ld	a, #0xb3
    00002E92 B9               [ 4] 7879 	cp	a, c
    00002E93 3E 01            [ 7] 7880 	ld	a, #0x01
    00002E95 98               [ 4] 7881 	sbc	a, b
    00002E96 30 0B            [12] 7882 	jr	NC, 00235$
    00002E98 DD 6E ED         [19] 7883 	ld	l, -19 (ix)
    00002E9B DD 66 EE         [19] 7884 	ld	h, -18 (ix)
    00002E9E 36 B3            [10] 7885 	ld	(hl), #0xb3
    00002EA0 23               [ 6] 7886 	inc	hl
    00002EA1 36 01            [10] 7887 	ld	(hl), #0x01
    00002EA3                       7888 00235$:
                                   7889 ;E:\Dropbox\FAUSTO\SVILUPPI\MSX\CODE\C\MSXgl\projects\soccerlg/soccerlg_s2_b1.c:1485: if(g_Players[i].X < FIELD_BOUND_X_LEFT) g_Players[i].X = FIELD_BOUND_X_LEFT;
    00002EA3 DD 6E EF         [19] 7890 	ld	l, -17 (ix)
    00002EA6 DD 66 F0         [19] 7891 	ld	h, -16 (ix)
    00002EA9 4E               [ 7] 7892 	ld	c, (hl)
    00002EAA 23               [ 6] 7893 	inc	hl
    00002EAB 46               [ 7] 7894 	ld	b, (hl)
    00002EAC 79               [ 4] 7895 	ld	a, c
    00002EAD D6 0A            [ 7] 7896 	sub	a, #0x0a
    00002EAF 78               [ 4] 7897 	ld	a, b
    00002EB0 DE 00            [ 7] 7898 	sbc	a, #0x00
    00002EB2 30 0B            [12] 7899 	jr	NC, 00237$
    00002EB4 DD 6E EF         [19] 7900 	ld	l, -17 (ix)
    00002EB7 DD 66 F0         [19] 7901 	ld	h, -16 (ix)
    00002EBA 36 0A            [10] 7902 	ld	(hl), #0x0a
    00002EBC 23               [ 6] 7903 	inc	hl
    00002EBD 36 00            [10] 7904 	ld	(hl), #0x00
    00002EBF                       7905 00237$:
                                   7906 ;E:\Dropbox\FAUSTO\SVILUPPI\MSX\CODE\C\MSXgl\projects\soccerlg/soccerlg_s2_b1.c:1486: if(g_Players[i].X > FIELD_BOUND_X_RIGHT) g_Players[i].X = FIELD_BOUND_X_RIGHT;
    00002EBF DD 6E EF         [19] 7907 	ld	l, -17 (ix)
    00002EC2 DD 66 F0         [19] 7908 	ld	h, -16 (ix)
    00002EC5 4E               [ 7] 7909 	ld	c, (hl)
    00002EC6 23               [ 6] 7910 	inc	hl
    00002EC7 46               [ 7] 7911 	ld	b, (hl)
    00002EC8 3E EC            [ 7] 7912 	ld	a, #0xec
    00002ECA B9               [ 4] 7913 	cp	a, c
    00002ECB 3E 00            [ 7] 7914 	ld	a, #0x00
    00002ECD 98               [ 4] 7915 	sbc	a, b
    00002ECE 30 0B            [12] 7916 	jr	NC, 00241$
    00002ED0 DD 6E EF         [19] 7917 	ld	l, -17 (ix)
    00002ED3 DD 66 F0         [19] 7918 	ld	h, -16 (ix)
    00002ED6 36 EC            [10] 7919 	ld	(hl), #0xec
    00002ED8 23               [ 6] 7920 	inc	hl
    00002ED9 36 00            [10] 7921 	ld	(hl), #0x00
    00002EDB                       7922 00241$:
                                   7923 ;E:\Dropbox\FAUSTO\SVILUPPI\MSX\CODE\C\MSXgl\projects\soccerlg/soccerlg_s2_b1.c:1344: if (g_MatchStatus == MATCH_IN_ACTION && g_Players[i].Role == PLAYER_ROLE_GOALKEEPER) {
    00002EDB 3Ar00r00         [13] 7924 	ld	a, (_g_MatchStatus+0)
    00002EDE D6 0C            [ 7] 7925 	sub	a, #0x0c
    00002EE0 3E 01            [ 7] 7926 	ld	a, #0x01
    00002EE2 28 01            [12] 7927 	jr	Z, 00914$
    00002EE4 AF               [ 4] 7928 	xor	a, a
    00002EE5                       7929 00914$:
                                   7930 ;E:\Dropbox\FAUSTO\SVILUPPI\MSX\CODE\C\MSXgl\projects\soccerlg/soccerlg_s2_b1.c:1490: if (g_MatchStatus == MATCH_IN_ACTION || (isSetPieceSetup && g_Ball.PossessionPlayerId == i)) {
    00002EE5 47               [ 4] 7931 	ld	b, a
    00002EE6 B7               [ 4] 7932 	or	a, a
    00002EE7 20 0F            [12] 7933 	jr	NZ, 00254$
    00002EE9 DD 7E EC         [19] 7934 	ld	a, -20 (ix)
    00002EEC B7               [ 4] 7935 	or	a, a
    00002EED 28 42            [12] 7936 	jr	Z, 00255$
    00002EEF 21r06r00         [10] 7937 	ld	hl, #(_g_Ball + 6)
    00002EF2 DD 7E FF         [19] 7938 	ld	a,-1 (ix)
    00002EF5 96               [ 7] 7939 	sub	a,(hl)
    00002EF6 20 39            [12] 7940 	jr	NZ, 00255$
    00002EF8                       7941 00254$:
                                   7942 ;E:\Dropbox\FAUSTO\SVILUPPI\MSX\CODE\C\MSXgl\projects\soccerlg/soccerlg_s2_b1.c:1491: if (g_Ball.PossessionPlayerId == i) {
    00002EF8 21r06r00         [10] 7943 	ld	hl, #(_g_Ball + 6)
    00002EFB DD 7E FF         [19] 7944 	ld	a,-1 (ix)
    00002EFE 96               [ 7] 7945 	sub	a,(hl)
    00002EFF 20 30            [12] 7946 	jr	NZ, 00255$
                                   7947 ;E:\Dropbox\FAUSTO\SVILUPPI\MSX\CODE\C\MSXgl\projects\soccerlg/soccerlg_s2_b1.c:1494: if (g_Ball.KickMoveState == NO_VALUE) g_Ball.KickMoveState = 0;
    00002F01 11r0Dr00         [10] 7948 	ld	de, #_g_Ball + 13
                                   7949 ;E:\Dropbox\FAUSTO\SVILUPPI\MSX\CODE\C\MSXgl\projects\soccerlg/soccerlg_s2_b1.c:1493: if (!playerInPosition && g_MatchStatus == MATCH_IN_ACTION) {
    00002F04 DD 7E F1         [19] 7950 	ld	a, -15 (ix)
    00002F07 B7               [ 4] 7951 	or	a,a
    00002F08 20 1F            [12] 7952 	jr	NZ, 00249$
    00002F0A B0               [ 4] 7953 	or	a,b
    00002F0B 28 1C            [12] 7954 	jr	Z, 00249$
                                   7955 ;E:\Dropbox\FAUSTO\SVILUPPI\MSX\CODE\C\MSXgl\projects\soccerlg/soccerlg_s2_b1.c:1494: if (g_Ball.KickMoveState == NO_VALUE) g_Ball.KickMoveState = 0;
    00002F0D 1A               [ 7] 7956 	ld	a, (de)
    00002F0E 3C               [ 4] 7957 	inc	a
    00002F0F 20 01            [12] 7958 	jr	NZ, 00243$
    00002F11 12               [ 7] 7959 	ld	(de), a
    00002F12                       7960 00243$:
                                   7961 ;E:\Dropbox\FAUSTO\SVILUPPI\MSX\CODE\C\MSXgl\projects\soccerlg/soccerlg_s2_b1.c:1495: g_Ball.KickMoveState++;
    00002F12 1A               [ 7] 7962 	ld	a, (de)
    00002F13 3C               [ 4] 7963 	inc	a
    00002F14 4F               [ 4] 7964 	ld	c, a
    00002F15 12               [ 7] 7965 	ld	(de), a
                                   7966 ;E:\Dropbox\FAUSTO\SVILUPPI\MSX\CODE\C\MSXgl\projects\soccerlg/soccerlg_s2_b1.c:1496: if (g_Ball.KickMoveState > 3) g_Ball.KickMoveState = 0;
    00002F16 3E 03            [ 7] 7967 	ld	a, #0x03
    00002F18 91               [ 4] 7968 	sub	a, c
    00002F19 30 02            [12] 7969 	jr	NC, 00245$
    00002F1B AF               [ 4] 7970 	xor	a, a
    00002F1C 12               [ 7] 7971 	ld	(de), a
    00002F1D                       7972 00245$:
                                   7973 ;E:\Dropbox\FAUSTO\SVILUPPI\MSX\CODE\C\MSXgl\projects\soccerlg/soccerlg_s2_b1.c:1497: if (g_Ball.KickMoveState == 1) PlayAyFx(AYFX_BALL);
    00002F1D 1A               [ 7] 7974 	ld	a, (de)
    00002F1E 3D               [ 4] 7975 	dec	a
    00002F1F 20 0A            [12] 7976 	jr	NZ, 00250$
    00002F21 3E 05            [ 7] 7977 	ld	a, #0x05
    00002F23 CDr00r00         [17] 7978 	call	_PlayAyFx
    00002F26 C3r2Br2F         [10] 7979 	jp	00250$
    00002F29                       7980 00249$:
                                   7981 ;E:\Dropbox\FAUSTO\SVILUPPI\MSX\CODE\C\MSXgl\projects\soccerlg/soccerlg_s2_b1.c:1499: g_Ball.KickMoveState = 0;
    00002F29 AF               [ 4] 7982 	xor	a, a
    00002F2A 12               [ 7] 7983 	ld	(de), a
    00002F2B                       7984 00250$:
                                   7985 ;E:\Dropbox\FAUSTO\SVILUPPI\MSX\CODE\C\MSXgl\projects\soccerlg/soccerlg_s2_b1.c:1501: PutBallOnPlayerFeet(i);
    00002F2B DD 7E FF         [19] 7986 	ld	a, -1 (ix)
    00002F2E CDr05r0B         [17] 7987 	call	_PutBallOnPlayerFeet
    00002F31                       7988 00255$:
                                   7989 ;E:\Dropbox\FAUSTO\SVILUPPI\MSX\CODE\C\MSXgl\projects\soccerlg/soccerlg_s2_b1.c:1505: if (playerInPosition) {
    00002F31 DD 7E F1         [19] 7990 	ld	a, -15 (ix)
    00002F34 B7               [ 4] 7991 	or	a, a
    00002F35 CArA8r30         [10] 7992 	jp	Z, 00297$
                                   7993 ;E:\Dropbox\FAUSTO\SVILUPPI\MSX\CODE\C\MSXgl\projects\soccerlg/soccerlg_s2_b1.c:1506: if (g_MatchStatus == MATCH_BEFORE_CORNER_KICK || g_MatchStatus == MATCH_BEFORE_GOAL_KICK || 
    00002F38 3Ar00r00         [13] 7994 	ld	a,(_g_MatchStatus+0)
    00002F3B FE 02            [ 7] 7995 	cp	a,#0x02
    00002F3D 28 0C            [12] 7996 	jr	Z, 00268$
                                   7997 ;E:\Dropbox\FAUSTO\SVILUPPI\MSX\CODE\C\MSXgl\projects\soccerlg/soccerlg_s2_b1.c:1507: g_MatchStatus == MATCH_BEFORE_OFFSIDE || g_MatchStatus == MATCH_BEFORE_THROW_IN) {
    00002F3F FE 05            [ 7] 7998 	cp	a,#0x05
    00002F41 28 08            [12] 7999 	jr	Z, 00268$
    00002F43 FE 0E            [ 7] 8000 	cp	a,#0x0e
    00002F45 28 04            [12] 8001 	jr	Z, 00268$
    00002F47 D6 03            [ 7] 8002 	sub	a, #0x03
    00002F49 20 6A            [12] 8003 	jr	NZ, 00269$
    00002F4B                       8004 00268$:
                                   8005 ;E:\Dropbox\FAUSTO\SVILUPPI\MSX\CODE\C\MSXgl\projects\soccerlg/soccerlg_s2_b1.c:1508: if (g_Players[i].Status != PLAYER_STATUS_POSITIONED) {
    00002F4B DD 6E ED         [19] 8006 	ld	l, -19 (ix)
    00002F4E DD 66 EE         [19] 8007 	ld	h, -18 (ix)
    00002F51 11 12 00         [10] 8008 	ld	de, #0x0012
    00002F54 19               [11] 8009 	add	hl, de
    00002F55 4E               [ 7] 8010 	ld	c, (hl)
    00002F56 23               [ 6] 8011 	inc	hl
    00002F57 46               [ 7] 8012 	ld	b, (hl)
    00002F58 2B               [ 6] 8013 	dec	hl
    00002F59 79               [ 4] 8014 	ld	a, c
    00002F5A D6 04            [ 7] 8015 	sub	a, #0x04
    00002F5C B0               [ 4] 8016 	or	a, b
    00002F5D 28 56            [12] 8017 	jr	Z, 00269$
                                   8018 ;E:\Dropbox\FAUSTO\SVILUPPI\MSX\CODE\C\MSXgl\projects\soccerlg/soccerlg_s2_b1.c:1509: g_Players[i].Status = PLAYER_STATUS_POSITIONED;
    00002F5F 36 04            [10] 8019 	ld	(hl), #0x04
    00002F61 23               [ 6] 8020 	inc	hl
    00002F62 36 00            [10] 8021 	ld	(hl), #0x00
                                   8022 ;E:\Dropbox\FAUSTO\SVILUPPI\MSX\CODE\C\MSXgl\projects\soccerlg/soccerlg_s2_b1.c:1510: g_Players[i].Direction = DIRECTION_NONE;
    00002F64 DD 6E ED         [19] 8023 	ld	l, -19 (ix)
    00002F67 DD 66 EE         [19] 8024 	ld	h, -18 (ix)
    00002F6A 11 0A 00         [10] 8025 	ld	de, #0x000a
    00002F6D 19               [11] 8026 	add	hl, de
    00002F6E 36 00            [10] 8027 	ld	(hl), #0x00
                                   8028 ;E:\Dropbox\FAUSTO\SVILUPPI\MSX\CODE\C\MSXgl\projects\soccerlg/soccerlg_s2_b1.c:1511: u8 useDir = g_Players[i].PreviousDirection;
    00002F70 DD 4E ED         [19] 8029 	ld	c, -19 (ix)
    00002F73 DD 46 EE         [19] 8030 	ld	b, -18 (ix)
    00002F76 21 0B 00         [10] 8031 	ld	hl, #11
    00002F79 09               [11] 8032 	add	hl, bc
    00002F7A 7E               [ 7] 8033 	ld	a, (hl)
    00002F7B 4F               [ 4] 8034 	ld	c, a
                                   8035 ;E:\Dropbox\FAUSTO\SVILUPPI\MSX\CODE\C\MSXgl\projects\soccerlg/soccerlg_s2_b1.c:1512: if (useDir == DIRECTION_NONE) {
    00002F7C B7               [ 4] 8036 	or	a, a
    00002F7D 20 1E            [12] 8037 	jr	NZ, 00265$
                                   8038 ;E:\Dropbox\FAUSTO\SVILUPPI\MSX\CODE\C\MSXgl\projects\soccerlg/soccerlg_s2_b1.c:1514: if(g_MatchStatus == MATCH_BEFORE_THROW_IN) {
    00002F7F 3Ar00r00         [13] 8039 	ld	a, (_g_MatchStatus+0)
    00002F82 D6 03            [ 7] 8040 	sub	a, #0x03
    00002F84 20 15            [12] 8041 	jr	NZ, 00262$
                                   8042 ;E:\Dropbox\FAUSTO\SVILUPPI\MSX\CODE\C\MSXgl\projects\soccerlg/soccerlg_s2_b1.c:1516: if(g_Ball.X < 128) useDir = DIRECTION_RIGHT; else useDir = DIRECTION_LEFT;
    00002F86 2Ar02r00         [16] 8043 	ld	hl, (#_g_Ball + 2)
    00002F89 11 80 00         [10] 8044 	ld	de, #0x0080
    00002F8C BF               [ 4] 8045 	cp	a, a
    00002F8D ED 52            [15] 8046 	sbc	hl, de
    00002F8F 30 05            [12] 8047 	jr	NC, 00259$
    00002F91 0E 03            [ 7] 8048 	ld	c, #0x03
    00002F93 C3r9Dr2F         [10] 8049 	jp	00265$
    00002F96                       8050 00259$:
    00002F96 0E 07            [ 7] 8051 	ld	c, #0x07
    00002F98 C3r9Dr2F         [10] 8052 	jp	00265$
    00002F9B                       8053 00262$:
                                   8054 ;E:\Dropbox\FAUSTO\SVILUPPI\MSX\CODE\C\MSXgl\projects\soccerlg/soccerlg_s2_b1.c:1518: useDir = DIRECTION_DOWN; 
    00002F9B 0E 05            [ 7] 8055 	ld	c, #0x05
    00002F9D                       8056 00265$:
                                   8057 ;E:\Dropbox\FAUSTO\SVILUPPI\MSX\CODE\C\MSXgl\projects\soccerlg/soccerlg_s2_b1.c:1521: g_Players[i].PatternId =Trampoline_U8_P1(4,GetNoMovingPlayerPatternId,useDir);
    00002F9D DD 6E ED         [19] 8058 	ld	l, -19 (ix)
    00002FA0 DD 66 EE         [19] 8059 	ld	h, -18 (ix)
    00002FA3 11 08 00         [10] 8060 	ld	de, #0x0008
    00002FA6 19               [11] 8061 	add	hl, de
    00002FA7 E5               [11] 8062 	push	hl
    00002FA8 79               [ 4] 8063 	ld	a, c
    00002FA9 F5               [11] 8064 	push	af
    00002FAA 33               [ 6] 8065 	inc	sp
    00002FAB 11r00r00         [10] 8066 	ld	de, #_GetNoMovingPlayerPatternId
    00002FAE 3E 04            [ 7] 8067 	ld	a, #0x04
    00002FB0 CDr00r00         [17] 8068 	call	_Trampoline_U8_P1
    00002FB3 E1               [10] 8069 	pop	hl
    00002FB4 77               [ 7] 8070 	ld	(hl), a
    00002FB5                       8071 00269$:
                                   8072 ;E:\Dropbox\FAUSTO\SVILUPPI\MSX\CODE\C\MSXgl\projects\soccerlg/soccerlg_s2_b1.c:1525: if(g_MatchStatus==MATCH_IN_ACTION){
    00002FB5 3Ar00r00         [13] 8073 	ld	a, (_g_MatchStatus+0)
    00002FB8 D6 0C            [ 7] 8074 	sub	a, #0x0c
    00002FBA 20 0F            [12] 8075 	jr	NZ, 00274$
                                   8076 ;E:\Dropbox\FAUSTO\SVILUPPI\MSX\CODE\C\MSXgl\projects\soccerlg/soccerlg_s2_b1.c:1526: g_Players[i].Status=PLAYER_STATUS_POSITIONED;
    00002FBC DD 6E ED         [19] 8077 	ld	l, -19 (ix)
    00002FBF DD 66 EE         [19] 8078 	ld	h, -18 (ix)
    00002FC2 11 12 00         [10] 8079 	ld	de, #0x0012
    00002FC5 19               [11] 8080 	add	hl, de
    00002FC6 36 04            [10] 8081 	ld	(hl), #0x04
    00002FC8 23               [ 6] 8082 	inc	hl
    00002FC9 36 00            [10] 8083 	ld	(hl), #0x00
    00002FCB                       8084 00274$:
                                   8085 ;E:\Dropbox\FAUSTO\SVILUPPI\MSX\CODE\C\MSXgl\projects\soccerlg/soccerlg_s2_b1.c:1529: if (g_Players[i].TeamId == REFEREE) {
    00002FCB DD 7E ED         [19] 8086 	ld	a, -19 (ix)
    00002FCE C6 09            [ 7] 8087 	add	a, #0x09
    00002FD0 DD 77 FD         [19] 8088 	ld	-3 (ix), a
    00002FD3 DD 7E EE         [19] 8089 	ld	a, -18 (ix)
    00002FD6 CE 00            [ 7] 8090 	adc	a, #0x00
    00002FD8 DD 77 FE         [19] 8091 	ld	-2 (ix), a
    00002FDB DD 6E FD         [19] 8092 	ld	l, -3 (ix)
    00002FDE DD 66 FE         [19] 8093 	ld	h, -2 (ix)
    00002FE1 7E               [ 7] 8094 	ld	a, (hl)
    00002FE2 D6 0E            [ 7] 8095 	sub	a, #0x0e
    00002FE4 20 3A            [12] 8096 	jr	NZ, 00279$
                                   8097 ;E:\Dropbox\FAUSTO\SVILUPPI\MSX\CODE\C\MSXgl\projects\soccerlg/soccerlg_s2_b1.c:1530: if(g_MatchStatus == MATCH_BEFORE_KICK_OFF || g_MatchStatus == MATCH_AFTER_IN_GOAL) {
    00002FE6 3Ar00r00         [13] 8098 	ld	a, (_g_MatchStatus+0)
    00002FE9 3D               [ 4] 8099 	dec	a
    00002FEA 28 07            [12] 8100 	jr	Z, 00275$
    00002FEC 3Ar00r00         [13] 8101 	ld	a, (_g_MatchStatus+0)
    00002FEF D6 06            [ 7] 8102 	sub	a, #0x06
    00002FF1 20 2D            [12] 8103 	jr	NZ, 00279$
    00002FF3                       8104 00275$:
                                   8105 ;E:\Dropbox\FAUSTO\SVILUPPI\MSX\CODE\C\MSXgl\projects\soccerlg/soccerlg_s2_b1.c:1531: g_Players[i].Direction = DIRECTION_DOWN;
    00002FF3 DD 6E ED         [19] 8106 	ld	l, -19 (ix)
    00002FF6 DD 66 EE         [19] 8107 	ld	h, -18 (ix)
    00002FF9 11 0A 00         [10] 8108 	ld	de, #0x000a
    00002FFC 19               [11] 8109 	add	hl, de
    00002FFD 36 05            [10] 8110 	ld	(hl), #0x05
                                   8111 ;E:\Dropbox\FAUSTO\SVILUPPI\MSX\CODE\C\MSXgl\projects\soccerlg/soccerlg_s2_b1.c:1532: g_Players[i].PatternId = PLAYER_POSE_FRONT;
    00002FFF DD 6E ED         [19] 8112 	ld	l, -19 (ix)
    00003002 DD 66 EE         [19] 8113 	ld	h, -18 (ix)
    00003005 11 08 00         [10] 8114 	ld	de, #0x0008
    00003008 19               [11] 8115 	add	hl, de
    00003009 36 10            [10] 8116 	ld	(hl), #0x10
                                   8117 ;E:\Dropbox\FAUSTO\SVILUPPI\MSX\CODE\C\MSXgl\projects\soccerlg/soccerlg_s2_b1.c:1533: g_Players[i].Status = PLAYER_STATUS_POSITIONED;
    0000300B DD 6E ED         [19] 8118 	ld	l, -19 (ix)
    0000300E DD 66 EE         [19] 8119 	ld	h, -18 (ix)
    00003011 11 12 00         [10] 8120 	ld	de, #0x0012
    00003014 19               [11] 8121 	add	hl, de
    00003015 36 04            [10] 8122 	ld	(hl), #0x04
    00003017 23               [ 6] 8123 	inc	hl
    00003018 36 00            [10] 8124 	ld	(hl), #0x00
                                   8125 ;E:\Dropbox\FAUSTO\SVILUPPI\MSX\CODE\C\MSXgl\projects\soccerlg/soccerlg_s2_b1.c:1534: PutPlayerSprite(i);
    0000301A DD 7E FF         [19] 8126 	ld	a, -1 (ix)
    0000301D CDrE6r30         [17] 8127 	call	_PutPlayerSprite
    00003020                       8128 00279$:
                                   8129 ;E:\Dropbox\FAUSTO\SVILUPPI\MSX\CODE\C\MSXgl\projects\soccerlg/soccerlg_s2_b1.c:1540: if(g_MatchStatus==MATCH_BEFORE_KICK_OFF){
    00003020 3Ar00r00         [13] 8130 	ld	a, (_g_MatchStatus+0)
    00003023 3D               [ 4] 8131 	dec	a
    00003024 C2rA8r30         [10] 8132 	jp	NZ,00297$
                                   8133 ;E:\Dropbox\FAUSTO\SVILUPPI\MSX\CODE\C\MSXgl\projects\soccerlg/soccerlg_s2_b1.c:1542: if(g_Players[i].TeamId!=REFEREE && g_Players[i].PatternId!=PLAYER_POSE_BACK && g_Players[i].PatternId!=PLAYER_POSE_FRONT){
    00003027 DD 6E FD         [19] 8134 	ld	l, -3 (ix)
    0000302A DD 66 FE         [19] 8135 	ld	h, -2 (ix)
    0000302D 7E               [ 7] 8136 	ld	a, (hl)
    0000302E D6 0E            [ 7] 8137 	sub	a, #0x0e
    00003030 28 76            [12] 8138 	jr	Z, 00297$
    00003032 DD 7E ED         [19] 8139 	ld	a, -19 (ix)
    00003035 C6 08            [ 7] 8140 	add	a, #0x08
    00003037 4F               [ 4] 8141 	ld	c, a
    00003038 DD 7E EE         [19] 8142 	ld	a, -18 (ix)
    0000303B CE 00            [ 7] 8143 	adc	a, #0x00
    0000303D 47               [ 4] 8144 	ld	b, a
    0000303E 0A               [ 7] 8145 	ld	a, (bc)
    0000303F FE 11            [ 7] 8146 	cp	a, #0x11
    00003041 28 65            [12] 8147 	jr	Z, 00297$
    00003043 D6 10            [ 7] 8148 	sub	a, #0x10
    00003045 28 61            [12] 8149 	jr	Z, 00297$
                                   8150 ;E:\Dropbox\FAUSTO\SVILUPPI\MSX\CODE\C\MSXgl\projects\soccerlg/soccerlg_s2_b1.c:1543: g_Players[i].Status=PLAYER_STATUS_POSITIONED;
    00003047 DD 6E ED         [19] 8151 	ld	l, -19 (ix)
    0000304A DD 66 EE         [19] 8152 	ld	h, -18 (ix)
    0000304D 11 12 00         [10] 8153 	ld	de, #0x0012
    00003050 19               [11] 8154 	add	hl, de
    00003051 36 04            [10] 8155 	ld	(hl), #0x04
    00003053 23               [ 6] 8156 	inc	hl
    00003054 36 00            [10] 8157 	ld	(hl), #0x00
                                   8158 ;E:\Dropbox\FAUSTO\SVILUPPI\MSX\CODE\C\MSXgl\projects\soccerlg/soccerlg_s2_b1.c:1473: if(dx > 0 && dy < 0) g_Players[i].Direction=DIRECTION_UP_RIGHT;
    00003056 DD 7E ED         [19] 8159 	ld	a, -19 (ix)
    00003059 C6 0A            [ 7] 8160 	add	a, #0x0a
    0000305B 5F               [ 4] 8161 	ld	e, a
    0000305C DD 7E EE         [19] 8162 	ld	a, -18 (ix)
    0000305F CE 00            [ 7] 8163 	adc	a, #0x00
    00003061 57               [ 4] 8164 	ld	d, a
                                   8165 ;E:\Dropbox\FAUSTO\SVILUPPI\MSX\CODE\C\MSXgl\projects\soccerlg/soccerlg_s2_b1.c:1529: if (g_Players[i].TeamId == REFEREE) {
    00003062 DD 6E FD         [19] 8166 	ld	l, -3 (ix)
    00003065 DD 66 FE         [19] 8167 	ld	h, -2 (ix)
    00003068 7E               [ 7] 8168 	ld	a, (hl)
                                   8169 ;E:\Dropbox\FAUSTO\SVILUPPI\MSX\CODE\C\MSXgl\projects\soccerlg/soccerlg_s2_b1.c:1545: if(g_Players[i].TeamId==TEAM_1){
    00003069 3D               [ 4] 8170 	dec	a
    0000306A 3E 01            [ 7] 8171 	ld	a, #0x01
    0000306C 28 01            [12] 8172 	jr	Z, 00944$
    0000306E AF               [ 4] 8173 	xor	a, a
    0000306F                       8174 00944$:
    0000306F DD 77 FE         [19] 8175 	ld	-2 (ix), a
                                   8176 ;E:\Dropbox\FAUSTO\SVILUPPI\MSX\CODE\C\MSXgl\projects\soccerlg/soccerlg_s2_b1.c:1544: if (i != g_GoalScorerId) {
    00003072 DD 7E FF         [19] 8177 	ld	a, -1 (ix)
    00003075 21r00r00         [10] 8178 	ld	hl, #_g_GoalScorerId
    00003078 96               [ 7] 8179 	sub	a, (hl)
    00003079 28 18            [12] 8180 	jr	Z, 00287$
                                   8181 ;E:\Dropbox\FAUSTO\SVILUPPI\MSX\CODE\C\MSXgl\projects\soccerlg/soccerlg_s2_b1.c:1545: if(g_Players[i].TeamId==TEAM_1){
    0000307B DD 7E FE         [19] 8182 	ld	a, -2 (ix)
    0000307E B7               [ 4] 8183 	or	a, a
    0000307F 28 09            [12] 8184 	jr	Z, 00281$
                                   8185 ;E:\Dropbox\FAUSTO\SVILUPPI\MSX\CODE\C\MSXgl\projects\soccerlg/soccerlg_s2_b1.c:1546: g_Players[i].PatternId=PLAYER_POSE_BACK;
    00003081 3E 11            [ 7] 8186 	ld	a, #0x11
    00003083 02               [ 7] 8187 	ld	(bc), a
                                   8188 ;E:\Dropbox\FAUSTO\SVILUPPI\MSX\CODE\C\MSXgl\projects\soccerlg/soccerlg_s2_b1.c:1547: g_Players[i].Direction=DIRECTION_UP;
    00003084 3E 01            [ 7] 8189 	ld	a, #0x01
    00003086 12               [ 7] 8190 	ld	(de), a
    00003087 C3rA2r30         [10] 8191 	jp	00288$
    0000308A                       8192 00281$:
                                   8193 ;E:\Dropbox\FAUSTO\SVILUPPI\MSX\CODE\C\MSXgl\projects\soccerlg/soccerlg_s2_b1.c:1550: g_Players[i].PatternId=PLAYER_POSE_FRONT;
    0000308A 3E 10            [ 7] 8194 	ld	a, #0x10
    0000308C 02               [ 7] 8195 	ld	(bc), a
                                   8196 ;E:\Dropbox\FAUSTO\SVILUPPI\MSX\CODE\C\MSXgl\projects\soccerlg/soccerlg_s2_b1.c:1551: g_Players[i].Direction=DIRECTION_DOWN;
    0000308D 3E 05            [ 7] 8197 	ld	a, #0x05
    0000308F 12               [ 7] 8198 	ld	(de), a
    00003090 C3rA2r30         [10] 8199 	jp	00288$
    00003093                       8200 00287$:
                                   8201 ;E:\Dropbox\FAUSTO\SVILUPPI\MSX\CODE\C\MSXgl\projects\soccerlg/soccerlg_s2_b1.c:1554: if(g_Players[i].TeamId==TEAM_1) g_Players[i].Direction=DIRECTION_UP;
    00003093 DD 7E FE         [19] 8202 	ld	a, -2 (ix)
    00003096 B7               [ 4] 8203 	or	a, a
    00003097 28 06            [12] 8204 	jr	Z, 00284$
    00003099 3E 01            [ 7] 8205 	ld	a, #0x01
    0000309B 12               [ 7] 8206 	ld	(de), a
    0000309C C3rA2r30         [10] 8207 	jp	00288$
    0000309F                       8208 00284$:
                                   8209 ;E:\Dropbox\FAUSTO\SVILUPPI\MSX\CODE\C\MSXgl\projects\soccerlg/soccerlg_s2_b1.c:1555: else g_Players[i].Direction=DIRECTION_DOWN;
    0000309F 3E 05            [ 7] 8210 	ld	a, #0x05
    000030A1 12               [ 7] 8211 	ld	(de), a
    000030A2                       8212 00288$:
                                   8213 ;E:\Dropbox\FAUSTO\SVILUPPI\MSX\CODE\C\MSXgl\projects\soccerlg/soccerlg_s2_b1.c:1557: PutPlayerSprite(i);
    000030A2 DD 7E FF         [19] 8214 	ld	a, -1 (ix)
    000030A5 CDrE6r30         [17] 8215 	call	_PutPlayerSprite
    000030A8                       8216 00297$:
                                   8217 ;E:\Dropbox\FAUSTO\SVILUPPI\MSX\CODE\C\MSXgl\projects\soccerlg/soccerlg_s2_b1.c:1343: for(u8 i=0;i<15;i++){
    000030A8 DD 34 FF         [23] 8218 	inc	-1 (ix)
    000030AB C3rA8r26         [10] 8219 	jp	00306$
    000030AE                       8220 00298$:
                                   8221 ;E:\Dropbox\FAUSTO\SVILUPPI\MSX\CODE\C\MSXgl\projects\soccerlg/soccerlg_s2_b1.c:1564: if(g_MatchStatus==MATCH_BEFORE_KICK_OFF && allPlayersInPosition && g_FieldScrollingActionInProgress==NO_VALUE){
    000030AE 3Ar00r00         [13] 8222 	ld	a, (_g_MatchStatus+0)
    000030B1 3D               [ 4] 8223 	dec	a
    000030B2 20 2D            [12] 8224 	jr	NZ, 00307$
    000030B4 DD 7E EB         [19] 8225 	ld	a, -21 (ix)
    000030B7 B7               [ 4] 8226 	or	a, a
    000030B8 28 27            [12] 8227 	jr	Z, 00307$
    000030BA 3Ar00r00         [13] 8228 	ld	a, (_g_FieldScrollingActionInProgress+0)
    000030BD 3C               [ 4] 8229 	inc	a
    000030BE 20 21            [12] 8230 	jr	NZ, 00307$
                                   8231 ;E:\Dropbox\FAUSTO\SVILUPPI\MSX\CODE\C\MSXgl\projects\soccerlg/soccerlg_s2_b1.c:1566: g_Ball.Size=1;
    000030C0 21r04r00         [10] 8232 	ld	hl, #(_g_Ball + 4)
    000030C3 36 01            [10] 8233 	ld	(hl), #0x01
                                   8234 ;E:\Dropbox\FAUSTO\SVILUPPI\MSX\CODE\C\MSXgl\projects\soccerlg/soccerlg_s2_b1.c:1567: VGM_Stop();
    000030C5 CDr00r00         [17] 8235 	call	_VGM_Stop
                                   8236 ;E:\Dropbox\FAUSTO\SVILUPPI\MSX\CODE\C\MSXgl\projects\soccerlg/soccerlg_s2_b1.c:1568: g_FieldScrollSpeed=FIELD_SCROLL_GAME_SPEED;
    000030C8 21r00r00         [10] 8237 	ld	hl, #_g_FieldScrollSpeed
    000030CB 36 05            [10] 8238 	ld	(hl), #0x05
                                   8239 ;E:\Dropbox\FAUSTO\SVILUPPI\MSX\CODE\C\MSXgl\projects\soccerlg/soccerlg_s2_b1.c:1569: g_MatchStatus=MATCH_KICK_OFF;
    000030CD 21r00r00         [10] 8240 	ld	hl, #_g_MatchStatus
    000030D0 36 07            [10] 8241 	ld	(hl), #0x07
                                   8242 ;E:\Dropbox\FAUSTO\SVILUPPI\MSX\CODE\C\MSXgl\projects\soccerlg/soccerlg_s2_b1.c:1571: g_Timer=0;
    000030D2 21r00r00         [10] 8243 	ld	hl, #_g_Timer
    000030D5 36 00            [10] 8244 	ld	(hl), #0x00
                                   8245 ;E:\Dropbox\FAUSTO\SVILUPPI\MSX\CODE\C\MSXgl\projects\soccerlg/soccerlg_s2_b1.c:1572: g_TimerActive=TRUE;
    000030D7 21r00r00         [10] 8246 	ld	hl, #_g_TimerActive
    000030DA 36 01            [10] 8247 	ld	(hl), #0x01
                                   8248 ;E:\Dropbox\FAUSTO\SVILUPPI\MSX\CODE\C\MSXgl\projects\soccerlg/soccerlg_s2_b1.c:1573: g_GoalScorerId = NO_VALUE; 
    000030DC 21r00r00         [10] 8249 	ld	hl, #_g_GoalScorerId
    000030DF 36 FF            [10] 8250 	ld	(hl), #0xff
    000030E1                       8251 00307$:
                                   8252 ;E:\Dropbox\FAUSTO\SVILUPPI\MSX\CODE\C\MSXgl\projects\soccerlg/soccerlg_s2_b1.c:1577: }
    000030E1 DD F9            [10] 8253 	ld	sp, ix
    000030E3 DD E1            [14] 8254 	pop	ix
    000030E5 C9               [10] 8255 	ret
                                   8256 ;E:\Dropbox\FAUSTO\SVILUPPI\MSX\CODE\C\MSXgl\projects\soccerlg/soccerlg_s2_b1.c:1579: void PutPlayerSprite(u8 playerId){
                                   8257 ;	---------------------------------
                                   8258 ; Function PutPlayerSprite
                                   8259 ; ---------------------------------
    000030E6                       8260 _PutPlayerSprite::
    000030E6 DD E5            [15] 8261 	push	ix
    000030E8 DD 21 00 00      [14] 8262 	ld	ix,#0
    000030EC DD 39            [15] 8263 	add	ix,sp
    000030EE 21 EE FF         [10] 8264 	ld	hl, #-18
    000030F1 39               [11] 8265 	add	hl, sp
    000030F2 F9               [ 6] 8266 	ld	sp, hl
    000030F3 4F               [ 4] 8267 	ld	c, a
                                   8268 ;E:\Dropbox\FAUSTO\SVILUPPI\MSX\CODE\C\MSXgl\projects\soccerlg/soccerlg_s2_b1.c:1581: attr.D=0;
    000030F4 21 03 00         [10] 8269 	ld	hl, #3
    000030F7 39               [11] 8270 	add	hl, sp
    000030F8 CB A6            [15] 8271 	res	4, (hl)
                                   8272 ;E:\Dropbox\FAUSTO\SVILUPPI\MSX\CODE\C\MSXgl\projects\soccerlg/soccerlg_s2_b1.c:1582: attr.SC=2;
    000030FA 21 03 00         [10] 8273 	ld	hl, #3
    000030FD 39               [11] 8274 	add	hl, sp
    000030FE 7E               [ 7] 8275 	ld	a, (hl)
    000030FF E6 3F            [ 7] 8276 	and	a, #0x3f
    00003101 F6 80            [ 7] 8277 	or	a, #0x80
    00003103 77               [ 7] 8278 	ld	(hl), a
                                   8279 ;E:\Dropbox\FAUSTO\SVILUPPI\MSX\CODE\C\MSXgl\projects\soccerlg/soccerlg_s2_b1.c:1583: u16 minY = (g_FieldCurrentYPosition > 32) ? (u16)(g_FieldCurrentYPosition - 32) : 0;
    00003104 3E 20            [ 7] 8280 	ld	a, #0x20
    00003106 FD 21r00r00      [14] 8281 	ld	iy, #_g_FieldCurrentYPosition
    0000310A FD BE 00         [19] 8282 	cp	a, 0 (iy)
    0000310D 3E 00            [ 7] 8283 	ld	a, #0x00
    0000310F FD 9E 01         [19] 8284 	sbc	a, 1 (iy)
    00003112 E2r17r31         [10] 8285 	jp	PO, 00282$
    00003115 EE 80            [ 7] 8286 	xor	a, #0x80
    00003117                       8287 00282$:
    00003117 F2r29r31         [10] 8288 	jp	P, 00145$
    0000311A 3Ar00r00         [13] 8289 	ld	a, (_g_FieldCurrentYPosition+0)
    0000311D C6 E0            [ 7] 8290 	add	a, #0xe0
    0000311F 5F               [ 4] 8291 	ld	e, a
    00003120 3Ar01r00         [13] 8292 	ld	a, (_g_FieldCurrentYPosition+1)
    00003123 CE FF            [ 7] 8293 	adc	a, #0xff
    00003125 57               [ 4] 8294 	ld	d, a
    00003126 C3r2Cr31         [10] 8295 	jp	00146$
    00003129                       8296 00145$:
    00003129 11 00 00         [10] 8297 	ld	de, #0x0000
    0000312C                       8298 00146$:
    0000312C DD 73 FC         [19] 8299 	ld	-4 (ix), e
    0000312F DD 72 FD         [19] 8300 	ld	-3 (ix), d
                                   8301 ;E:\Dropbox\FAUSTO\SVILUPPI\MSX\CODE\C\MSXgl\projects\soccerlg/soccerlg_s2_b1.c:1584: u16 maxY = g_FieldCurrentYPosition + 244;
    00003132 2Ar00r00         [16] 8302 	ld	hl, (_g_FieldCurrentYPosition)
    00003135 11 F4 00         [10] 8303 	ld	de, #0x00f4
    00003138 19               [11] 8304 	add	hl, de
    00003139 DD 75 FE         [19] 8305 	ld	-2 (ix), l
    0000313C DD 74 FF         [19] 8306 	ld	-1 (ix), h
                                   8307 ;E:\Dropbox\FAUSTO\SVILUPPI\MSX\CODE\C\MSXgl\projects\soccerlg/soccerlg_s2_b1.c:1586: attr.Y = g_Players[playerId].Y-g_FieldCurrentYPosition;
    0000313F 11r00r00         [10] 8308 	ld	de, #_g_Players+0
    00003142 06 00            [ 7] 8309 	ld	b, #0x00
    00003144 69               [ 4] 8310 	ld	l, c
    00003145 60               [ 4] 8311 	ld	h, b
    00003146 29               [11] 8312 	add	hl, hl
    00003147 29               [11] 8313 	add	hl, hl
    00003148 09               [11] 8314 	add	hl, bc
    00003149 29               [11] 8315 	add	hl, hl
    0000314A 29               [11] 8316 	add	hl, hl
    0000314B 09               [11] 8317 	add	hl, bc
    0000314C 19               [11] 8318 	add	hl, de
    0000314D EB               [ 4] 8319 	ex	de, hl
    0000314E 1A               [ 7] 8320 	ld	a, (de)
    0000314F 6F               [ 4] 8321 	ld	l, a
                                   8322 ;	spillPairReg hl
                                   8323 ;	spillPairReg hl
    00003150 3Ar00r00         [13] 8324 	ld	a, (_g_FieldCurrentYPosition+0)
    00003153 47               [ 4] 8325 	ld	b, a
    00003154 7D               [ 4] 8326 	ld	a, l
    00003155 90               [ 4] 8327 	sub	a, b
    00003156 DD 77 EE         [19] 8328 	ld	-18 (ix), a
                                   8329 ;E:\Dropbox\FAUSTO\SVILUPPI\MSX\CODE\C\MSXgl\projects\soccerlg/soccerlg_s2_b1.c:1587: if(g_Players[playerId].TeamId==TEAM_2){
    00003159 21 09 00         [10] 8330 	ld	hl, #0x0009
    0000315C 19               [11] 8331 	add	hl, de
    0000315D DD 75 F2         [19] 8332 	ld	-14 (ix), l
    00003160 DD 74 F3         [19] 8333 	ld	-13 (ix), h
    00003163 7E               [ 7] 8334 	ld	a, (hl)
    00003164 D6 02            [ 7] 8335 	sub	a, #0x02
    00003166 20 08            [12] 8336 	jr	NZ, 00102$
                                   8337 ;E:\Dropbox\FAUSTO\SVILUPPI\MSX\CODE\C\MSXgl\projects\soccerlg/soccerlg_s2_b1.c:1588: attr.SC=3;
    00003168 21 03 00         [10] 8338 	ld	hl, #3
    0000316B 39               [11] 8339 	add	hl, sp
    0000316C 7E               [ 7] 8340 	ld	a, (hl)
    0000316D F6 C0            [ 7] 8341 	or	a, #0xc0
    0000316F 77               [ 7] 8342 	ld	(hl), a
    00003170                       8343 00102$:
                                   8344 ;E:\Dropbox\FAUSTO\SVILUPPI\MSX\CODE\C\MSXgl\projects\soccerlg/soccerlg_s2_b1.c:1591: if(g_Players[playerId].TeamId==REFEREE){
    00003170 DD 6E F2         [19] 8345 	ld	l, -14 (ix)
    00003173 DD 66 F3         [19] 8346 	ld	h, -13 (ix)
    00003176 7E               [ 7] 8347 	ld	a, (hl)
    00003177 D6 0E            [ 7] 8348 	sub	a, #0x0e
    00003179 20 0A            [12] 8349 	jr	NZ, 00104$
                                   8350 ;E:\Dropbox\FAUSTO\SVILUPPI\MSX\CODE\C\MSXgl\projects\soccerlg/soccerlg_s2_b1.c:1592: attr.SC=1;
    0000317B 21 03 00         [10] 8351 	ld	hl, #3
    0000317E 39               [11] 8352 	add	hl, sp
    0000317F 7E               [ 7] 8353 	ld	a, (hl)
    00003180 E6 3F            [ 7] 8354 	and	a, #0x3f
    00003182 F6 40            [ 7] 8355 	or	a, #0x40
    00003184 77               [ 7] 8356 	ld	(hl), a
    00003185                       8357 00104$:
                                   8358 ;E:\Dropbox\FAUSTO\SVILUPPI\MSX\CODE\C\MSXgl\projects\soccerlg/soccerlg_s2_b1.c:1595: if(g_Players[playerId].Y>maxY){
    00003185 6B               [ 4] 8359 	ld	l, e
    00003186 62               [ 4] 8360 	ld	h, d
    00003187 46               [ 7] 8361 	ld	b, (hl)
    00003188 23               [ 6] 8362 	inc	hl
    00003189 6E               [ 7] 8363 	ld	l, (hl)
                                   8364 ;	spillPairReg hl
    0000318A DD 7E FE         [19] 8365 	ld	a, -2 (ix)
    0000318D 90               [ 4] 8366 	sub	a, b
    0000318E DD 7E FF         [19] 8367 	ld	a, -1 (ix)
    00003191 9D               [ 4] 8368 	sbc	a, l
    00003192 30 06            [12] 8369 	jr	NC, 00106$
                                   8370 ;E:\Dropbox\FAUSTO\SVILUPPI\MSX\CODE\C\MSXgl\projects\soccerlg/soccerlg_s2_b1.c:1596: attr.D=1;
    00003194 21 03 00         [10] 8371 	ld	hl, #3
    00003197 39               [11] 8372 	add	hl, sp
    00003198 CB E6            [15] 8373 	set	4, (hl)
    0000319A                       8374 00106$:
                                   8375 ;E:\Dropbox\FAUSTO\SVILUPPI\MSX\CODE\C\MSXgl\projects\soccerlg/soccerlg_s2_b1.c:1598: if(g_Players[playerId].Y<minY){
    0000319A 6B               [ 4] 8376 	ld	l, e
    0000319B 62               [ 4] 8377 	ld	h, d
    0000319C 46               [ 7] 8378 	ld	b, (hl)
    0000319D 23               [ 6] 8379 	inc	hl
    0000319E 6E               [ 7] 8380 	ld	l, (hl)
                                   8381 ;	spillPairReg hl
    0000319F 78               [ 4] 8382 	ld	a, b
    000031A0 DD 96 FC         [19] 8383 	sub	a, -4 (ix)
    000031A3 7D               [ 4] 8384 	ld	a, l
    000031A4 DD 9E FD         [19] 8385 	sbc	a, -3 (ix)
    000031A7 30 06            [12] 8386 	jr	NC, 00108$
                                   8387 ;E:\Dropbox\FAUSTO\SVILUPPI\MSX\CODE\C\MSXgl\projects\soccerlg/soccerlg_s2_b1.c:1599: attr.D=1;
    000031A9 21 03 00         [10] 8388 	ld	hl, #3
    000031AC 39               [11] 8389 	add	hl, sp
    000031AD CB E6            [15] 8390 	set	4, (hl)
    000031AF                       8391 00108$:
                                   8392 ;E:\Dropbox\FAUSTO\SVILUPPI\MSX\CODE\C\MSXgl\projects\soccerlg/soccerlg_s2_b1.c:1602: if(g_Players[playerId].Role!=PLAYER_ROLE_GOALKEEPER){
    000031AF 21 0D 00         [10] 8393 	ld	hl, #0x000d
    000031B2 19               [11] 8394 	add	hl, de
    000031B3 DD 75 F4         [19] 8395 	ld	-12 (ix), l
    000031B6 DD 74 F5         [19] 8396 	ld	-11 (ix), h
                                   8397 ;E:\Dropbox\FAUSTO\SVILUPPI\MSX\CODE\C\MSXgl\projects\soccerlg/soccerlg_s2_b1.c:1601: if(g_MatchStatus!=MATCH_NOT_STARTED && g_MatchStatus!=MATCH_KICK_OFF){
    000031B9 3Ar00r00         [13] 8398 	ld	a, (_g_MatchStatus+0)
    000031BC B7               [ 4] 8399 	or	a, a
    000031BD 28 19            [12] 8400 	jr	Z, 00112$
    000031BF 3Ar00r00         [13] 8401 	ld	a, (_g_MatchStatus+0)
    000031C2 D6 07            [ 7] 8402 	sub	a, #0x07
    000031C4 28 12            [12] 8403 	jr	Z, 00112$
                                   8404 ;E:\Dropbox\FAUSTO\SVILUPPI\MSX\CODE\C\MSXgl\projects\soccerlg/soccerlg_s2_b1.c:1602: if(g_Players[playerId].Role!=PLAYER_ROLE_GOALKEEPER){
    000031C6 DD 6E F4         [19] 8405 	ld	l, -12 (ix)
    000031C9 DD 66 F5         [19] 8406 	ld	h, -11 (ix)
    000031CC 7E               [ 7] 8407 	ld	a, (hl)
    000031CD B7               [ 4] 8408 	or	a, a
    000031CE 28 08            [12] 8409 	jr	Z, 00112$
                                   8410 ;E:\Dropbox\FAUSTO\SVILUPPI\MSX\CODE\C\MSXgl\projects\soccerlg/soccerlg_s2_b1.c:1603: UpdatePlayerPatternByDirection(playerId);
    000031D0 C5               [11] 8411 	push	bc
    000031D1 D5               [11] 8412 	push	de
    000031D2 79               [ 4] 8413 	ld	a, c
    000031D3 CDrA4r33         [17] 8414 	call	_UpdatePlayerPatternByDirection
    000031D6 D1               [10] 8415 	pop	de
    000031D7 C1               [10] 8416 	pop	bc
    000031D8                       8417 00112$:
                                   8418 ;E:\Dropbox\FAUSTO\SVILUPPI\MSX\CODE\C\MSXgl\projects\soccerlg/soccerlg_s2_b1.c:1606: if(g_Players[playerId].Role==PLAYER_ROLE_GOALKEEPER){
    000031D8 DD 6E F4         [19] 8419 	ld	l, -12 (ix)
    000031DB DD 66 F5         [19] 8420 	ld	h, -11 (ix)
    000031DE 46               [ 7] 8421 	ld	b, (hl)
                                   8422 ;E:\Dropbox\FAUSTO\SVILUPPI\MSX\CODE\C\MSXgl\projects\soccerlg/soccerlg_s2_b1.c:1614: if(g_Players[playerId].OldX!=g_Players[playerId].X || g_Players[playerId].OldY!=g_Players[playerId].Y){
    000031DF 21 02 00         [10] 8423 	ld	hl, #0x0002
    000031E2 19               [11] 8424 	add	hl, de
    000031E3 DD 75 F6         [19] 8425 	ld	-10 (ix), l
    000031E6 DD 74 F7         [19] 8426 	ld	-9 (ix), h
                                   8427 ;E:\Dropbox\FAUSTO\SVILUPPI\MSX\CODE\C\MSXgl\projects\soccerlg/soccerlg_s2_b1.c:1616: g_Players[playerId].PatternId = (team == TEAM_1) ? PLAYER_POSE_GK_H_MOVE_BACK_1 : PLAYER_POSE_GK_H_MOVE_FRONT_1;
    000031E9 21 08 00         [10] 8428 	ld	hl, #0x0008
    000031EC 19               [11] 8429 	add	hl, de
    000031ED DD 75 F8         [19] 8430 	ld	-8 (ix), l
    000031F0 DD 74 F9         [19] 8431 	ld	-7 (ix), h
                                   8432 ;E:\Dropbox\FAUSTO\SVILUPPI\MSX\CODE\C\MSXgl\projects\soccerlg/soccerlg_s2_b1.c:1606: if(g_Players[playerId].Role==PLAYER_ROLE_GOALKEEPER){
    000031F3 78               [ 4] 8433 	ld	a, b
    000031F4 B7               [ 4] 8434 	or	a, a
    000031F5 C2rF2r32         [10] 8435 	jp	NZ, 00125$
                                   8436 ;E:\Dropbox\FAUSTO\SVILUPPI\MSX\CODE\C\MSXgl\projects\soccerlg/soccerlg_s2_b1.c:1607: attr.SC=0;
    000031F8 21 03 00         [10] 8437 	ld	hl, #3
    000031FB 39               [11] 8438 	add	hl, sp
    000031FC 7E               [ 7] 8439 	ld	a, (hl)
    000031FD E6 3F            [ 7] 8440 	and	a, #0x3f
    000031FF 77               [ 7] 8441 	ld	(hl), a
                                   8442 ;E:\Dropbox\FAUSTO\SVILUPPI\MSX\CODE\C\MSXgl\projects\soccerlg/soccerlg_s2_b1.c:1610: if (g_MatchStatus == MATCH_IN_ACTION || g_MatchStatus == MATCH_BALL_ON_GOALKEEPER) {
    00003200 3Ar00r00         [13] 8443 	ld	a,(_g_MatchStatus+0)
    00003203 FE 0C            [ 7] 8444 	cp	a,#0x0c
    00003205 28 05            [12] 8445 	jr	Z, 00120$
    00003207 D6 0D            [ 7] 8446 	sub	a, #0x0d
    00003209 C2rECr32         [10] 8447 	jp	NZ,00121$
    0000320C                       8448 00120$:
                                   8449 ;E:\Dropbox\FAUSTO\SVILUPPI\MSX\CODE\C\MSXgl\projects\soccerlg/soccerlg_s2_b1.c:1611: g_Players[playerId].Status=PLAYER_STATUS_POSITIONED;
    0000320C 21 12 00         [10] 8450 	ld	hl, #0x0012
    0000320F 19               [11] 8451 	add	hl, de
    00003210 36 04            [10] 8452 	ld	(hl), #0x04
    00003212 23               [ 6] 8453 	inc	hl
    00003213 36 00            [10] 8454 	ld	(hl), #0x00
                                   8455 ;E:\Dropbox\FAUSTO\SVILUPPI\MSX\CODE\C\MSXgl\projects\soccerlg/soccerlg_s2_b1.c:1612: u8 team = g_Players[playerId].TeamId;
    00003215 DD 6E F2         [19] 8456 	ld	l, -14 (ix)
    00003218 DD 66 F3         [19] 8457 	ld	h, -13 (ix)
    0000321B 46               [ 7] 8458 	ld	b, (hl)
                                   8459 ;E:\Dropbox\FAUSTO\SVILUPPI\MSX\CODE\C\MSXgl\projects\soccerlg/soccerlg_s2_b1.c:1614: if(g_Players[playerId].OldX!=g_Players[playerId].X || g_Players[playerId].OldY!=g_Players[playerId].Y){
    0000321C 21 04 00         [10] 8460 	ld	hl, #0x0004
    0000321F 19               [11] 8461 	add	hl, de
    00003220 DD 75 FA         [19] 8462 	ld	-6 (ix), l
    00003223 DD 74 FB         [19] 8463 	ld	-5 (ix), h
    00003226 7E               [ 7] 8464 	ld	a, (hl)
    00003227 DD 77 FE         [19] 8465 	ld	-2 (ix), a
    0000322A 23               [ 6] 8466 	inc	hl
    0000322B 7E               [ 7] 8467 	ld	a, (hl)
    0000322C DD 77 FF         [19] 8468 	ld	-1 (ix), a
    0000322F DD 6E F6         [19] 8469 	ld	l, -10 (ix)
    00003232 DD 66 F7         [19] 8470 	ld	h, -9 (ix)
    00003235 7E               [ 7] 8471 	ld	a, (hl)
    00003236 23               [ 6] 8472 	inc	hl
    00003237 66               [ 7] 8473 	ld	h, (hl)
                                   8474 ;	spillPairReg hl
    00003238 6F               [ 4] 8475 	ld	l, a
                                   8476 ;	spillPairReg hl
                                   8477 ;	spillPairReg hl
    00003239 7B               [ 4] 8478 	ld	a, e
    0000323A C6 06            [ 7] 8479 	add	a, #0x06
    0000323C DD 77 FC         [19] 8480 	ld	-4 (ix), a
    0000323F 7A               [ 4] 8481 	ld	a, d
    00003240 CE 00            [ 7] 8482 	adc	a, #0x00
    00003242 DD 77 FD         [19] 8483 	ld	-3 (ix), a
    00003245 7D               [ 4] 8484 	ld	a, l
    00003246 DD 96 FE         [19] 8485 	sub	a, -2 (ix)
    00003249 20 26            [12] 8486 	jr	NZ, 00117$
    0000324B 7C               [ 4] 8487 	ld	a, h
    0000324C DD 96 FF         [19] 8488 	sub	a, -1 (ix)
    0000324F 20 20            [12] 8489 	jr	NZ, 00117$
    00003251 DD 6E FC         [19] 8490 	ld	l, -4 (ix)
    00003254 DD 66 FD         [19] 8491 	ld	h, -3 (ix)
    00003257 7E               [ 7] 8492 	ld	a, (hl)
    00003258 DD 77 FE         [19] 8493 	ld	-2 (ix), a
    0000325B 23               [ 6] 8494 	inc	hl
    0000325C 7E               [ 7] 8495 	ld	a, (hl)
    0000325D DD 77 FF         [19] 8496 	ld	-1 (ix), a
    00003260 6B               [ 4] 8497 	ld	l, e
    00003261 62               [ 4] 8498 	ld	h, d
    00003262 7E               [ 7] 8499 	ld	a, (hl)
    00003263 23               [ 6] 8500 	inc	hl
    00003264 66               [ 7] 8501 	ld	h, (hl)
                                   8502 ;	spillPairReg hl
                                   8503 ;	spillPairReg hl
                                   8504 ;	spillPairReg hl
    00003265 DD 96 FE         [19] 8505 	sub	a, -2 (ix)
    00003268 20 07            [12] 8506 	jr	NZ, 00293$
    0000326A 7C               [ 4] 8507 	ld	a, h
    0000326B DD 96 FF         [19] 8508 	sub	a, -1 (ix)
    0000326E CArF2r32         [10] 8509 	jp	Z,00125$
    00003271                       8510 00293$:
    00003271                       8511 00117$:
                                   8512 ;E:\Dropbox\FAUSTO\SVILUPPI\MSX\CODE\C\MSXgl\projects\soccerlg/soccerlg_s2_b1.c:1615: if(g_Players[playerId].LastPose==0){
    00003271 21 0C 00         [10] 8513 	ld	hl, #0x000c
    00003274 19               [11] 8514 	add	hl, de
    00003275 DD 75 FE         [19] 8515 	ld	-2 (ix), l
    00003278 DD 74 FF         [19] 8516 	ld	-1 (ix), h
    0000327B 6E               [ 7] 8517 	ld	l, (hl)
                                   8518 ;	spillPairReg hl
                                   8519 ;E:\Dropbox\FAUSTO\SVILUPPI\MSX\CODE\C\MSXgl\projects\soccerlg/soccerlg_s2_b1.c:1616: g_Players[playerId].PatternId = (team == TEAM_1) ? PLAYER_POSE_GK_H_MOVE_BACK_1 : PLAYER_POSE_GK_H_MOVE_FRONT_1;
    0000327C 05               [ 4] 8520 	dec	b
    0000327D 3E 01            [ 7] 8521 	ld	a, #0x01
    0000327F 28 01            [12] 8522 	jr	Z, 00295$
    00003281 AF               [ 4] 8523 	xor	a, a
    00003282                       8524 00295$:
    00003282 47               [ 4] 8525 	ld	b, a
                                   8526 ;E:\Dropbox\FAUSTO\SVILUPPI\MSX\CODE\C\MSXgl\projects\soccerlg/soccerlg_s2_b1.c:1615: if(g_Players[playerId].LastPose==0){
    00003283 7D               [ 4] 8527 	ld	a, l
                                   8528 ;E:\Dropbox\FAUSTO\SVILUPPI\MSX\CODE\C\MSXgl\projects\soccerlg/soccerlg_s2_b1.c:1616: g_Players[playerId].PatternId = (team == TEAM_1) ? PLAYER_POSE_GK_H_MOVE_BACK_1 : PLAYER_POSE_GK_H_MOVE_FRONT_1;
    00003284 B7               [ 4] 8529 	or	a,a
    00003285 20 19            [12] 8530 	jr	NZ, 00115$
    00003287 B0               [ 4] 8531 	or	a,b
    00003288 3E A4            [ 7] 8532 	ld	a, #0xa4
    0000328A 20 02            [12] 8533 	jr	NZ, 00148$
    0000328C 3E 2B            [ 7] 8534 	ld	a, #0x2b
    0000328E                       8535 00148$:
    0000328E DD 6E F8         [19] 8536 	ld	l, -8 (ix)
    00003291 DD 66 F9         [19] 8537 	ld	h, -7 (ix)
    00003294 77               [ 7] 8538 	ld	(hl), a
                                   8539 ;E:\Dropbox\FAUSTO\SVILUPPI\MSX\CODE\C\MSXgl\projects\soccerlg/soccerlg_s2_b1.c:1617: g_Players[playerId].LastPose=1;
    00003295 DD 6E FE         [19] 8540 	ld	l, -2 (ix)
    00003298 DD 66 FF         [19] 8541 	ld	h, -1 (ix)
    0000329B 36 01            [10] 8542 	ld	(hl), #0x01
    0000329D C3rBDr32         [10] 8543 	jp	00116$
    000032A0                       8544 00115$:
                                   8545 ;E:\Dropbox\FAUSTO\SVILUPPI\MSX\CODE\C\MSXgl\projects\soccerlg/soccerlg_s2_b1.c:1620: g_Players[playerId].PatternId = (team == TEAM_1) ? PLAYER_POSE_GK_H_MOVE_BACK_2 : PLAYER_POSE_GK_H_MOVE_FRONT_2;
    000032A0 78               [ 4] 8546 	ld	a, b
    000032A1 B7               [ 4] 8547 	or	a, a
    000032A2 28 06            [12] 8548 	jr	Z, 00149$
    000032A4 21 A3 00         [10] 8549 	ld	hl, #0x00a3
    000032A7 C3rADr32         [10] 8550 	jp	00150$
    000032AA                       8551 00149$:
    000032AA 21 2C 00         [10] 8552 	ld	hl, #0x002c
    000032AD                       8553 00150$:
    000032AD 7D               [ 4] 8554 	ld	a, l
    000032AE DD 6E F8         [19] 8555 	ld	l, -8 (ix)
    000032B1 DD 66 F9         [19] 8556 	ld	h, -7 (ix)
    000032B4 77               [ 7] 8557 	ld	(hl), a
                                   8558 ;E:\Dropbox\FAUSTO\SVILUPPI\MSX\CODE\C\MSXgl\projects\soccerlg/soccerlg_s2_b1.c:1621: g_Players[playerId].LastPose=0;
    000032B5 DD 6E FE         [19] 8559 	ld	l, -2 (ix)
    000032B8 DD 66 FF         [19] 8560 	ld	h, -1 (ix)
    000032BB 36 00            [10] 8561 	ld	(hl), #0x00
    000032BD                       8562 00116$:
                                   8563 ;E:\Dropbox\FAUSTO\SVILUPPI\MSX\CODE\C\MSXgl\projects\soccerlg/soccerlg_s2_b1.c:1623: g_Players[playerId].OldX=g_Players[playerId].X;
    000032BD DD 6E F6         [19] 8564 	ld	l, -10 (ix)
    000032C0 DD 66 F7         [19] 8565 	ld	h, -9 (ix)
    000032C3 7E               [ 7] 8566 	ld	a, (hl)
    000032C4 DD 77 FE         [19] 8567 	ld	-2 (ix), a
    000032C7 23               [ 6] 8568 	inc	hl
    000032C8 7E               [ 7] 8569 	ld	a, (hl)
    000032C9 DD 77 FF         [19] 8570 	ld	-1 (ix), a
    000032CC DD 6E FA         [19] 8571 	ld	l, -6 (ix)
    000032CF DD 66 FB         [19] 8572 	ld	h, -5 (ix)
    000032D2 DD 7E FE         [19] 8573 	ld	a, -2 (ix)
    000032D5 77               [ 7] 8574 	ld	(hl), a
    000032D6 23               [ 6] 8575 	inc	hl
    000032D7 DD 7E FF         [19] 8576 	ld	a, -1 (ix)
    000032DA 77               [ 7] 8577 	ld	(hl), a
                                   8578 ;E:\Dropbox\FAUSTO\SVILUPPI\MSX\CODE\C\MSXgl\projects\soccerlg/soccerlg_s2_b1.c:1624: g_Players[playerId].OldY=g_Players[playerId].Y;	
    000032DB 6B               [ 4] 8579 	ld	l, e
    000032DC 62               [ 4] 8580 	ld	h, d
    000032DD 46               [ 7] 8581 	ld	b, (hl)
    000032DE 23               [ 6] 8582 	inc	hl
    000032DF 5E               [ 7] 8583 	ld	e, (hl)
    000032E0 DD 6E FC         [19] 8584 	ld	l, -4 (ix)
    000032E3 DD 66 FD         [19] 8585 	ld	h, -3 (ix)
    000032E6 70               [ 7] 8586 	ld	(hl), b
    000032E7 23               [ 6] 8587 	inc	hl
    000032E8 73               [ 7] 8588 	ld	(hl), e
    000032E9 C3rF2r32         [10] 8589 	jp	00125$
    000032EC                       8590 00121$:
                                   8591 ;E:\Dropbox\FAUSTO\SVILUPPI\MSX\CODE\C\MSXgl\projects\soccerlg/soccerlg_s2_b1.c:1629: UpdatePlayerPatternByDirection(playerId);
    000032EC C5               [11] 8592 	push	bc
    000032ED 79               [ 4] 8593 	ld	a, c
    000032EE CDrA4r33         [17] 8594 	call	_UpdatePlayerPatternByDirection
    000032F1 C1               [10] 8595 	pop	bc
    000032F2                       8596 00125$:
                                   8597 ;E:\Dropbox\FAUSTO\SVILUPPI\MSX\CODE\C\MSXgl\projects\soccerlg/soccerlg_s2_b1.c:1632: attr.Pattern = g_Players[playerId].PatternId;
    000032F2 21 01 00         [10] 8598 	ld	hl, #0+1
    000032F5 39               [11] 8599 	add	hl, sp
    000032F6 EB               [ 4] 8600 	ex	de, hl
    000032F7 DD 6E F8         [19] 8601 	ld	l, -8 (ix)
    000032FA DD 66 F9         [19] 8602 	ld	h, -7 (ix)
    000032FD 7E               [ 7] 8603 	ld	a, (hl)
    000032FE 12               [ 7] 8604 	ld	(de), a
                                   8605 ;E:\Dropbox\FAUSTO\SVILUPPI\MSX\CODE\C\MSXgl\projects\soccerlg/soccerlg_s2_b1.c:1635: if(g_Players[playerId].TeamId != REFEREE && g_MatchStatus != MATCH_PENALTY_SHOOTOUT && g_MatchStatus != MATCH_PENALTY_SETUP && g_MatchStatus != MATCH_VICTORY_LAP)
    000032FF DD 6E F2         [19] 8606 	ld	l, -14 (ix)
    00003302 DD 66 F3         [19] 8607 	ld	h, -13 (ix)
    00003305 46               [ 7] 8608 	ld	b, (hl)
    00003306 78               [ 4] 8609 	ld	a, b
    00003307 D6 0E            [ 7] 8610 	sub	a, #0x0e
    00003309 28 51            [12] 8611 	jr	Z, 00137$
    0000330B 3Ar00r00         [13] 8612 	ld	a,(_g_MatchStatus+0)
    0000330E FE 11            [ 7] 8613 	cp	a,#0x11
    00003310 28 4A            [12] 8614 	jr	Z, 00137$
    00003312 FE 12            [ 7] 8615 	cp	a,#0x12
    00003314 28 46            [12] 8616 	jr	Z, 00137$
    00003316 D6 10            [ 7] 8617 	sub	a, #0x10
    00003318 28 42            [12] 8618 	jr	Z, 00137$
                                   8619 ;E:\Dropbox\FAUSTO\SVILUPPI\MSX\CODE\C\MSXgl\projects\soccerlg/soccerlg_s2_b1.c:1637: bool isHumanTeam = (g_Players[playerId].TeamId == TEAM_1) || (g_GameWith2Players && g_Players[playerId].TeamId == TEAM_2);
    0000331A 78               [ 4] 8620 	ld	a, b
    0000331B 3D               [ 4] 8621 	dec	a
    0000331C 28 0F            [12] 8622 	jr	Z, 00152$
    0000331E 3Ar00r00         [13] 8623 	ld	a, (_g_GameWith2Players+0)
    00003321 B7               [ 4] 8624 	or	a, a
    00003322 28 05            [12] 8625 	jr	Z, 00151$
    00003324 78               [ 4] 8626 	ld	a, b
    00003325 D6 02            [ 7] 8627 	sub	a, #0x02
    00003327 28 04            [12] 8628 	jr	Z, 00152$
    00003329                       8629 00151$:
    00003329 AF               [ 4] 8630 	xor	a, a
    0000332A C3r2Fr33         [10] 8631 	jp	00153$
    0000332D                       8632 00152$:
    0000332D 3E 01            [ 7] 8633 	ld	a, #0x01
    0000332F                       8634 00153$:
                                   8635 ;E:\Dropbox\FAUSTO\SVILUPPI\MSX\CODE\C\MSXgl\projects\soccerlg/soccerlg_s2_b1.c:1639: if (isHumanTeam) {
    0000332F B7               [ 4] 8636 	or	a, a
    00003330 28 2A            [12] 8637 	jr	Z, 00137$
                                   8638 ;E:\Dropbox\FAUSTO\SVILUPPI\MSX\CODE\C\MSXgl\projects\soccerlg/soccerlg_s2_b1.c:1641: if (g_Players[playerId].Role != PLAYER_ROLE_GOALKEEPER) {
    00003332 DD 6E F4         [19] 8639 	ld	l, -12 (ix)
    00003335 DD 66 F5         [19] 8640 	ld	h, -11 (ix)
    00003338 7E               [ 7] 8641 	ld	a, (hl)
    00003339 B7               [ 4] 8642 	or	a, a
    0000333A 28 16            [12] 8643 	jr	Z, 00131$
                                   8644 ;E:\Dropbox\FAUSTO\SVILUPPI\MSX\CODE\C\MSXgl\projects\soccerlg/soccerlg_s2_b1.c:1642: if (playerId==g_Team1ActivePlayer || (g_GameWith2Players && playerId==g_Team2ActivePlayer)) {
    0000333C 3Ar00r00         [13] 8645 	ld	a, (_g_Team1ActivePlayer+0)
    0000333F 91               [ 4] 8646 	sub	a, c
    00003340 28 0C            [12] 8647 	jr	Z, 00126$
    00003342 3Ar00r00         [13] 8648 	ld	a, (_g_GameWith2Players+0)
    00003345 B7               [ 4] 8649 	or	a, a
    00003346 28 0A            [12] 8650 	jr	Z, 00131$
    00003348 3Ar00r00         [13] 8651 	ld	a, (_g_Team2ActivePlayer+0)
    0000334B 91               [ 4] 8652 	sub	a, c
    0000334C 20 04            [12] 8653 	jr	NZ, 00131$
    0000334E                       8654 00126$:
                                   8655 ;E:\Dropbox\FAUSTO\SVILUPPI\MSX\CODE\C\MSXgl\projects\soccerlg/soccerlg_s2_b1.c:1644: attr.Pattern=(u8)(attr.Pattern+64);
    0000334E 1A               [ 7] 8656 	ld	a, (de)
    0000334F C6 40            [ 7] 8657 	add	a, #0x40
    00003351 12               [ 7] 8658 	ld	(de), a
    00003352                       8659 00131$:
                                   8660 ;E:\Dropbox\FAUSTO\SVILUPPI\MSX\CODE\C\MSXgl\projects\soccerlg/soccerlg_s2_b1.c:1649: if (playerId == g_PassTargetPlayer) {
    00003352 3Ar00r00         [13] 8661 	ld	a, (_g_PassTargetPlayer+0)
    00003355 91               [ 4] 8662 	sub	a, c
    00003356 20 04            [12] 8663 	jr	NZ, 00137$
                                   8664 ;E:\Dropbox\FAUSTO\SVILUPPI\MSX\CODE\C\MSXgl\projects\soccerlg/soccerlg_s2_b1.c:1650: attr.Pattern=(u8)(attr.Pattern+64);
    00003358 1A               [ 7] 8665 	ld	a, (de)
    00003359 C6 40            [ 7] 8666 	add	a, #0x40
    0000335B 12               [ 7] 8667 	ld	(de), a
    0000335C                       8668 00137$:
                                   8669 ;E:\Dropbox\FAUSTO\SVILUPPI\MSX\CODE\C\MSXgl\projects\soccerlg/soccerlg_s2_b1.c:1656: attr.X = g_Players[playerId].X;
    0000335C DD 6E F6         [19] 8670 	ld	l, -10 (ix)
    0000335F DD 66 F7         [19] 8671 	ld	h, -9 (ix)
    00003362 46               [ 7] 8672 	ld	b, (hl)
    00003363 23               [ 6] 8673 	inc	hl
    00003364 5E               [ 7] 8674 	ld	e, (hl)
    00003365 21 02 00         [10] 8675 	ld	hl, #2
    00003368 39               [11] 8676 	add	hl, sp
    00003369 70               [ 7] 8677 	ld	(hl), b
    0000336A 23               [ 6] 8678 	inc	hl
    0000336B 7B               [ 4] 8679 	ld	a, e
    0000336C E6 03            [ 7] 8680 	and	a, #0x03
    0000336E C5               [11] 8681 	push	bc
    0000336F 4F               [ 4] 8682 	ld	c,a
    00003370 7E               [ 7] 8683 	ld	a, (hl)
    00003371 E6 FC            [ 7] 8684 	and	a, #0xfc
    00003373 B1               [ 4] 8685 	or	a, c
    00003374 C1               [10] 8686 	pop	bc
    00003375 77               [ 7] 8687 	ld	(hl), a
                                   8688 ;E:\Dropbox\FAUSTO\SVILUPPI\MSX\CODE\C\MSXgl\projects\soccerlg/soccerlg_s2_b1.c:1657: attr.P = 1;
    00003376 21 03 00         [10] 8689 	ld	hl, #3
    00003379 39               [11] 8690 	add	hl, sp
    0000337A CB EE            [15] 8691 	set	5, (hl)
                                   8692 ;E:\Dropbox\FAUSTO\SVILUPPI\MSX\CODE\C\MSXgl\projects\soccerlg/soccerlg_s2_b1.c:1658: V9_SetSpriteP1(playerId, &attr);
                                   8693 ;E:/Dropbox/FAUSTO/SVILUPPI/MSX/CODE/C/MSXgl/engine/src/v9990.h:781: inline void V9_SetSpriteP1(u8 id, const V9_Sprite* attr) { V9_WriteVRAM(V9_P1_SPAT + (id * 4), (const u8*)attr, 4); }
    0000337C 26 00            [ 7] 8694 	ld	h, #0x00
                                   8695 ;	spillPairReg hl
                                   8696 ;	spillPairReg hl
    0000337E 69               [ 4] 8697 	ld	l, c
    0000337F 29               [11] 8698 	add	hl, hl
    00003380 29               [11] 8699 	add	hl, hl
    00003381 7C               [ 4] 8700 	ld	a, h
    00003382 07               [ 4] 8701 	rlca
    00003383 9F               [ 4] 8702 	sbc	a, a
    00003384 5F               [ 4] 8703 	ld	e, a
    00003385 57               [ 4] 8704 	ld	d, a
    00003386 7C               [ 4] 8705 	ld	a, h
    00003387 C6 FE            [ 7] 8706 	add	a, #0xfe
    00003389 67               [ 4] 8707 	ld	h, a
                                   8708 ;	spillPairReg hl
                                   8709 ;	spillPairReg hl
    0000338A 7B               [ 4] 8710 	ld	a, e
    0000338B CE 03            [ 7] 8711 	adc	a, #0x03
    0000338D 5F               [ 4] 8712 	ld	e, a
    0000338E 30 01            [12] 8713 	jr	NC, 00307$
    00003390 14               [ 4] 8714 	inc	d
    00003391                       8715 00307$:
                                   8716 ;E:/Dropbox/FAUSTO/SVILUPPI/MSX/CODE/C/MSXgl/engine/src/v9990.h:371: inline void V9_WriteVRAM(u32 addr, const u8* src, u16 count) { V9_SetWriteAddress(addr); V9_WriteVRAM_CurrentAddr(src, count); }
    00003391 EB               [ 4] 8717 	ex	de, hl
    00003392 CDr00r00         [17] 8718 	call	_V9_SetWriteAddress
    00003395 11 04 00         [10] 8719 	ld	de, #0x0004
    00003398 21 00 00         [10] 8720 	ld	hl, #0
    0000339B 39               [11] 8721 	add	hl, sp
    0000339C CDr00r00         [17] 8722 	call	_V9_WriteVRAM_CurrentAddr
                                   8723 ;E:\Dropbox\FAUSTO\SVILUPPI\MSX\CODE\C\MSXgl\projects\soccerlg/soccerlg_s2_b1.c:1658: V9_SetSpriteP1(playerId, &attr);
                                   8724 ;E:\Dropbox\FAUSTO\SVILUPPI\MSX\CODE\C\MSXgl\projects\soccerlg/soccerlg_s2_b1.c:1660: }
    0000339F DD F9            [10] 8725 	ld	sp, ix
    000033A1 DD E1            [14] 8726 	pop	ix
    000033A3 C9               [10] 8727 	ret
                                   8728 ;E:\Dropbox\FAUSTO\SVILUPPI\MSX\CODE\C\MSXgl\projects\soccerlg/soccerlg_s2_b1.c:1662: void UpdatePlayerPatternByDirection(u8 playerId){
                                   8729 ;	---------------------------------
                                   8730 ; Function UpdatePlayerPatternByDirection
                                   8731 ; ---------------------------------
    000033A4                       8732 _UpdatePlayerPatternByDirection::
    000033A4 DD E5            [15] 8733 	push	ix
    000033A6 DD 21 00 00      [14] 8734 	ld	ix,#0
    000033AA DD 39            [15] 8735 	add	ix,sp
    000033AC 21 FB FF         [10] 8736 	ld	hl, #-5
    000033AF 39               [11] 8737 	add	hl, sp
    000033B0 F9               [ 6] 8738 	ld	sp, hl
    000033B1 DD 77 FF         [19] 8739 	ld	-1 (ix), a
                                   8740 ;E:\Dropbox\FAUSTO\SVILUPPI\MSX\CODE\C\MSXgl\projects\soccerlg/soccerlg_s2_b1.c:1663: if(g_Players[playerId].Status==PLAYER_STATUS_POSITIONED){
    000033B4 01r00r00         [10] 8741 	ld	bc, #_g_Players+0
    000033B7 DD 5E FF         [19] 8742 	ld	e, -1 (ix)
    000033BA 16 00            [ 7] 8743 	ld	d, #0x00
    000033BC 6B               [ 4] 8744 	ld	l, e
    000033BD 62               [ 4] 8745 	ld	h, d
    000033BE 29               [11] 8746 	add	hl, hl
    000033BF 29               [11] 8747 	add	hl, hl
    000033C0 19               [11] 8748 	add	hl, de
    000033C1 29               [11] 8749 	add	hl, hl
    000033C2 29               [11] 8750 	add	hl, hl
    000033C3 19               [11] 8751 	add	hl, de
    000033C4 09               [11] 8752 	add	hl, bc
    000033C5 EB               [ 4] 8753 	ex	de, hl
    000033C6 4B               [ 4] 8754 	ld	c, e
    000033C7 42               [ 4] 8755 	ld	b, d
    000033C8 21 12 00         [10] 8756 	ld	hl, #18
    000033CB 09               [11] 8757 	add	hl, bc
    000033CC 4E               [ 7] 8758 	ld	c, (hl)
    000033CD 23               [ 6] 8759 	inc	hl
    000033CE 46               [ 7] 8760 	ld	b, (hl)
    000033CF 79               [ 4] 8761 	ld	a, c
    000033D0 D6 04            [ 7] 8762 	sub	a, #0x04
    000033D2 B0               [ 4] 8763 	or	a, b
    000033D3 CAr6Cr34         [10] 8764 	jp	Z,00122$
                                   8765 ;E:\Dropbox\FAUSTO\SVILUPPI\MSX\CODE\C\MSXgl\projects\soccerlg/soccerlg_s2_b1.c:1664: return;
    000033D6 C3rD9r33         [10] 8766 	jp	00102$
    000033D9                       8767 00102$:
                                   8768 ;E:\Dropbox\FAUSTO\SVILUPPI\MSX\CODE\C\MSXgl\projects\soccerlg/soccerlg_s2_b1.c:1668: if(g_Players[playerId].Direction!=g_Players[playerId].PreviousDirection){
    000033D9 21 0A 00         [10] 8769 	ld	hl, #0x000a
    000033DC 19               [11] 8770 	add	hl, de
    000033DD E3               [19] 8771 	ex	(sp), hl
    000033DE E1               [10] 8772 	pop	hl
    000033DF E5               [11] 8773 	push	hl
    000033E0 4E               [ 7] 8774 	ld	c, (hl)
    000033E1 21 0B 00         [10] 8775 	ld	hl, #0x000b
    000033E4 19               [11] 8776 	add	hl, de
    000033E5 DD 75 FD         [19] 8777 	ld	-3 (ix), l
    000033E8 DD 74 FE         [19] 8778 	ld	-2 (ix), h
    000033EB 46               [ 7] 8779 	ld	b, (hl)
                                   8780 ;E:\Dropbox\FAUSTO\SVILUPPI\MSX\CODE\C\MSXgl\projects\soccerlg/soccerlg_s2_b1.c:1669: if(g_Players[playerId].Direction==DIRECTION_NONE){
    000033EC 79               [ 4] 8781 	ld	a,c
    000033ED B8               [ 4] 8782 	cp	a,b
    000033EE 28 31            [12] 8783 	jr	Z, 00112$
    000033F0 B7               [ 4] 8784 	or	a, a
    000033F1 20 1E            [12] 8785 	jr	NZ, 00104$
                                   8786 ;E:\Dropbox\FAUSTO\SVILUPPI\MSX\CODE\C\MSXgl\projects\soccerlg/soccerlg_s2_b1.c:1670: g_Players[playerId].PatternId=Trampoline_U8_P1(4,GetNoMovingPlayerPatternId,g_Players[playerId].PreviousDirection); 
    000033F3 21 08 00         [10] 8787 	ld	hl, #0x0008
    000033F6 19               [11] 8788 	add	hl, de
    000033F7 E5               [11] 8789 	push	hl
    000033F8 D5               [11] 8790 	push	de
    000033F9 C5               [11] 8791 	push	bc
    000033FA 33               [ 6] 8792 	inc	sp
    000033FB 11r00r00         [10] 8793 	ld	de, #_GetNoMovingPlayerPatternId
    000033FE 3E 04            [ 7] 8794 	ld	a, #0x04
    00003400 CDr00r00         [17] 8795 	call	_Trampoline_U8_P1
    00003403 D1               [10] 8796 	pop	de
    00003404 E1               [10] 8797 	pop	hl
    00003405 77               [ 7] 8798 	ld	(hl), a
                                   8799 ;E:\Dropbox\FAUSTO\SVILUPPI\MSX\CODE\C\MSXgl\projects\soccerlg/soccerlg_s2_b1.c:1671: g_Players[playerId].PreviousDirection=g_Players[playerId].Direction;
    00003406 E1               [10] 8800 	pop	hl
    00003407 E5               [11] 8801 	push	hl
    00003408 7E               [ 7] 8802 	ld	a, (hl)
    00003409 C1               [10] 8803 	pop	bc
    0000340A E1               [10] 8804 	pop	hl
    0000340B E5               [11] 8805 	push	hl
    0000340C C5               [11] 8806 	push	bc
    0000340D 77               [ 7] 8807 	ld	(hl), a
    0000340E C3r33r34         [10] 8808 	jp	00113$
    00003411                       8809 00104$:
                                   8810 ;E:\Dropbox\FAUSTO\SVILUPPI\MSX\CODE\C\MSXgl\projects\soccerlg/soccerlg_s2_b1.c:1674: g_Players[playerId].PreviousDirection=g_Players[playerId].Direction;
    00003411 DD 6E FD         [19] 8811 	ld	l, -3 (ix)
    00003414 DD 66 FE         [19] 8812 	ld	h, -2 (ix)
    00003417 71               [ 7] 8813 	ld	(hl), c
                                   8814 ;E:\Dropbox\FAUSTO\SVILUPPI\MSX\CODE\C\MSXgl\projects\soccerlg/soccerlg_s2_b1.c:1675: g_Players[playerId].LastPose=0;
    00003418 21 0C 00         [10] 8815 	ld	hl, #0x000c
    0000341B 19               [11] 8816 	add	hl, de
    0000341C 36 00            [10] 8817 	ld	(hl), #0x00
    0000341E C3r33r34         [10] 8818 	jp	00113$
    00003421                       8819 00112$:
                                   8820 ;E:\Dropbox\FAUSTO\SVILUPPI\MSX\CODE\C\MSXgl\projects\soccerlg/soccerlg_s2_b1.c:1681: if(g_Players[playerId].Direction!=DIRECTION_NONE){
    00003421 79               [ 4] 8821 	ld	a, c
    00003422 B7               [ 4] 8822 	or	a, a
    00003423 28 0E            [12] 8823 	jr	Z, 00113$
                                   8824 ;E:\Dropbox\FAUSTO\SVILUPPI\MSX\CODE\C\MSXgl\projects\soccerlg/soccerlg_s2_b1.c:1682: if(g_Players[playerId].LastPose==1){
    00003425 21 0C 00         [10] 8825 	ld	hl, #0x000c
    00003428 19               [11] 8826 	add	hl, de
    00003429 7E               [ 7] 8827 	ld	a, (hl)
                                   8828 ;E:\Dropbox\FAUSTO\SVILUPPI\MSX\CODE\C\MSXgl\projects\soccerlg/soccerlg_s2_b1.c:1683: g_Players[playerId].LastPose=0;
    0000342A 3D               [ 4] 8829 	dec	a
    0000342B 20 04            [12] 8830 	jr	NZ, 00107$
    0000342D 77               [ 7] 8831 	ld	(hl),a
    0000342E C3r33r34         [10] 8832 	jp	00113$
    00003431                       8833 00107$:
                                   8834 ;E:\Dropbox\FAUSTO\SVILUPPI\MSX\CODE\C\MSXgl\projects\soccerlg/soccerlg_s2_b1.c:1686: g_Players[playerId].LastPose=1;
    00003431 36 01            [10] 8835 	ld	(hl), #0x01
    00003433                       8836 00113$:
                                   8837 ;E:\Dropbox\FAUSTO\SVILUPPI\MSX\CODE\C\MSXgl\projects\soccerlg/soccerlg_s2_b1.c:1692: if(g_Players[playerId].TeamId==REFEREE && g_MatchStatus==MATCH_BEFORE_KICK_OFF ){
    00003433 4B               [ 4] 8838 	ld	c, e
    00003434 42               [ 4] 8839 	ld	b, d
    00003435 21 09 00         [10] 8840 	ld	hl, #9
    00003438 09               [11] 8841 	add	hl, bc
    00003439 7E               [ 7] 8842 	ld	a, (hl)
                                   8843 ;E:\Dropbox\FAUSTO\SVILUPPI\MSX\CODE\C\MSXgl\projects\soccerlg/soccerlg_s2_b1.c:1668: if(g_Players[playerId].Direction!=g_Players[playerId].PreviousDirection){
    0000343A E1               [10] 8844 	pop	hl
    0000343B E5               [11] 8845 	push	hl
    0000343C 4E               [ 7] 8846 	ld	c, (hl)
                                   8847 ;E:\Dropbox\FAUSTO\SVILUPPI\MSX\CODE\C\MSXgl\projects\soccerlg/soccerlg_s2_b1.c:1692: if(g_Players[playerId].TeamId==REFEREE && g_MatchStatus==MATCH_BEFORE_KICK_OFF ){
    0000343D D6 0E            [ 7] 8848 	sub	a, #0x0e
    0000343F 20 1A            [12] 8849 	jr	NZ, 00119$
    00003441 3Ar00r00         [13] 8850 	ld	a, (_g_MatchStatus+0)
    00003444 3D               [ 4] 8851 	dec	a
    00003445 20 14            [12] 8852 	jr	NZ, 00119$
                                   8853 ;E:\Dropbox\FAUSTO\SVILUPPI\MSX\CODE\C\MSXgl\projects\soccerlg/soccerlg_s2_b1.c:1695: if(g_Players[playerId].Direction!=DIRECTION_NONE){
    00003447 79               [ 4] 8854 	ld	a, c
    00003448 B7               [ 4] 8855 	or	a, a
    00003449 28 21            [12] 8856 	jr	Z, 00122$
                                   8857 ;E:\Dropbox\FAUSTO\SVILUPPI\MSX\CODE\C\MSXgl\projects\soccerlg/soccerlg_s2_b1.c:1696: g_Players[playerId].PatternId=GetPatternIdByPoseAndDirection(playerId);
    0000344B 21 08 00         [10] 8858 	ld	hl, #0x0008
    0000344E 19               [11] 8859 	add	hl, de
    0000344F E5               [11] 8860 	push	hl
    00003450 DD 7E FF         [19] 8861 	ld	a, -1 (ix)
    00003453 CDr71r34         [17] 8862 	call	_GetPatternIdByPoseAndDirection
    00003456 D1               [10] 8863 	pop	de
    00003457 12               [ 7] 8864 	ld	(de), a
    00003458 C3r6Cr34         [10] 8865 	jp	00122$
    0000345B                       8866 00119$:
                                   8867 ;E:\Dropbox\FAUSTO\SVILUPPI\MSX\CODE\C\MSXgl\projects\soccerlg/soccerlg_s2_b1.c:1700: if(g_Players[playerId].Direction!=DIRECTION_NONE){
    0000345B 79               [ 4] 8868 	ld	a, c
    0000345C B7               [ 4] 8869 	or	a, a
    0000345D 28 0D            [12] 8870 	jr	Z, 00122$
                                   8871 ;E:\Dropbox\FAUSTO\SVILUPPI\MSX\CODE\C\MSXgl\projects\soccerlg/soccerlg_s2_b1.c:1701: g_Players[playerId].PatternId=GetPatternIdByPoseAndDirection(playerId);
    0000345F 21 08 00         [10] 8872 	ld	hl, #0x0008
    00003462 19               [11] 8873 	add	hl, de
    00003463 E5               [11] 8874 	push	hl
    00003464 DD 7E FF         [19] 8875 	ld	a, -1 (ix)
    00003467 CDr71r34         [17] 8876 	call	_GetPatternIdByPoseAndDirection
    0000346A E1               [10] 8877 	pop	hl
    0000346B 77               [ 7] 8878 	ld	(hl), a
    0000346C                       8879 00122$:
                                   8880 ;E:\Dropbox\FAUSTO\SVILUPPI\MSX\CODE\C\MSXgl\projects\soccerlg/soccerlg_s2_b1.c:1704: }
    0000346C DD F9            [10] 8881 	ld	sp, ix
    0000346E DD E1            [14] 8882 	pop	ix
    00003470 C9               [10] 8883 	ret
                                   8884 ;E:\Dropbox\FAUSTO\SVILUPPI\MSX\CODE\C\MSXgl\projects\soccerlg/soccerlg_s2_b1.c:1706: u8 GetPatternIdByPoseAndDirection(u8 playerId){
                                   8885 ;	---------------------------------
                                   8886 ; Function GetPatternIdByPoseAndDirection
                                   8887 ; ---------------------------------
    00003471                       8888 _GetPatternIdByPoseAndDirection::
    00003471 5F               [ 4] 8889 	ld	e, a
                                   8890 ;E:\Dropbox\FAUSTO\SVILUPPI\MSX\CODE\C\MSXgl\projects\soccerlg/soccerlg_s2_b1.c:1707: u8 pose = g_Players[playerId].LastPose;
    00003472 01r00r00         [10] 8891 	ld	bc, #_g_Players+0
    00003475 16 00            [ 7] 8892 	ld	d, #0x00
    00003477 6B               [ 4] 8893 	ld	l, e
    00003478 62               [ 4] 8894 	ld	h, d
    00003479 29               [11] 8895 	add	hl, hl
    0000347A 29               [11] 8896 	add	hl, hl
    0000347B 19               [11] 8897 	add	hl, de
    0000347C 29               [11] 8898 	add	hl, hl
    0000347D 29               [11] 8899 	add	hl, hl
    0000347E 19               [11] 8900 	add	hl, de
    0000347F 09               [11] 8901 	add	hl, bc
    00003480 EB               [ 4] 8902 	ex	de, hl
    00003481 D5               [11] 8903 	push	de
    00003482 FD E1            [14] 8904 	pop	iy
    00003484 FD 4E 0C         [19] 8905 	ld	c, 12 (iy)
                                   8906 ;E:\Dropbox\FAUSTO\SVILUPPI\MSX\CODE\C\MSXgl\projects\soccerlg/soccerlg_s2_b1.c:1708: u8 dir = g_Players[playerId].Direction;
    00003487 21 0A 00         [10] 8907 	ld	hl, #10
    0000348A 19               [11] 8908 	add	hl, de
    0000348B 5E               [ 7] 8909 	ld	e, (hl)
                                   8910 ;E:\Dropbox\FAUSTO\SVILUPPI\MSX\CODE\C\MSXgl\projects\soccerlg/soccerlg_s2_b1.c:1711: if (dir > 8) dir = DIRECTION_NONE;
    0000348C 3E 08            [ 7] 8911 	ld	a, #0x08
    0000348E 93               [ 4] 8912 	sub	a, e
    0000348F 30 02            [12] 8913 	jr	NC, 00102$
    00003491 1E 00            [ 7] 8914 	ld	e, #0x00
    00003493                       8915 00102$:
                                   8916 ;E:\Dropbox\FAUSTO\SVILUPPI\MSX\CODE\C\MSXgl\projects\soccerlg/soccerlg_s2_b1.c:1713: if (dir == DIRECTION_NONE) {
    00003493 7B               [ 4] 8917 	ld	a, e
    00003494 B7               [ 4] 8918 	or	a, a
    00003495 20 0C            [12] 8919 	jr	NZ, 00104$
                                   8920 ;E:\Dropbox\FAUSTO\SVILUPPI\MSX\CODE\C\MSXgl\projects\soccerlg/soccerlg_s2_b1.c:1714: return Trampoline_U8_P1(4,GetNoMovingPlayerPatternId,dir); // Assuming logic for NONE inside
    00003497 7B               [ 4] 8921 	ld	a, e
    00003498 F5               [11] 8922 	push	af
    00003499 33               [ 6] 8923 	inc	sp
    0000349A 11r00r00         [10] 8924 	ld	de, #_GetNoMovingPlayerPatternId
    0000349D 3E 04            [ 7] 8925 	ld	a, #0x04
    0000349F CDr00r00         [17] 8926 	call	_Trampoline_U8_P1
    000034A2 C9               [10] 8927 	ret
    000034A3                       8928 00104$:
                                   8929 ;E:\Dropbox\FAUSTO\SVILUPPI\MSX\CODE\C\MSXgl\projects\soccerlg/soccerlg_s2_b1.c:1732: return k_MovePats[dir * 2 + (pose ? 1 : 0)];
    000034A3 CB 23            [ 8] 8930 	sla	e
    000034A5 79               [ 4] 8931 	ld	a, c
    000034A6 B7               [ 4] 8932 	or	a, a
    000034A7 28 06            [12] 8933 	jr	Z, 00107$
    000034A9 21 01 00         [10] 8934 	ld	hl, #0x0001
    000034AC C3rB2r34         [10] 8935 	jp	00108$
    000034AF                       8936 00107$:
    000034AF 21 00 00         [10] 8937 	ld	hl, #0x0000
    000034B2                       8938 00108$:
    000034B2 19               [11] 8939 	add	hl, de
    000034B3 7D               [ 4] 8940 	ld	a, l
    000034B4 07               [ 4] 8941 	rlca
    000034B5 9F               [ 4] 8942 	sbc	a, a
    000034B6 67               [ 4] 8943 	ld	h, a
                                   8944 ;	spillPairReg hl
                                   8945 ;	spillPairReg hl
    000034B7 11rBDr34         [10] 8946 	ld	de, #_GetPatternIdByPoseAndDirection_k_MovePats_65537_1614
    000034BA 19               [11] 8947 	add	hl, de
    000034BB 7E               [ 7] 8948 	ld	a, (hl)
                                   8949 ;E:\Dropbox\FAUSTO\SVILUPPI\MSX\CODE\C\MSXgl\projects\soccerlg/soccerlg_s2_b1.c:1733: }
    000034BC C9               [10] 8950 	ret
    000034BD                       8951 _GetPatternIdByPoseAndDirection_k_MovePats_65537_1614:
    000034BD 00                    8952 	.db #0x00	; 0
    000034BE 00                    8953 	.db #0x00	; 0
    000034BF 02                    8954 	.db #0x02	; 2
    000034C0 03                    8955 	.db #0x03	; 3
    000034C1 0D                    8956 	.db #0x0d	; 13
    000034C2 0E                    8957 	.db #0x0e	; 14
    000034C3 89                    8958 	.db #0x89	; 137
    000034C4 8A                    8959 	.db #0x8a	; 138
    000034C5 85                    8960 	.db #0x85	; 133
    000034C6 86                    8961 	.db #0x86	; 134
    000034C7 00                    8962 	.db #0x00	; 0
    000034C8 01                    8963 	.db #0x01	; 1
    000034C9 09                    8964 	.db #0x09	; 9
    000034CA 0A                    8965 	.db #0x0a	; 10
    000034CB 05                    8966 	.db #0x05	; 5
    000034CC 06                    8967 	.db #0x06	; 6
    000034CD 83                    8968 	.db #0x83	; 131
    000034CE 82                    8969 	.db #0x82	; 130
                                   8970 	.area _SEG2
                                   8971 	.area _INITIALIZER
                                   8972 	.area _CABS (ABS)
