                                      1 ;--------------------------------------------------------
                                      2 ; File Created by SDCC : free open source ANSI-C Compiler
                                      3 ; Version 4.2.0 #13081 (MINGW64)
                                      4 ;--------------------------------------------------------
                                      5 	.module soccerlg_s7_b3
                                      6 	.optsdcc -mz80
                                      7 	
                                      8 ;--------------------------------------------------------
                                      9 ; Public variables in this module
                                     10 ;--------------------------------------------------------
                                     11 	.globl _V9990_PrintLayerAStringAtPos
                                     12 	.globl _IsJoystickTriggerPressed
                                     13 	.globl _PerformPass
                                     14 	.globl _SetPlayerBallPossession
                                     15 	.globl _GetPlayerIdByRole
                                     16 	.globl _GetClosestPlayerToBall
                                     17 	.globl _GetJoystickDirection
                                     18 	.globl _Math_Abs32
                                     19 	.globl _V9990_ClearTextFromLayerA
                                     20 	.globl _PlayPCM
                                     21 	.globl _CallFnc_U8_P2
                                     22 	.globl _CallFnc_U8
                                     23 	.globl _CallFnc_VOID_P1
                                     24 	.globl _V9_Poke16_CurrentAddr
                                     25 	.globl _V9_WriteVRAM_CurrentAddr
                                     26 	.globl _V9_SetWriteAddress
                                     27 	.globl _g_SLTSL
                                     28 	.globl _g_GRPACY
                                     29 	.globl _g_GRPACX
                                     30 	.globl _g_LOGOPR
                                     31 	.globl _g_CMASK
                                     32 	.globl _g_CLOC
                                     33 	.globl _g_FNKSTR
                                     34 	.globl _g_ATRBYT
                                     35 	.globl _g_BDRCLR
                                     36 	.globl _g_BAKCLR
                                     37 	.globl _g_FORCLR
                                     38 	.globl _g_CSRX
                                     39 	.globl _g_CSRY
                                     40 	.globl _g_CLIKSW
                                     41 	.globl _g_MLTPAT
                                     42 	.globl _g_MLTATR
                                     43 	.globl _g_MLTCGP
                                     44 	.globl _g_MLTCOL
                                     45 	.globl _g_MLTNAM
                                     46 	.globl _g_GRPPAT
                                     47 	.globl _g_GRPATR
                                     48 	.globl _g_GRPCGP
                                     49 	.globl _g_GRPCOL
                                     50 	.globl _g_GRPNAM
                                     51 	.globl _g_T32PAT
                                     52 	.globl _g_T32ATR
                                     53 	.globl _g_T32CGP
                                     54 	.globl _g_T32COL
                                     55 	.globl _g_T32NAM
                                     56 	.globl _g_TXTPAT
                                     57 	.globl _g_TXTATR
                                     58 	.globl _g_TXTCGP
                                     59 	.globl _g_TXTCOL
                                     60 	.globl _g_TXTNAM
                                     61 	.globl _g_CLMLST
                                     62 	.globl _g_CRTCNT
                                     63 	.globl _g_LINLEN
                                     64 	.globl _g_LINL32
                                     65 	.globl _g_LINL40
                                     66 	.globl _g_BDOS
                                     67 	.globl _g_MASTER
                                     68 	.globl _g_RAMAD3
                                     69 	.globl _g_RAMAD2
                                     70 	.globl _g_RAMAD1
                                     71 	.globl _g_RAMAD0
                                     72 	.globl _g_BREAKV
                                     73 	.globl _g_DISKVE
                                     74 	.globl _g_KANJTABLE
                                     75 	.globl _g_STRSRC
                                     76 	.globl _g_SUBRID
                                     77 	.globl _g_CHAR_16
                                     78 	.globl _g_MSXMID
                                     79 	.globl _g_MSXVER
                                     80 	.globl _g_ROMVersion
                                     81 	.globl _g_BASRVN
                                     82 	.globl _g_VDP_DW
                                     83 	.globl _g_VDP_DR
                                     84 	.globl _g_CGTABL
                                     85 	.globl _g_SVFFFD
                                     86 	.globl _g_RG27SAV
                                     87 	.globl _g_RG26SAV
                                     88 	.globl _g_RG25SAV
                                     89 	.globl _g_SVFFF8
                                     90 	.globl _g_MINROM
                                     91 	.globl _g_RG23SAV
                                     92 	.globl _g_RG22SAV
                                     93 	.globl _g_RG21SAV
                                     94 	.globl _g_RG20SAV
                                     95 	.globl _g_RG19SAV
                                     96 	.globl _g_RG18SAV
                                     97 	.globl _g_RG17SAV
                                     98 	.globl _g_RG16SAV
                                     99 	.globl _g_RG15SAV
                                    100 	.globl _g_RG14SAV
                                    101 	.globl _g_RG13SAV
                                    102 	.globl _g_RG12SAV
                                    103 	.globl _g_RG11SAV
                                    104 	.globl _g_RG10SAV
                                    105 	.globl _g_RG09SAV
                                    106 	.globl _g_RG08SAV
                                    107 	.globl _g_PROCNM
                                    108 	.globl _g_SLTWRK
                                    109 	.globl _g_SLTATR
                                    110 	.globl _g_SLTTBL
                                    111 	.globl _g_EXPTBL
                                    112 	.globl _g_MNROM
                                    113 	.globl _g_DRWANG
                                    114 	.globl _g_DRWSCL
                                    115 	.globl _g_DRWFLG
                                    116 	.globl _g_GYPOS
                                    117 	.globl _g_GXPOS
                                    118 	.globl _g_BRDATR
                                    119 	.globl _g_CASPRV
                                    120 	.globl _g_OLDSCR
                                    121 	.globl _g_SCRMOD
                                    122 	.globl _g_FLBMEM
                                    123 	.globl _g_KANAMD
                                    124 	.globl _g_KANAST
                                    125 	.globl _g_CAPST
                                    126 	.globl _g_CSTYLE
                                    127 	.globl _g_CSRSW
                                    128 	.globl _g_INSFLG
                                    129 	.globl _g_ESCCNT
                                    130 	.globl _g_GRPHED
                                    131 	.globl _g_WINWID
                                    132 	.globl _g_LOWLIM
                                    133 	.globl _g_INTCNT
                                    134 	.globl _g_INTVAL
                                    135 	.globl _g_JIFFY
                                    136 	.globl _g_PADX
                                    137 	.globl _g_PADY
                                    138 	.globl _g_INTFLG
                                    139 	.globl _g_RTYCNT
                                    140 	.globl _g_TRPTBL
                                    141 	.globl _g_HIMEM
                                    142 	.globl _g_BOTTOM
                                    143 	.globl _g_PATWRK
                                    144 	.globl _g_LINWRK
                                    145 	.globl _g_KEYBUF
                                    146 	.globl _g_NEWKEY
                                    147 	.globl _g_OLDKEY
                                    148 	.globl _g_CLIKFL
                                    149 	.globl _g_ONGSBF
                                    150 	.globl _g_FNKFLG
                                    151 	.globl _g_FNKSWI
                                    152 	.globl _g_CODSAV
                                    153 	.globl _g_FSTPOS
                                    154 	.globl _g_LINTTB
                                    155 	.globl _g_BASROM
                                    156 	.globl _g_ENSTOP
                                    157 	.globl _g_VCBC
                                    158 	.globl _g_VCBB
                                    159 	.globl _g_VCBA
                                    160 	.globl _g_PLYCNT
                                    161 	.globl _g_MUSICF
                                    162 	.globl _g_QUEUEN
                                    163 	.globl _g_MCLPTR
                                    164 	.globl _g_MCLLEN
                                    165 	.globl _g_SAVVOL
                                    166 	.globl _g_VOICEN
                                    167 	.globl _g_SAVSP
                                    168 	.globl _g_PRSCNT
                                    169 	.globl _g_LSTMOD
                                    170 	.globl _g_LSTCOM
                                    171 	.globl _g_COMMSK
                                    172 	.globl _g_ESTBLS
                                    173 	.globl _g_FLAGS
                                    174 	.globl _g_ERRORS
                                    175 	.globl _g_DATCNT
                                    176 	.globl _g_DEVNUM
                                    177 	.globl _g_OLDINT
                                    178 	.globl _g_OLDSTT
                                    179 	.globl _g_MEXBIh
                                    180 	.globl _g_RSIQLN
                                    181 	.globl _g_RSFCB
                                    182 	.globl _g_TOCNT
                                    183 	.globl _g_RSTMP
                                    184 	.globl _g_YSAVE
                                    185 	.globl _g_XSAVE
                                    186 	.globl _g_NORUSE
                                    187 	.globl _g_MODE
                                    188 	.globl _g_ROMA
                                    189 	.globl _g_CHRCNT
                                    190 	.globl _g_EXBRSA
                                    191 	.globl _g_AVCSAV
                                    192 	.globl _g_ACPAGE
                                    193 	.globl _g_DPPAGE
                                    194 	.globl _g_RS2IQ
                                    195 	.globl _g_VOICCQ
                                    196 	.globl _g_VOICBQ
                                    197 	.globl _g_VOICAQ
                                    198 	.globl _g_QUEBAK
                                    199 	.globl _g_QUETAB
                                    200 	.globl _g_ASPCT2
                                    201 	.globl _g_ASPCT1
                                    202 	.globl _g_HEADER
                                    203 	.globl _g_HIGH
                                    204 	.globl _g_LOW
                                    205 	.globl _g_CS240
                                    206 	.globl _g_CS120
                                    207 	.globl _g_GETPNT
                                    208 	.globl _g_PUTPNT
                                    209 	.globl _g_REPCNT
                                    210 	.globl _g_SCNCNT
                                    211 	.globl _g_FRCNEW
                                    212 	.globl _g_QUEUES
                                    213 	.globl _g_MINUPD
                                    214 	.globl _g_MAXUPD
                                    215 	.globl _g_TRGFLG
                                    216 	.globl _g_STATFL
                                    217 	.globl _g_RG7SAV
                                    218 	.globl _g_RG6SAV
                                    219 	.globl _g_RG5SAV
                                    220 	.globl _g_RG4SAV
                                    221 	.globl _g_RG3SAV
                                    222 	.globl _g_RG2SAV
                                    223 	.globl _g_RG1SAV
                                    224 	.globl _g_RG0SAV
                                    225 	.globl _g_CNSDFG
                                    226 	.globl _g_USRTAB
                                    227 	.globl _g_CLPRIM
                                    228 	.globl _g_WRPRIM
                                    229 	.globl _g_RDPRIM
                                    230 	.globl _CornerKick
                                    231 	.globl _PeopleMoving
                                    232 	.globl _PutPonPonGirlSprite
                                    233 	.globl _TickThrowIn
                                    234 ;--------------------------------------------------------
                                    235 ; special function registers
                                    236 ;--------------------------------------------------------
                         000000A8   237 _g_PortPrimarySlot	=	0x00a8
                         000000A9   238 _g_PortReadKeyboard	=	0x00a9
                         000000AA   239 _g_PortAccessKeyboard	=	0x00aa
                         000000AB   240 _g_PortControl	=	0x00ab
                         00000098   241 _g_VDP_DataPort	=	0x0098
                         00000099   242 _g_VDP_RegPort	=	0x0099
                         00000099   243 _g_VDP_AddrPort	=	0x0099
                         00000099   244 _g_VDP_StatPort	=	0x0099
                         000000A0   245 _g_PSG_RegPort	=	0x00a0
                         000000A1   246 _g_PSG_DataPort	=	0x00a1
                         000000A2   247 _g_PSG_StatPort	=	0x00a2
                         00000010   248 _g_PSG_Ext_RegPort	=	0x0010
                         00000011   249 _g_PSG_Ext_DataPort	=	0x0011
                         00000012   250 _g_PSG_Ext_StatPort	=	0x0012
                         0000007C   251 _g_MSXMusic_IndexPort	=	0x007c
                         0000007D   252 _g_MSXMusic_DataPort	=	0x007d
                         000000C0   253 _g_MSXAudio_IndexPort	=	0x00c0
                         000000C1   254 _g_MSXAudio_DataPort	=	0x00c1
                         000000C2   255 _g_MSXAudio_IndexPort2	=	0x00c2
                         000000C3   256 _g_MSXAudio_DataPort2	=	0x00c3
                         000000B4   257 _g_RTC_AddrPort	=	0x00b4
                         000000B5   258 _g_RTC_DataPort	=	0x00b5
                         00000060   259 _g_V9_VRAMPort	=	0x0060
                         00000061   260 _g_V9_PalettePort	=	0x0061
                         00000062   261 _g_V9_CmdDataPort	=	0x0062
                         00000063   262 _g_V9_RegDataPort	=	0x0063
                         00000064   263 _g_V9_RegSelectPort	=	0x0064
                         00000065   264 _g_V9_SatusPort	=	0x0065
                         00000066   265 _g_V9_IntFlagPort	=	0x0066
                         00000067   266 _g_V9_SysCtrlPort	=	0x0067
                         00000068   267 _g_V9_KanjiAddrLPort	=	0x0068
                         00000069   268 _g_V9_KanjiAddrHPort	=	0x0069
                         00000069   269 _g_V9_KanjiDataPort	=	0x0069
                         0000006A   270 _g_V9_Kanji2AddrLPort	=	0x006a
                         0000006B   271 _g_V9_Kanji2AddrHPort	=	0x006b
                         0000006B   272 _g_V9_Kanji2DataPort	=	0x006b
                         0000006F   273 _g_V9_OutputCtrPort	=	0x006f
                                    274 ;--------------------------------------------------------
                                    275 ; ram data
                                    276 ;--------------------------------------------------------
                                    277 	.area _DATA
                         0000F3AE   278 _g_LINL40	=	0xf3ae
                         0000F3AF   279 _g_LINL32	=	0xf3af
                         0000F3B0   280 _g_LINLEN	=	0xf3b0
                         0000F3B1   281 _g_CRTCNT	=	0xf3b1
                         0000F3B2   282 _g_CLMLST	=	0xf3b2
                         0000F3B3   283 _g_TXTNAM	=	0xf3b3
                         0000F3B5   284 _g_TXTCOL	=	0xf3b5
                         0000F3B7   285 _g_TXTCGP	=	0xf3b7
                         0000F3B9   286 _g_TXTATR	=	0xf3b9
                         0000F3BB   287 _g_TXTPAT	=	0xf3bb
                         0000F3BD   288 _g_T32NAM	=	0xf3bd
                         0000F3BF   289 _g_T32COL	=	0xf3bf
                         0000F3C1   290 _g_T32CGP	=	0xf3c1
                         0000F3C3   291 _g_T32ATR	=	0xf3c3
                         0000F3C5   292 _g_T32PAT	=	0xf3c5
                         0000F3C7   293 _g_GRPNAM	=	0xf3c7
                         0000F3C9   294 _g_GRPCOL	=	0xf3c9
                         0000F3CB   295 _g_GRPCGP	=	0xf3cb
                         0000F3CD   296 _g_GRPATR	=	0xf3cd
                         0000F3CF   297 _g_GRPPAT	=	0xf3cf
                         0000F3D1   298 _g_MLTNAM	=	0xf3d1
                         0000F3D3   299 _g_MLTCOL	=	0xf3d3
                         0000F3D5   300 _g_MLTCGP	=	0xf3d5
                         0000F3D7   301 _g_MLTATR	=	0xf3d7
                         0000F3D9   302 _g_MLTPAT	=	0xf3d9
                         0000F3DB   303 _g_CLIKSW	=	0xf3db
                         0000F3DC   304 _g_CSRY	=	0xf3dc
                         0000F3DD   305 _g_CSRX	=	0xf3dd
                         0000F3E9   306 _g_FORCLR	=	0xf3e9
                         0000F3EA   307 _g_BAKCLR	=	0xf3ea
                         0000F3EB   308 _g_BDRCLR	=	0xf3eb
                         0000F3F2   309 _g_ATRBYT	=	0xf3f2
                         0000F87F   310 _g_FNKSTR	=	0xf87f
                         0000F92A   311 _g_CLOC	=	0xf92a
                         0000F92C   312 _g_CMASK	=	0xf92c
                         0000FB02   313 _g_LOGOPR	=	0xfb02
                         0000FCB7   314 _g_GRPACX	=	0xfcb7
                         0000FCB9   315 _g_GRPACY	=	0xfcb9
                         0000FFFF   316 _g_SLTSL	=	0xffff
    00000000                        317 _TickThrowIn_s_Timeout_65537_1224:
    00000000                        318 	.ds 2
    00000002                        319 _TickThrowIn_s_Receivers_65537_1224:
    00000002                        320 	.ds 2
    00000004                        321 _TickThrowIn_s_SelectedReceiverIdx_65537_1224:
    00000004                        322 	.ds 1
    00000005                        323 _TickThrowIn_joyMoved_196612_1257:
    00000005                        324 	.ds 1
                                    325 ;--------------------------------------------------------
                                    326 ; ram data
                                    327 ;--------------------------------------------------------
                                    328 	.area _INITIALIZED
                                    329 ;--------------------------------------------------------
                                    330 ; absolute external ram data
                                    331 ;--------------------------------------------------------
                                    332 	.area _DABS (ABS)
                                    333 ;--------------------------------------------------------
                                    334 ; global & static initialisations
                                    335 ;--------------------------------------------------------
                                    336 	.area _HOME
                                    337 	.area _GSINIT
                                    338 	.area _GSFINAL
                                    339 	.area _GSINIT
                                    340 ;E:\Dropbox\FAUSTO\SVILUPPI\MSX\CODE\C\MSXgl\projects\soccerlgSCC/soccerlg_s7_b3.c:201: static u16 s_Timeout = 0;
    00000000 21 00 00         [10]  341 	ld	hl, #0x0000
    00000003 22r00r00         [16]  342 	ld	(_TickThrowIn_s_Timeout_65537_1224), hl
                                    343 ;E:\Dropbox\FAUSTO\SVILUPPI\MSX\CODE\C\MSXgl\projects\soccerlgSCC/soccerlg_s7_b3.c:203: static u8 s_SelectedReceiverIdx = 0;
    00000006 FD 21r04r00      [14]  344 	ld	iy, #_TickThrowIn_s_SelectedReceiverIdx_65537_1224
    0000000A FD 36 00 00      [19]  345 	ld	0 (iy), #0x00
                                    346 ;E:\Dropbox\FAUSTO\SVILUPPI\MSX\CODE\C\MSXgl\projects\soccerlgSCC/soccerlg_s7_b3.c:327: static bool joyMoved = false;
    0000000E FD 21r05r00      [14]  347 	ld	iy, #_TickThrowIn_joyMoved_196612_1257
    00000012 FD 36 00 00      [19]  348 	ld	0 (iy), #0x00
                                    349 ;--------------------------------------------------------
                                    350 ; Home
                                    351 ;--------------------------------------------------------
                                    352 	.area _HOME
                                    353 	.area _HOME
                                    354 ;--------------------------------------------------------
                                    355 ; code
                                    356 ;--------------------------------------------------------
                                    357 	.area _SEG7
                                    358 ;E:\Dropbox\FAUSTO\SVILUPPI\MSX\CODE\C\MSXgl\projects\soccerlgSCC/soccerlg_s7_b3.c:21: void CornerKick(u8 teamId){
                                    359 ;	---------------------------------
                                    360 ; Function CornerKick
                                    361 ; ---------------------------------
    00000000                        362 _CornerKick::
    00000000 DD E5            [15]  363 	push	ix
    00000002 DD 21 00 00      [14]  364 	ld	ix,#0
    00000006 DD 39            [15]  365 	add	ix,sp
    00000008 21 E7 FF         [10]  366 	ld	hl, #-25
    0000000B 39               [11]  367 	add	hl, sp
    0000000C F9               [ 6]  368 	ld	sp, hl
    0000000D DD 77 FE         [19]  369 	ld	-2 (ix), a
                                    370 ;E:\Dropbox\FAUSTO\SVILUPPI\MSX\CODE\C\MSXgl\projects\soccerlgSCC/soccerlg_s7_b3.c:23: V9990_PrintLayerAStringAtPos(10,12,"CORNER KICK");
    00000010 21r4Ar04         [10]  371 	ld	hl, #___str_0
    00000013 E5               [11]  372 	push	hl
    00000014 2E 0C            [ 7]  373 	ld	l, #0x0c
                                    374 ;	spillPairReg hl
                                    375 ;	spillPairReg hl
    00000016 3E 0A            [ 7]  376 	ld	a, #0x0a
    00000018 CDr00r00         [17]  377 	call	_V9990_PrintLayerAStringAtPos
                                    378 ;E:\Dropbox\FAUSTO\SVILUPPI\MSX\CODE\C\MSXgl\projects\soccerlgSCC/soccerlg_s7_b3.c:24: PlayPCM(PCM_REFEREER);
    0000001B 3E 05            [ 7]  379 	ld	a, #0x05
    0000001D CDr00r00         [17]  380 	call	_PlayPCM
                                    381 ;E:\Dropbox\FAUSTO\SVILUPPI\MSX\CODE\C\MSXgl\projects\soccerlgSCC/soccerlg_s7_b3.c:25: PlayPCM(PCM_CORNERKICK);
    00000020 AF               [ 4]  382 	xor	a, a
    00000021 CDr00r00         [17]  383 	call	_PlayPCM
                                    384 ;E:\Dropbox\FAUSTO\SVILUPPI\MSX\CODE\C\MSXgl\projects\soccerlgSCC/soccerlg_s7_b3.c:26: g_MatchStatus=MATCH_BEFORE_CORNER_KICK;
    00000024 21r00r00         [10]  385 	ld	hl, #_g_MatchStatus
    00000027 36 02            [10]  386 	ld	(hl), #0x02
                                    387 ;E:\Dropbox\FAUSTO\SVILUPPI\MSX\CODE\C\MSXgl\projects\soccerlgSCC/soccerlg_s7_b3.c:27: g_RestartKickTeamId = teamId;
    00000029 DD 7E FE         [19]  388 	ld	a, -2 (ix)
    0000002C 32r00r00         [13]  389 	ld	(_g_RestartKickTeamId+0), a
                                    390 ;E:\Dropbox\FAUSTO\SVILUPPI\MSX\CODE\C\MSXgl\projects\soccerlgSCC/soccerlg_s7_b3.c:28: g_CornerKickTargetId = NO_VALUE;
    0000002F 21r00r00         [10]  391 	ld	hl, #_g_CornerKickTargetId
    00000032 36 FF            [10]  392 	ld	(hl), #0xff
                                    393 ;E:\Dropbox\FAUSTO\SVILUPPI\MSX\CODE\C\MSXgl\projects\soccerlgSCC/soccerlg_s7_b3.c:29: g_Timer = 0;
    00000034 21r00r00         [10]  394 	ld	hl, #_g_Timer
    00000037 36 00            [10]  395 	ld	(hl), #0x00
                                    396 ;E:\Dropbox\FAUSTO\SVILUPPI\MSX\CODE\C\MSXgl\projects\soccerlgSCC/soccerlg_s7_b3.c:32: if (g_Ball.X < FIELD_POS_X_CENTER) g_CornerKickSide = CORNER_SIDE_LEFT;
    00000039 01r00r00         [10]  397 	ld	bc, #_g_Ball+0
    0000003C 2Ar02r00         [16]  398 	ld	hl, (#(_g_Ball + 2) + 0)
    0000003F 11 78 00         [10]  399 	ld	de, #0x0078
    00000042 BF               [ 4]  400 	cp	a, a
    00000043 ED 52            [15]  401 	sbc	hl, de
    00000045 30 08            [12]  402 	jr	NC, 00102$
    00000047 21r00r00         [10]  403 	ld	hl, #_g_CornerKickSide
    0000004A 36 00            [10]  404 	ld	(hl), #0x00
    0000004C C3r57r00         [10]  405 	jp	00103$
    0000004F                        406 00102$:
                                    407 ;E:\Dropbox\FAUSTO\SVILUPPI\MSX\CODE\C\MSXgl\projects\soccerlgSCC/soccerlg_s7_b3.c:33: else g_CornerKickSide = CORNER_SIDE_RIGHT;
    0000004F 21r00r00         [10]  408 	ld	hl, #_g_CornerKickSide
    00000052 36 01            [10]  409 	ld	(hl), #0x01
                                    410 ;E:\Dropbox\FAUSTO\SVILUPPI\MSX\CODE\C\MSXgl\projects\soccerlgSCC/soccerlg_s7_b3.c:38: u16 kickX = (g_CornerKickSide == CORNER_SIDE_LEFT) ? FIELD_BOUND_X_LEFT : FIELD_BOUND_X_RIGHT;
    00000054 C3r5Dr00         [10]  411 	jp	00155$
                                    412 ;E:\Dropbox\FAUSTO\SVILUPPI\MSX\CODE\C\MSXgl\projects\soccerlgSCC/soccerlg_s7_b3.c:33: else g_CornerKickSide = CORNER_SIDE_RIGHT;
    00000057                        413 00103$:
                                    414 ;E:\Dropbox\FAUSTO\SVILUPPI\MSX\CODE\C\MSXgl\projects\soccerlgSCC/soccerlg_s7_b3.c:38: u16 kickX = (g_CornerKickSide == CORNER_SIDE_LEFT) ? FIELD_BOUND_X_LEFT : FIELD_BOUND_X_RIGHT;
    00000057 11 0A 00         [10]  415 	ld	de, #0x000a
    0000005A C3r60r00         [10]  416 	jp	00156$
    0000005D                        417 00155$:
    0000005D 11 EC 00         [10]  418 	ld	de, #0x00ec
    00000060                        419 00156$:
    00000060 DD 73 E9         [19]  420 	ld	-23 (ix), e
    00000063 DD 72 EA         [19]  421 	ld	-22 (ix), d
                                    422 ;E:\Dropbox\FAUSTO\SVILUPPI\MSX\CODE\C\MSXgl\projects\soccerlgSCC/soccerlg_s7_b3.c:39: u16 kickY = (teamId == TEAM_1) ? FIELD_BOUND_Y_TOP : FIELD_BOUND_Y_BOTTOM;
    00000066 DD 7E FE         [19]  423 	ld	a, -2 (ix)
    00000069 3D               [ 4]  424 	dec	a
    0000006A 3E 01            [ 7]  425 	ld	a, #0x01
    0000006C 28 01            [12]  426 	jr	Z, 00323$
    0000006E AF               [ 4]  427 	xor	a, a
    0000006F                        428 00323$:
    0000006F DD 77 FD         [19]  429 	ld	-3 (ix), a
    00000072 B7               [ 4]  430 	or	a, a
    00000073 28 06            [12]  431 	jr	Z, 00157$
    00000075 11 32 00         [10]  432 	ld	de, #0x0032
    00000078 C3r7Er00         [10]  433 	jp	00158$
    0000007B                        434 00157$:
    0000007B 11 B3 01         [10]  435 	ld	de, #0x01b3
    0000007E                        436 00158$:
    0000007E DD 73 EB         [19]  437 	ld	-21 (ix), e
    00000081 DD 72 EC         [19]  438 	ld	-20 (ix), d
                                    439 ;E:\Dropbox\FAUSTO\SVILUPPI\MSX\CODE\C\MSXgl\projects\soccerlgSCC/soccerlg_s7_b3.c:42: if (teamId == TEAM_1) g_FieldScrollingActionInProgress=FIELD_NORTH_ZONE;
    00000084 DD 7E FD         [19]  440 	ld	a, -3 (ix)
    00000087 B7               [ 4]  441 	or	a, a
    00000088 28 08            [12]  442 	jr	Z, 00105$
    0000008A 21r00r00         [10]  443 	ld	hl, #_g_FieldScrollingActionInProgress
    0000008D 36 00            [10]  444 	ld	(hl), #0x00
    0000008F C3r97r00         [10]  445 	jp	00106$
    00000092                        446 00105$:
                                    447 ;E:\Dropbox\FAUSTO\SVILUPPI\MSX\CODE\C\MSXgl\projects\soccerlgSCC/soccerlg_s7_b3.c:43: else g_FieldScrollingActionInProgress=FIELD_SOUTH_ZONE;
    00000092 21r00r00         [10]  448 	ld	hl, #_g_FieldScrollingActionInProgress
    00000095 36 02            [10]  449 	ld	(hl), #0x02
    00000097                        450 00106$:
                                    451 ;E:\Dropbox\FAUSTO\SVILUPPI\MSX\CODE\C\MSXgl\projects\soccerlgSCC/soccerlg_s7_b3.c:47: if (g_CornerKickSide == CORNER_SIDE_LEFT) kickerId = CallFnc_U8_P2(4,GetPlayerIdByRole,teamId, PLAYER_ROLE_LEFT_STRIKER);
    00000097 3Ar00r00         [13]  452 	ld	a, (_g_CornerKickSide+0)
    0000009A B7               [ 4]  453 	or	a, a
    0000009B 20 16            [12]  454 	jr	NZ, 00108$
    0000009D C5               [11]  455 	push	bc
    0000009E 26 05            [ 7]  456 	ld	h, #0x05
    000000A0 DD 6E FE         [19]  457 	ld	l, -2 (ix)
    000000A3 E5               [11]  458 	push	hl
    000000A4 11r00r00         [10]  459 	ld	de, #_GetPlayerIdByRole
    000000A7 3E 04            [ 7]  460 	ld	a, #0x04
    000000A9 CDr00r00         [17]  461 	call	_CallFnc_U8_P2
    000000AC C1               [10]  462 	pop	bc
    000000AD DD 77 ED         [19]  463 	ld	-19 (ix), a
    000000B0 C3rC6r00         [10]  464 	jp	00109$
    000000B3                        465 00108$:
                                    466 ;E:\Dropbox\FAUSTO\SVILUPPI\MSX\CODE\C\MSXgl\projects\soccerlgSCC/soccerlg_s7_b3.c:48: else kickerId = CallFnc_U8_P2(4,GetPlayerIdByRole,teamId, PLAYER_ROLE_RIGHT_STRIKER);
    000000B3 C5               [11]  467 	push	bc
    000000B4 26 06            [ 7]  468 	ld	h, #0x06
    000000B6 DD 6E FE         [19]  469 	ld	l, -2 (ix)
    000000B9 E5               [11]  470 	push	hl
    000000BA 11r00r00         [10]  471 	ld	de, #_GetPlayerIdByRole
    000000BD 3E 04            [ 7]  472 	ld	a, #0x04
    000000BF CDr00r00         [17]  473 	call	_CallFnc_U8_P2
    000000C2 C1               [10]  474 	pop	bc
    000000C3 DD 77 ED         [19]  475 	ld	-19 (ix), a
    000000C6                        476 00109$:
                                    477 ;E:\Dropbox\FAUSTO\SVILUPPI\MSX\CODE\C\MSXgl\projects\soccerlgSCC/soccerlg_s7_b3.c:51: g_Ball.PossessionPlayerId = NO_VALUE; 
    000000C6 21r06r00         [10]  478 	ld	hl, #(_g_Ball + 6)
    000000C9 36 FF            [10]  479 	ld	(hl), #0xff
                                    480 ;E:\Dropbox\FAUSTO\SVILUPPI\MSX\CODE\C\MSXgl\projects\soccerlgSCC/soccerlg_s7_b3.c:52: CallFnc_VOID_P1(4,SetPlayerBallPossession,NO_VALUE);
    000000CB C5               [11]  481 	push	bc
    000000CC 3E FF            [ 7]  482 	ld	a, #0xff
    000000CE F5               [11]  483 	push	af
    000000CF 33               [ 6]  484 	inc	sp
    000000D0 11r00r00         [10]  485 	ld	de, #_SetPlayerBallPossession
    000000D3 3E 04            [ 7]  486 	ld	a, #0x04
    000000D5 CDr00r00         [17]  487 	call	_CallFnc_VOID_P1
    000000D8 C1               [10]  488 	pop	bc
                                    489 ;E:\Dropbox\FAUSTO\SVILUPPI\MSX\CODE\C\MSXgl\projects\soccerlgSCC/soccerlg_s7_b3.c:53: if(teamId == TEAM_1) g_Team1ActivePlayer = kickerId; // Ensure kicker is selected active
    000000D9 DD 7E FD         [19]  490 	ld	a, -3 (ix)
    000000DC B7               [ 4]  491 	or	a, a
    000000DD 28 09            [12]  492 	jr	Z, 00111$
    000000DF DD 7E ED         [19]  493 	ld	a, -19 (ix)
    000000E2 32r00r00         [13]  494 	ld	(_g_Team1ActivePlayer+0), a
    000000E5 C3rEEr00         [10]  495 	jp	00112$
    000000E8                        496 00111$:
                                    497 ;E:\Dropbox\FAUSTO\SVILUPPI\MSX\CODE\C\MSXgl\projects\soccerlgSCC/soccerlg_s7_b3.c:54: else g_Team2ActivePlayer = kickerId;
    000000E8 DD 7E ED         [19]  498 	ld	a, -19 (ix)
    000000EB 32r00r00         [13]  499 	ld	(_g_Team2ActivePlayer+0), a
    000000EE                        500 00112$:
                                    501 ;E:\Dropbox\FAUSTO\SVILUPPI\MSX\CODE\C\MSXgl\projects\soccerlgSCC/soccerlg_s7_b3.c:62: i8 offX = 0; i8 offY = 0;
    000000EE 2E 00            [ 7]  502 	ld	l, #0x00
                                    503 ;	spillPairReg hl
                                    504 ;	spillPairReg hl
    000000F0 DD 36 FF 00      [19]  505 	ld	-1 (ix), #0x00
                                    506 ;E:\Dropbox\FAUSTO\SVILUPPI\MSX\CODE\C\MSXgl\projects\soccerlgSCC/soccerlg_s7_b3.c:63: if (teamId == TEAM_2 && g_CornerKickSide == CORNER_SIDE_RIGHT) {
    000000F4 DD 7E FE         [19]  507 	ld	a, -2 (ix)
    000000F7 D6 02            [ 7]  508 	sub	a, #0x02
    000000F9 20 0C            [12]  509 	jr	NZ, 00114$
    000000FB 3Ar00r00         [13]  510 	ld	a, (_g_CornerKickSide+0)
    000000FE 3D               [ 4]  511 	dec	a
    000000FF 20 06            [12]  512 	jr	NZ, 00114$
                                    513 ;E:\Dropbox\FAUSTO\SVILUPPI\MSX\CODE\C\MSXgl\projects\soccerlgSCC/soccerlg_s7_b3.c:64: offX = -30;
    00000101 2E E2            [ 7]  514 	ld	l, #0xe2
                                    515 ;	spillPairReg hl
                                    516 ;	spillPairReg hl
                                    517 ;E:\Dropbox\FAUSTO\SVILUPPI\MSX\CODE\C\MSXgl\projects\soccerlgSCC/soccerlg_s7_b3.c:65: offY = -5;
    00000103 DD 36 FF FB      [19]  518 	ld	-1 (ix), #0xfb
    00000107                        519 00114$:
                                    520 ;E:\Dropbox\FAUSTO\SVILUPPI\MSX\CODE\C\MSXgl\projects\soccerlgSCC/soccerlg_s7_b3.c:68: g_Ball.X = kickX + offX;
    00000107 7D               [ 4]  521 	ld	a, l
    00000108 07               [ 4]  522 	rlca
    00000109 9F               [ 4]  523 	sbc	a, a
    0000010A 67               [ 4]  524 	ld	h, a
                                    525 ;	spillPairReg hl
                                    526 ;	spillPairReg hl
    0000010B DD 5E E9         [19]  527 	ld	e, -23 (ix)
    0000010E DD 56 EA         [19]  528 	ld	d, -22 (ix)
    00000111 19               [11]  529 	add	hl, de
    00000112 EB               [ 4]  530 	ex	de, hl
    00000113 ED 53r02r00      [20]  531 	ld	((_g_Ball + 2)), de
                                    532 ;E:\Dropbox\FAUSTO\SVILUPPI\MSX\CODE\C\MSXgl\projects\soccerlgSCC/soccerlg_s7_b3.c:69: g_Ball.Y = kickY + offY;
    00000117 DD 7E FF         [19]  533 	ld	a, -1 (ix)
    0000011A 6F               [ 4]  534 	ld	l, a
                                    535 ;	spillPairReg hl
                                    536 ;	spillPairReg hl
    0000011B 07               [ 4]  537 	rlca
    0000011C 9F               [ 4]  538 	sbc	a, a
    0000011D DD 5E EB         [19]  539 	ld	e, -21 (ix)
    00000120 DD 56 EC         [19]  540 	ld	d, -20 (ix)
    00000123 67               [ 4]  541 	ld	h, a
                                    542 ;	spillPairReg hl
                                    543 ;	spillPairReg hl
    00000124 19               [11]  544 	add	hl, de
    00000125 EB               [ 4]  545 	ex	de, hl
    00000126 69               [ 4]  546 	ld	l, c
    00000127 60               [ 4]  547 	ld	h, b
    00000128 73               [ 7]  548 	ld	(hl), e
    00000129 23               [ 6]  549 	inc	hl
    0000012A 72               [ 7]  550 	ld	(hl), d
                                    551 ;E:\Dropbox\FAUSTO\SVILUPPI\MSX\CODE\C\MSXgl\projects\soccerlgSCC/soccerlg_s7_b3.c:70: g_Ball.PreviousY = g_Ball.Y;
    0000012B ED 53r07r00      [20]  552 	ld	((_g_Ball + 7)), de
                                    553 ;E:\Dropbox\FAUSTO\SVILUPPI\MSX\CODE\C\MSXgl\projects\soccerlgSCC/soccerlg_s7_b3.c:74: bool attackingUp = (teamId == TEAM_1);
    0000012F DD 7E FD         [19]  554 	ld	a, -3 (ix)
                                    555 ;E:\Dropbox\FAUSTO\SVILUPPI\MSX\CODE\C\MSXgl\projects\soccerlgSCC/soccerlg_s7_b3.c:78: u16 yBoxInside     = (attackingUp) ? (FIELD_BOUND_Y_TOP + 40) : (FIELD_BOUND_Y_BOTTOM - 40);
    00000132 DD 77 EE         [19]  556 	ld	-18 (ix), a
    00000135 B7               [ 4]  557 	or	a, a
    00000136 28 06            [12]  558 	jr	Z, 00161$
    00000138 01 5A 00         [10]  559 	ld	bc, #0x005a
    0000013B C3r41r01         [10]  560 	jp	00162$
    0000013E                        561 00161$:
    0000013E 01 8B 01         [10]  562 	ld	bc, #0x018b
    00000141                        563 00162$:
    00000141 DD 71 EF         [19]  564 	ld	-17 (ix), c
    00000144 DD 70 F0         [19]  565 	ld	-16 (ix), b
                                    566 ;E:\Dropbox\FAUSTO\SVILUPPI\MSX\CODE\C\MSXgl\projects\soccerlgSCC/soccerlg_s7_b3.c:79: u16 yBoxOutside    = (attackingUp) ? (FIELD_BOUND_Y_TOP + 90) : (FIELD_BOUND_Y_BOTTOM - 90);
    00000147 DD 7E EE         [19]  567 	ld	a, -18 (ix)
    0000014A B7               [ 4]  568 	or	a, a
    0000014B 28 06            [12]  569 	jr	Z, 00163$
    0000014D 01 8C 00         [10]  570 	ld	bc, #0x008c
    00000150 C3r56r01         [10]  571 	jp	00164$
    00000153                        572 00163$:
    00000153 01 59 01         [10]  573 	ld	bc, #0x0159
    00000156                        574 00164$:
    00000156 DD 71 F1         [19]  575 	ld	-15 (ix), c
    00000159 DD 70 F2         [19]  576 	ld	-14 (ix), b
                                    577 ;E:\Dropbox\FAUSTO\SVILUPPI\MSX\CODE\C\MSXgl\projects\soccerlgSCC/soccerlg_s7_b3.c:80: u16 yMidfieldAdv   = (attackingUp) ? (FIELD_BOUND_Y_TOP + 160) : (FIELD_BOUND_Y_BOTTOM - 160);
    0000015C DD 7E EE         [19]  578 	ld	a, -18 (ix)
    0000015F B7               [ 4]  579 	or	a, a
    00000160 28 06            [12]  580 	jr	Z, 00165$
    00000162 01 D2 00         [10]  581 	ld	bc, #0x00d2
    00000165 C3r6Br01         [10]  582 	jp	00166$
    00000168                        583 00165$:
    00000168 01 13 01         [10]  584 	ld	bc, #0x0113
    0000016B                        585 00166$:
    0000016B DD 71 F3         [19]  586 	ld	-13 (ix), c
    0000016E DD 70 F4         [19]  587 	ld	-12 (ix), b
                                    588 ;E:\Dropbox\FAUSTO\SVILUPPI\MSX\CODE\C\MSXgl\projects\soccerlgSCC/soccerlg_s7_b3.c:82: u16 ySafety        = (attackingUp) ? (FIELD_BOUND_Y_BOTTOM - 100) : (FIELD_BOUND_Y_TOP + 100);
    00000171 DD 7E EE         [19]  589 	ld	a, -18 (ix)
    00000174 B7               [ 4]  590 	or	a, a
    00000175 28 06            [12]  591 	jr	Z, 00167$
    00000177 01 4F 01         [10]  592 	ld	bc, #0x014f
    0000017A C3r80r01         [10]  593 	jp	00168$
    0000017D                        594 00167$:
    0000017D 01 96 00         [10]  595 	ld	bc, #0x0096
    00000180                        596 00168$:
    00000180 DD 71 F5         [19]  597 	ld	-11 (ix), c
    00000183 DD 70 F6         [19]  598 	ld	-10 (ix), b
                                    599 ;E:\Dropbox\FAUSTO\SVILUPPI\MSX\CODE\C\MSXgl\projects\soccerlgSCC/soccerlg_s7_b3.c:84: for(u8 i=0; i<14; i++) {
    00000186 DD 36 FF 00      [19]  600 	ld	-1 (ix), #0x00
    0000018A                        601 00152$:
    0000018A DD 7E FF         [19]  602 	ld	a, -1 (ix)
    0000018D D6 0E            [ 7]  603 	sub	a, #0x0e
    0000018F D2r45r04         [10]  604 	jp	NC, 00153$
                                    605 ;E:\Dropbox\FAUSTO\SVILUPPI\MSX\CODE\C\MSXgl\projects\soccerlgSCC/soccerlg_s7_b3.c:85: g_Players[i].Status = PLAYER_STATUS_NONE;
    00000192 DD 4E FF         [19]  606 	ld	c, -1 (ix)
    00000195 06 00            [ 7]  607 	ld	b, #0x00
    00000197 69               [ 4]  608 	ld	l, c
    00000198 60               [ 4]  609 	ld	h, b
    00000199 29               [11]  610 	add	hl, hl
    0000019A 29               [11]  611 	add	hl, hl
    0000019B 09               [11]  612 	add	hl, bc
    0000019C 29               [11]  613 	add	hl, hl
    0000019D 29               [11]  614 	add	hl, hl
    0000019E 09               [11]  615 	add	hl, bc
    0000019F DD 75 FA         [19]  616 	ld	-6 (ix), l
    000001A2 DD 74 FB         [19]  617 	ld	-5 (ix), h
    000001A5 DD 7E FA         [19]  618 	ld	a, -6 (ix)
    000001A8 C6r00            [ 7]  619 	add	a, #<(_g_Players)
    000001AA DD 77 FC         [19]  620 	ld	-4 (ix), a
    000001AD DD 7E FB         [19]  621 	ld	a, -5 (ix)
    000001B0 CEs00            [ 7]  622 	adc	a, #>(_g_Players)
    000001B2 DD 77 FD         [19]  623 	ld	-3 (ix), a
    000001B5 DD 7E FC         [19]  624 	ld	a, -4 (ix)
    000001B8 C6 12            [ 7]  625 	add	a, #0x12
    000001BA DD 77 FA         [19]  626 	ld	-6 (ix), a
    000001BD DD 7E FD         [19]  627 	ld	a, -3 (ix)
    000001C0 CE 00            [ 7]  628 	adc	a, #0x00
    000001C2 DD 77 FB         [19]  629 	ld	-5 (ix), a
    000001C5 DD 6E FA         [19]  630 	ld	l, -6 (ix)
    000001C8 DD 66 FB         [19]  631 	ld	h, -5 (ix)
    000001CB AF               [ 4]  632 	xor	a, a
    000001CC 77               [ 7]  633 	ld	(hl), a
    000001CD 23               [ 6]  634 	inc	hl
    000001CE 77               [ 7]  635 	ld	(hl), a
                                    636 ;E:\Dropbox\FAUSTO\SVILUPPI\MSX\CODE\C\MSXgl\projects\soccerlgSCC/soccerlg_s7_b3.c:86: g_Players[i].TargetX = g_Players[i].X;
    000001CF DD 7E FC         [19]  637 	ld	a, -4 (ix)
    000001D2 C6 10            [ 7]  638 	add	a, #0x10
    000001D4 DD 77 F7         [19]  639 	ld	-9 (ix), a
    000001D7 DD 7E FD         [19]  640 	ld	a, -3 (ix)
    000001DA CE 00            [ 7]  641 	adc	a, #0x00
    000001DC DD 77 F8         [19]  642 	ld	-8 (ix), a
    000001DF DD 7E FC         [19]  643 	ld	a, -4 (ix)
    000001E2 DD 77 FA         [19]  644 	ld	-6 (ix), a
    000001E5 DD 7E FD         [19]  645 	ld	a, -3 (ix)
    000001E8 DD 77 FB         [19]  646 	ld	-5 (ix), a
    000001EB DD 6E FA         [19]  647 	ld	l, -6 (ix)
    000001EE DD 66 FB         [19]  648 	ld	h, -5 (ix)
    000001F1 23               [ 6]  649 	inc	hl
    000001F2 23               [ 6]  650 	inc	hl
    000001F3 7E               [ 7]  651 	ld	a, (hl)
    000001F4 DD 77 FA         [19]  652 	ld	-6 (ix), a
    000001F7 23               [ 6]  653 	inc	hl
    000001F8 7E               [ 7]  654 	ld	a, (hl)
    000001F9 DD 77 FB         [19]  655 	ld	-5 (ix), a
    000001FC DD 6E F7         [19]  656 	ld	l, -9 (ix)
    000001FF DD 66 F8         [19]  657 	ld	h, -8 (ix)
    00000202 DD 7E FA         [19]  658 	ld	a, -6 (ix)
    00000205 77               [ 7]  659 	ld	(hl), a
    00000206 23               [ 6]  660 	inc	hl
    00000207 DD 7E FB         [19]  661 	ld	a, -5 (ix)
    0000020A 77               [ 7]  662 	ld	(hl), a
                                    663 ;E:\Dropbox\FAUSTO\SVILUPPI\MSX\CODE\C\MSXgl\projects\soccerlgSCC/soccerlg_s7_b3.c:87: g_Players[i].TargetY = g_Players[i].Y;
    0000020B DD 7E FC         [19]  664 	ld	a, -4 (ix)
    0000020E C6 0E            [ 7]  665 	add	a, #0x0e
    00000210 DD 77 F9         [19]  666 	ld	-7 (ix), a
    00000213 DD 7E FD         [19]  667 	ld	a, -3 (ix)
    00000216 CE 00            [ 7]  668 	adc	a, #0x00
    00000218 DD 77 FA         [19]  669 	ld	-6 (ix), a
    0000021B DD 6E FC         [19]  670 	ld	l, -4 (ix)
    0000021E DD 66 FD         [19]  671 	ld	h, -3 (ix)
    00000221 4E               [ 7]  672 	ld	c, (hl)
    00000222 23               [ 6]  673 	inc	hl
    00000223 46               [ 7]  674 	ld	b, (hl)
    00000224 DD 6E F9         [19]  675 	ld	l, -7 (ix)
    00000227 DD 66 FA         [19]  676 	ld	h, -6 (ix)
    0000022A 71               [ 7]  677 	ld	(hl), c
    0000022B 23               [ 6]  678 	inc	hl
    0000022C 70               [ 7]  679 	ld	(hl), b
                                    680 ;E:\Dropbox\FAUSTO\SVILUPPI\MSX\CODE\C\MSXgl\projects\soccerlgSCC/soccerlg_s7_b3.c:89: u8 role = g_Players[i].Role;
    0000022D DD 7E FC         [19]  681 	ld	a, -4 (ix)
    00000230 DD 77 E7         [19]  682 	ld	-25 (ix), a
    00000233 DD 7E FD         [19]  683 	ld	a, -3 (ix)
    00000236 DD 77 E8         [19]  684 	ld	-24 (ix), a
    00000239 E1               [10]  685 	pop	hl
    0000023A E5               [11]  686 	push	hl
    0000023B 11 0D 00         [10]  687 	ld	de, #0x000d
    0000023E 19               [11]  688 	add	hl, de
    0000023F 7E               [ 7]  689 	ld	a, (hl)
    00000240 DD 77 FB         [19]  690 	ld	-5 (ix), a
                                    691 ;E:\Dropbox\FAUSTO\SVILUPPI\MSX\CODE\C\MSXgl\projects\soccerlgSCC/soccerlg_s7_b3.c:90: bool isAttacker = (g_Players[i].TeamId == teamId);
    00000243 DD 6E FC         [19]  692 	ld	l, -4 (ix)
    00000246 DD 66 FD         [19]  693 	ld	h, -3 (ix)
    00000249 11 09 00         [10]  694 	ld	de, #0x0009
    0000024C 19               [11]  695 	add	hl, de
    0000024D DD 7E FE         [19]  696 	ld	a,-2 (ix)
    00000250 96               [ 7]  697 	sub	a,(hl)
    00000251 3E 01            [ 7]  698 	ld	a, #0x01
    00000253 28 01            [12]  699 	jr	Z, 00329$
    00000255 AF               [ 4]  700 	xor	a, a
    00000256                        701 00329$:
    00000256 4F               [ 4]  702 	ld	c, a
                                    703 ;E:\Dropbox\FAUSTO\SVILUPPI\MSX\CODE\C\MSXgl\projects\soccerlgSCC/soccerlg_s7_b3.c:93: if (i == kickerId) {
    00000257 DD 7E ED         [19]  704 	ld	a, -19 (ix)
    0000025A DD 96 FF         [19]  705 	sub	a, -1 (ix)
    0000025D 20 21            [12]  706 	jr	NZ, 00117$
                                    707 ;E:\Dropbox\FAUSTO\SVILUPPI\MSX\CODE\C\MSXgl\projects\soccerlgSCC/soccerlg_s7_b3.c:94: g_Players[i].TargetX = kickX;
    0000025F DD 6E F7         [19]  708 	ld	l, -9 (ix)
    00000262 DD 66 F8         [19]  709 	ld	h, -8 (ix)
    00000265 DD 7E E9         [19]  710 	ld	a, -23 (ix)
    00000268 77               [ 7]  711 	ld	(hl), a
    00000269 23               [ 6]  712 	inc	hl
    0000026A DD 7E EA         [19]  713 	ld	a, -22 (ix)
    0000026D 77               [ 7]  714 	ld	(hl), a
                                    715 ;E:\Dropbox\FAUSTO\SVILUPPI\MSX\CODE\C\MSXgl\projects\soccerlgSCC/soccerlg_s7_b3.c:95: g_Players[i].TargetY = kickY;
    0000026E DD 6E F9         [19]  716 	ld	l, -7 (ix)
    00000271 DD 66 FA         [19]  717 	ld	h, -6 (ix)
    00000274 DD 7E EB         [19]  718 	ld	a, -21 (ix)
    00000277 77               [ 7]  719 	ld	(hl), a
    00000278 23               [ 6]  720 	inc	hl
    00000279 DD 7E EC         [19]  721 	ld	a, -20 (ix)
    0000027C 77               [ 7]  722 	ld	(hl), a
                                    723 ;E:\Dropbox\FAUSTO\SVILUPPI\MSX\CODE\C\MSXgl\projects\soccerlgSCC/soccerlg_s7_b3.c:96: continue;
    0000027D C3r3Fr04         [10]  724 	jp	00149$
    00000280                        725 00117$:
                                    726 ;E:\Dropbox\FAUSTO\SVILUPPI\MSX\CODE\C\MSXgl\projects\soccerlgSCC/soccerlg_s7_b3.c:99: if (isAttacker) {
    00000280 79               [ 4]  727 	ld	a, c
    00000281 B7               [ 4]  728 	or	a, a
    00000282 CAr73r03         [10]  729 	jp	Z, 00147$
                                    730 ;E:\Dropbox\FAUSTO\SVILUPPI\MSX\CODE\C\MSXgl\projects\soccerlgSCC/soccerlg_s7_b3.c:101: if (role == PLAYER_ROLE_GOALKEEPER) {
    00000285 DD 7E FB         [19]  731 	ld	a, -5 (ix)
    00000288 B7               [ 4]  732 	or	a, a
    00000289 20 26            [12]  733 	jr	NZ, 00133$
                                    734 ;E:\Dropbox\FAUSTO\SVILUPPI\MSX\CODE\C\MSXgl\projects\soccerlgSCC/soccerlg_s7_b3.c:103: g_Players[i].TargetX = FIELD_POS_X_CENTER;
    0000028B DD 6E F7         [19]  735 	ld	l, -9 (ix)
    0000028E DD 66 F8         [19]  736 	ld	h, -8 (ix)
    00000291 36 78            [10]  737 	ld	(hl), #0x78
    00000293 23               [ 6]  738 	inc	hl
    00000294 36 00            [10]  739 	ld	(hl), #0x00
                                    740 ;E:\Dropbox\FAUSTO\SVILUPPI\MSX\CODE\C\MSXgl\projects\soccerlgSCC/soccerlg_s7_b3.c:104: g_Players[i].TargetY = (attackingUp) ? FIELD_BOUND_Y_BOTTOM - 20 : FIELD_BOUND_Y_TOP + 20;
    00000296 DD 6E F9         [19]  741 	ld	l, -7 (ix)
                                    742 ;	spillPairReg hl
                                    743 ;	spillPairReg hl
    00000299 DD 66 FA         [19]  744 	ld	h, -6 (ix)
                                    745 ;	spillPairReg hl
                                    746 ;	spillPairReg hl
    0000029C DD 7E EE         [19]  747 	ld	a, -18 (ix)
    0000029F B7               [ 4]  748 	or	a, a
    000002A0 28 06            [12]  749 	jr	Z, 00169$
    000002A2 11 9F 01         [10]  750 	ld	de, #0x019f
    000002A5 C3rABr02         [10]  751 	jp	00170$
    000002A8                        752 00169$:
    000002A8 11 46 00         [10]  753 	ld	de, #0x0046
    000002AB                        754 00170$:
    000002AB 73               [ 7]  755 	ld	(hl), e
    000002AC 23               [ 6]  756 	inc	hl
    000002AD 72               [ 7]  757 	ld	(hl), d
    000002AE C3r3Fr04         [10]  758 	jp	00149$
    000002B1                        759 00133$:
                                    760 ;E:\Dropbox\FAUSTO\SVILUPPI\MSX\CODE\C\MSXgl\projects\soccerlgSCC/soccerlg_s7_b3.c:106: else if (role == PLAYER_ROLE_LEFT_DEFENDER || role == PLAYER_ROLE_RIGHT_DEFENDER) {
    000002B1 DD 7E FB         [19]  761 	ld	a, -5 (ix)
    000002B4 3D               [ 4]  762 	dec	a
    000002B5 3E 01            [ 7]  763 	ld	a, #0x01
    000002B7 28 01            [12]  764 	jr	Z, 00333$
    000002B9 AF               [ 4]  765 	xor	a, a
    000002BA                        766 00333$:
    000002BA 4F               [ 4]  767 	ld	c, a
    000002BB B7               [ 4]  768 	or	a, a
    000002BC 20 07            [12]  769 	jr	NZ, 00128$
    000002BE DD 7E FB         [19]  770 	ld	a, -5 (ix)
    000002C1 D6 02            [ 7]  771 	sub	a, #0x02
    000002C3 20 3E            [12]  772 	jr	NZ, 00129$
    000002C5                        773 00128$:
                                    774 ;E:\Dropbox\FAUSTO\SVILUPPI\MSX\CODE\C\MSXgl\projects\soccerlgSCC/soccerlg_s7_b3.c:107: if (role == PLAYER_ROLE_LEFT_DEFENDER) {
    000002C5 79               [ 4]  775 	ld	a, c
    000002C6 B7               [ 4]  776 	or	a, a
    000002C7 28 1D            [12]  777 	jr	Z, 00119$
                                    778 ;E:\Dropbox\FAUSTO\SVILUPPI\MSX\CODE\C\MSXgl\projects\soccerlgSCC/soccerlg_s7_b3.c:109: g_Players[i].TargetX = FIELD_POS_X_CENTER - 30;
    000002C9 DD 6E F7         [19]  779 	ld	l, -9 (ix)
    000002CC DD 66 F8         [19]  780 	ld	h, -8 (ix)
    000002CF 36 5A            [10]  781 	ld	(hl), #0x5a
    000002D1 23               [ 6]  782 	inc	hl
    000002D2 36 00            [10]  783 	ld	(hl), #0x00
                                    784 ;E:\Dropbox\FAUSTO\SVILUPPI\MSX\CODE\C\MSXgl\projects\soccerlgSCC/soccerlg_s7_b3.c:110: g_Players[i].TargetY = yMidfieldAdv;
    000002D4 DD 6E F9         [19]  785 	ld	l, -7 (ix)
    000002D7 DD 66 FA         [19]  786 	ld	h, -6 (ix)
    000002DA DD 7E F3         [19]  787 	ld	a, -13 (ix)
    000002DD 77               [ 7]  788 	ld	(hl), a
    000002DE 23               [ 6]  789 	inc	hl
    000002DF DD 7E F4         [19]  790 	ld	a, -12 (ix)
    000002E2 77               [ 7]  791 	ld	(hl), a
    000002E3 C3r3Fr04         [10]  792 	jp	00149$
    000002E6                        793 00119$:
                                    794 ;E:\Dropbox\FAUSTO\SVILUPPI\MSX\CODE\C\MSXgl\projects\soccerlgSCC/soccerlg_s7_b3.c:113: g_Players[i].TargetX = FIELD_POS_X_CENTER;
    000002E6 DD 6E F7         [19]  795 	ld	l, -9 (ix)
    000002E9 DD 66 F8         [19]  796 	ld	h, -8 (ix)
    000002EC 36 78            [10]  797 	ld	(hl), #0x78
    000002EE 23               [ 6]  798 	inc	hl
    000002EF 36 00            [10]  799 	ld	(hl), #0x00
                                    800 ;E:\Dropbox\FAUSTO\SVILUPPI\MSX\CODE\C\MSXgl\projects\soccerlgSCC/soccerlg_s7_b3.c:114: g_Players[i].TargetY = ySafety;
    000002F1 DD 6E F9         [19]  801 	ld	l, -7 (ix)
    000002F4 DD 66 FA         [19]  802 	ld	h, -6 (ix)
    000002F7 DD 7E F5         [19]  803 	ld	a, -11 (ix)
    000002FA 77               [ 7]  804 	ld	(hl), a
    000002FB 23               [ 6]  805 	inc	hl
    000002FC DD 7E F6         [19]  806 	ld	a, -10 (ix)
    000002FF 77               [ 7]  807 	ld	(hl), a
    00000300 C3r3Fr04         [10]  808 	jp	00149$
    00000303                        809 00129$:
                                    810 ;E:\Dropbox\FAUSTO\SVILUPPI\MSX\CODE\C\MSXgl\projects\soccerlgSCC/soccerlg_s7_b3.c:117: else if (role == PLAYER_ROLE_LEFT_HALFFIELDER || role == PLAYER_ROLE_RIGHT_HALFFIELDER) {
    00000303 DD 7E FB         [19]  811 	ld	a, -5 (ix)
    00000306 D6 03            [ 7]  812 	sub	a, #0x03
    00000308 3E 01            [ 7]  813 	ld	a, #0x01
    0000030A 28 01            [12]  814 	jr	Z, 00337$
    0000030C AF               [ 4]  815 	xor	a, a
    0000030D                        816 00337$:
    0000030D 4F               [ 4]  817 	ld	c, a
    0000030E B7               [ 4]  818 	or	a, a
    0000030F 20 07            [12]  819 	jr	NZ, 00124$
    00000311 DD 7E FB         [19]  820 	ld	a, -5 (ix)
    00000314 D6 04            [ 7]  821 	sub	a, #0x04
    00000316 20 3E            [12]  822 	jr	NZ, 00125$
    00000318                        823 00124$:
                                    824 ;E:\Dropbox\FAUSTO\SVILUPPI\MSX\CODE\C\MSXgl\projects\soccerlgSCC/soccerlg_s7_b3.c:118: if (role == PLAYER_ROLE_LEFT_HALFFIELDER) {
    00000318 79               [ 4]  825 	ld	a, c
    00000319 B7               [ 4]  826 	or	a, a
    0000031A 28 1D            [12]  827 	jr	Z, 00122$
                                    828 ;E:\Dropbox\FAUSTO\SVILUPPI\MSX\CODE\C\MSXgl\projects\soccerlgSCC/soccerlg_s7_b3.c:120: g_Players[i].TargetX = FIELD_POS_X_CENTER - 50; 
    0000031C DD 6E F7         [19]  829 	ld	l, -9 (ix)
    0000031F DD 66 F8         [19]  830 	ld	h, -8 (ix)
    00000322 36 46            [10]  831 	ld	(hl), #0x46
    00000324 23               [ 6]  832 	inc	hl
    00000325 36 00            [10]  833 	ld	(hl), #0x00
                                    834 ;E:\Dropbox\FAUSTO\SVILUPPI\MSX\CODE\C\MSXgl\projects\soccerlgSCC/soccerlg_s7_b3.c:121: g_Players[i].TargetY = yBoxOutside;
    00000327 DD 6E F9         [19]  835 	ld	l, -7 (ix)
    0000032A DD 66 FA         [19]  836 	ld	h, -6 (ix)
    0000032D DD 7E F1         [19]  837 	ld	a, -15 (ix)
    00000330 77               [ 7]  838 	ld	(hl), a
    00000331 23               [ 6]  839 	inc	hl
    00000332 DD 7E F2         [19]  840 	ld	a, -14 (ix)
    00000335 77               [ 7]  841 	ld	(hl), a
    00000336 C3r3Fr04         [10]  842 	jp	00149$
    00000339                        843 00122$:
                                    844 ;E:\Dropbox\FAUSTO\SVILUPPI\MSX\CODE\C\MSXgl\projects\soccerlgSCC/soccerlg_s7_b3.c:124: g_Players[i].TargetX = FIELD_POS_X_CENTER + 30;
    00000339 DD 6E F7         [19]  845 	ld	l, -9 (ix)
    0000033C DD 66 F8         [19]  846 	ld	h, -8 (ix)
    0000033F 36 96            [10]  847 	ld	(hl), #0x96
    00000341 23               [ 6]  848 	inc	hl
    00000342 36 00            [10]  849 	ld	(hl), #0x00
                                    850 ;E:\Dropbox\FAUSTO\SVILUPPI\MSX\CODE\C\MSXgl\projects\soccerlgSCC/soccerlg_s7_b3.c:125: g_Players[i].TargetY = yMidfieldAdv;
    00000344 DD 6E F9         [19]  851 	ld	l, -7 (ix)
    00000347 DD 66 FA         [19]  852 	ld	h, -6 (ix)
    0000034A DD 7E F3         [19]  853 	ld	a, -13 (ix)
    0000034D 77               [ 7]  854 	ld	(hl), a
    0000034E 23               [ 6]  855 	inc	hl
    0000034F DD 7E F4         [19]  856 	ld	a, -12 (ix)
    00000352 77               [ 7]  857 	ld	(hl), a
    00000353 C3r3Fr04         [10]  858 	jp	00149$
    00000356                        859 00125$:
                                    860 ;E:\Dropbox\FAUSTO\SVILUPPI\MSX\CODE\C\MSXgl\projects\soccerlgSCC/soccerlg_s7_b3.c:131: g_Players[i].TargetX = FIELD_POS_X_CENTER + 50;
    00000356 DD 6E F7         [19]  861 	ld	l, -9 (ix)
    00000359 DD 66 F8         [19]  862 	ld	h, -8 (ix)
    0000035C 36 AA            [10]  863 	ld	(hl), #0xaa
    0000035E 23               [ 6]  864 	inc	hl
    0000035F 36 00            [10]  865 	ld	(hl), #0x00
                                    866 ;E:\Dropbox\FAUSTO\SVILUPPI\MSX\CODE\C\MSXgl\projects\soccerlgSCC/soccerlg_s7_b3.c:132: g_Players[i].TargetY = yBoxOutside;
    00000361 DD 6E F9         [19]  867 	ld	l, -7 (ix)
    00000364 DD 66 FA         [19]  868 	ld	h, -6 (ix)
    00000367 DD 7E F1         [19]  869 	ld	a, -15 (ix)
    0000036A 77               [ 7]  870 	ld	(hl), a
    0000036B 23               [ 6]  871 	inc	hl
    0000036C DD 7E F2         [19]  872 	ld	a, -14 (ix)
    0000036F 77               [ 7]  873 	ld	(hl), a
    00000370 C3r3Fr04         [10]  874 	jp	00149$
    00000373                        875 00147$:
                                    876 ;E:\Dropbox\FAUSTO\SVILUPPI\MSX\CODE\C\MSXgl\projects\soccerlgSCC/soccerlg_s7_b3.c:137: if (role == PLAYER_ROLE_GOALKEEPER) {
    00000373 DD 7E FB         [19]  877 	ld	a, -5 (ix)
    00000376 B7               [ 4]  878 	or	a, a
    00000377 20 26            [12]  879 	jr	NZ, 00144$
                                    880 ;E:\Dropbox\FAUSTO\SVILUPPI\MSX\CODE\C\MSXgl\projects\soccerlgSCC/soccerlg_s7_b3.c:139: g_Players[i].TargetX = FIELD_POS_X_CENTER;
    00000379 DD 6E F7         [19]  881 	ld	l, -9 (ix)
    0000037C DD 66 F8         [19]  882 	ld	h, -8 (ix)
    0000037F 36 78            [10]  883 	ld	(hl), #0x78
    00000381 23               [ 6]  884 	inc	hl
    00000382 36 00            [10]  885 	ld	(hl), #0x00
                                    886 ;E:\Dropbox\FAUSTO\SVILUPPI\MSX\CODE\C\MSXgl\projects\soccerlgSCC/soccerlg_s7_b3.c:140: g_Players[i].TargetY = (attackingUp) ? FIELD_POS_Y_TEAM2_GOALKEEPER : FIELD_POS_Y_TEAM1_GOALKEEPER;
    00000384 DD 6E F9         [19]  887 	ld	l, -7 (ix)
                                    888 ;	spillPairReg hl
                                    889 ;	spillPairReg hl
    00000387 DD 66 FA         [19]  890 	ld	h, -6 (ix)
                                    891 ;	spillPairReg hl
                                    892 ;	spillPairReg hl
    0000038A DD 7E EE         [19]  893 	ld	a, -18 (ix)
    0000038D B7               [ 4]  894 	or	a, a
    0000038E 28 06            [12]  895 	jr	Z, 00171$
    00000390 11 32 00         [10]  896 	ld	de, #0x0032
    00000393 C3r99r03         [10]  897 	jp	00172$
    00000396                        898 00171$:
    00000396 11 A8 01         [10]  899 	ld	de, #0x01a8
    00000399                        900 00172$:
    00000399 73               [ 7]  901 	ld	(hl), e
    0000039A 23               [ 6]  902 	inc	hl
    0000039B 72               [ 7]  903 	ld	(hl), d
    0000039C C3r3Fr04         [10]  904 	jp	00149$
    0000039F                        905 00144$:
                                    906 ;E:\Dropbox\FAUSTO\SVILUPPI\MSX\CODE\C\MSXgl\projects\soccerlgSCC/soccerlg_s7_b3.c:142: else if (role == PLAYER_ROLE_LEFT_DEFENDER || role == PLAYER_ROLE_RIGHT_DEFENDER) {
    0000039F DD 7E FB         [19]  907 	ld	a, -5 (ix)
    000003A2 3D               [ 4]  908 	dec	a
    000003A3 3E 01            [ 7]  909 	ld	a, #0x01
    000003A5 28 01            [12]  910 	jr	Z, 00341$
    000003A7 AF               [ 4]  911 	xor	a, a
    000003A8                        912 00341$:
    000003A8 4F               [ 4]  913 	ld	c, a
    000003A9 B7               [ 4]  914 	or	a, a
    000003AA 20 07            [12]  915 	jr	NZ, 00139$
    000003AC DD 7E FB         [19]  916 	ld	a, -5 (ix)
    000003AF D6 02            [ 7]  917 	sub	a, #0x02
    000003B1 20 25            [12]  918 	jr	NZ, 00140$
    000003B3                        919 00139$:
                                    920 ;E:\Dropbox\FAUSTO\SVILUPPI\MSX\CODE\C\MSXgl\projects\soccerlgSCC/soccerlg_s7_b3.c:144: g_Players[i].TargetX = (role == PLAYER_ROLE_LEFT_DEFENDER) ? FIELD_POS_X_CENTER - 20 : FIELD_POS_X_CENTER + 20;
    000003B3 79               [ 4]  921 	ld	a, c
    000003B4 B7               [ 4]  922 	or	a, a
    000003B5 0E 64            [ 7]  923 	ld	c, #0x64
    000003B7 20 02            [12]  924 	jr	NZ, 00174$
    000003B9 0E 8C            [ 7]  925 	ld	c, #0x8c
    000003BB                        926 00174$:
    000003BB 06 00            [ 7]  927 	ld	b, #0x00
    000003BD DD 6E F7         [19]  928 	ld	l, -9 (ix)
    000003C0 DD 66 F8         [19]  929 	ld	h, -8 (ix)
    000003C3 71               [ 7]  930 	ld	(hl), c
    000003C4 23               [ 6]  931 	inc	hl
    000003C5 70               [ 7]  932 	ld	(hl), b
                                    933 ;E:\Dropbox\FAUSTO\SVILUPPI\MSX\CODE\C\MSXgl\projects\soccerlgSCC/soccerlg_s7_b3.c:145: g_Players[i].TargetY = yBoxInside;
    000003C6 DD 6E F9         [19]  934 	ld	l, -7 (ix)
    000003C9 DD 66 FA         [19]  935 	ld	h, -6 (ix)
    000003CC DD 7E EF         [19]  936 	ld	a, -17 (ix)
    000003CF 77               [ 7]  937 	ld	(hl), a
    000003D0 23               [ 6]  938 	inc	hl
    000003D1 DD 7E F0         [19]  939 	ld	a, -16 (ix)
    000003D4 77               [ 7]  940 	ld	(hl), a
    000003D5 C3r3Fr04         [10]  941 	jp	00149$
    000003D8                        942 00140$:
                                    943 ;E:\Dropbox\FAUSTO\SVILUPPI\MSX\CODE\C\MSXgl\projects\soccerlgSCC/soccerlg_s7_b3.c:147: else if (role == PLAYER_ROLE_LEFT_HALFFIELDER || role == PLAYER_ROLE_RIGHT_HALFFIELDER) {
    000003D8 DD 7E FB         [19]  944 	ld	a, -5 (ix)
    000003DB D6 03            [ 7]  945 	sub	a, #0x03
    000003DD 3E 01            [ 7]  946 	ld	a, #0x01
    000003DF 28 01            [12]  947 	jr	Z, 00345$
    000003E1 AF               [ 4]  948 	xor	a, a
    000003E2                        949 00345$:
    000003E2 4F               [ 4]  950 	ld	c, a
    000003E3 B7               [ 4]  951 	or	a, a
    000003E4 20 07            [12]  952 	jr	NZ, 00135$
    000003E6 DD 7E FB         [19]  953 	ld	a, -5 (ix)
    000003E9 D6 04            [ 7]  954 	sub	a, #0x04
    000003EB 20 25            [12]  955 	jr	NZ, 00136$
    000003ED                        956 00135$:
                                    957 ;E:\Dropbox\FAUSTO\SVILUPPI\MSX\CODE\C\MSXgl\projects\soccerlgSCC/soccerlg_s7_b3.c:149: g_Players[i].TargetX = (role == PLAYER_ROLE_LEFT_HALFFIELDER) ? FIELD_POS_X_CENTER - 40 : FIELD_POS_X_CENTER + 40;
    000003ED 79               [ 4]  958 	ld	a, c
    000003EE B7               [ 4]  959 	or	a, a
    000003EF 0E 50            [ 7]  960 	ld	c, #0x50
    000003F1 20 02            [12]  961 	jr	NZ, 00176$
    000003F3 0E A0            [ 7]  962 	ld	c, #0xa0
    000003F5                        963 00176$:
    000003F5 06 00            [ 7]  964 	ld	b, #0x00
    000003F7 DD 6E F7         [19]  965 	ld	l, -9 (ix)
    000003FA DD 66 F8         [19]  966 	ld	h, -8 (ix)
    000003FD 71               [ 7]  967 	ld	(hl), c
    000003FE 23               [ 6]  968 	inc	hl
    000003FF 70               [ 7]  969 	ld	(hl), b
                                    970 ;E:\Dropbox\FAUSTO\SVILUPPI\MSX\CODE\C\MSXgl\projects\soccerlgSCC/soccerlg_s7_b3.c:150: g_Players[i].TargetY = yBoxOutside;
    00000400 DD 6E F9         [19]  971 	ld	l, -7 (ix)
    00000403 DD 66 FA         [19]  972 	ld	h, -6 (ix)
    00000406 DD 7E F1         [19]  973 	ld	a, -15 (ix)
    00000409 77               [ 7]  974 	ld	(hl), a
    0000040A 23               [ 6]  975 	inc	hl
    0000040B DD 7E F2         [19]  976 	ld	a, -14 (ix)
    0000040E 77               [ 7]  977 	ld	(hl), a
    0000040F C3r3Fr04         [10]  978 	jp	00149$
    00000412                        979 00136$:
                                    980 ;E:\Dropbox\FAUSTO\SVILUPPI\MSX\CODE\C\MSXgl\projects\soccerlgSCC/soccerlg_s7_b3.c:154: g_Players[i].TargetX = (role == PLAYER_ROLE_LEFT_STRIKER) ? FIELD_POS_X_LEFT + 20 : FIELD_POS_X_RIGHT - 20;
    00000412 DD 7E F7         [19]  981 	ld	a, -9 (ix)
    00000415 DD 77 FC         [19]  982 	ld	-4 (ix), a
    00000418 DD 7E F8         [19]  983 	ld	a, -8 (ix)
    0000041B DD 77 FD         [19]  984 	ld	-3 (ix), a
    0000041E DD 7E FB         [19]  985 	ld	a, -5 (ix)
    00000421 D6 05            [ 7]  986 	sub	a, #0x05
    00000423 0E 3C            [ 7]  987 	ld	c, #0x3c
    00000425 28 02            [12]  988 	jr	Z, 00178$
    00000427 0E B2            [ 7]  989 	ld	c, #0xb2
    00000429                        990 00178$:
    00000429 06 00            [ 7]  991 	ld	b, #0x00
    0000042B DD 6E FC         [19]  992 	ld	l, -4 (ix)
    0000042E DD 66 FD         [19]  993 	ld	h, -3 (ix)
    00000431 71               [ 7]  994 	ld	(hl), c
    00000432 23               [ 6]  995 	inc	hl
    00000433 70               [ 7]  996 	ld	(hl), b
                                    997 ;E:\Dropbox\FAUSTO\SVILUPPI\MSX\CODE\C\MSXgl\projects\soccerlgSCC/soccerlg_s7_b3.c:155: g_Players[i].TargetY = yMidfield;
    00000434 DD 6E F9         [19]  998 	ld	l, -7 (ix)
    00000437 DD 66 FA         [19]  999 	ld	h, -6 (ix)
    0000043A 36 F3            [10] 1000 	ld	(hl), #0xf3
    0000043C 23               [ 6] 1001 	inc	hl
    0000043D 36 00            [10] 1002 	ld	(hl), #0x00
    0000043F                       1003 00149$:
                                   1004 ;E:\Dropbox\FAUSTO\SVILUPPI\MSX\CODE\C\MSXgl\projects\soccerlgSCC/soccerlg_s7_b3.c:84: for(u8 i=0; i<14; i++) {
    0000043F DD 34 FF         [23] 1005 	inc	-1 (ix)
    00000442 C3r8Ar01         [10] 1006 	jp	00152$
    00000445                       1007 00153$:
                                   1008 ;E:\Dropbox\FAUSTO\SVILUPPI\MSX\CODE\C\MSXgl\projects\soccerlgSCC/soccerlg_s7_b3.c:159: }
    00000445 DD F9            [10] 1009 	ld	sp, ix
    00000447 DD E1            [14] 1010 	pop	ix
    00000449 C9               [10] 1011 	ret
                         0000F380  1012 _g_RDPRIM	=	0xf380
                         0000F385  1013 _g_WRPRIM	=	0xf385
                         0000F38C  1014 _g_CLPRIM	=	0xf38c
                         0000F39A  1015 _g_USRTAB	=	0xf39a
                         0000F3DE  1016 _g_CNSDFG	=	0xf3de
                         0000F3DF  1017 _g_RG0SAV	=	0xf3df
                         0000F3E0  1018 _g_RG1SAV	=	0xf3e0
                         0000F3E1  1019 _g_RG2SAV	=	0xf3e1
                         0000F3E2  1020 _g_RG3SAV	=	0xf3e2
                         0000F3E3  1021 _g_RG4SAV	=	0xf3e3
                         0000F3E4  1022 _g_RG5SAV	=	0xf3e4
                         0000F3E5  1023 _g_RG6SAV	=	0xf3e5
                         0000F3E6  1024 _g_RG7SAV	=	0xf3e6
                         0000F3E7  1025 _g_STATFL	=	0xf3e7
                         0000F3E8  1026 _g_TRGFLG	=	0xf3e8
                         0000F3EC  1027 _g_MAXUPD	=	0xf3ec
                         0000F3EF  1028 _g_MINUPD	=	0xf3ef
                         0000F3F3  1029 _g_QUEUES	=	0xf3f3
                         0000F3F5  1030 _g_FRCNEW	=	0xf3f5
                         0000F3F6  1031 _g_SCNCNT	=	0xf3f6
                         0000F3F7  1032 _g_REPCNT	=	0xf3f7
                         0000F3F8  1033 _g_PUTPNT	=	0xf3f8
                         0000F3FA  1034 _g_GETPNT	=	0xf3fa
                         0000F3FC  1035 _g_CS120	=	0xf3fc
                         0000F401  1036 _g_CS240	=	0xf401
                         0000F406  1037 _g_LOW	=	0xf406
                         0000F408  1038 _g_HIGH	=	0xf408
                         0000F40A  1039 _g_HEADER	=	0xf40a
                         0000F40B  1040 _g_ASPCT1	=	0xf40b
                         0000F40D  1041 _g_ASPCT2	=	0xf40d
                         0000F959  1042 _g_QUETAB	=	0xf959
                         0000F971  1043 _g_QUEBAK	=	0xf971
                         0000F975  1044 _g_VOICAQ	=	0xf975
                         0000F9F5  1045 _g_VOICBQ	=	0xf9f5
                         0000FA75  1046 _g_VOICCQ	=	0xfa75
                         0000FAF5  1047 _g_RS2IQ	=	0xfaf5
                         0000FAF5  1048 _g_DPPAGE	=	0xfaf5
                         0000FAF6  1049 _g_ACPAGE	=	0xfaf6
                         0000FAF7  1050 _g_AVCSAV	=	0xfaf7
                         0000FAF8  1051 _g_EXBRSA	=	0xfaf8
                         0000FAF9  1052 _g_CHRCNT	=	0xfaf9
                         0000FAFA  1053 _g_ROMA	=	0xfafa
                         0000FAFC  1054 _g_MODE	=	0xfafc
                         0000FAFD  1055 _g_NORUSE	=	0xfafd
                         0000FAFE  1056 _g_XSAVE	=	0xfafe
                         0000FB00  1057 _g_YSAVE	=	0xfb00
                         0000FB03  1058 _g_RSTMP	=	0xfb03
                         0000FB03  1059 _g_TOCNT	=	0xfb03
                         0000FB04  1060 _g_RSFCB	=	0xfb04
                         0000FB06  1061 _g_RSIQLN	=	0xfb06
                         0000FB07  1062 _g_MEXBIh	=	0xfb07
                         0000FB0C  1063 _g_OLDSTT	=	0xfb0c
                         0000FB0C  1064 _g_OLDINT	=	0xfb0c
                         0000FB16  1065 _g_DEVNUM	=	0xfb16
                         0000FB17  1066 _g_DATCNT	=	0xfb17
                         0000FB1A  1067 _g_ERRORS	=	0xfb1a
                         0000FB1B  1068 _g_FLAGS	=	0xfb1b
                         0000FB1C  1069 _g_ESTBLS	=	0xfb1c
                         0000FB1D  1070 _g_COMMSK	=	0xfb1d
                         0000FB1E  1071 _g_LSTCOM	=	0xfb1e
                         0000FB1F  1072 _g_LSTMOD	=	0xfb1f
                         0000FB35  1073 _g_PRSCNT	=	0xfb35
                         0000FB36  1074 _g_SAVSP	=	0xfb36
                         0000FB38  1075 _g_VOICEN	=	0xfb38
                         0000FB39  1076 _g_SAVVOL	=	0xfb39
                         0000FB3B  1077 _g_MCLLEN	=	0xfb3b
                         0000FB3C  1078 _g_MCLPTR	=	0xfb3c
                         0000FB3E  1079 _g_QUEUEN	=	0xfb3e
                         0000FB3F  1080 _g_MUSICF	=	0xfb3f
                         0000FB40  1081 _g_PLYCNT	=	0xfb40
                         0000FB41  1082 _g_VCBA	=	0xfb41
                         0000FB66  1083 _g_VCBB	=	0xfb66
                         0000FB8B  1084 _g_VCBC	=	0xfb8b
                         0000FBB0  1085 _g_ENSTOP	=	0xfbb0
                         0000FBB1  1086 _g_BASROM	=	0xfbb1
                         0000FBB2  1087 _g_LINTTB	=	0xfbb2
                         0000FBCA  1088 _g_FSTPOS	=	0xfbca
                         0000FBCC  1089 _g_CODSAV	=	0xfbcc
                         0000FBCD  1090 _g_FNKSWI	=	0xfbcd
                         0000FBCE  1091 _g_FNKFLG	=	0xfbce
                         0000FBD8  1092 _g_ONGSBF	=	0xfbd8
                         0000FBD9  1093 _g_CLIKFL	=	0xfbd9
                         0000FBDA  1094 _g_OLDKEY	=	0xfbda
                         0000FBE5  1095 _g_NEWKEY	=	0xfbe5
                         0000FBF0  1096 _g_KEYBUF	=	0xfbf0
                         0000FC18  1097 _g_LINWRK	=	0xfc18
                         0000FC40  1098 _g_PATWRK	=	0xfc40
                         0000FC48  1099 _g_BOTTOM	=	0xfc48
                         0000FC4A  1100 _g_HIMEM	=	0xfc4a
                         0000FC4C  1101 _g_TRPTBL	=	0xfc4c
                         0000FC9A  1102 _g_RTYCNT	=	0xfc9a
                         0000FC9B  1103 _g_INTFLG	=	0xfc9b
                         0000FC9C  1104 _g_PADY	=	0xfc9c
                         0000FC9D  1105 _g_PADX	=	0xfc9d
                         0000FC9E  1106 _g_JIFFY	=	0xfc9e
                         0000FCA0  1107 _g_INTVAL	=	0xfca0
                         0000FCA2  1108 _g_INTCNT	=	0xfca2
                         0000FCA4  1109 _g_LOWLIM	=	0xfca4
                         0000FCA5  1110 _g_WINWID	=	0xfca5
                         0000FCA6  1111 _g_GRPHED	=	0xfca6
                         0000FCA7  1112 _g_ESCCNT	=	0xfca7
                         0000FCA8  1113 _g_INSFLG	=	0xfca8
                         0000FCA9  1114 _g_CSRSW	=	0xfca9
                         0000FCAA  1115 _g_CSTYLE	=	0xfcaa
                         0000FCAB  1116 _g_CAPST	=	0xfcab
                         0000FCAC  1117 _g_KANAST	=	0xfcac
                         0000FCAD  1118 _g_KANAMD	=	0xfcad
                         0000FCAE  1119 _g_FLBMEM	=	0xfcae
                         0000FCAF  1120 _g_SCRMOD	=	0xfcaf
                         0000FCB0  1121 _g_OLDSCR	=	0xfcb0
                         0000FCB1  1122 _g_CASPRV	=	0xfcb1
                         0000FCB2  1123 _g_BRDATR	=	0xfcb2
                         0000FCB3  1124 _g_GXPOS	=	0xfcb3
                         0000FCB5  1125 _g_GYPOS	=	0xfcb5
                         0000FCBB  1126 _g_DRWFLG	=	0xfcbb
                         0000FCBC  1127 _g_DRWSCL	=	0xfcbc
                         0000FCBD  1128 _g_DRWANG	=	0xfcbd
                         0000FCC1  1129 _g_MNROM	=	0xfcc1
                         0000FCC1  1130 _g_EXPTBL	=	0xfcc1
                         0000FCC5  1131 _g_SLTTBL	=	0xfcc5
                         0000FCC9  1132 _g_SLTATR	=	0xfcc9
                         0000FD09  1133 _g_SLTWRK	=	0xfd09
                         0000FD89  1134 _g_PROCNM	=	0xfd89
                         0000FFE7  1135 _g_RG08SAV	=	0xffe7
                         0000FFE8  1136 _g_RG09SAV	=	0xffe8
                         0000FFE9  1137 _g_RG10SAV	=	0xffe9
                         0000FFEA  1138 _g_RG11SAV	=	0xffea
                         0000FFEB  1139 _g_RG12SAV	=	0xffeb
                         0000FFEC  1140 _g_RG13SAV	=	0xffec
                         0000FFED  1141 _g_RG14SAV	=	0xffed
                         0000FFEE  1142 _g_RG15SAV	=	0xffee
                         0000FFEF  1143 _g_RG16SAV	=	0xffef
                         0000FFF0  1144 _g_RG17SAV	=	0xfff0
                         0000FFF1  1145 _g_RG18SAV	=	0xfff1
                         0000FFF2  1146 _g_RG19SAV	=	0xfff2
                         0000FFF3  1147 _g_RG20SAV	=	0xfff3
                         0000FFF4  1148 _g_RG21SAV	=	0xfff4
                         0000FFF5  1149 _g_RG22SAV	=	0xfff5
                         0000FFF6  1150 _g_RG23SAV	=	0xfff6
                         0000FFF7  1151 _g_MINROM	=	0xfff7
                         0000FFF8  1152 _g_SVFFF8	=	0xfff8
                         0000FFFA  1153 _g_RG25SAV	=	0xfffa
                         0000FFFB  1154 _g_RG26SAV	=	0xfffb
                         0000FFFC  1155 _g_RG27SAV	=	0xfffc
                         0000FFFD  1156 _g_SVFFFD	=	0xfffd
                         00000004  1157 _g_CGTABL	=	0x0004
                         00000006  1158 _g_VDP_DR	=	0x0006
                         00000007  1159 _g_VDP_DW	=	0x0007
                         0000002B  1160 _g_BASRVN	=	0x002b
                         0000002B  1161 _g_ROMVersion	=	0x002b
                         0000002D  1162 _g_MSXVER	=	0x002d
                         0000002E  1163 _g_MSXMID	=	0x002e
                         00000034  1164 _g_CHAR_16	=	0x0034
                         00000000  1165 _g_SUBRID	=	0x0000
                         00000002  1166 _g_STRSRC	=	0x0002
                         0000F30F  1167 _g_KANJTABLE	=	0xf30f
                         0000F323  1168 _g_DISKVE	=	0xf323
                         0000F325  1169 _g_BREAKV	=	0xf325
                         0000F341  1170 _g_RAMAD0	=	0xf341
                         0000F342  1171 _g_RAMAD1	=	0xf342
                         0000F343  1172 _g_RAMAD2	=	0xf343
                         0000F344  1173 _g_RAMAD3	=	0xf344
                         0000F348  1174 _g_MASTER	=	0xf348
                         0000F37D  1175 _g_BDOS	=	0xf37d
    0000044A                       1176 ___str_0:
    0000044A 43 4F 52 4E 45 52 20  1177 	.ascii "CORNER KICK"
             4B 49 43 4B
    00000455 00                    1178 	.db 0x00
                                   1179 ;E:\Dropbox\FAUSTO\SVILUPPI\MSX\CODE\C\MSXgl\projects\soccerlgSCC/soccerlg_s7_b3.c:161: void PeopleMoving(bool isBasicMoving){
                                   1180 ;	---------------------------------
                                   1181 ; Function PeopleMoving
                                   1182 ; ---------------------------------
    00000456                       1183 _PeopleMoving::
    00000456 DD E5            [15] 1184 	push	ix
    00000458 DD 21 00 00      [14] 1185 	ld	ix,#0
    0000045C DD 39            [15] 1186 	add	ix,sp
    0000045E 21 FB FF         [10] 1187 	ld	hl, #-5
    00000461 39               [11] 1188 	add	hl, sp
    00000462 F9               [ 6] 1189 	ld	sp, hl
    00000463 5F               [ 4] 1190 	ld	e, a
                                   1191 ;E:\Dropbox\FAUSTO\SVILUPPI\MSX\CODE\C\MSXgl\projects\soccerlgSCC/soccerlg_s7_b3.c:162: u16 tileId=PUBLIC_TILE_1;
    00000464 01 00 00         [10] 1192 	ld	bc, #0x0000
                                   1193 ;E:\Dropbox\FAUSTO\SVILUPPI\MSX\CODE\C\MSXgl\projects\soccerlgSCC/soccerlg_s7_b3.c:163: u8  yPosition=0;
    00000467 DD 36 FB 00      [19] 1194 	ld	-5 (ix), #0x00
                                   1195 ;E:\Dropbox\FAUSTO\SVILUPPI\MSX\CODE\C\MSXgl\projects\soccerlgSCC/soccerlg_s7_b3.c:164: if(!g_ActiveFieldZone==FIELD_NORTH_ZONE){
    0000046B 3Ar00r00         [13] 1196 	ld	a, (_g_ActiveFieldZone+0)
    0000046E B7               [ 4] 1197 	or	a, a
    0000046F 28 04            [12] 1198 	jr	Z, 00102$
                                   1199 ;E:\Dropbox\FAUSTO\SVILUPPI\MSX\CODE\C\MSXgl\projects\soccerlgSCC/soccerlg_s7_b3.c:165: yPosition=62;
    00000471 DD 36 FB 3E      [19] 1200 	ld	-5 (ix), #0x3e
    00000475                       1201 00102$:
                                   1202 ;E:\Dropbox\FAUSTO\SVILUPPI\MSX\CODE\C\MSXgl\projects\soccerlgSCC/soccerlg_s7_b3.c:169: if(!isBasicMoving){
    00000475 7B               [ 4] 1203 	ld	a, e
    00000476 B7               [ 4] 1204 	or	a, a
    00000477 20 03            [12] 1205 	jr	NZ, 00122$
                                   1206 ;E:\Dropbox\FAUSTO\SVILUPPI\MSX\CODE\C\MSXgl\projects\soccerlgSCC/soccerlg_s7_b3.c:170: tileId=PUBLIC_TILE_2;
    00000479 01 01 08         [10] 1207 	ld	bc, #0x0801
                                   1208 ;E:\Dropbox\FAUSTO\SVILUPPI\MSX\CODE\C\MSXgl\projects\soccerlgSCC/soccerlg_s7_b3.c:172: for (u8 y=yPosition;y<yPosition+2;y++){
    0000047C                       1209 00122$:
    0000047C DD 7E FB         [19] 1210 	ld	a, -5 (ix)
    0000047F DD 77 FE         [19] 1211 	ld	-2 (ix), a
    00000482                       1212 00113$:
    00000482 DD 5E FB         [19] 1213 	ld	e, -5 (ix)
    00000485 16 00            [ 7] 1214 	ld	d, #0x00
    00000487 13               [ 6] 1215 	inc	de
    00000488 13               [ 6] 1216 	inc	de
    00000489 DD 7E FE         [19] 1217 	ld	a, -2 (ix)
    0000048C DD 77 FC         [19] 1218 	ld	-4 (ix), a
    0000048F DD 36 FD 00      [19] 1219 	ld	-3 (ix), #0x00
    00000493 DD 7E FC         [19] 1220 	ld	a, -4 (ix)
    00000496 93               [ 4] 1221 	sub	a, e
    00000497 DD 7E FD         [19] 1222 	ld	a, -3 (ix)
    0000049A 9A               [ 4] 1223 	sbc	a, d
    0000049B E2rA0r04         [10] 1224 	jp	PO, 00149$
    0000049E EE 80            [ 7] 1225 	xor	a, #0x80
    000004A0                       1226 00149$:
    000004A0 F2rE8r04         [10] 1227 	jp	P, 00115$
                                   1228 ;E:\Dropbox\FAUSTO\SVILUPPI\MSX\CODE\C\MSXgl\projects\soccerlgSCC/soccerlg_s7_b3.c:173: for (u8 x=0;x<32;x++){
    000004A3 DD 36 FF 00      [19] 1229 	ld	-1 (ix), #0x00
    000004A7                       1230 00110$:
    000004A7 DD 7E FF         [19] 1231 	ld	a, -1 (ix)
    000004AA D6 20            [ 7] 1232 	sub	a, #0x20
    000004AC 30 34            [12] 1233 	jr	NC, 00114$
                                   1234 ;E:/Dropbox/FAUSTO/SVILUPPI/MSX/CODE/C/MSXgl/engine/src/v9990.h:1437: inline u32 V9_CellAddrP1B(u8 x, u8 y) { return V9_P1_PNT_B + (((64 * y) + x) * 2); }
    000004AE DD 6E FC         [19] 1235 	ld	l, -4 (ix)
    000004B1 DD 66 FD         [19] 1236 	ld	h, -3 (ix)
    000004B4 29               [11] 1237 	add	hl, hl
    000004B5 29               [11] 1238 	add	hl, hl
    000004B6 29               [11] 1239 	add	hl, hl
    000004B7 29               [11] 1240 	add	hl, hl
    000004B8 29               [11] 1241 	add	hl, hl
    000004B9 29               [11] 1242 	add	hl, hl
    000004BA DD 5E FF         [19] 1243 	ld	e, -1 (ix)
    000004BD 16 00            [ 7] 1244 	ld	d, #0x00
    000004BF 19               [11] 1245 	add	hl, de
    000004C0 29               [11] 1246 	add	hl, hl
    000004C1 7C               [ 4] 1247 	ld	a, h
    000004C2 07               [ 4] 1248 	rlca
    000004C3 9F               [ 4] 1249 	sbc	a, a
    000004C4 5F               [ 4] 1250 	ld	e, a
    000004C5 57               [ 4] 1251 	ld	d, a
    000004C6 7C               [ 4] 1252 	ld	a, h
    000004C7 C6 E0            [ 7] 1253 	add	a, #0xe0
    000004C9 67               [ 4] 1254 	ld	h, a
                                   1255 ;	spillPairReg hl
                                   1256 ;	spillPairReg hl
    000004CA 7B               [ 4] 1257 	ld	a, e
    000004CB CE 07            [ 7] 1258 	adc	a, #0x07
    000004CD 5F               [ 4] 1259 	ld	e, a
    000004CE 30 01            [12] 1260 	jr	NC, 00150$
    000004D0 14               [ 4] 1261 	inc	d
    000004D1                       1262 00150$:
                                   1263 ;E:/Dropbox/FAUSTO/SVILUPPI/MSX/CODE/C/MSXgl/engine/src/v9990.h:396: inline void V9_Poke16(u32 addr, u16 val) { V9_SetWriteAddress(addr); V9_Poke16_CurrentAddr(val); }
    000004D1 C5               [11] 1264 	push	bc
    000004D2 EB               [ 4] 1265 	ex	de, hl
    000004D3 CDr00r00         [17] 1266 	call	_V9_SetWriteAddress
    000004D6 C1               [10] 1267 	pop	bc
    000004D7 69               [ 4] 1268 	ld	l, c
                                   1269 ;	spillPairReg hl
                                   1270 ;	spillPairReg hl
    000004D8 60               [ 4] 1271 	ld	h, b
                                   1272 ;	spillPairReg hl
                                   1273 ;	spillPairReg hl
    000004D9 CDr00r00         [17] 1274 	call	_V9_Poke16_CurrentAddr
                                   1275 ;E:\Dropbox\FAUSTO\SVILUPPI\MSX\CODE\C\MSXgl\projects\soccerlgSCC/soccerlg_s7_b3.c:173: for (u8 x=0;x<32;x++){
    000004DC DD 34 FF         [23] 1276 	inc	-1 (ix)
    000004DF C3rA7r04         [10] 1277 	jp	00110$
    000004E2                       1278 00114$:
                                   1279 ;E:\Dropbox\FAUSTO\SVILUPPI\MSX\CODE\C\MSXgl\projects\soccerlgSCC/soccerlg_s7_b3.c:172: for (u8 y=yPosition;y<yPosition+2;y++){
    000004E2 DD 34 FE         [23] 1280 	inc	-2 (ix)
    000004E5 C3r82r04         [10] 1281 	jp	00113$
    000004E8                       1282 00115$:
                                   1283 ;E:\Dropbox\FAUSTO\SVILUPPI\MSX\CODE\C\MSXgl\projects\soccerlgSCC/soccerlg_s7_b3.c:177: }
    000004E8 DD F9            [10] 1284 	ld	sp, ix
    000004EA DD E1            [14] 1285 	pop	ix
    000004EC C9               [10] 1286 	ret
                                   1287 ;E:\Dropbox\FAUSTO\SVILUPPI\MSX\CODE\C\MSXgl\projects\soccerlgSCC/soccerlg_s7_b3.c:179: void PutPonPonGirlSprite(u8 ponPonGirlId){
                                   1288 ;	---------------------------------
                                   1289 ; Function PutPonPonGirlSprite
                                   1290 ; ---------------------------------
    000004ED                       1291 _PutPonPonGirlSprite::
    000004ED DD E5            [15] 1292 	push	ix
    000004EF DD 21 00 00      [14] 1293 	ld	ix,#0
    000004F3 DD 39            [15] 1294 	add	ix,sp
    000004F5 21 F9 FF         [10] 1295 	ld	hl, #-7
    000004F8 39               [11] 1296 	add	hl, sp
    000004F9 F9               [ 6] 1297 	ld	sp, hl
    000004FA DD 77 FF         [19] 1298 	ld	-1 (ix), a
                                   1299 ;E:\Dropbox\FAUSTO\SVILUPPI\MSX\CODE\C\MSXgl\projects\soccerlgSCC/soccerlg_s7_b3.c:181: attr.D=!g_PonPonGirlsAreVisible;
    000004FD 3Ar00r00         [13] 1300 	ld	a, (_g_PonPonGirlsAreVisible+0)
    00000500 D6 01            [ 7] 1301 	sub	a,#0x01
    00000502 3E 00            [ 7] 1302 	ld	a, #0x00
    00000504 17               [ 4] 1303 	rla
    00000505 21 03 00         [10] 1304 	ld	hl, #3
    00000508 39               [11] 1305 	add	hl, sp
    00000509 07               [ 4] 1306 	rlca
    0000050A 07               [ 4] 1307 	rlca
    0000050B 07               [ 4] 1308 	rlca
    0000050C 07               [ 4] 1309 	rlca
    0000050D E6 10            [ 7] 1310 	and	a, #0x10
    0000050F 4F               [ 4] 1311 	ld	c, a
    00000510 7E               [ 7] 1312 	ld	a, (hl)
    00000511 E6 EF            [ 7] 1313 	and	a, #0xef
    00000513 B1               [ 4] 1314 	or	a, c
    00000514 77               [ 7] 1315 	ld	(hl), a
                                   1316 ;E:\Dropbox\FAUSTO\SVILUPPI\MSX\CODE\C\MSXgl\projects\soccerlgSCC/soccerlg_s7_b3.c:183: attr.SC=0;
    00000515 21 03 00         [10] 1317 	ld	hl, #3
    00000518 39               [11] 1318 	add	hl, sp
    00000519 7E               [ 7] 1319 	ld	a, (hl)
    0000051A E6 3F            [ 7] 1320 	and	a, #0x3f
    0000051C 77               [ 7] 1321 	ld	(hl), a
                                   1322 ;E:\Dropbox\FAUSTO\SVILUPPI\MSX\CODE\C\MSXgl\projects\soccerlgSCC/soccerlg_s7_b3.c:184: int diffY = (int)g_PonPonGirls[ponPonGirlId].Y - g_FieldCurrentYPosition;
    0000051D 01r00r00         [10] 1323 	ld	bc, #_g_PonPonGirls+0
    00000520 DD 5E FF         [19] 1324 	ld	e, -1 (ix)
    00000523 16 00            [ 7] 1325 	ld	d, #0x00
    00000525 6B               [ 4] 1326 	ld	l, e
    00000526 62               [ 4] 1327 	ld	h, d
    00000527 29               [11] 1328 	add	hl, hl
    00000528 29               [11] 1329 	add	hl, hl
    00000529 19               [11] 1330 	add	hl, de
    0000052A 09               [11] 1331 	add	hl, bc
    0000052B 5D               [ 4] 1332 	ld	e, l
    0000052C 54               [ 4] 1333 	ld	d, h
    0000052D 4E               [ 7] 1334 	ld	c, (hl)
    0000052E 23               [ 6] 1335 	inc	hl
    0000052F 46               [ 7] 1336 	ld	b, (hl)
    00000530 21r00r00         [10] 1337 	ld	hl, #_g_FieldCurrentYPosition
    00000533 79               [ 4] 1338 	ld	a, c
    00000534 96               [ 7] 1339 	sub	a, (hl)
    00000535 23               [ 6] 1340 	inc	hl
    00000536 4F               [ 4] 1341 	ld	c, a
    00000537 78               [ 4] 1342 	ld	a, b
    00000538 9E               [ 7] 1343 	sbc	a, (hl)
    00000539 47               [ 4] 1344 	ld	b, a
                                   1345 ;E:\Dropbox\FAUSTO\SVILUPPI\MSX\CODE\C\MSXgl\projects\soccerlgSCC/soccerlg_s7_b3.c:185: attr.X=g_PonPonGirls[ponPonGirlId].X;
    0000053A 6B               [ 4] 1346 	ld	l, e
                                   1347 ;	spillPairReg hl
                                   1348 ;	spillPairReg hl
    0000053B 62               [ 4] 1349 	ld	h, d
                                   1350 ;	spillPairReg hl
                                   1351 ;	spillPairReg hl
    0000053C 23               [ 6] 1352 	inc	hl
    0000053D 23               [ 6] 1353 	inc	hl
    0000053E 7E               [ 7] 1354 	ld	a, (hl)
    0000053F DD 77 FD         [19] 1355 	ld	-3 (ix), a
    00000542 23               [ 6] 1356 	inc	hl
    00000543 7E               [ 7] 1357 	ld	a, (hl)
    00000544 DD 77 FE         [19] 1358 	ld	-2 (ix), a
    00000547 21 02 00         [10] 1359 	ld	hl, #2
    0000054A 39               [11] 1360 	add	hl, sp
    0000054B DD 7E FD         [19] 1361 	ld	a, -3 (ix)
    0000054E 77               [ 7] 1362 	ld	(hl), a
    0000054F 23               [ 6] 1363 	inc	hl
    00000550 DD 7E FE         [19] 1364 	ld	a, -2 (ix)
    00000553 E6 03            [ 7] 1365 	and	a, #0x03
    00000555 C5               [11] 1366 	push	bc
    00000556 4F               [ 4] 1367 	ld	c,a
    00000557 7E               [ 7] 1368 	ld	a, (hl)
    00000558 E6 FC            [ 7] 1369 	and	a, #0xfc
    0000055A B1               [ 4] 1370 	or	a, c
    0000055B C1               [10] 1371 	pop	bc
    0000055C 77               [ 7] 1372 	ld	(hl), a
                                   1373 ;E:\Dropbox\FAUSTO\SVILUPPI\MSX\CODE\C\MSXgl\projects\soccerlgSCC/soccerlg_s7_b3.c:186: if(diffY < -32 || diffY > 212){
    0000055D 79               [ 4] 1374 	ld	a, c
    0000055E D6 E0            [ 7] 1375 	sub	a, #0xe0
    00000560 78               [ 4] 1376 	ld	a, b
    00000561 17               [ 4] 1377 	rla
    00000562 3F               [ 4] 1378 	ccf
    00000563 1F               [ 4] 1379 	rra
    00000564 DE 7F            [ 7] 1380 	sbc	a, #0x7f
    00000566 38 0E            [12] 1381 	jr	C, 00101$
    00000568 3E D4            [ 7] 1382 	ld	a, #0xd4
    0000056A B9               [ 4] 1383 	cp	a, c
    0000056B 3E 00            [ 7] 1384 	ld	a, #0x00
    0000056D 98               [ 4] 1385 	sbc	a, b
    0000056E E2r73r05         [10] 1386 	jp	PO, 00114$
    00000571 EE 80            [ 7] 1387 	xor	a, #0x80
    00000573                       1388 00114$:
    00000573 F2r83r05         [10] 1389 	jp	P, 00102$
    00000576                       1390 00101$:
                                   1391 ;E:\Dropbox\FAUSTO\SVILUPPI\MSX\CODE\C\MSXgl\projects\soccerlgSCC/soccerlg_s7_b3.c:187: attr.D=1;
    00000576 21 03 00         [10] 1392 	ld	hl, #3
    00000579 39               [11] 1393 	add	hl, sp
    0000057A CB E6            [15] 1394 	set	4, (hl)
                                   1395 ;E:\Dropbox\FAUSTO\SVILUPPI\MSX\CODE\C\MSXgl\projects\soccerlgSCC/soccerlg_s7_b3.c:188: attr.Y=216; // Force off-screen
    0000057C DD 36 F9 D8      [19] 1396 	ld	-7 (ix), #0xd8
    00000580 C3r86r05         [10] 1397 	jp	00103$
    00000583                       1398 00102$:
                                   1399 ;E:\Dropbox\FAUSTO\SVILUPPI\MSX\CODE\C\MSXgl\projects\soccerlgSCC/soccerlg_s7_b3.c:190: attr.Y=(u8)diffY;
    00000583 DD 71 F9         [19] 1400 	ld	-7 (ix), c
    00000586                       1401 00103$:
                                   1402 ;E:\Dropbox\FAUSTO\SVILUPPI\MSX\CODE\C\MSXgl\projects\soccerlgSCC/soccerlg_s7_b3.c:192: attr.Pattern = g_PonPonGirls[ponPonGirlId].PatternId;
    00000586 21 04 00         [10] 1403 	ld	hl, #4
    00000589 19               [11] 1404 	add	hl, de
    0000058A 7E               [ 7] 1405 	ld	a, (hl)
    0000058B DD 77 FA         [19] 1406 	ld	-6 (ix), a
                                   1407 ;E:\Dropbox\FAUSTO\SVILUPPI\MSX\CODE\C\MSXgl\projects\soccerlgSCC/soccerlg_s7_b3.c:193: attr.P = 1;
    0000058E 21 03 00         [10] 1408 	ld	hl, #3
    00000591 39               [11] 1409 	add	hl, sp
    00000592 CB EE            [15] 1410 	set	5, (hl)
                                   1411 ;E:\Dropbox\FAUSTO\SVILUPPI\MSX\CODE\C\MSXgl\projects\soccerlgSCC/soccerlg_s7_b3.c:194: V9_SetSpriteP1(ponPonGirlId+20, &attr);
    00000594 DD 7E FF         [19] 1412 	ld	a, -1 (ix)
    00000597 C6 14            [ 7] 1413 	add	a, #0x14
                                   1414 ;E:/Dropbox/FAUSTO/SVILUPPI/MSX/CODE/C/MSXgl/engine/src/v9990.h:781: inline void V9_SetSpriteP1(u8 id, const V9_Sprite* attr) { V9_WriteVRAM(V9_P1_SPAT + (id * 4), (const u8*)attr, 4); }
    00000599 6F               [ 4] 1415 	ld	l, a
                                   1416 ;	spillPairReg hl
                                   1417 ;	spillPairReg hl
    0000059A 26 00            [ 7] 1418 	ld	h, #0x00
                                   1419 ;	spillPairReg hl
                                   1420 ;	spillPairReg hl
    0000059C 29               [11] 1421 	add	hl, hl
    0000059D 29               [11] 1422 	add	hl, hl
    0000059E 7C               [ 4] 1423 	ld	a, h
    0000059F 07               [ 4] 1424 	rlca
    000005A0 9F               [ 4] 1425 	sbc	a, a
    000005A1 5F               [ 4] 1426 	ld	e, a
    000005A2 57               [ 4] 1427 	ld	d, a
    000005A3 7C               [ 4] 1428 	ld	a, h
    000005A4 C6 FE            [ 7] 1429 	add	a, #0xfe
    000005A6 67               [ 4] 1430 	ld	h, a
                                   1431 ;	spillPairReg hl
                                   1432 ;	spillPairReg hl
    000005A7 7B               [ 4] 1433 	ld	a, e
    000005A8 CE 03            [ 7] 1434 	adc	a, #0x03
    000005AA 5F               [ 4] 1435 	ld	e, a
    000005AB 30 01            [12] 1436 	jr	NC, 00115$
    000005AD 14               [ 4] 1437 	inc	d
    000005AE                       1438 00115$:
                                   1439 ;E:/Dropbox/FAUSTO/SVILUPPI/MSX/CODE/C/MSXgl/engine/src/v9990.h:371: inline void V9_WriteVRAM(u32 addr, const u8* src, u16 count) { V9_SetWriteAddress(addr); V9_WriteVRAM_CurrentAddr(src, count); }
    000005AE EB               [ 4] 1440 	ex	de, hl
    000005AF CDr00r00         [17] 1441 	call	_V9_SetWriteAddress
    000005B2 11 04 00         [10] 1442 	ld	de, #0x0004
    000005B5 21 00 00         [10] 1443 	ld	hl, #0
    000005B8 39               [11] 1444 	add	hl, sp
    000005B9 CDr00r00         [17] 1445 	call	_V9_WriteVRAM_CurrentAddr
                                   1446 ;E:\Dropbox\FAUSTO\SVILUPPI\MSX\CODE\C\MSXgl\projects\soccerlgSCC/soccerlg_s7_b3.c:194: V9_SetSpriteP1(ponPonGirlId+20, &attr);
                                   1447 ;E:\Dropbox\FAUSTO\SVILUPPI\MSX\CODE\C\MSXgl\projects\soccerlgSCC/soccerlg_s7_b3.c:195: }
    000005BC DD F9            [10] 1448 	ld	sp, ix
    000005BE DD E1            [14] 1449 	pop	ix
    000005C0 C9               [10] 1450 	ret
                                   1451 ;E:\Dropbox\FAUSTO\SVILUPPI\MSX\CODE\C\MSXgl\projects\soccerlgSCC/soccerlg_s7_b3.c:198: void TickThrowIn() {
                                   1452 ;	---------------------------------
                                   1453 ; Function TickThrowIn
                                   1454 ; ---------------------------------
    000005C1                       1455 _TickThrowIn::
    000005C1 DD E5            [15] 1456 	push	ix
    000005C3 DD 21 00 00      [14] 1457 	ld	ix,#0
    000005C7 DD 39            [15] 1458 	add	ix,sp
    000005C9 21 E6 FF         [10] 1459 	ld	hl, #-26
    000005CC 39               [11] 1460 	add	hl, sp
    000005CD F9               [ 6] 1461 	ld	sp, hl
                                   1462 ;E:\Dropbox\FAUSTO\SVILUPPI\MSX\CODE\C\MSXgl\projects\soccerlgSCC/soccerlg_s7_b3.c:199: if (g_MatchStatus != MATCH_BEFORE_THROW_IN) return;
    000005CE 3Ar00r00         [13] 1463 	ld	a, (_g_MatchStatus+0)
    000005D1 D6 03            [ 7] 1464 	sub	a, #0x03
    000005D3 C2r53r0F         [10] 1465 	jp	NZ,00193$
                                   1466 ;E:\Dropbox\FAUSTO\SVILUPPI\MSX\CODE\C\MSXgl\projects\soccerlgSCC/soccerlg_s7_b3.c:205: u8 throwerId = g_ThrowInPlayerId;
    000005D6 3Ar00r00         [13] 1467 	ld	a, (_g_ThrowInPlayerId+0)
                                   1468 ;E:\Dropbox\FAUSTO\SVILUPPI\MSX\CODE\C\MSXgl\projects\soccerlgSCC/soccerlg_s7_b3.c:206: if (throwerId == NO_VALUE) {
    000005D9 4F               [ 4] 1469 	ld	c, a
    000005DA 3C               [ 4] 1470 	inc	a
    000005DB 20 08            [12] 1471 	jr	NZ, 00104$
                                   1472 ;E:\Dropbox\FAUSTO\SVILUPPI\MSX\CODE\C\MSXgl\projects\soccerlgSCC/soccerlg_s7_b3.c:207: g_MatchStatus = MATCH_IN_ACTION; // Abort if no thrower
    000005DD 21r00r00         [10] 1473 	ld	hl, #_g_MatchStatus
    000005E0 36 0C            [10] 1474 	ld	(hl), #0x0c
                                   1475 ;E:\Dropbox\FAUSTO\SVILUPPI\MSX\CODE\C\MSXgl\projects\soccerlgSCC/soccerlg_s7_b3.c:208: return;
    000005E2 C3r53r0F         [10] 1476 	jp	00193$
    000005E5                       1477 00104$:
                                   1478 ;E:\Dropbox\FAUSTO\SVILUPPI\MSX\CODE\C\MSXgl\projects\soccerlgSCC/soccerlg_s7_b3.c:211: bool isLeft = (g_Players[throwerId].X < FIELD_POS_X_CENTER);
    000005E5 06 00            [ 7] 1479 	ld	b, #0x00
    000005E7 69               [ 4] 1480 	ld	l, c
    000005E8 60               [ 4] 1481 	ld	h, b
    000005E9 29               [11] 1482 	add	hl, hl
    000005EA 29               [11] 1483 	add	hl, hl
    000005EB 09               [11] 1484 	add	hl, bc
    000005EC 29               [11] 1485 	add	hl, hl
    000005ED 29               [11] 1486 	add	hl, hl
    000005EE 09               [11] 1487 	add	hl, bc
    000005EF 11r00r00         [10] 1488 	ld	de, #_g_Players
    000005F2 19               [11] 1489 	add	hl, de
    000005F3 DD 75 FE         [19] 1490 	ld	-2 (ix), l
    000005F6 DD 74 FF         [19] 1491 	ld	-1 (ix), h
    000005F9 DD 7E FE         [19] 1492 	ld	a, -2 (ix)
    000005FC C6 02            [ 7] 1493 	add	a, #0x02
    000005FE DD 77 F4         [19] 1494 	ld	-12 (ix), a
    00000601 DD 7E FF         [19] 1495 	ld	a, -1 (ix)
    00000604 CE 00            [ 7] 1496 	adc	a, #0x00
    00000606 DD 77 F5         [19] 1497 	ld	-11 (ix), a
    00000609 DD 6E F4         [19] 1498 	ld	l, -12 (ix)
    0000060C DD 66 F5         [19] 1499 	ld	h, -11 (ix)
    0000060F 5E               [ 7] 1500 	ld	e, (hl)
    00000610 23               [ 6] 1501 	inc	hl
    00000611 56               [ 7] 1502 	ld	d, (hl)
    00000612 7B               [ 4] 1503 	ld	a, e
    00000613 D6 78            [ 7] 1504 	sub	a, #0x78
    00000615 7A               [ 4] 1505 	ld	a, d
    00000616 DE 00            [ 7] 1506 	sbc	a, #0x00
    00000618 3E 00            [ 7] 1507 	ld	a, #0x00
    0000061A 17               [ 4] 1508 	rla
    0000061B 5F               [ 4] 1509 	ld	e, a
                                   1510 ;E:\Dropbox\FAUSTO\SVILUPPI\MSX\CODE\C\MSXgl\projects\soccerlgSCC/soccerlg_s7_b3.c:214: if (g_CornerKickTargetId == 0) {
    0000061C 3Ar00r00         [13] 1511 	ld	a, (_g_CornerKickTargetId+0)
    0000061F B7               [ 4] 1512 	or	a, a
    00000620 C2r97r0B         [10] 1513 	jp	NZ, 00145$
                                   1514 ;E:\Dropbox\FAUSTO\SVILUPPI\MSX\CODE\C\MSXgl\projects\soccerlgSCC/soccerlg_s7_b3.c:216: g_Ball.X = g_Players[throwerId].TargetX;
    00000623 FD 21 10 00      [14] 1515 	ld	iy, #0x0010
    00000627 C5               [11] 1516 	push	bc
    00000628 DD 4E FE         [19] 1517 	ld	c, -2 (ix)
    0000062B DD 46 FF         [19] 1518 	ld	b, -1 (ix)
    0000062E FD 09            [15] 1519 	add	iy, bc
    00000630 C1               [10] 1520 	pop	bc
    00000631 FD 46 00         [19] 1521 	ld	b, 0 (iy)
    00000634 FD 56 01         [19] 1522 	ld	d, 1 (iy)
    00000637 21r02r00         [10] 1523 	ld	hl, #(_g_Ball + 2)
    0000063A 70               [ 7] 1524 	ld	(hl), b
    0000063B 23               [ 6] 1525 	inc	hl
    0000063C 72               [ 7] 1526 	ld	(hl), d
                                   1527 ;E:\Dropbox\FAUSTO\SVILUPPI\MSX\CODE\C\MSXgl\projects\soccerlgSCC/soccerlg_s7_b3.c:217: g_Ball.Y = g_Players[throwerId].TargetY;
    0000063D DD 7E FE         [19] 1528 	ld	a, -2 (ix)
    00000640 DD 77 E8         [19] 1529 	ld	-24 (ix), a
    00000643 DD 7E FF         [19] 1530 	ld	a, -1 (ix)
    00000646 DD 77 E9         [19] 1531 	ld	-23 (ix), a
    00000649 DD 7E FE         [19] 1532 	ld	a, -2 (ix)
    0000064C C6 0E            [ 7] 1533 	add	a, #0x0e
    0000064E DD 77 F6         [19] 1534 	ld	-10 (ix), a
    00000651 DD 7E FF         [19] 1535 	ld	a, -1 (ix)
    00000654 CE 00            [ 7] 1536 	adc	a, #0x00
    00000656 DD 77 F7         [19] 1537 	ld	-9 (ix), a
    00000659 DD 6E F6         [19] 1538 	ld	l, -10 (ix)
    0000065C DD 66 F7         [19] 1539 	ld	h, -9 (ix)
    0000065F 46               [ 7] 1540 	ld	b, (hl)
    00000660 23               [ 6] 1541 	inc	hl
    00000661 56               [ 7] 1542 	ld	d, (hl)
    00000662 21r00r00         [10] 1543 	ld	hl, #_g_Ball
    00000665 70               [ 7] 1544 	ld	(hl), b
    00000666 23               [ 6] 1545 	inc	hl
    00000667 72               [ 7] 1546 	ld	(hl), d
                                   1547 ;E:\Dropbox\FAUSTO\SVILUPPI\MSX\CODE\C\MSXgl\projects\soccerlgSCC/soccerlg_s7_b3.c:219: i16 dx = (i16)g_Players[throwerId].X - (i16)g_Players[throwerId].TargetX;
    00000668 DD 7E F4         [19] 1548 	ld	a, -12 (ix)
    0000066B DD 77 EA         [19] 1549 	ld	-22 (ix), a
    0000066E DD 7E F5         [19] 1550 	ld	a, -11 (ix)
    00000671 DD 77 EB         [19] 1551 	ld	-21 (ix), a
    00000674 DD 6E F4         [19] 1552 	ld	l, -12 (ix)
    00000677 DD 66 F5         [19] 1553 	ld	h, -11 (ix)
    0000067A 46               [ 7] 1554 	ld	b, (hl)
    0000067B 23               [ 6] 1555 	inc	hl
    0000067C 56               [ 7] 1556 	ld	d, (hl)
    0000067D FD 7E 00         [19] 1557 	ld	a, 0 (iy)
    00000680 DD 77 F8         [19] 1558 	ld	-8 (ix), a
    00000683 FD 7E 01         [19] 1559 	ld	a, 1 (iy)
    00000686 DD 77 F9         [19] 1560 	ld	-7 (ix), a
    00000689 DD 6E F8         [19] 1561 	ld	l, -8 (ix)
                                   1562 ;	spillPairReg hl
                                   1563 ;	spillPairReg hl
    0000068C DD 66 F9         [19] 1564 	ld	h, -7 (ix)
                                   1565 ;	spillPairReg hl
                                   1566 ;	spillPairReg hl
    0000068F 78               [ 4] 1567 	ld	a, b
    00000690 95               [ 4] 1568 	sub	a, l
    00000691 47               [ 4] 1569 	ld	b, a
    00000692 7A               [ 4] 1570 	ld	a, d
    00000693 9C               [ 4] 1571 	sbc	a, h
    00000694 DD 70 FA         [19] 1572 	ld	-6 (ix), b
    00000697 DD 77 FB         [19] 1573 	ld	-5 (ix), a
                                   1574 ;E:\Dropbox\FAUSTO\SVILUPPI\MSX\CODE\C\MSXgl\projects\soccerlgSCC/soccerlg_s7_b3.c:220: i16 dy = (i16)g_Players[throwerId].Y - (i16)g_Players[throwerId].TargetY;
    0000069A DD 6E FE         [19] 1575 	ld	l, -2 (ix)
    0000069D DD 66 FF         [19] 1576 	ld	h, -1 (ix)
    000006A0 7E               [ 7] 1577 	ld	a, (hl)
    000006A1 23               [ 6] 1578 	inc	hl
                                   1579 ;	spillPairReg hl
                                   1580 ;	spillPairReg hl
                                   1581 ;	spillPairReg hl
    000006A2 56               [ 7] 1582 	ld	d, (hl)
    000006A3 47               [ 4] 1583 	ld	b, a
    000006A4 DD 6E F6         [19] 1584 	ld	l, -10 (ix)
    000006A7 DD 66 F7         [19] 1585 	ld	h, -9 (ix)
    000006AA 7E               [ 7] 1586 	ld	a, (hl)
    000006AB 23               [ 6] 1587 	inc	hl
    000006AC 66               [ 7] 1588 	ld	h, (hl)
                                   1589 ;	spillPairReg hl
    000006AD 6F               [ 4] 1590 	ld	l, a
                                   1591 ;	spillPairReg hl
                                   1592 ;	spillPairReg hl
    000006AE 78               [ 4] 1593 	ld	a, b
    000006AF 95               [ 4] 1594 	sub	a, l
    000006B0 6F               [ 4] 1595 	ld	l, a
                                   1596 ;	spillPairReg hl
                                   1597 ;	spillPairReg hl
    000006B1 7A               [ 4] 1598 	ld	a, d
    000006B2 9C               [ 4] 1599 	sbc	a, h
    000006B3 DD 75 FC         [19] 1600 	ld	-4 (ix), l
    000006B6 DD 77 FD         [19] 1601 	ld	-3 (ix), a
                                   1602 ;E:\Dropbox\FAUSTO\SVILUPPI\MSX\CODE\C\MSXgl\projects\soccerlgSCC/soccerlg_s7_b3.c:222: if (dx >= -4 && dx <= 4 && dy >= -4 && dy <= 4) {
    000006B9 DD 7E FA         [19] 1603 	ld	a, -6 (ix)
    000006BC D6 FC            [ 7] 1604 	sub	a, #0xfc
    000006BE DD 7E FB         [19] 1605 	ld	a, -5 (ix)
    000006C1 17               [ 4] 1606 	rla
    000006C2 3F               [ 4] 1607 	ccf
    000006C3 1F               [ 4] 1608 	rra
    000006C4 DE 7F            [ 7] 1609 	sbc	a, #0x7f
    000006C6 DAr53r0F         [10] 1610 	jp	C,00193$
    000006C9 DD 46 FA         [19] 1611 	ld	b, -6 (ix)
    000006CC DD 56 FB         [19] 1612 	ld	d, -5 (ix)
    000006CF 3E 04            [ 7] 1613 	ld	a, #0x04
    000006D1 B8               [ 4] 1614 	cp	a, b
    000006D2 3E 00            [ 7] 1615 	ld	a, #0x00
    000006D4 9A               [ 4] 1616 	sbc	a, d
    000006D5 E2rDAr06         [10] 1617 	jp	PO, 00518$
    000006D8 EE 80            [ 7] 1618 	xor	a, #0x80
    000006DA                       1619 00518$:
    000006DA FAr53r0F         [10] 1620 	jp	M,00193$
    000006DD DD 7E FC         [19] 1621 	ld	a, -4 (ix)
    000006E0 D6 FC            [ 7] 1622 	sub	a, #0xfc
    000006E2 DD 7E FD         [19] 1623 	ld	a, -3 (ix)
    000006E5 17               [ 4] 1624 	rla
    000006E6 3F               [ 4] 1625 	ccf
    000006E7 1F               [ 4] 1626 	rra
    000006E8 DE 7F            [ 7] 1627 	sbc	a, #0x7f
    000006EA DAr53r0F         [10] 1628 	jp	C,00193$
    000006ED DD 46 FC         [19] 1629 	ld	b, -4 (ix)
    000006F0 DD 56 FD         [19] 1630 	ld	d, -3 (ix)
    000006F3 3E 04            [ 7] 1631 	ld	a, #0x04
    000006F5 B8               [ 4] 1632 	cp	a, b
    000006F6 3E 00            [ 7] 1633 	ld	a, #0x00
    000006F8 9A               [ 4] 1634 	sbc	a, d
    000006F9 E2rFEr06         [10] 1635 	jp	PO, 00519$
    000006FC EE 80            [ 7] 1636 	xor	a, #0x80
    000006FE                       1637 00519$:
    000006FE FAr53r0F         [10] 1638 	jp	M,00193$
                                   1639 ;E:\Dropbox\FAUSTO\SVILUPPI\MSX\CODE\C\MSXgl\projects\soccerlgSCC/soccerlg_s7_b3.c:224: g_Players[throwerId].X = g_Players[throwerId].TargetX;
    00000701 DD 6E F4         [19] 1640 	ld	l, -12 (ix)
    00000704 DD 66 F5         [19] 1641 	ld	h, -11 (ix)
    00000707 DD 7E F8         [19] 1642 	ld	a, -8 (ix)
    0000070A 77               [ 7] 1643 	ld	(hl), a
    0000070B 23               [ 6] 1644 	inc	hl
    0000070C DD 7E F9         [19] 1645 	ld	a, -7 (ix)
    0000070F 77               [ 7] 1646 	ld	(hl), a
                                   1647 ;E:\Dropbox\FAUSTO\SVILUPPI\MSX\CODE\C\MSXgl\projects\soccerlgSCC/soccerlg_s7_b3.c:225: g_Players[throwerId].Y = g_Players[throwerId].TargetY;
    00000710 DD 6E F6         [19] 1648 	ld	l, -10 (ix)
    00000713 DD 66 F7         [19] 1649 	ld	h, -9 (ix)
    00000716 46               [ 7] 1650 	ld	b, (hl)
    00000717 23               [ 6] 1651 	inc	hl
    00000718 56               [ 7] 1652 	ld	d, (hl)
    00000719 DD 6E FE         [19] 1653 	ld	l, -2 (ix)
    0000071C DD 66 FF         [19] 1654 	ld	h, -1 (ix)
    0000071F 70               [ 7] 1655 	ld	(hl), b
    00000720 23               [ 6] 1656 	inc	hl
    00000721 72               [ 7] 1657 	ld	(hl), d
                                   1658 ;E:\Dropbox\FAUSTO\SVILUPPI\MSX\CODE\C\MSXgl\projects\soccerlgSCC/soccerlg_s7_b3.c:226: g_Players[throwerId].Status = PLAYER_STATUS_POSITIONED;
    00000722 DD 7E FE         [19] 1659 	ld	a, -2 (ix)
    00000725 C6 12            [ 7] 1660 	add	a, #0x12
    00000727 6F               [ 4] 1661 	ld	l, a
                                   1662 ;	spillPairReg hl
                                   1663 ;	spillPairReg hl
    00000728 DD 7E FF         [19] 1664 	ld	a, -1 (ix)
    0000072B CE 00            [ 7] 1665 	adc	a, #0x00
    0000072D 67               [ 4] 1666 	ld	h, a
                                   1667 ;	spillPairReg hl
                                   1668 ;	spillPairReg hl
    0000072E 36 04            [10] 1669 	ld	(hl), #0x04
    00000730 23               [ 6] 1670 	inc	hl
    00000731 36 00            [10] 1671 	ld	(hl), #0x00
                                   1672 ;E:\Dropbox\FAUSTO\SVILUPPI\MSX\CODE\C\MSXgl\projects\soccerlgSCC/soccerlg_s7_b3.c:229: u8 t1_p1 = NO_VALUE, t1_p2 = NO_VALUE;
    00000733 DD 36 EC FF      [19] 1673 	ld	-20 (ix), #0xff
    00000737 DD 36 ED FF      [19] 1674 	ld	-19 (ix), #0xff
                                   1675 ;E:\Dropbox\FAUSTO\SVILUPPI\MSX\CODE\C\MSXgl\projects\soccerlgSCC/soccerlg_s7_b3.c:230: u8 t2_p1 = NO_VALUE, t2_p2 = NO_VALUE;
    0000073B DD 36 EE FF      [19] 1676 	ld	-18 (ix), #0xff
    0000073F DD 36 EF FF      [19] 1677 	ld	-17 (ix), #0xff
                                   1678 ;E:\Dropbox\FAUSTO\SVILUPPI\MSX\CODE\C\MSXgl\projects\soccerlgSCC/soccerlg_s7_b3.c:231: u16 d1_1 = 0xFFFF, d1_2 = 0xFFFF;
    00000743 DD 36 F0 FF      [19] 1679 	ld	-16 (ix), #0xff
    00000747 DD 36 F1 FF      [19] 1680 	ld	-15 (ix), #0xff
    0000074B DD 36 F2 FF      [19] 1681 	ld	-14 (ix), #0xff
    0000074F DD 36 F3 FF      [19] 1682 	ld	-13 (ix), #0xff
                                   1683 ;E:\Dropbox\FAUSTO\SVILUPPI\MSX\CODE\C\MSXgl\projects\soccerlgSCC/soccerlg_s7_b3.c:232: u16 d2_1 = 0xFFFF, d2_2 = 0xFFFF;
    00000753 DD 36 F4 FF      [19] 1684 	ld	-12 (ix), #0xff
    00000757 DD 36 F5 FF      [19] 1685 	ld	-11 (ix), #0xff
    0000075B DD 36 F6 FF      [19] 1686 	ld	-10 (ix), #0xff
    0000075F DD 36 F7 FF      [19] 1687 	ld	-9 (ix), #0xff
                                   1688 ;E:\Dropbox\FAUSTO\SVILUPPI\MSX\CODE\C\MSXgl\projects\soccerlgSCC/soccerlg_s7_b3.c:234: u8 throwerTeam = g_Players[throwerId].TeamId;
    00000763 DD 6E FE         [19] 1689 	ld	l, -2 (ix)
                                   1690 ;	spillPairReg hl
                                   1691 ;	spillPairReg hl
    00000766 DD 66 FF         [19] 1692 	ld	h, -1 (ix)
                                   1693 ;	spillPairReg hl
                                   1694 ;	spillPairReg hl
    00000769 C5               [11] 1695 	push	bc
    0000076A 01 09 00         [10] 1696 	ld	bc, #0x0009
    0000076D 09               [11] 1697 	add	hl, bc
    0000076E C1               [10] 1698 	pop	bc
    0000076F 7E               [ 7] 1699 	ld	a, (hl)
    00000770 DD 77 F8         [19] 1700 	ld	-8 (ix), a
                                   1701 ;E:\Dropbox\FAUSTO\SVILUPPI\MSX\CODE\C\MSXgl\projects\soccerlgSCC/soccerlg_s7_b3.c:236: for(u8 i=0; i<14; i++) {
    00000773 DD 36 FF 00      [19] 1702 	ld	-1 (ix), #0x00
    00000777                       1703 00188$:
    00000777 DD 7E FF         [19] 1704 	ld	a, -1 (ix)
    0000077A D6 0E            [ 7] 1705 	sub	a, #0x0e
    0000077C D2rDAr08         [10] 1706 	jp	NC, 00122$
                                   1707 ;E:\Dropbox\FAUSTO\SVILUPPI\MSX\CODE\C\MSXgl\projects\soccerlgSCC/soccerlg_s7_b3.c:237: if (i == throwerId || g_Players[i].Role == PLAYER_ROLE_GOALKEEPER) continue;
    0000077F 79               [ 4] 1708 	ld	a, c
    00000780 DD 96 FF         [19] 1709 	sub	a, -1 (ix)
    00000783 CArD4r08         [10] 1710 	jp	Z,00121$
    00000786 D5               [11] 1711 	push	de
    00000787 DD 5E FF         [19] 1712 	ld	e, -1 (ix)
    0000078A 16 00            [ 7] 1713 	ld	d, #0x00
    0000078C 6B               [ 4] 1714 	ld	l, e
    0000078D 62               [ 4] 1715 	ld	h, d
    0000078E 29               [11] 1716 	add	hl, hl
    0000078F 29               [11] 1717 	add	hl, hl
    00000790 19               [11] 1718 	add	hl, de
    00000791 29               [11] 1719 	add	hl, hl
    00000792 29               [11] 1720 	add	hl, hl
    00000793 19               [11] 1721 	add	hl, de
    00000794 D1               [10] 1722 	pop	de
    00000795 7D               [ 4] 1723 	ld	a, l
    00000796 C6r00            [ 7] 1724 	add	a, #<(_g_Players)
    00000798 DD 77 F9         [19] 1725 	ld	-7 (ix), a
    0000079B 7C               [ 4] 1726 	ld	a, h
    0000079C CEs00            [ 7] 1727 	adc	a, #>(_g_Players)
    0000079E DD 77 FA         [19] 1728 	ld	-6 (ix), a
    000007A1 DD 6E F9         [19] 1729 	ld	l, -7 (ix)
                                   1730 ;	spillPairReg hl
                                   1731 ;	spillPairReg hl
    000007A4 DD 66 FA         [19] 1732 	ld	h, -6 (ix)
                                   1733 ;	spillPairReg hl
                                   1734 ;	spillPairReg hl
    000007A7 C5               [11] 1735 	push	bc
    000007A8 01 0D 00         [10] 1736 	ld	bc, #0x000d
    000007AB 09               [11] 1737 	add	hl, bc
    000007AC C1               [10] 1738 	pop	bc
    000007AD 7E               [ 7] 1739 	ld	a, (hl)
    000007AE B7               [ 4] 1740 	or	a, a
    000007AF CArD4r08         [10] 1741 	jp	Z, 00121$
                                   1742 ;E:\Dropbox\FAUSTO\SVILUPPI\MSX\CODE\C\MSXgl\projects\soccerlgSCC/soccerlg_s7_b3.c:239: u16 d = Math_Abs32((i16)g_Players[i].X - (i16)g_Players[throwerId].X) + 
    000007B2 DD 6E F9         [19] 1743 	ld	l, -7 (ix)
                                   1744 ;	spillPairReg hl
                                   1745 ;	spillPairReg hl
    000007B5 DD 66 FA         [19] 1746 	ld	h, -6 (ix)
                                   1747 ;	spillPairReg hl
                                   1748 ;	spillPairReg hl
    000007B8 23               [ 6] 1749 	inc	hl
    000007B9 23               [ 6] 1750 	inc	hl
    000007BA 46               [ 7] 1751 	ld	b, (hl)
    000007BB 23               [ 6] 1752 	inc	hl
    000007BC 7E               [ 7] 1753 	ld	a, (hl)
    000007BD DD 70 FD         [19] 1754 	ld	-3 (ix), b
    000007C0 DD 77 FE         [19] 1755 	ld	-2 (ix), a
    000007C3 DD 6E EA         [19] 1756 	ld	l, -22 (ix)
    000007C6 DD 66 EB         [19] 1757 	ld	h, -21 (ix)
    000007C9 46               [ 7] 1758 	ld	b, (hl)
    000007CA 23               [ 6] 1759 	inc	hl
    000007CB 56               [ 7] 1760 	ld	d, (hl)
    000007CC 68               [ 4] 1761 	ld	l, b
                                   1762 ;	spillPairReg hl
                                   1763 ;	spillPairReg hl
    000007CD DD 7E FD         [19] 1764 	ld	a, -3 (ix)
    000007D0 95               [ 4] 1765 	sub	a, l
    000007D1 6F               [ 4] 1766 	ld	l, a
                                   1767 ;	spillPairReg hl
                                   1768 ;	spillPairReg hl
    000007D2 DD 7E FE         [19] 1769 	ld	a, -2 (ix)
    000007D5 9A               [ 4] 1770 	sbc	a, d
    000007D6 67               [ 4] 1771 	ld	h, a
                                   1772 ;	spillPairReg hl
                                   1773 ;	spillPairReg hl
    000007D7 45               [ 4] 1774 	ld	b, l
    000007D8 7C               [ 4] 1775 	ld	a, h
    000007D9 57               [ 4] 1776 	ld	d, a
    000007DA 07               [ 4] 1777 	rlca
    000007DB ED 62            [15] 1778 	sbc	hl, hl
    000007DD C5               [11] 1779 	push	bc
    000007DE D5               [11] 1780 	push	de
    000007DF 58               [ 4] 1781 	ld	e, b
    000007E0 CDr00r00         [17] 1782 	call	_Math_Abs32
    000007E3 DD 73 FB         [19] 1783 	ld	-5 (ix), e
    000007E6 DD 72 FC         [19] 1784 	ld	-4 (ix), d
    000007E9 DD 75 FD         [19] 1785 	ld	-3 (ix), l
    000007EC DD 74 FE         [19] 1786 	ld	-2 (ix), h
    000007EF D1               [10] 1787 	pop	de
    000007F0 C1               [10] 1788 	pop	bc
    000007F1 DD 6E F9         [19] 1789 	ld	l, -7 (ix)
    000007F4 DD 66 FA         [19] 1790 	ld	h, -6 (ix)
    000007F7 46               [ 7] 1791 	ld	b, (hl)
    000007F8 23               [ 6] 1792 	inc	hl
    000007F9 7E               [ 7] 1793 	ld	a, (hl)
    000007FA DD 70 E6         [19] 1794 	ld	-26 (ix), b
    000007FD DD 77 E7         [19] 1795 	ld	-25 (ix), a
    00000800 DD 6E E8         [19] 1796 	ld	l, -24 (ix)
    00000803 DD 66 E9         [19] 1797 	ld	h, -23 (ix)
    00000806 46               [ 7] 1798 	ld	b, (hl)
    00000807 23               [ 6] 1799 	inc	hl
    00000808 56               [ 7] 1800 	ld	d, (hl)
    00000809 68               [ 4] 1801 	ld	l, b
                                   1802 ;	spillPairReg hl
                                   1803 ;	spillPairReg hl
    0000080A DD 7E E6         [19] 1804 	ld	a, -26 (ix)
    0000080D 95               [ 4] 1805 	sub	a, l
    0000080E 6F               [ 4] 1806 	ld	l, a
                                   1807 ;	spillPairReg hl
                                   1808 ;	spillPairReg hl
    0000080F DD 7E E7         [19] 1809 	ld	a, -25 (ix)
    00000812 9A               [ 4] 1810 	sbc	a, d
                                   1811 ;	spillPairReg hl
                                   1812 ;	spillPairReg hl
    00000813 67               [ 4] 1813 	ld	h, a
    00000814 07               [ 4] 1814 	rlca
    00000815 9F               [ 4] 1815 	sbc	a, a
    00000816 47               [ 4] 1816 	ld	b, a
    00000817 57               [ 4] 1817 	ld	d, a
    00000818 C5               [11] 1818 	push	bc
    00000819 EB               [ 4] 1819 	ex	de, hl
    0000081A E5               [11] 1820 	push	hl
    0000081B 68               [ 4] 1821 	ld	l, b
                                   1822 ;	spillPairReg hl
                                   1823 ;	spillPairReg hl
    0000081C CDr00r00         [17] 1824 	call	_Math_Abs32
    0000081F E5               [11] 1825 	push	hl
    00000820 FD E1            [14] 1826 	pop	iy
    00000822 EB               [ 4] 1827 	ex	de, hl
    00000823 D1               [10] 1828 	pop	de
    00000824 C1               [10] 1829 	pop	bc
    00000825 DD 7E FB         [19] 1830 	ld	a, -5 (ix)
    00000828 DD 77 FD         [19] 1831 	ld	-3 (ix), a
    0000082B DD 7E FC         [19] 1832 	ld	a, -4 (ix)
    0000082E DD 77 FE         [19] 1833 	ld	-2 (ix), a
    00000831 7D               [ 4] 1834 	ld	a, l
    00000832 DD 86 FD         [19] 1835 	add	a, -3 (ix)
    00000835 6F               [ 4] 1836 	ld	l, a
                                   1837 ;	spillPairReg hl
                                   1838 ;	spillPairReg hl
    00000836 7C               [ 4] 1839 	ld	a, h
    00000837 DD 8E FE         [19] 1840 	adc	a, -2 (ix)
    0000083A 67               [ 4] 1841 	ld	h, a
                                   1842 ;	spillPairReg hl
                                   1843 ;	spillPairReg hl
    0000083B 45               [ 4] 1844 	ld	b, l
    0000083C 54               [ 4] 1845 	ld	d, h
                                   1846 ;E:\Dropbox\FAUSTO\SVILUPPI\MSX\CODE\C\MSXgl\projects\soccerlgSCC/soccerlg_s7_b3.c:242: if (g_Players[i].TeamId == throwerTeam) {
    0000083D DD 6E F9         [19] 1847 	ld	l, -7 (ix)
                                   1848 ;	spillPairReg hl
                                   1849 ;	spillPairReg hl
    00000840 DD 66 FA         [19] 1850 	ld	h, -6 (ix)
                                   1851 ;	spillPairReg hl
                                   1852 ;	spillPairReg hl
    00000843 C5               [11] 1853 	push	bc
    00000844 01 09 00         [10] 1854 	ld	bc, #0x0009
    00000847 09               [11] 1855 	add	hl, bc
    00000848 C1               [10] 1856 	pop	bc
                                   1857 ;	spillPairReg hl
    00000849 DD 7E F8         [19] 1858 	ld	a,-8 (ix)
    0000084C 96               [ 7] 1859 	sub	a,(hl)
    0000084D 20 44            [12] 1860 	jr	NZ, 00119$
                                   1861 ;E:\Dropbox\FAUSTO\SVILUPPI\MSX\CODE\C\MSXgl\projects\soccerlgSCC/soccerlg_s7_b3.c:244: if (d < d1_1) { d1_2 = d1_1; t1_p2 = t1_p1; d1_1 = d; t1_p1 = i; }
    0000084F 78               [ 4] 1862 	ld	a, b
    00000850 DD 96 F0         [19] 1863 	sub	a, -16 (ix)
    00000853 7A               [ 4] 1864 	ld	a, d
    00000854 DD 9E F1         [19] 1865 	sbc	a, -15 (ix)
    00000857 30 21            [12] 1866 	jr	NC, 00111$
    00000859 DD 7E F0         [19] 1867 	ld	a, -16 (ix)
    0000085C DD 77 F2         [19] 1868 	ld	-14 (ix), a
    0000085F DD 7E F1         [19] 1869 	ld	a, -15 (ix)
    00000862 DD 77 F3         [19] 1870 	ld	-13 (ix), a
    00000865 DD 7E EC         [19] 1871 	ld	a, -20 (ix)
    00000868 DD 77 ED         [19] 1872 	ld	-19 (ix), a
    0000086B DD 70 F0         [19] 1873 	ld	-16 (ix), b
    0000086E DD 72 F1         [19] 1874 	ld	-15 (ix), d
    00000871 DD 7E FF         [19] 1875 	ld	a, -1 (ix)
    00000874 DD 77 EC         [19] 1876 	ld	-20 (ix), a
    00000877 C3rD4r08         [10] 1877 	jp	00121$
    0000087A                       1878 00111$:
                                   1879 ;E:\Dropbox\FAUSTO\SVILUPPI\MSX\CODE\C\MSXgl\projects\soccerlgSCC/soccerlg_s7_b3.c:245: else if (d < d1_2) { d1_2 = d; t1_p2 = i; }
    0000087A 78               [ 4] 1880 	ld	a, b
    0000087B DD 96 F2         [19] 1881 	sub	a, -14 (ix)
    0000087E 7A               [ 4] 1882 	ld	a, d
    0000087F DD 9E F3         [19] 1883 	sbc	a, -13 (ix)
    00000882 30 50            [12] 1884 	jr	NC, 00121$
    00000884 DD 70 F2         [19] 1885 	ld	-14 (ix), b
    00000887 DD 72 F3         [19] 1886 	ld	-13 (ix), d
    0000088A DD 7E FF         [19] 1887 	ld	a, -1 (ix)
    0000088D DD 77 ED         [19] 1888 	ld	-19 (ix), a
    00000890 C3rD4r08         [10] 1889 	jp	00121$
    00000893                       1890 00119$:
                                   1891 ;E:\Dropbox\FAUSTO\SVILUPPI\MSX\CODE\C\MSXgl\projects\soccerlgSCC/soccerlg_s7_b3.c:248: if (d < d2_1) { d2_2 = d2_1; t2_p2 = t2_p1; d2_1 = d; t2_p1 = i; }
    00000893 78               [ 4] 1892 	ld	a, b
    00000894 DD 96 F4         [19] 1893 	sub	a, -12 (ix)
    00000897 7A               [ 4] 1894 	ld	a, d
    00000898 DD 9E F5         [19] 1895 	sbc	a, -11 (ix)
    0000089B 30 21            [12] 1896 	jr	NC, 00116$
    0000089D DD 7E F4         [19] 1897 	ld	a, -12 (ix)
    000008A0 DD 77 F6         [19] 1898 	ld	-10 (ix), a
    000008A3 DD 7E F5         [19] 1899 	ld	a, -11 (ix)
    000008A6 DD 77 F7         [19] 1900 	ld	-9 (ix), a
    000008A9 DD 7E EE         [19] 1901 	ld	a, -18 (ix)
    000008AC DD 77 EF         [19] 1902 	ld	-17 (ix), a
    000008AF DD 70 F4         [19] 1903 	ld	-12 (ix), b
    000008B2 DD 72 F5         [19] 1904 	ld	-11 (ix), d
    000008B5 DD 7E FF         [19] 1905 	ld	a, -1 (ix)
    000008B8 DD 77 EE         [19] 1906 	ld	-18 (ix), a
    000008BB C3rD4r08         [10] 1907 	jp	00121$
    000008BE                       1908 00116$:
                                   1909 ;E:\Dropbox\FAUSTO\SVILUPPI\MSX\CODE\C\MSXgl\projects\soccerlgSCC/soccerlg_s7_b3.c:249: else if (d < d2_2) { d2_2 = d; t2_p2 = i; }
    000008BE 78               [ 4] 1910 	ld	a, b
    000008BF DD 96 F6         [19] 1911 	sub	a, -10 (ix)
    000008C2 7A               [ 4] 1912 	ld	a, d
    000008C3 DD 9E F7         [19] 1913 	sbc	a, -9 (ix)
    000008C6 30 0C            [12] 1914 	jr	NC, 00121$
    000008C8 DD 70 F6         [19] 1915 	ld	-10 (ix), b
    000008CB DD 72 F7         [19] 1916 	ld	-9 (ix), d
    000008CE DD 7E FF         [19] 1917 	ld	a, -1 (ix)
    000008D1 DD 77 EF         [19] 1918 	ld	-17 (ix), a
    000008D4                       1919 00121$:
                                   1920 ;E:\Dropbox\FAUSTO\SVILUPPI\MSX\CODE\C\MSXgl\projects\soccerlgSCC/soccerlg_s7_b3.c:236: for(u8 i=0; i<14; i++) {
    000008D4 DD 34 FF         [23] 1921 	inc	-1 (ix)
    000008D7 C3r77r07         [10] 1922 	jp	00188$
    000008DA                       1923 00122$:
                                   1924 ;E:\Dropbox\FAUSTO\SVILUPPI\MSX\CODE\C\MSXgl\projects\soccerlgSCC/soccerlg_s7_b3.c:254: i16 offsetX = isLeft ? 40 : -40; // Move towards center
    000008DA 7B               [ 4] 1925 	ld	a, e
    000008DB B7               [ 4] 1926 	or	a, a
    000008DC 28 06            [12] 1927 	jr	Z, 00195$
    000008DE 11 28 00         [10] 1928 	ld	de, #0x0028
    000008E1 C3rE7r08         [10] 1929 	jp	00196$
    000008E4                       1930 00195$:
    000008E4 11 D8 FF         [10] 1931 	ld	de, #0xffd8
    000008E7                       1932 00196$:
    000008E7 DD 73 F8         [19] 1933 	ld	-8 (ix), e
    000008EA DD 72 F9         [19] 1934 	ld	-7 (ix), d
                                   1935 ;E:\Dropbox\FAUSTO\SVILUPPI\MSX\CODE\C\MSXgl\projects\soccerlgSCC/soccerlg_s7_b3.c:257: if(t1_p1 != NO_VALUE) { g_Players[t1_p1].TargetX = g_Ball.X + offsetX; g_Players[t1_p1].TargetY = g_Ball.Y - 20; g_Players[t1_p1].Status = PLAYER_STATUS_NONE; }
    000008ED DD 7E EC         [19] 1936 	ld	a, -20 (ix)
    000008F0 3C               [ 4] 1937 	inc	a
    000008F1 28 6D            [12] 1938 	jr	Z, 00124$
    000008F3 DD 5E EC         [19] 1939 	ld	e, -20 (ix)
    000008F6 16 00            [ 7] 1940 	ld	d, #0x00
    000008F8 6B               [ 4] 1941 	ld	l, e
    000008F9 62               [ 4] 1942 	ld	h, d
    000008FA 29               [11] 1943 	add	hl, hl
    000008FB 29               [11] 1944 	add	hl, hl
    000008FC 19               [11] 1945 	add	hl, de
    000008FD 29               [11] 1946 	add	hl, hl
    000008FE 29               [11] 1947 	add	hl, hl
    000008FF 19               [11] 1948 	add	hl, de
    00000900 11r00r00         [10] 1949 	ld	de, #_g_Players
    00000903 19               [11] 1950 	add	hl, de
    00000904 DD 75 FC         [19] 1951 	ld	-4 (ix), l
    00000907 DD 74 FD         [19] 1952 	ld	-3 (ix), h
    0000090A DD 7E FC         [19] 1953 	ld	a, -4 (ix)
    0000090D C6 10            [ 7] 1954 	add	a, #0x10
    0000090F DD 77 FE         [19] 1955 	ld	-2 (ix), a
    00000912 DD 7E FD         [19] 1956 	ld	a, -3 (ix)
    00000915 CE 00            [ 7] 1957 	adc	a, #0x00
    00000917 DD 77 FF         [19] 1958 	ld	-1 (ix), a
    0000091A 2Ar02r00         [16] 1959 	ld	hl, (#(_g_Ball + 2) + 0)
    0000091D DD 5E F8         [19] 1960 	ld	e, -8 (ix)
    00000920 DD 56 F9         [19] 1961 	ld	d, -7 (ix)
    00000923 19               [11] 1962 	add	hl, de
    00000924 EB               [ 4] 1963 	ex	de, hl
    00000925 DD 6E FE         [19] 1964 	ld	l, -2 (ix)
    00000928 DD 66 FF         [19] 1965 	ld	h, -1 (ix)
    0000092B 73               [ 7] 1966 	ld	(hl), e
    0000092C 23               [ 6] 1967 	inc	hl
    0000092D 72               [ 7] 1968 	ld	(hl), d
    0000092E DD 7E FC         [19] 1969 	ld	a, -4 (ix)
    00000931 C6 0E            [ 7] 1970 	add	a, #0x0e
    00000933 DD 77 FE         [19] 1971 	ld	-2 (ix), a
    00000936 DD 7E FD         [19] 1972 	ld	a, -3 (ix)
    00000939 CE 00            [ 7] 1973 	adc	a, #0x00
    0000093B DD 77 FF         [19] 1974 	ld	-1 (ix), a
    0000093E 2Ar00r00         [16] 1975 	ld	hl, (#_g_Ball + 0)
    00000941 7D               [ 4] 1976 	ld	a, l
    00000942 C6 EC            [ 7] 1977 	add	a, #0xec
    00000944 5F               [ 4] 1978 	ld	e, a
    00000945 7C               [ 4] 1979 	ld	a, h
    00000946 CE FF            [ 7] 1980 	adc	a, #0xff
    00000948 47               [ 4] 1981 	ld	b, a
    00000949 DD 6E FE         [19] 1982 	ld	l, -2 (ix)
    0000094C DD 66 FF         [19] 1983 	ld	h, -1 (ix)
    0000094F 73               [ 7] 1984 	ld	(hl), e
    00000950 23               [ 6] 1985 	inc	hl
    00000951 70               [ 7] 1986 	ld	(hl), b
    00000952 DD 6E FC         [19] 1987 	ld	l, -4 (ix)
    00000955 DD 66 FD         [19] 1988 	ld	h, -3 (ix)
    00000958 11 12 00         [10] 1989 	ld	de, #0x0012
    0000095B 19               [11] 1990 	add	hl, de
    0000095C AF               [ 4] 1991 	xor	a, a
    0000095D 77               [ 7] 1992 	ld	(hl), a
    0000095E 23               [ 6] 1993 	inc	hl
    0000095F 77               [ 7] 1994 	ld	(hl), a
    00000960                       1995 00124$:
                                   1996 ;E:\Dropbox\FAUSTO\SVILUPPI\MSX\CODE\C\MSXgl\projects\soccerlgSCC/soccerlg_s7_b3.c:258: if(t1_p2 != NO_VALUE) { g_Players[t1_p2].TargetX = g_Ball.X + offsetX; g_Players[t1_p2].TargetY = g_Ball.Y + 20; g_Players[t1_p2].Status = PLAYER_STATUS_NONE; }
    00000960 DD 7E ED         [19] 1997 	ld	a, -19 (ix)
    00000963 3C               [ 4] 1998 	inc	a
    00000964 28 6A            [12] 1999 	jr	Z, 00126$
    00000966 DD 5E ED         [19] 2000 	ld	e, -19 (ix)
    00000969 16 00            [ 7] 2001 	ld	d, #0x00
    0000096B 6B               [ 4] 2002 	ld	l, e
    0000096C 62               [ 4] 2003 	ld	h, d
    0000096D 29               [11] 2004 	add	hl, hl
    0000096E 29               [11] 2005 	add	hl, hl
    0000096F 19               [11] 2006 	add	hl, de
    00000970 29               [11] 2007 	add	hl, hl
    00000971 29               [11] 2008 	add	hl, hl
    00000972 19               [11] 2009 	add	hl, de
    00000973 11r00r00         [10] 2010 	ld	de, #_g_Players
    00000976 19               [11] 2011 	add	hl, de
    00000977 DD 75 FC         [19] 2012 	ld	-4 (ix), l
    0000097A DD 74 FD         [19] 2013 	ld	-3 (ix), h
    0000097D DD 7E FC         [19] 2014 	ld	a, -4 (ix)
    00000980 C6 10            [ 7] 2015 	add	a, #0x10
    00000982 DD 77 FE         [19] 2016 	ld	-2 (ix), a
    00000985 DD 7E FD         [19] 2017 	ld	a, -3 (ix)
    00000988 CE 00            [ 7] 2018 	adc	a, #0x00
    0000098A DD 77 FF         [19] 2019 	ld	-1 (ix), a
    0000098D 2Ar02r00         [16] 2020 	ld	hl, (#(_g_Ball + 2) + 0)
    00000990 DD 5E F8         [19] 2021 	ld	e, -8 (ix)
    00000993 DD 56 F9         [19] 2022 	ld	d, -7 (ix)
    00000996 19               [11] 2023 	add	hl, de
    00000997 EB               [ 4] 2024 	ex	de, hl
    00000998 DD 6E FE         [19] 2025 	ld	l, -2 (ix)
    0000099B DD 66 FF         [19] 2026 	ld	h, -1 (ix)
    0000099E 73               [ 7] 2027 	ld	(hl), e
    0000099F 23               [ 6] 2028 	inc	hl
    000009A0 72               [ 7] 2029 	ld	(hl), d
    000009A1 DD 7E FC         [19] 2030 	ld	a, -4 (ix)
    000009A4 C6 0E            [ 7] 2031 	add	a, #0x0e
    000009A6 DD 77 FE         [19] 2032 	ld	-2 (ix), a
    000009A9 DD 7E FD         [19] 2033 	ld	a, -3 (ix)
    000009AC CE 00            [ 7] 2034 	adc	a, #0x00
    000009AE DD 77 FF         [19] 2035 	ld	-1 (ix), a
    000009B1 2Ar00r00         [16] 2036 	ld	hl, (#_g_Ball + 0)
    000009B4 11 14 00         [10] 2037 	ld	de, #0x0014
    000009B7 19               [11] 2038 	add	hl, de
    000009B8 EB               [ 4] 2039 	ex	de, hl
    000009B9 DD 6E FE         [19] 2040 	ld	l, -2 (ix)
    000009BC DD 66 FF         [19] 2041 	ld	h, -1 (ix)
    000009BF 73               [ 7] 2042 	ld	(hl), e
    000009C0 23               [ 6] 2043 	inc	hl
    000009C1 72               [ 7] 2044 	ld	(hl), d
    000009C2 DD 6E FC         [19] 2045 	ld	l, -4 (ix)
    000009C5 DD 66 FD         [19] 2046 	ld	h, -3 (ix)
    000009C8 11 12 00         [10] 2047 	ld	de, #0x0012
    000009CB 19               [11] 2048 	add	hl, de
    000009CC AF               [ 4] 2049 	xor	a, a
    000009CD 77               [ 7] 2050 	ld	(hl), a
    000009CE 23               [ 6] 2051 	inc	hl
    000009CF 77               [ 7] 2052 	ld	(hl), a
    000009D0                       2053 00126$:
                                   2054 ;E:\Dropbox\FAUSTO\SVILUPPI\MSX\CODE\C\MSXgl\projects\soccerlgSCC/soccerlg_s7_b3.c:261: if(t2_p1 != NO_VALUE) { g_Players[t2_p1].TargetX = g_Ball.X + (offsetX/2); g_Players[t2_p1].TargetY = g_Ball.Y - 10; g_Players[t2_p1].Status = PLAYER_STATUS_NONE; }
    000009D0 DD 7E EE         [19] 2055 	ld	a, -18 (ix)
    000009D3 3C               [ 4] 2056 	inc	a
    000009D4 CAr5Fr0A         [10] 2057 	jp	Z,00128$
    000009D7 DD 5E EE         [19] 2058 	ld	e, -18 (ix)
    000009DA 16 00            [ 7] 2059 	ld	d, #0x00
    000009DC 6B               [ 4] 2060 	ld	l, e
    000009DD 62               [ 4] 2061 	ld	h, d
    000009DE 29               [11] 2062 	add	hl, hl
    000009DF 29               [11] 2063 	add	hl, hl
    000009E0 19               [11] 2064 	add	hl, de
    000009E1 29               [11] 2065 	add	hl, hl
    000009E2 29               [11] 2066 	add	hl, hl
    000009E3 19               [11] 2067 	add	hl, de
    000009E4 11r00r00         [10] 2068 	ld	de, #_g_Players
    000009E7 19               [11] 2069 	add	hl, de
    000009E8 DD 75 FA         [19] 2070 	ld	-6 (ix), l
    000009EB DD 74 FB         [19] 2071 	ld	-5 (ix), h
    000009EE DD 7E FA         [19] 2072 	ld	a, -6 (ix)
    000009F1 C6 10            [ 7] 2073 	add	a, #0x10
    000009F3 DD 77 FC         [19] 2074 	ld	-4 (ix), a
    000009F6 DD 7E FB         [19] 2075 	ld	a, -5 (ix)
    000009F9 CE 00            [ 7] 2076 	adc	a, #0x00
    000009FB DD 77 FD         [19] 2077 	ld	-3 (ix), a
    000009FE 21r02r00         [10] 2078 	ld	hl, #(_g_Ball + 2)
    00000A01 7E               [ 7] 2079 	ld	a, (hl)
    00000A02 DD 77 FE         [19] 2080 	ld	-2 (ix), a
    00000A05 23               [ 6] 2081 	inc	hl
    00000A06 7E               [ 7] 2082 	ld	a, (hl)
    00000A07 DD 77 FF         [19] 2083 	ld	-1 (ix), a
    00000A0A DD 5E F8         [19] 2084 	ld	e, -8 (ix)
    00000A0D DD 56 F9         [19] 2085 	ld	d, -7 (ix)
    00000A10 6B               [ 4] 2086 	ld	l, e
                                   2087 ;	spillPairReg hl
                                   2088 ;	spillPairReg hl
    00000A11 62               [ 4] 2089 	ld	h, d
                                   2090 ;	spillPairReg hl
                                   2091 ;	spillPairReg hl
    00000A12 CB 7A            [ 8] 2092 	bit	7, d
    00000A14 28 02            [12] 2093 	jr	Z, 00197$
    00000A16 EB               [ 4] 2094 	ex	de, hl
    00000A17 23               [ 6] 2095 	inc	hl
    00000A18                       2096 00197$:
    00000A18 CB 2C            [ 8] 2097 	sra	h
    00000A1A CB 1D            [ 8] 2098 	rr	l
    00000A1C DD 5E FE         [19] 2099 	ld	e, -2 (ix)
    00000A1F DD 56 FF         [19] 2100 	ld	d, -1 (ix)
    00000A22 19               [11] 2101 	add	hl, de
    00000A23 EB               [ 4] 2102 	ex	de, hl
    00000A24 DD 6E FC         [19] 2103 	ld	l, -4 (ix)
    00000A27 DD 66 FD         [19] 2104 	ld	h, -3 (ix)
    00000A2A 73               [ 7] 2105 	ld	(hl), e
    00000A2B 23               [ 6] 2106 	inc	hl
    00000A2C 72               [ 7] 2107 	ld	(hl), d
    00000A2D DD 7E FA         [19] 2108 	ld	a, -6 (ix)
    00000A30 C6 0E            [ 7] 2109 	add	a, #0x0e
    00000A32 DD 77 FE         [19] 2110 	ld	-2 (ix), a
    00000A35 DD 7E FB         [19] 2111 	ld	a, -5 (ix)
    00000A38 CE 00            [ 7] 2112 	adc	a, #0x00
    00000A3A DD 77 FF         [19] 2113 	ld	-1 (ix), a
    00000A3D 2Ar00r00         [16] 2114 	ld	hl, (#_g_Ball + 0)
    00000A40 7D               [ 4] 2115 	ld	a, l
    00000A41 C6 F6            [ 7] 2116 	add	a, #0xf6
    00000A43 5F               [ 4] 2117 	ld	e, a
    00000A44 7C               [ 4] 2118 	ld	a, h
    00000A45 CE FF            [ 7] 2119 	adc	a, #0xff
    00000A47 47               [ 4] 2120 	ld	b, a
    00000A48 DD 6E FE         [19] 2121 	ld	l, -2 (ix)
    00000A4B DD 66 FF         [19] 2122 	ld	h, -1 (ix)
    00000A4E 73               [ 7] 2123 	ld	(hl), e
    00000A4F 23               [ 6] 2124 	inc	hl
    00000A50 70               [ 7] 2125 	ld	(hl), b
    00000A51 DD 6E FA         [19] 2126 	ld	l, -6 (ix)
    00000A54 DD 66 FB         [19] 2127 	ld	h, -5 (ix)
    00000A57 11 12 00         [10] 2128 	ld	de, #0x0012
    00000A5A 19               [11] 2129 	add	hl, de
    00000A5B AF               [ 4] 2130 	xor	a, a
    00000A5C 77               [ 7] 2131 	ld	(hl), a
    00000A5D 23               [ 6] 2132 	inc	hl
    00000A5E 77               [ 7] 2133 	ld	(hl), a
    00000A5F                       2134 00128$:
                                   2135 ;E:\Dropbox\FAUSTO\SVILUPPI\MSX\CODE\C\MSXgl\projects\soccerlgSCC/soccerlg_s7_b3.c:262: if(t2_p2 != NO_VALUE) { g_Players[t2_p2].TargetX = g_Ball.X + (offsetX/2); g_Players[t2_p2].TargetY = g_Ball.Y + 10; g_Players[t2_p2].Status = PLAYER_STATUS_NONE; }
    00000A5F DD 7E EF         [19] 2136 	ld	a, -17 (ix)
    00000A62 3C               [ 4] 2137 	inc	a
    00000A63 CArEBr0A         [10] 2138 	jp	Z,00246$
    00000A66 DD 5E EF         [19] 2139 	ld	e, -17 (ix)
    00000A69 16 00            [ 7] 2140 	ld	d, #0x00
    00000A6B 6B               [ 4] 2141 	ld	l, e
    00000A6C 62               [ 4] 2142 	ld	h, d
    00000A6D 29               [11] 2143 	add	hl, hl
    00000A6E 29               [11] 2144 	add	hl, hl
    00000A6F 19               [11] 2145 	add	hl, de
    00000A70 29               [11] 2146 	add	hl, hl
    00000A71 29               [11] 2147 	add	hl, hl
    00000A72 19               [11] 2148 	add	hl, de
    00000A73 11r00r00         [10] 2149 	ld	de, #_g_Players
    00000A76 19               [11] 2150 	add	hl, de
    00000A77 DD 75 FA         [19] 2151 	ld	-6 (ix), l
    00000A7A DD 74 FB         [19] 2152 	ld	-5 (ix), h
    00000A7D DD 7E FA         [19] 2153 	ld	a, -6 (ix)
    00000A80 C6 10            [ 7] 2154 	add	a, #0x10
    00000A82 DD 77 FC         [19] 2155 	ld	-4 (ix), a
    00000A85 DD 7E FB         [19] 2156 	ld	a, -5 (ix)
    00000A88 CE 00            [ 7] 2157 	adc	a, #0x00
    00000A8A DD 77 FD         [19] 2158 	ld	-3 (ix), a
    00000A8D 21r02r00         [10] 2159 	ld	hl, #(_g_Ball + 2)
    00000A90 7E               [ 7] 2160 	ld	a, (hl)
    00000A91 DD 77 FE         [19] 2161 	ld	-2 (ix), a
    00000A94 23               [ 6] 2162 	inc	hl
    00000A95 7E               [ 7] 2163 	ld	a, (hl)
    00000A96 DD 77 FF         [19] 2164 	ld	-1 (ix), a
    00000A99 DD 5E F8         [19] 2165 	ld	e, -8 (ix)
    00000A9C DD 56 F9         [19] 2166 	ld	d, -7 (ix)
    00000A9F 6B               [ 4] 2167 	ld	l, e
                                   2168 ;	spillPairReg hl
                                   2169 ;	spillPairReg hl
    00000AA0 62               [ 4] 2170 	ld	h, d
                                   2171 ;	spillPairReg hl
                                   2172 ;	spillPairReg hl
    00000AA1 CB 7A            [ 8] 2173 	bit	7, d
    00000AA3 28 02            [12] 2174 	jr	Z, 00198$
    00000AA5 EB               [ 4] 2175 	ex	de, hl
    00000AA6 23               [ 6] 2176 	inc	hl
    00000AA7                       2177 00198$:
    00000AA7 CB 2C            [ 8] 2178 	sra	h
    00000AA9 CB 1D            [ 8] 2179 	rr	l
    00000AAB DD 5E FE         [19] 2180 	ld	e, -2 (ix)
    00000AAE DD 56 FF         [19] 2181 	ld	d, -1 (ix)
    00000AB1 19               [11] 2182 	add	hl, de
    00000AB2 EB               [ 4] 2183 	ex	de, hl
    00000AB3 DD 6E FC         [19] 2184 	ld	l, -4 (ix)
    00000AB6 DD 66 FD         [19] 2185 	ld	h, -3 (ix)
    00000AB9 73               [ 7] 2186 	ld	(hl), e
    00000ABA 23               [ 6] 2187 	inc	hl
    00000ABB 72               [ 7] 2188 	ld	(hl), d
    00000ABC DD 7E FA         [19] 2189 	ld	a, -6 (ix)
    00000ABF C6 0E            [ 7] 2190 	add	a, #0x0e
    00000AC1 DD 77 FE         [19] 2191 	ld	-2 (ix), a
    00000AC4 DD 7E FB         [19] 2192 	ld	a, -5 (ix)
    00000AC7 CE 00            [ 7] 2193 	adc	a, #0x00
    00000AC9 DD 77 FF         [19] 2194 	ld	-1 (ix), a
    00000ACC 2Ar00r00         [16] 2195 	ld	hl, (#_g_Ball + 0)
    00000ACF 11 0A 00         [10] 2196 	ld	de, #0x000a
    00000AD2 19               [11] 2197 	add	hl, de
    00000AD3 EB               [ 4] 2198 	ex	de, hl
    00000AD4 DD 6E FE         [19] 2199 	ld	l, -2 (ix)
    00000AD7 DD 66 FF         [19] 2200 	ld	h, -1 (ix)
    00000ADA 73               [ 7] 2201 	ld	(hl), e
    00000ADB 23               [ 6] 2202 	inc	hl
    00000ADC 72               [ 7] 2203 	ld	(hl), d
    00000ADD DD 6E FA         [19] 2204 	ld	l, -6 (ix)
    00000AE0 DD 66 FB         [19] 2205 	ld	h, -5 (ix)
    00000AE3 11 12 00         [10] 2206 	ld	de, #0x0012
    00000AE6 19               [11] 2207 	add	hl, de
    00000AE7 AF               [ 4] 2208 	xor	a, a
    00000AE8 77               [ 7] 2209 	ld	(hl), a
    00000AE9 23               [ 6] 2210 	inc	hl
    00000AEA 77               [ 7] 2211 	ld	(hl), a
                                   2212 ;E:\Dropbox\FAUSTO\SVILUPPI\MSX\CODE\C\MSXgl\projects\soccerlgSCC/soccerlg_s7_b3.c:265: for(u8 i=0; i<14; i++) {
    00000AEB                       2213 00246$:
    00000AEB DD 36 FF 00      [19] 2214 	ld	-1 (ix), #0x00
    00000AEF                       2215 00190$:
    00000AEF DD 7E FF         [19] 2216 	ld	a, -1 (ix)
    00000AF2 D6 0E            [ 7] 2217 	sub	a, #0x0e
    00000AF4 D2r8Ar0B         [10] 2218 	jp	NC, 00138$
                                   2219 ;E:\Dropbox\FAUSTO\SVILUPPI\MSX\CODE\C\MSXgl\projects\soccerlgSCC/soccerlg_s7_b3.c:266: if (i == throwerId || i == t1_p1 || i == t1_p2 || i == t2_p1 || i == t2_p2) continue;
    00000AF7 79               [ 4] 2220 	ld	a, c
    00000AF8 DD 96 FF         [19] 2221 	sub	a, -1 (ix)
    00000AFB CAr84r0B         [10] 2222 	jp	Z,00137$
    00000AFE DD 7E EC         [19] 2223 	ld	a, -20 (ix)
    00000B01 DD 96 FF         [19] 2224 	sub	a, -1 (ix)
    00000B04 CAr84r0B         [10] 2225 	jp	Z,00137$
    00000B07 DD 7E ED         [19] 2226 	ld	a, -19 (ix)
    00000B0A DD 96 FF         [19] 2227 	sub	a, -1 (ix)
    00000B0D 28 75            [12] 2228 	jr	Z, 00137$
    00000B0F DD 7E EE         [19] 2229 	ld	a, -18 (ix)
    00000B12 DD 96 FF         [19] 2230 	sub	a, -1 (ix)
    00000B15 28 6D            [12] 2231 	jr	Z, 00137$
    00000B17 DD 7E EF         [19] 2232 	ld	a, -17 (ix)
    00000B1A DD 96 FF         [19] 2233 	sub	a, -1 (ix)
    00000B1D 28 65            [12] 2234 	jr	Z, 00137$
                                   2235 ;E:\Dropbox\FAUSTO\SVILUPPI\MSX\CODE\C\MSXgl\projects\soccerlgSCC/soccerlg_s7_b3.c:267: g_Players[i].TargetX = g_Players[i].X;
    00000B1F DD 5E FF         [19] 2236 	ld	e, -1 (ix)
    00000B22 16 00            [ 7] 2237 	ld	d, #0x00
    00000B24 6B               [ 4] 2238 	ld	l, e
    00000B25 62               [ 4] 2239 	ld	h, d
    00000B26 29               [11] 2240 	add	hl, hl
    00000B27 29               [11] 2241 	add	hl, hl
    00000B28 19               [11] 2242 	add	hl, de
    00000B29 29               [11] 2243 	add	hl, hl
    00000B2A 29               [11] 2244 	add	hl, hl
    00000B2B 19               [11] 2245 	add	hl, de
    00000B2C EB               [ 4] 2246 	ex	de, hl
    00000B2D 21r00r00         [10] 2247 	ld	hl, #_g_Players
    00000B30 19               [11] 2248 	add	hl, de
    00000B31 EB               [ 4] 2249 	ex	de, hl
    00000B32 21 10 00         [10] 2250 	ld	hl, #0x0010
    00000B35 19               [11] 2251 	add	hl, de
    00000B36 DD 75 FB         [19] 2252 	ld	-5 (ix), l
    00000B39 DD 74 FC         [19] 2253 	ld	-4 (ix), h
    00000B3C 6B               [ 4] 2254 	ld	l, e
                                   2255 ;	spillPairReg hl
                                   2256 ;	spillPairReg hl
    00000B3D 62               [ 4] 2257 	ld	h, d
                                   2258 ;	spillPairReg hl
                                   2259 ;	spillPairReg hl
    00000B3E 23               [ 6] 2260 	inc	hl
    00000B3F 23               [ 6] 2261 	inc	hl
    00000B40 7E               [ 7] 2262 	ld	a, (hl)
    00000B41 DD 77 FD         [19] 2263 	ld	-3 (ix), a
    00000B44 23               [ 6] 2264 	inc	hl
    00000B45 7E               [ 7] 2265 	ld	a, (hl)
    00000B46 DD 77 FE         [19] 2266 	ld	-2 (ix), a
    00000B49 DD 6E FB         [19] 2267 	ld	l, -5 (ix)
    00000B4C DD 66 FC         [19] 2268 	ld	h, -4 (ix)
    00000B4F DD 7E FD         [19] 2269 	ld	a, -3 (ix)
    00000B52 77               [ 7] 2270 	ld	(hl), a
    00000B53 23               [ 6] 2271 	inc	hl
    00000B54 DD 7E FE         [19] 2272 	ld	a, -2 (ix)
    00000B57 77               [ 7] 2273 	ld	(hl), a
                                   2274 ;E:\Dropbox\FAUSTO\SVILUPPI\MSX\CODE\C\MSXgl\projects\soccerlgSCC/soccerlg_s7_b3.c:268: g_Players[i].TargetY = g_Players[i].Y;
    00000B58 21 0E 00         [10] 2275 	ld	hl, #0x000e
    00000B5B 19               [11] 2276 	add	hl, de
    00000B5C DD 75 FB         [19] 2277 	ld	-5 (ix), l
    00000B5F DD 74 FC         [19] 2278 	ld	-4 (ix), h
    00000B62 1A               [ 7] 2279 	ld	a, (de)
    00000B63 DD 77 FD         [19] 2280 	ld	-3 (ix), a
    00000B66 13               [ 6] 2281 	inc	de
    00000B67 1A               [ 7] 2282 	ld	a, (de)
    00000B68 DD 77 FE         [19] 2283 	ld	-2 (ix), a
    00000B6B 1B               [ 6] 2284 	dec	de
    00000B6C DD 6E FB         [19] 2285 	ld	l, -5 (ix)
    00000B6F DD 66 FC         [19] 2286 	ld	h, -4 (ix)
    00000B72 DD 7E FD         [19] 2287 	ld	a, -3 (ix)
    00000B75 77               [ 7] 2288 	ld	(hl), a
    00000B76 23               [ 6] 2289 	inc	hl
    00000B77 DD 7E FE         [19] 2290 	ld	a, -2 (ix)
    00000B7A 77               [ 7] 2291 	ld	(hl), a
                                   2292 ;E:\Dropbox\FAUSTO\SVILUPPI\MSX\CODE\C\MSXgl\projects\soccerlgSCC/soccerlg_s7_b3.c:269: g_Players[i].Status = PLAYER_STATUS_POSITIONED;
    00000B7B 21 12 00         [10] 2293 	ld	hl, #0x0012
    00000B7E 19               [11] 2294 	add	hl, de
    00000B7F 36 04            [10] 2295 	ld	(hl), #0x04
    00000B81 23               [ 6] 2296 	inc	hl
    00000B82 36 00            [10] 2297 	ld	(hl), #0x00
    00000B84                       2298 00137$:
                                   2299 ;E:\Dropbox\FAUSTO\SVILUPPI\MSX\CODE\C\MSXgl\projects\soccerlgSCC/soccerlg_s7_b3.c:265: for(u8 i=0; i<14; i++) {
    00000B84 DD 34 FF         [23] 2300 	inc	-1 (ix)
    00000B87 C3rEFr0A         [10] 2301 	jp	00190$
    00000B8A                       2302 00138$:
                                   2303 ;E:\Dropbox\FAUSTO\SVILUPPI\MSX\CODE\C\MSXgl\projects\soccerlgSCC/soccerlg_s7_b3.c:272: g_CornerKickTargetId = 1;
    00000B8A 21r00r00         [10] 2304 	ld	hl, #_g_CornerKickTargetId
    00000B8D 36 01            [10] 2305 	ld	(hl), #0x01
                                   2306 ;E:\Dropbox\FAUSTO\SVILUPPI\MSX\CODE\C\MSXgl\projects\soccerlgSCC/soccerlg_s7_b3.c:273: g_Timer = 0;
    00000B8F 21r00r00         [10] 2307 	ld	hl, #_g_Timer
    00000B92 36 00            [10] 2308 	ld	(hl), #0x00
                                   2309 ;E:\Dropbox\FAUSTO\SVILUPPI\MSX\CODE\C\MSXgl\projects\soccerlgSCC/soccerlg_s7_b3.c:275: return; // Wait for arrival
    00000B94 C3r53r0F         [10] 2310 	jp	00193$
    00000B97                       2311 00145$:
                                   2312 ;E:\Dropbox\FAUSTO\SVILUPPI\MSX\CODE\C\MSXgl\projects\soccerlgSCC/soccerlg_s7_b3.c:280: if (g_CornerKickTargetId == 1) {
    00000B97 3Ar00r00         [13] 2313 	ld	a, (_g_CornerKickTargetId+0)
    00000B9A 3D               [ 4] 2314 	dec	a
    00000B9B C2r6Cr0D         [10] 2315 	jp	NZ,00162$
                                   2316 ;E:\Dropbox\FAUSTO\SVILUPPI\MSX\CODE\C\MSXgl\projects\soccerlgSCC/soccerlg_s7_b3.c:281: g_Timer++;
    00000B9E 21r00r00         [10] 2317 	ld	hl, #_g_Timer
    00000BA1 34               [11] 2318 	inc	(hl)
                                   2319 ;E:\Dropbox\FAUSTO\SVILUPPI\MSX\CODE\C\MSXgl\projects\soccerlgSCC/soccerlg_s7_b3.c:284: g_Ball.Y = g_Players[throwerId].Y - 12;
    00000BA2 DD 6E FE         [19] 2320 	ld	l, -2 (ix)
    00000BA5 DD 66 FF         [19] 2321 	ld	h, -1 (ix)
    00000BA8 46               [ 7] 2322 	ld	b, (hl)
    00000BA9 23               [ 6] 2323 	inc	hl
    00000BAA 56               [ 7] 2324 	ld	d, (hl)
    00000BAB 78               [ 4] 2325 	ld	a, b
    00000BAC C6 F4            [ 7] 2326 	add	a, #0xf4
    00000BAE 6F               [ 4] 2327 	ld	l, a
                                   2328 ;	spillPairReg hl
                                   2329 ;	spillPairReg hl
    00000BAF 7A               [ 4] 2330 	ld	a, d
    00000BB0 CE FF            [ 7] 2331 	adc	a, #0xff
    00000BB2 67               [ 4] 2332 	ld	h, a
                                   2333 ;	spillPairReg hl
                                   2334 ;	spillPairReg hl
    00000BB3 45               [ 4] 2335 	ld	b, l
    00000BB4 54               [ 4] 2336 	ld	d, h
    00000BB5 21r00r00         [10] 2337 	ld	hl, #_g_Ball
    00000BB8 70               [ 7] 2338 	ld	(hl), b
    00000BB9 23               [ 6] 2339 	inc	hl
    00000BBA 72               [ 7] 2340 	ld	(hl), d
                                   2341 ;E:\Dropbox\FAUSTO\SVILUPPI\MSX\CODE\C\MSXgl\projects\soccerlgSCC/soccerlg_s7_b3.c:285: g_Ball.X = g_Players[throwerId].X;
    00000BBB DD 7E FE         [19] 2342 	ld	a, -2 (ix)
    00000BBE DD 77 FA         [19] 2343 	ld	-6 (ix), a
    00000BC1 DD 7E FF         [19] 2344 	ld	a, -1 (ix)
    00000BC4 DD 77 FB         [19] 2345 	ld	-5 (ix), a
    00000BC7 DD 7E F4         [19] 2346 	ld	a, -12 (ix)
    00000BCA DD 77 FC         [19] 2347 	ld	-4 (ix), a
    00000BCD DD 7E F5         [19] 2348 	ld	a, -11 (ix)
    00000BD0 DD 77 FD         [19] 2349 	ld	-3 (ix), a
    00000BD3 DD 6E F4         [19] 2350 	ld	l, -12 (ix)
    00000BD6 DD 66 F5         [19] 2351 	ld	h, -11 (ix)
    00000BD9 46               [ 7] 2352 	ld	b, (hl)
    00000BDA 23               [ 6] 2353 	inc	hl
    00000BDB 56               [ 7] 2354 	ld	d, (hl)
    00000BDC 21r02r00         [10] 2355 	ld	hl, #(_g_Ball + 2)
    00000BDF 70               [ 7] 2356 	ld	(hl), b
    00000BE0 23               [ 6] 2357 	inc	hl
    00000BE1 72               [ 7] 2358 	ld	(hl), d
                                   2359 ;E:\Dropbox\FAUSTO\SVILUPPI\MSX\CODE\C\MSXgl\projects\soccerlgSCC/soccerlg_s7_b3.c:286: g_Players[throwerId].PatternId = isLeft ? PLAYER_POSE_THROWIN_LEFT_1 : PLAYER_POSE_THROWIN_RIGHT_1;
    00000BE2 DD 7E FE         [19] 2360 	ld	a, -2 (ix)
    00000BE5 C6 08            [ 7] 2361 	add	a, #0x08
    00000BE7 6F               [ 4] 2362 	ld	l, a
                                   2363 ;	spillPairReg hl
                                   2364 ;	spillPairReg hl
    00000BE8 DD 7E FF         [19] 2365 	ld	a, -1 (ix)
    00000BEB CE 00            [ 7] 2366 	adc	a, #0x00
    00000BED 57               [ 4] 2367 	ld	d, a
    00000BEE 7B               [ 4] 2368 	ld	a, e
    00000BEF B7               [ 4] 2369 	or	a, a
    00000BF0 28 0B            [12] 2370 	jr	Z, 00199$
    00000BF2 DD 36 F8 93      [19] 2371 	ld	-8 (ix), #0x93
    00000BF6 DD 36 F9 00      [19] 2372 	ld	-7 (ix), #0
    00000BFA C3r05r0C         [10] 2373 	jp	00200$
    00000BFD                       2374 00199$:
    00000BFD DD 36 F8 1C      [19] 2375 	ld	-8 (ix), #0x1c
    00000C01 DD 36 F9 00      [19] 2376 	ld	-7 (ix), #0
    00000C05                       2377 00200$:
    00000C05 DD 7E F8         [19] 2378 	ld	a, -8 (ix)
    00000C08 62               [ 4] 2379 	ld	h, d
    00000C09 77               [ 7] 2380 	ld	(hl), a
                                   2381 ;E:\Dropbox\FAUSTO\SVILUPPI\MSX\CODE\C\MSXgl\projects\soccerlgSCC/soccerlg_s7_b3.c:287: g_Players[throwerId].Direction = isLeft ? DIRECTION_RIGHT : DIRECTION_LEFT;
    00000C0A DD 7E FE         [19] 2382 	ld	a, -2 (ix)
    00000C0D C6 0A            [ 7] 2383 	add	a, #0x0a
    00000C0F 6F               [ 4] 2384 	ld	l, a
                                   2385 ;	spillPairReg hl
                                   2386 ;	spillPairReg hl
    00000C10 DD 7E FF         [19] 2387 	ld	a, -1 (ix)
    00000C13 CE 00            [ 7] 2388 	adc	a, #0x00
    00000C15 1C               [ 4] 2389 	inc	e
    00000C16 1D               [ 4] 2390 	dec	e
    00000C17 28 0B            [12] 2391 	jr	Z, 00201$
    00000C19 DD 36 FE 03      [19] 2392 	ld	-2 (ix), #0x03
    00000C1D DD 36 FF 00      [19] 2393 	ld	-1 (ix), #0x00
    00000C21 C3r2Cr0C         [10] 2394 	jp	00202$
    00000C24                       2395 00201$:
    00000C24 DD 36 FE 07      [19] 2396 	ld	-2 (ix), #0x07
    00000C28 DD 36 FF 00      [19] 2397 	ld	-1 (ix), #0x00
    00000C2C                       2398 00202$:
    00000C2C DD 46 FE         [19] 2399 	ld	b, -2 (ix)
    00000C2F 67               [ 4] 2400 	ld	h, a
    00000C30 70               [ 7] 2401 	ld	(hl), b
                                   2402 ;E:\Dropbox\FAUSTO\SVILUPPI\MSX\CODE\C\MSXgl\projects\soccerlgSCC/soccerlg_s7_b3.c:290: if (g_Timer > 120) { 
    00000C31 3E 78            [ 7] 2403 	ld	a, #0x78
    00000C33 21r00r00         [10] 2404 	ld	hl, #_g_Timer
    00000C36 96               [ 7] 2405 	sub	a, (hl)
    00000C37 D2r53r0F         [10] 2406 	jp	NC,00193$
                                   2407 ;E:\Dropbox\FAUSTO\SVILUPPI\MSX\CODE\C\MSXgl\projects\soccerlgSCC/soccerlg_s7_b3.c:291: u16 d1 = 0xFFFF, d2 = 0xFFFF;
    00000C3A DD 36 F0 FF      [19] 2408 	ld	-16 (ix), #0xff
    00000C3E DD 36 F1 FF      [19] 2409 	ld	-15 (ix), #0xff
    00000C42 DD 36 F2 FF      [19] 2410 	ld	-14 (ix), #0xff
    00000C46 DD 36 F3 FF      [19] 2411 	ld	-13 (ix), #0xff
                                   2412 ;E:\Dropbox\FAUSTO\SVILUPPI\MSX\CODE\C\MSXgl\projects\soccerlgSCC/soccerlg_s7_b3.c:292: s_Receivers[0] = NO_VALUE; s_Receivers[1] = NO_VALUE;
    00000C4A 21r02r00         [10] 2413 	ld	hl, #_TickThrowIn_s_Receivers_65537_1224
    00000C4D 36 FF            [10] 2414 	ld	(hl), #0xff
    00000C4F 21r03r00         [10] 2415 	ld	hl, #(_TickThrowIn_s_Receivers_65537_1224 + 1)
    00000C52 36 FF            [10] 2416 	ld	(hl), #0xff
                                   2417 ;E:\Dropbox\FAUSTO\SVILUPPI\MSX\CODE\C\MSXgl\projects\soccerlgSCC/soccerlg_s7_b3.c:293: for (u8 i = 0; i < 14; i++) {
    00000C54 DD 36 FF 00      [19] 2418 	ld	-1 (ix), #0x00
    00000C58                       2419 00192$:
    00000C58 DD 7E FF         [19] 2420 	ld	a, -1 (ix)
    00000C5B D6 0E            [ 7] 2421 	sub	a, #0x0e
    00000C5D D2r3Br0D         [10] 2422 	jp	NC, 00156$
                                   2423 ;E:\Dropbox\FAUSTO\SVILUPPI\MSX\CODE\C\MSXgl\projects\soccerlgSCC/soccerlg_s7_b3.c:294: if (g_Players[i].TeamId != g_RestartKickTeamId || i == throwerId || g_Players[i].Role == PLAYER_ROLE_GOALKEEPER) continue;
    00000C60 DD 5E FF         [19] 2424 	ld	e, -1 (ix)
    00000C63 16 00            [ 7] 2425 	ld	d, #0x00
    00000C65 6B               [ 4] 2426 	ld	l, e
    00000C66 62               [ 4] 2427 	ld	h, d
    00000C67 29               [11] 2428 	add	hl, hl
    00000C68 29               [11] 2429 	add	hl, hl
    00000C69 19               [11] 2430 	add	hl, de
    00000C6A 29               [11] 2431 	add	hl, hl
    00000C6B 29               [11] 2432 	add	hl, hl
    00000C6C 19               [11] 2433 	add	hl, de
    00000C6D 11r00r00         [10] 2434 	ld	de, #_g_Players
    00000C70 19               [11] 2435 	add	hl, de
    00000C71 DD 75 F4         [19] 2436 	ld	-12 (ix), l
    00000C74 DD 74 F5         [19] 2437 	ld	-11 (ix), h
    00000C77 EB               [ 4] 2438 	ex	de,hl
    00000C78 21 09 00         [10] 2439 	ld	hl, #9
    00000C7B 19               [11] 2440 	add	hl, de
    00000C7C 46               [ 7] 2441 	ld	b, (hl)
    00000C7D 3Ar00r00         [13] 2442 	ld	a, (_g_RestartKickTeamId+0)
    00000C80 90               [ 4] 2443 	sub	a, b
    00000C81 C2r35r0D         [10] 2444 	jp	NZ,00155$
    00000C84 DD 7E FF         [19] 2445 	ld	a, -1 (ix)
    00000C87 91               [ 4] 2446 	sub	a, c
    00000C88 CAr35r0D         [10] 2447 	jp	Z,00155$
    00000C8B DD 5E F4         [19] 2448 	ld	e, -12 (ix)
    00000C8E DD 56 F5         [19] 2449 	ld	d, -11 (ix)
    00000C91 21 0D 00         [10] 2450 	ld	hl, #13
    00000C94 19               [11] 2451 	add	hl, de
    00000C95 7E               [ 7] 2452 	ld	a, (hl)
    00000C96 B7               [ 4] 2453 	or	a, a
    00000C97 CAr35r0D         [10] 2454 	jp	Z, 00155$
                                   2455 ;E:\Dropbox\FAUSTO\SVILUPPI\MSX\CODE\C\MSXgl\projects\soccerlgSCC/soccerlg_s7_b3.c:295: u16 d = Math_Abs32((i16)g_Players[i].X - (i16)g_Players[throwerId].X) + Math_Abs32((i16)g_Players[i].Y - (i16)g_Players[throwerId].Y);
    00000C9A DD 6E F4         [19] 2456 	ld	l, -12 (ix)
                                   2457 ;	spillPairReg hl
                                   2458 ;	spillPairReg hl
    00000C9D DD 66 F5         [19] 2459 	ld	h, -11 (ix)
                                   2460 ;	spillPairReg hl
                                   2461 ;	spillPairReg hl
    00000CA0 23               [ 6] 2462 	inc	hl
    00000CA1 23               [ 6] 2463 	inc	hl
    00000CA2 5E               [ 7] 2464 	ld	e, (hl)
    00000CA3 23               [ 6] 2465 	inc	hl
    00000CA4 56               [ 7] 2466 	ld	d, (hl)
    00000CA5 DD 6E FC         [19] 2467 	ld	l, -4 (ix)
    00000CA8 DD 66 FD         [19] 2468 	ld	h, -3 (ix)
    00000CAB 7E               [ 7] 2469 	ld	a, (hl)
    00000CAC 23               [ 6] 2470 	inc	hl
    00000CAD 66               [ 7] 2471 	ld	h, (hl)
                                   2472 ;	spillPairReg hl
    00000CAE 6F               [ 4] 2473 	ld	l, a
                                   2474 ;	spillPairReg hl
                                   2475 ;	spillPairReg hl
    00000CAF 7B               [ 4] 2476 	ld	a, e
    00000CB0 95               [ 4] 2477 	sub	a, l
    00000CB1 5F               [ 4] 2478 	ld	e, a
    00000CB2 7A               [ 4] 2479 	ld	a, d
    00000CB3 9C               [ 4] 2480 	sbc	a, h
    00000CB4 57               [ 4] 2481 	ld	d, a
    00000CB5 07               [ 4] 2482 	rlca
    00000CB6 ED 62            [15] 2483 	sbc	hl, hl
    00000CB8 C5               [11] 2484 	push	bc
    00000CB9 CDr00r00         [17] 2485 	call	_Math_Abs32
    00000CBC DD 73 F6         [19] 2486 	ld	-10 (ix), e
    00000CBF DD 72 F7         [19] 2487 	ld	-9 (ix), d
    00000CC2 DD 75 F8         [19] 2488 	ld	-8 (ix), l
    00000CC5 DD 74 F9         [19] 2489 	ld	-7 (ix), h
    00000CC8 C1               [10] 2490 	pop	bc
    00000CC9 DD 6E F4         [19] 2491 	ld	l, -12 (ix)
    00000CCC DD 66 F5         [19] 2492 	ld	h, -11 (ix)
    00000CCF 5E               [ 7] 2493 	ld	e, (hl)
    00000CD0 23               [ 6] 2494 	inc	hl
    00000CD1 56               [ 7] 2495 	ld	d, (hl)
    00000CD2 DD 6E FA         [19] 2496 	ld	l, -6 (ix)
    00000CD5 DD 66 FB         [19] 2497 	ld	h, -5 (ix)
    00000CD8 7E               [ 7] 2498 	ld	a, (hl)
    00000CD9 23               [ 6] 2499 	inc	hl
    00000CDA 66               [ 7] 2500 	ld	h, (hl)
                                   2501 ;	spillPairReg hl
    00000CDB 6F               [ 4] 2502 	ld	l, a
                                   2503 ;	spillPairReg hl
                                   2504 ;	spillPairReg hl
    00000CDC 7B               [ 4] 2505 	ld	a, e
    00000CDD 95               [ 4] 2506 	sub	a, l
    00000CDE 5F               [ 4] 2507 	ld	e, a
    00000CDF 7A               [ 4] 2508 	ld	a, d
    00000CE0 9C               [ 4] 2509 	sbc	a, h
    00000CE1 57               [ 4] 2510 	ld	d, a
    00000CE2 07               [ 4] 2511 	rlca
    00000CE3 ED 62            [15] 2512 	sbc	hl, hl
    00000CE5 C5               [11] 2513 	push	bc
    00000CE6 CDr00r00         [17] 2514 	call	_Math_Abs32
    00000CE9 C1               [10] 2515 	pop	bc
    00000CEA DD 6E F6         [19] 2516 	ld	l, -10 (ix)
    00000CED DD 66 F7         [19] 2517 	ld	h, -9 (ix)
    00000CF0 19               [11] 2518 	add	hl, de
    00000CF1 EB               [ 4] 2519 	ex	de, hl
                                   2520 ;E:\Dropbox\FAUSTO\SVILUPPI\MSX\CODE\C\MSXgl\projects\soccerlgSCC/soccerlg_s7_b3.c:296: if (d < d1) { d2 = d1; s_Receivers[1] = s_Receivers[0]; d1 = d; s_Receivers[0] = i; } 
    00000CF2 7B               [ 4] 2521 	ld	a, e
    00000CF3 DD 96 F0         [19] 2522 	sub	a, -16 (ix)
    00000CF6 7A               [ 4] 2523 	ld	a, d
    00000CF7 DD 9E F1         [19] 2524 	sbc	a, -15 (ix)
    00000CFA 30 22            [12] 2525 	jr	NC, 00153$
    00000CFC DD 7E F0         [19] 2526 	ld	a, -16 (ix)
    00000CFF DD 77 F2         [19] 2527 	ld	-14 (ix), a
    00000D02 DD 7E F1         [19] 2528 	ld	a, -15 (ix)
    00000D05 DD 77 F3         [19] 2529 	ld	-13 (ix), a
    00000D08 3Ar02r00         [13] 2530 	ld	a, (#_TickThrowIn_s_Receivers_65537_1224 + 0)
    00000D0B 32r03r00         [13] 2531 	ld	(#(_TickThrowIn_s_Receivers_65537_1224 + 1)),a
    00000D0E DD 73 F0         [19] 2532 	ld	-16 (ix), e
    00000D11 DD 72 F1         [19] 2533 	ld	-15 (ix), d
    00000D14 21r02r00         [10] 2534 	ld	hl, #_TickThrowIn_s_Receivers_65537_1224
    00000D17 DD 7E FF         [19] 2535 	ld	a, -1 (ix)
    00000D1A 77               [ 7] 2536 	ld	(hl), a
    00000D1B C3r35r0D         [10] 2537 	jp	00155$
    00000D1E                       2538 00153$:
                                   2539 ;E:\Dropbox\FAUSTO\SVILUPPI\MSX\CODE\C\MSXgl\projects\soccerlgSCC/soccerlg_s7_b3.c:297: else if (d < d2) { d2 = d; s_Receivers[1] = i; }
    00000D1E 7B               [ 4] 2540 	ld	a, e
    00000D1F DD 96 F2         [19] 2541 	sub	a, -14 (ix)
    00000D22 7A               [ 4] 2542 	ld	a, d
    00000D23 DD 9E F3         [19] 2543 	sbc	a, -13 (ix)
    00000D26 30 0D            [12] 2544 	jr	NC, 00155$
    00000D28 DD 73 F2         [19] 2545 	ld	-14 (ix), e
    00000D2B DD 72 F3         [19] 2546 	ld	-13 (ix), d
    00000D2E 21r03r00         [10] 2547 	ld	hl, #(_TickThrowIn_s_Receivers_65537_1224 + 1)
    00000D31 DD 7E FF         [19] 2548 	ld	a, -1 (ix)
    00000D34 77               [ 7] 2549 	ld	(hl), a
    00000D35                       2550 00155$:
                                   2551 ;E:\Dropbox\FAUSTO\SVILUPPI\MSX\CODE\C\MSXgl\projects\soccerlgSCC/soccerlg_s7_b3.c:293: for (u8 i = 0; i < 14; i++) {
    00000D35 DD 34 FF         [23] 2552 	inc	-1 (ix)
    00000D38 C3r58r0C         [10] 2553 	jp	00192$
    00000D3B                       2554 00156$:
                                   2555 ;E:\Dropbox\FAUSTO\SVILUPPI\MSX\CODE\C\MSXgl\projects\soccerlgSCC/soccerlg_s7_b3.c:300: g_CornerKickTargetId = 2;
    00000D3B 21r00r00         [10] 2556 	ld	hl, #_g_CornerKickTargetId
    00000D3E 36 02            [10] 2557 	ld	(hl), #0x02
                                   2558 ;E:\Dropbox\FAUSTO\SVILUPPI\MSX\CODE\C\MSXgl\projects\soccerlgSCC/soccerlg_s7_b3.c:301: s_Timeout = 0;
    00000D40 21 00 00         [10] 2559 	ld	hl, #0x0000
    00000D43 22r00r00         [16] 2560 	ld	(_TickThrowIn_s_Timeout_65537_1224), hl
                                   2561 ;E:\Dropbox\FAUSTO\SVILUPPI\MSX\CODE\C\MSXgl\projects\soccerlgSCC/soccerlg_s7_b3.c:302: s_SelectedReceiverIdx = 0;
    00000D46 21r04r00         [10] 2562 	ld	hl, #_TickThrowIn_s_SelectedReceiverIdx_65537_1224
    00000D49 36 00            [10] 2563 	ld	(hl), #0x00
                                   2564 ;E:\Dropbox\FAUSTO\SVILUPPI\MSX\CODE\C\MSXgl\projects\soccerlgSCC/soccerlg_s7_b3.c:303: g_PassTargetPlayer = s_Receivers[0];
    00000D4B 21r02r00         [10] 2565 	ld	hl, #_TickThrowIn_s_Receivers_65537_1224
    00000D4E 7E               [ 7] 2566 	ld	a, (hl)
                                   2567 ;E:\Dropbox\FAUSTO\SVILUPPI\MSX\CODE\C\MSXgl\projects\soccerlgSCC/soccerlg_s7_b3.c:304: if (g_PassTargetPlayer == NO_VALUE) g_PassTargetPlayer = CallFnc_U8_P2(4, GetClosestPlayerToBall, g_RestartKickTeamId, throwerId);
    00000D4F 32r00r00         [13] 2568 	ld	(_g_PassTargetPlayer+0), a
    00000D52 3C               [ 4] 2569 	inc	a
    00000D53 C2r53r0F         [10] 2570 	jp	NZ,00193$
    00000D56 79               [ 4] 2571 	ld	a, c
    00000D57 F5               [11] 2572 	push	af
    00000D58 33               [ 6] 2573 	inc	sp
    00000D59 3Ar00r00         [13] 2574 	ld	a, (_g_RestartKickTeamId+0)
    00000D5C F5               [11] 2575 	push	af
    00000D5D 33               [ 6] 2576 	inc	sp
    00000D5E 11r00r00         [10] 2577 	ld	de, #_GetClosestPlayerToBall
    00000D61 3E 04            [ 7] 2578 	ld	a, #0x04
    00000D63 CDr00r00         [17] 2579 	call	_CallFnc_U8_P2
    00000D66 32r00r00         [13] 2580 	ld	(_g_PassTargetPlayer+0), a
                                   2581 ;E:\Dropbox\FAUSTO\SVILUPPI\MSX\CODE\C\MSXgl\projects\soccerlgSCC/soccerlg_s7_b3.c:306: return;
    00000D69 C3r53r0F         [10] 2582 	jp	00193$
    00000D6C                       2583 00162$:
                                   2584 ;E:\Dropbox\FAUSTO\SVILUPPI\MSX\CODE\C\MSXgl\projects\soccerlgSCC/soccerlg_s7_b3.c:310: if (g_CornerKickTargetId == 2) {
    00000D6C 3Ar00r00         [13] 2585 	ld	a, (_g_CornerKickTargetId+0)
    00000D6F D6 02            [ 7] 2586 	sub	a, #0x02
    00000D71 C2r53r0F         [10] 2587 	jp	NZ,00193$
                                   2588 ;E:\Dropbox\FAUSTO\SVILUPPI\MSX\CODE\C\MSXgl\projects\soccerlgSCC/soccerlg_s7_b3.c:312: g_Ball.Y = g_Players[throwerId].Y - 12;
    00000D74 DD 6E FE         [19] 2589 	ld	l, -2 (ix)
    00000D77 DD 66 FF         [19] 2590 	ld	h, -1 (ix)
    00000D7A 46               [ 7] 2591 	ld	b, (hl)
    00000D7B 23               [ 6] 2592 	inc	hl
    00000D7C 56               [ 7] 2593 	ld	d, (hl)
    00000D7D 78               [ 4] 2594 	ld	a, b
    00000D7E C6 F4            [ 7] 2595 	add	a, #0xf4
    00000D80 6F               [ 4] 2596 	ld	l, a
                                   2597 ;	spillPairReg hl
                                   2598 ;	spillPairReg hl
    00000D81 7A               [ 4] 2599 	ld	a, d
    00000D82 CE FF            [ 7] 2600 	adc	a, #0xff
    00000D84 67               [ 4] 2601 	ld	h, a
                                   2602 ;	spillPairReg hl
                                   2603 ;	spillPairReg hl
    00000D85 45               [ 4] 2604 	ld	b, l
    00000D86 54               [ 4] 2605 	ld	d, h
    00000D87 21r00r00         [10] 2606 	ld	hl, #_g_Ball
    00000D8A 70               [ 7] 2607 	ld	(hl), b
    00000D8B 23               [ 6] 2608 	inc	hl
    00000D8C 72               [ 7] 2609 	ld	(hl), d
                                   2610 ;E:\Dropbox\FAUSTO\SVILUPPI\MSX\CODE\C\MSXgl\projects\soccerlgSCC/soccerlg_s7_b3.c:313: g_Ball.X = g_Players[throwerId].X;
    00000D8D DD 6E F4         [19] 2611 	ld	l, -12 (ix)
    00000D90 DD 66 F5         [19] 2612 	ld	h, -11 (ix)
    00000D93 46               [ 7] 2613 	ld	b, (hl)
    00000D94 23               [ 6] 2614 	inc	hl
    00000D95 56               [ 7] 2615 	ld	d, (hl)
    00000D96 21r02r00         [10] 2616 	ld	hl, #(_g_Ball + 2)
    00000D99 70               [ 7] 2617 	ld	(hl), b
    00000D9A 23               [ 6] 2618 	inc	hl
    00000D9B 72               [ 7] 2619 	ld	(hl), d
                                   2620 ;E:\Dropbox\FAUSTO\SVILUPPI\MSX\CODE\C\MSXgl\projects\soccerlgSCC/soccerlg_s7_b3.c:314: g_Players[throwerId].PatternId = isLeft ? PLAYER_POSE_THROWIN_LEFT_2 : PLAYER_POSE_THROWIN_RIGHT_2;
    00000D9C DD 7E FE         [19] 2621 	ld	a, -2 (ix)
    00000D9F C6 08            [ 7] 2622 	add	a, #0x08
    00000DA1 DD 77 FA         [19] 2623 	ld	-6 (ix), a
    00000DA4 DD 7E FF         [19] 2624 	ld	a, -1 (ix)
    00000DA7 CE 00            [ 7] 2625 	adc	a, #0x00
    00000DA9 DD 77 FB         [19] 2626 	ld	-5 (ix), a
    00000DAC 7B               [ 4] 2627 	ld	a, e
    00000DAD B7               [ 4] 2628 	or	a, a
    00000DAE 28 0B            [12] 2629 	jr	Z, 00203$
    00000DB0 DD 36 FC 94      [19] 2630 	ld	-4 (ix), #0x94
    00000DB4 DD 36 FD 00      [19] 2631 	ld	-3 (ix), #0
    00000DB8 C3rC3r0D         [10] 2632 	jp	00204$
    00000DBB                       2633 00203$:
    00000DBB DD 36 FC 1D      [19] 2634 	ld	-4 (ix), #0x1d
    00000DBF DD 36 FD 00      [19] 2635 	ld	-3 (ix), #0
    00000DC3                       2636 00204$:
    00000DC3 DD 7E FC         [19] 2637 	ld	a, -4 (ix)
    00000DC6 DD 6E FA         [19] 2638 	ld	l, -6 (ix)
    00000DC9 DD 66 FB         [19] 2639 	ld	h, -5 (ix)
    00000DCC 77               [ 7] 2640 	ld	(hl), a
                                   2641 ;E:\Dropbox\FAUSTO\SVILUPPI\MSX\CODE\C\MSXgl\projects\soccerlgSCC/soccerlg_s7_b3.c:315: g_Players[throwerId].Direction = isLeft ? DIRECTION_RIGHT : DIRECTION_LEFT;
    00000DCD DD 7E FE         [19] 2642 	ld	a, -2 (ix)
    00000DD0 C6 0A            [ 7] 2643 	add	a, #0x0a
    00000DD2 DD 77 FC         [19] 2644 	ld	-4 (ix), a
    00000DD5 DD 7E FF         [19] 2645 	ld	a, -1 (ix)
    00000DD8 CE 00            [ 7] 2646 	adc	a, #0x00
    00000DDA DD 77 FD         [19] 2647 	ld	-3 (ix), a
    00000DDD 7B               [ 4] 2648 	ld	a, e
    00000DDE B7               [ 4] 2649 	or	a, a
    00000DDF 28 06            [12] 2650 	jr	Z, 00205$
    00000DE1 21 03 00         [10] 2651 	ld	hl, #0x0003
    00000DE4 C3rEAr0D         [10] 2652 	jp	00206$
    00000DE7                       2653 00205$:
    00000DE7 21 07 00         [10] 2654 	ld	hl, #0x0007
    00000DEA                       2655 00206$:
    00000DEA 7D               [ 4] 2656 	ld	a, l
    00000DEB DD 6E FC         [19] 2657 	ld	l, -4 (ix)
    00000DEE DD 66 FD         [19] 2658 	ld	h, -3 (ix)
    00000DF1 77               [ 7] 2659 	ld	(hl), a
                                   2660 ;E:\Dropbox\FAUSTO\SVILUPPI\MSX\CODE\C\MSXgl\projects\soccerlgSCC/soccerlg_s7_b3.c:317: bool isHuman = (g_RestartKickTeamId == TEAM_1) || (g_GameWith2Players && g_RestartKickTeamId == TEAM_2);
    00000DF2 3Ar00r00         [13] 2661 	ld	a, (_g_RestartKickTeamId+0)
    00000DF5 3D               [ 4] 2662 	dec	a
    00000DF6 28 11            [12] 2663 	jr	Z, 00208$
    00000DF8 3Ar00r00         [13] 2664 	ld	a, (_g_GameWith2Players+0)
    00000DFB B7               [ 4] 2665 	or	a, a
    00000DFC 28 07            [12] 2666 	jr	Z, 00207$
    00000DFE 3Ar00r00         [13] 2667 	ld	a, (_g_RestartKickTeamId+0)
    00000E01 D6 02            [ 7] 2668 	sub	a, #0x02
    00000E03 28 04            [12] 2669 	jr	Z, 00208$
    00000E05                       2670 00207$:
    00000E05 AF               [ 4] 2671 	xor	a, a
    00000E06 C3r0Br0E         [10] 2672 	jp	00209$
    00000E09                       2673 00208$:
    00000E09 3E 01            [ 7] 2674 	ld	a, #0x01
    00000E0B                       2675 00209$:
    00000E0B DD 77 FF         [19] 2676 	ld	-1 (ix), a
                                   2677 ;E:\Dropbox\FAUSTO\SVILUPPI\MSX\CODE\C\MSXgl\projects\soccerlgSCC/soccerlg_s7_b3.c:319: g_PassTargetPlayer = s_Receivers[s_SelectedReceiverIdx];
    00000E0E 3Er02            [ 7] 2678 	ld	a, #<(_TickThrowIn_s_Receivers_65537_1224)
    00000E10 21r04r00         [10] 2679 	ld	hl, #_TickThrowIn_s_SelectedReceiverIdx_65537_1224
    00000E13 86               [ 7] 2680 	add	a, (hl)
    00000E14 47               [ 4] 2681 	ld	b, a
    00000E15 3Es00            [ 7] 2682 	ld	a, #>(_TickThrowIn_s_Receivers_65537_1224)
    00000E17 CE 00            [ 7] 2683 	adc	a, #0x00
    00000E19 57               [ 4] 2684 	ld	d, a
    00000E1A 68               [ 4] 2685 	ld	l, b
    00000E1B 62               [ 4] 2686 	ld	h, d
    00000E1C 7E               [ 7] 2687 	ld	a, (hl)
                                   2688 ;E:\Dropbox\FAUSTO\SVILUPPI\MSX\CODE\C\MSXgl\projects\soccerlgSCC/soccerlg_s7_b3.c:320: if (g_PassTargetPlayer == NO_VALUE) g_PassTargetPlayer = s_Receivers[0];
    00000E1D 32r00r00         [13] 2689 	ld	(_g_PassTargetPlayer+0), a
    00000E20 3C               [ 4] 2690 	inc	a
    00000E21 20 07            [12] 2691 	jr	NZ, 00164$
    00000E23 21r02r00         [10] 2692 	ld	hl, #_TickThrowIn_s_Receivers_65537_1224
    00000E26 7E               [ 7] 2693 	ld	a, (hl)
    00000E27 32r00r00         [13] 2694 	ld	(_g_PassTargetPlayer+0), a
    00000E2A                       2695 00164$:
                                   2696 ;E:\Dropbox\FAUSTO\SVILUPPI\MSX\CODE\C\MSXgl\projects\soccerlgSCC/soccerlg_s7_b3.c:321: if (g_PassTargetPlayer == NO_VALUE) g_PassTargetPlayer = CallFnc_U8_P2(4, GetClosestPlayerToBall, g_RestartKickTeamId, throwerId);
    00000E2A 3Ar00r00         [13] 2697 	ld	a, (_g_PassTargetPlayer+0)
    00000E2D 3C               [ 4] 2698 	inc	a
    00000E2E 20 17            [12] 2699 	jr	NZ, 00166$
    00000E30 C5               [11] 2700 	push	bc
    00000E31 D5               [11] 2701 	push	de
    00000E32 79               [ 4] 2702 	ld	a, c
    00000E33 F5               [11] 2703 	push	af
    00000E34 33               [ 6] 2704 	inc	sp
    00000E35 3Ar00r00         [13] 2705 	ld	a, (_g_RestartKickTeamId+0)
    00000E38 F5               [11] 2706 	push	af
    00000E39 33               [ 6] 2707 	inc	sp
    00000E3A 11r00r00         [10] 2708 	ld	de, #_GetClosestPlayerToBall
    00000E3D 3E 04            [ 7] 2709 	ld	a, #0x04
    00000E3F CDr00r00         [17] 2710 	call	_CallFnc_U8_P2
    00000E42 D1               [10] 2711 	pop	de
    00000E43 C1               [10] 2712 	pop	bc
    00000E44 32r00r00         [13] 2713 	ld	(_g_PassTargetPlayer+0), a
    00000E47                       2714 00166$:
                                   2715 ;E:\Dropbox\FAUSTO\SVILUPPI\MSX\CODE\C\MSXgl\projects\soccerlgSCC/soccerlg_s7_b3.c:324: s_Timeout++;
    00000E47 2Ar00r00         [16] 2716 	ld	hl, (_TickThrowIn_s_Timeout_65537_1224)
    00000E4A 23               [ 6] 2717 	inc	hl
                                   2718 ;E:\Dropbox\FAUSTO\SVILUPPI\MSX\CODE\C\MSXgl\projects\soccerlgSCC/soccerlg_s7_b3.c:323: if (isHuman) {
    00000E4B DD 7E FF         [19] 2719 	ld	a, -1 (ix)
    00000E4E B7               [ 4] 2720 	or	a, a
    00000E4F CArF2r0E         [10] 2721 	jp	Z, 00183$
                                   2722 ;E:\Dropbox\FAUSTO\SVILUPPI\MSX\CODE\C\MSXgl\projects\soccerlgSCC/soccerlg_s7_b3.c:324: s_Timeout++;
    00000E52 22r00r00         [16] 2723 	ld	(_TickThrowIn_s_Timeout_65537_1224), hl
                                   2724 ;E:\Dropbox\FAUSTO\SVILUPPI\MSX\CODE\C\MSXgl\projects\soccerlgSCC/soccerlg_s7_b3.c:325: u8 joyDir = CallFnc_U8(4, GetJoystickDirection);
    00000E55 C5               [11] 2725 	push	bc
    00000E56 D5               [11] 2726 	push	de
    00000E57 11r00r00         [10] 2727 	ld	de, #_GetJoystickDirection
    00000E5A 3E 04            [ 7] 2728 	ld	a, #0x04
    00000E5C CDr00r00         [17] 2729 	call	_CallFnc_U8
    00000E5F D1               [10] 2730 	pop	de
    00000E60 C1               [10] 2731 	pop	bc
    00000E61 47               [ 4] 2732 	ld	b, a
                                   2733 ;E:\Dropbox\FAUSTO\SVILUPPI\MSX\CODE\C\MSXgl\projects\soccerlgSCC/soccerlg_s7_b3.c:326: bool trigger = CallFnc_U8(5,IsJoystickTriggerPressed);
    00000E62 C5               [11] 2734 	push	bc
    00000E63 D5               [11] 2735 	push	de
    00000E64 11r00r00         [10] 2736 	ld	de, #_IsJoystickTriggerPressed
    00000E67 3E 05            [ 7] 2737 	ld	a, #0x05
    00000E69 CDr00r00         [17] 2738 	call	_CallFnc_U8
    00000E6C D1               [10] 2739 	pop	de
    00000E6D C1               [10] 2740 	pop	bc
    00000E6E 57               [ 4] 2741 	ld	d, a
                                   2742 ;E:\Dropbox\FAUSTO\SVILUPPI\MSX\CODE\C\MSXgl\projects\soccerlgSCC/soccerlg_s7_b3.c:329: if (joyDir != DIRECTION_NONE && !joyMoved) {
    00000E6F 78               [ 4] 2743 	ld	a, b
    00000E70 B7               [ 4] 2744 	or	a, a
    00000E71 28 19            [12] 2745 	jr	Z, 00170$
    00000E73 3Ar05r00         [13] 2746 	ld	a, (_TickThrowIn_joyMoved_196612_1257+0)
    00000E76 B7               [ 4] 2747 	or	a, a
    00000E77 20 13            [12] 2748 	jr	NZ, 00170$
                                   2749 ;E:\Dropbox\FAUSTO\SVILUPPI\MSX\CODE\C\MSXgl\projects\soccerlgSCC/soccerlg_s7_b3.c:330: s_SelectedReceiverIdx = 1 - s_SelectedReceiverIdx;
    00000E79 3Ar04r00         [13] 2750 	ld	a, (_TickThrowIn_s_SelectedReceiverIdx_65537_1224+0)
    00000E7C 47               [ 4] 2751 	ld	b, a
    00000E7D 21r04r00         [10] 2752 	ld	hl, #_TickThrowIn_s_SelectedReceiverIdx_65537_1224
    00000E80 3E 01            [ 7] 2753 	ld	a, #0x01
    00000E82 90               [ 4] 2754 	sub	a, b
    00000E83 77               [ 7] 2755 	ld	(hl), a
                                   2756 ;E:\Dropbox\FAUSTO\SVILUPPI\MSX\CODE\C\MSXgl\projects\soccerlgSCC/soccerlg_s7_b3.c:331: joyMoved = true;
    00000E84 21r05r00         [10] 2757 	ld	hl, #_TickThrowIn_joyMoved_196612_1257
    00000E87 36 01            [10] 2758 	ld	(hl), #0x01
    00000E89 C3r95r0E         [10] 2759 	jp	00171$
    00000E8C                       2760 00170$:
                                   2761 ;E:\Dropbox\FAUSTO\SVILUPPI\MSX\CODE\C\MSXgl\projects\soccerlgSCC/soccerlg_s7_b3.c:332: } else if (joyDir == DIRECTION_NONE) {
    00000E8C 78               [ 4] 2762 	ld	a, b
    00000E8D B7               [ 4] 2763 	or	a, a
    00000E8E 20 05            [12] 2764 	jr	NZ, 00171$
                                   2765 ;E:\Dropbox\FAUSTO\SVILUPPI\MSX\CODE\C\MSXgl\projects\soccerlgSCC/soccerlg_s7_b3.c:333: joyMoved = false;
    00000E90 21r05r00         [10] 2766 	ld	hl, #_TickThrowIn_joyMoved_196612_1257
    00000E93 36 00            [10] 2767 	ld	(hl), #0x00
    00000E95                       2768 00171$:
                                   2769 ;E:\Dropbox\FAUSTO\SVILUPPI\MSX\CODE\C\MSXgl\projects\soccerlgSCC/soccerlg_s7_b3.c:336: if (trigger || s_Timeout > 300) { // 5 seconds
    00000E95 7A               [ 4] 2770 	ld	a, d
    00000E96 B7               [ 4] 2771 	or	a, a
    00000E97 20 0C            [12] 2772 	jr	NZ, 00175$
    00000E99 2Ar00r00         [16] 2773 	ld	hl, (_TickThrowIn_s_Timeout_65537_1224)
    00000E9C 3E 2C            [ 7] 2774 	ld	a, #0x2c
    00000E9E BD               [ 4] 2775 	cp	a, l
    00000E9F 3E 01            [ 7] 2776 	ld	a, #0x01
    00000EA1 9C               [ 4] 2777 	sbc	a, h
    00000EA2 D2r53r0F         [10] 2778 	jp	NC, 00193$
    00000EA5                       2779 00175$:
                                   2780 ;E:\Dropbox\FAUSTO\SVILUPPI\MSX\CODE\C\MSXgl\projects\soccerlgSCC/soccerlg_s7_b3.c:337: if (g_PassTargetPlayer != NO_VALUE) {
    00000EA5 3Ar00r00         [13] 2781 	ld	a, (_g_PassTargetPlayer+0)
    00000EA8 3C               [ 4] 2782 	inc	a
    00000EA9 28 2A            [12] 2783 	jr	Z, 00174$
                                   2784 ;E:\Dropbox\FAUSTO\SVILUPPI\MSX\CODE\C\MSXgl\projects\soccerlgSCC/soccerlg_s7_b3.c:339: g_Players[throwerId].PatternId = isLeft ? PLAYER_POSE_THROWIN_LEFT_1 : PLAYER_POSE_THROWIN_RIGHT_1;
    00000EAB DD 6E FA         [19] 2785 	ld	l, -6 (ix)
                                   2786 ;	spillPairReg hl
                                   2787 ;	spillPairReg hl
    00000EAE DD 66 FB         [19] 2788 	ld	h, -5 (ix)
                                   2789 ;	spillPairReg hl
                                   2790 ;	spillPairReg hl
    00000EB1 7B               [ 4] 2791 	ld	a, e
    00000EB2 B7               [ 4] 2792 	or	a, a
    00000EB3 28 06            [12] 2793 	jr	Z, 00213$
    00000EB5 11 93 00         [10] 2794 	ld	de, #0x0093
    00000EB8 C3rBEr0E         [10] 2795 	jp	00214$
    00000EBB                       2796 00213$:
    00000EBB 11 1C 00         [10] 2797 	ld	de, #0x001c
    00000EBE                       2798 00214$:
    00000EBE 73               [ 7] 2799 	ld	(hl), e
                                   2800 ;E:\Dropbox\FAUSTO\SVILUPPI\MSX\CODE\C\MSXgl\projects\soccerlgSCC/soccerlg_s7_b3.c:340: g_Ball.PossessionPlayerId = throwerId;
    00000EBF 21r06r00         [10] 2801 	ld	hl, #(_g_Ball + 6)
    00000EC2 71               [ 7] 2802 	ld	(hl), c
                                   2803 ;E:\Dropbox\FAUSTO\SVILUPPI\MSX\CODE\C\MSXgl\projects\soccerlgSCC/soccerlg_s7_b3.c:341: CallFnc_VOID_P1(5,PerformPass,g_PassTargetPlayer);
    00000EC3 3Ar00r00         [13] 2804 	ld	a, (_g_PassTargetPlayer+0)
    00000EC6 F5               [11] 2805 	push	af
    00000EC7 33               [ 6] 2806 	inc	sp
    00000EC8 11r00r00         [10] 2807 	ld	de, #_PerformPass
    00000ECB 3E 05            [ 7] 2808 	ld	a, #0x05
    00000ECD CDr00r00         [17] 2809 	call	_CallFnc_VOID_P1
                                   2810 ;E:\Dropbox\FAUSTO\SVILUPPI\MSX\CODE\C\MSXgl\projects\soccerlgSCC/soccerlg_s7_b3.c:342: g_Ball.PossessionPlayerId = NO_VALUE;
    00000ED0 21r06r00         [10] 2811 	ld	hl, #(_g_Ball + 6)
    00000ED3 36 FF            [10] 2812 	ld	(hl), #0xff
    00000ED5                       2813 00174$:
                                   2814 ;E:\Dropbox\FAUSTO\SVILUPPI\MSX\CODE\C\MSXgl\projects\soccerlgSCC/soccerlg_s7_b3.c:344: V9990_ClearTextFromLayerA(13, 18, 8);
    00000ED5 3E 08            [ 7] 2815 	ld	a, #0x08
    00000ED7 F5               [11] 2816 	push	af
    00000ED8 33               [ 6] 2817 	inc	sp
    00000ED9 2E 12            [ 7] 2818 	ld	l, #0x12
                                   2819 ;	spillPairReg hl
                                   2820 ;	spillPairReg hl
    00000EDB 3E 0D            [ 7] 2821 	ld	a, #0x0d
    00000EDD CDr00r00         [17] 2822 	call	_V9990_ClearTextFromLayerA
                                   2823 ;E:\Dropbox\FAUSTO\SVILUPPI\MSX\CODE\C\MSXgl\projects\soccerlgSCC/soccerlg_s7_b3.c:345: g_MatchStatus = MATCH_IN_ACTION;
    00000EE0 21r00r00         [10] 2824 	ld	hl, #_g_MatchStatus
    00000EE3 36 0C            [10] 2825 	ld	(hl), #0x0c
                                   2826 ;E:\Dropbox\FAUSTO\SVILUPPI\MSX\CODE\C\MSXgl\projects\soccerlgSCC/soccerlg_s7_b3.c:346: g_ThrowInPlayerId = NO_VALUE;
    00000EE5 21r00r00         [10] 2827 	ld	hl, #_g_ThrowInPlayerId
    00000EE8 36 FF            [10] 2828 	ld	(hl), #0xff
                                   2829 ;E:\Dropbox\FAUSTO\SVILUPPI\MSX\CODE\C\MSXgl\projects\soccerlgSCC/soccerlg_s7_b3.c:347: g_PassTargetPlayer = NO_VALUE;
    00000EEA 21r00r00         [10] 2830 	ld	hl, #_g_PassTargetPlayer
    00000EED 36 FF            [10] 2831 	ld	(hl), #0xff
    00000EEF C3r53r0F         [10] 2832 	jp	00193$
    00000EF2                       2833 00183$:
                                   2834 ;E:\Dropbox\FAUSTO\SVILUPPI\MSX\CODE\C\MSXgl\projects\soccerlgSCC/soccerlg_s7_b3.c:350: s_Timeout++;
                                   2835 ;E:\Dropbox\FAUSTO\SVILUPPI\MSX\CODE\C\MSXgl\projects\soccerlgSCC/soccerlg_s7_b3.c:351: if (s_Timeout > 60) {
    00000EF2 22r00r00         [16] 2836 	ld	(_TickThrowIn_s_Timeout_65537_1224), hl
    00000EF5 3E 3C            [ 7] 2837 	ld	a, #0x3c
    00000EF7 BD               [ 4] 2838 	cp	a, l
    00000EF8 3E 00            [ 7] 2839 	ld	a, #0x00
    00000EFA 9C               [ 4] 2840 	sbc	a, h
    00000EFB 30 56            [12] 2841 	jr	NC, 00193$
                                   2842 ;E:\Dropbox\FAUSTO\SVILUPPI\MSX\CODE\C\MSXgl\projects\soccerlgSCC/soccerlg_s7_b3.c:352: if (g_PassTargetPlayer != NO_VALUE) {
    00000EFD 3Ar00r00         [13] 2843 	ld	a, (_g_PassTargetPlayer+0)
    00000F00 3C               [ 4] 2844 	inc	a
    00000F01 28 36            [12] 2845 	jr	Z, 00179$
                                   2846 ;E:\Dropbox\FAUSTO\SVILUPPI\MSX\CODE\C\MSXgl\projects\soccerlgSCC/soccerlg_s7_b3.c:354: g_Players[throwerId].PatternId = isLeft ? PLAYER_POSE_THROWIN_LEFT_1 : PLAYER_POSE_THROWIN_RIGHT_1;
    00000F03 DD 7E FA         [19] 2847 	ld	a, -6 (ix)
    00000F06 DD 77 FE         [19] 2848 	ld	-2 (ix), a
    00000F09 DD 7E FB         [19] 2849 	ld	a, -5 (ix)
    00000F0C DD 77 FF         [19] 2850 	ld	-1 (ix), a
    00000F0F 7B               [ 4] 2851 	ld	a, e
    00000F10 B7               [ 4] 2852 	or	a, a
    00000F11 28 06            [12] 2853 	jr	Z, 00215$
    00000F13 11 93 00         [10] 2854 	ld	de, #0x0093
    00000F16 C3r1Cr0F         [10] 2855 	jp	00216$
    00000F19                       2856 00215$:
    00000F19 11 1C 00         [10] 2857 	ld	de, #0x001c
    00000F1C                       2858 00216$:
    00000F1C DD 6E FE         [19] 2859 	ld	l, -2 (ix)
    00000F1F DD 66 FF         [19] 2860 	ld	h, -1 (ix)
    00000F22 73               [ 7] 2861 	ld	(hl), e
                                   2862 ;E:\Dropbox\FAUSTO\SVILUPPI\MSX\CODE\C\MSXgl\projects\soccerlgSCC/soccerlg_s7_b3.c:355: g_Ball.PossessionPlayerId = throwerId;
    00000F23 21r06r00         [10] 2863 	ld	hl, #(_g_Ball + 6)
    00000F26 71               [ 7] 2864 	ld	(hl), c
                                   2865 ;E:\Dropbox\FAUSTO\SVILUPPI\MSX\CODE\C\MSXgl\projects\soccerlgSCC/soccerlg_s7_b3.c:356: CallFnc_VOID_P1(5,PerformPass,g_PassTargetPlayer);
    00000F27 3Ar00r00         [13] 2866 	ld	a, (_g_PassTargetPlayer+0)
    00000F2A F5               [11] 2867 	push	af
    00000F2B 33               [ 6] 2868 	inc	sp
    00000F2C 11r00r00         [10] 2869 	ld	de, #_PerformPass
    00000F2F 3E 05            [ 7] 2870 	ld	a, #0x05
    00000F31 CDr00r00         [17] 2871 	call	_CallFnc_VOID_P1
                                   2872 ;E:\Dropbox\FAUSTO\SVILUPPI\MSX\CODE\C\MSXgl\projects\soccerlgSCC/soccerlg_s7_b3.c:357: g_Ball.PossessionPlayerId = NO_VALUE;
    00000F34 21r06r00         [10] 2873 	ld	hl, #(_g_Ball + 6)
    00000F37 36 FF            [10] 2874 	ld	(hl), #0xff
    00000F39                       2875 00179$:
                                   2876 ;E:\Dropbox\FAUSTO\SVILUPPI\MSX\CODE\C\MSXgl\projects\soccerlgSCC/soccerlg_s7_b3.c:359: V9990_ClearTextFromLayerA(13, 18, 8);
    00000F39 3E 08            [ 7] 2877 	ld	a, #0x08
    00000F3B F5               [11] 2878 	push	af
    00000F3C 33               [ 6] 2879 	inc	sp
    00000F3D 2E 12            [ 7] 2880 	ld	l, #0x12
                                   2881 ;	spillPairReg hl
                                   2882 ;	spillPairReg hl
    00000F3F 3E 0D            [ 7] 2883 	ld	a, #0x0d
    00000F41 CDr00r00         [17] 2884 	call	_V9990_ClearTextFromLayerA
                                   2885 ;E:\Dropbox\FAUSTO\SVILUPPI\MSX\CODE\C\MSXgl\projects\soccerlgSCC/soccerlg_s7_b3.c:360: g_MatchStatus = MATCH_IN_ACTION;
    00000F44 21r00r00         [10] 2886 	ld	hl, #_g_MatchStatus
    00000F47 36 0C            [10] 2887 	ld	(hl), #0x0c
                                   2888 ;E:\Dropbox\FAUSTO\SVILUPPI\MSX\CODE\C\MSXgl\projects\soccerlgSCC/soccerlg_s7_b3.c:361: g_ThrowInPlayerId = NO_VALUE;
    00000F49 21r00r00         [10] 2889 	ld	hl, #_g_ThrowInPlayerId
    00000F4C 36 FF            [10] 2890 	ld	(hl), #0xff
                                   2891 ;E:\Dropbox\FAUSTO\SVILUPPI\MSX\CODE\C\MSXgl\projects\soccerlgSCC/soccerlg_s7_b3.c:362: g_PassTargetPlayer = NO_VALUE;
    00000F4E 21r00r00         [10] 2892 	ld	hl, #_g_PassTargetPlayer
    00000F51 36 FF            [10] 2893 	ld	(hl), #0xff
    00000F53                       2894 00193$:
                                   2895 ;E:\Dropbox\FAUSTO\SVILUPPI\MSX\CODE\C\MSXgl\projects\soccerlgSCC/soccerlg_s7_b3.c:366: }
    00000F53 DD F9            [10] 2896 	ld	sp, ix
    00000F55 DD E1            [14] 2897 	pop	ix
    00000F57 C9               [10] 2898 	ret
                                   2899 	.area _SEG7
                                   2900 	.area _INITIALIZER
                                   2901 	.area _CABS (ABS)
