                                      1 ;--------------------------------------------------------
                                      2 ; File Created by SDCC : free open source ANSI-C Compiler
                                      3 ; Version 4.2.0 #13081 (MINGW64)
                                      4 ;--------------------------------------------------------
                                      5 	.module vgm_player
                                      6 	.optsdcc -mz80
                                      7 	
                                      8 ;--------------------------------------------------------
                                      9 ; Public variables in this module
                                     10 ;--------------------------------------------------------
                                     11 	.globl _PSG_Resume
                                     12 	.globl _PSG_Mute
                                     13 	.globl _PSG_SetRegister
                                     14 	.globl _g_VGM_NotifyCallback
                                     15 	.globl _g_VGM_DataStart
                                     16 	.globl _g_VGM_Config
                                     17 	.globl _g_VGM_State
                                     18 	.globl _g_VGM_WaitFrame
                                     19 	.globl _g_VGM_WaitCount
                                     20 	.globl _g_VGM_Loop
                                     21 	.globl _g_VGM_Pointer
                                     22 	.globl _g_VGM_Header
                                     23 	.globl _g_SLTSL
                                     24 	.globl _g_GRPACY
                                     25 	.globl _g_GRPACX
                                     26 	.globl _g_LOGOPR
                                     27 	.globl _g_CMASK
                                     28 	.globl _g_CLOC
                                     29 	.globl _g_FNKSTR
                                     30 	.globl _g_ATRBYT
                                     31 	.globl _g_BDRCLR
                                     32 	.globl _g_BAKCLR
                                     33 	.globl _g_FORCLR
                                     34 	.globl _g_CSRX
                                     35 	.globl _g_CSRY
                                     36 	.globl _g_CLIKSW
                                     37 	.globl _g_MLTPAT
                                     38 	.globl _g_MLTATR
                                     39 	.globl _g_MLTCGP
                                     40 	.globl _g_MLTCOL
                                     41 	.globl _g_MLTNAM
                                     42 	.globl _g_GRPPAT
                                     43 	.globl _g_GRPATR
                                     44 	.globl _g_GRPCGP
                                     45 	.globl _g_GRPCOL
                                     46 	.globl _g_GRPNAM
                                     47 	.globl _g_T32PAT
                                     48 	.globl _g_T32ATR
                                     49 	.globl _g_T32CGP
                                     50 	.globl _g_T32COL
                                     51 	.globl _g_T32NAM
                                     52 	.globl _g_TXTPAT
                                     53 	.globl _g_TXTATR
                                     54 	.globl _g_TXTCGP
                                     55 	.globl _g_TXTCOL
                                     56 	.globl _g_TXTNAM
                                     57 	.globl _g_CLMLST
                                     58 	.globl _g_CRTCNT
                                     59 	.globl _g_LINLEN
                                     60 	.globl _g_LINL32
                                     61 	.globl _g_LINL40
                                     62 	.globl _g_BDOS
                                     63 	.globl _g_MASTER
                                     64 	.globl _g_RAMAD3
                                     65 	.globl _g_RAMAD2
                                     66 	.globl _g_RAMAD1
                                     67 	.globl _g_RAMAD0
                                     68 	.globl _g_BREAKV
                                     69 	.globl _g_DISKVE
                                     70 	.globl _g_KANJTABLE
                                     71 	.globl _g_STRSRC
                                     72 	.globl _g_SUBRID
                                     73 	.globl _g_CHAR_16
                                     74 	.globl _g_MSXMID
                                     75 	.globl _g_MSXVER
                                     76 	.globl _g_ROMVersion
                                     77 	.globl _g_BASRVN
                                     78 	.globl _g_VDP_DW
                                     79 	.globl _g_VDP_DR
                                     80 	.globl _g_CGTABL
                                     81 	.globl _g_SVFFFD
                                     82 	.globl _g_RG27SAV
                                     83 	.globl _g_RG26SAV
                                     84 	.globl _g_RG25SAV
                                     85 	.globl _g_SVFFF8
                                     86 	.globl _g_MINROM
                                     87 	.globl _g_RG23SAV
                                     88 	.globl _g_RG22SAV
                                     89 	.globl _g_RG21SAV
                                     90 	.globl _g_RG20SAV
                                     91 	.globl _g_RG19SAV
                                     92 	.globl _g_RG18SAV
                                     93 	.globl _g_RG17SAV
                                     94 	.globl _g_RG16SAV
                                     95 	.globl _g_RG15SAV
                                     96 	.globl _g_RG14SAV
                                     97 	.globl _g_RG13SAV
                                     98 	.globl _g_RG12SAV
                                     99 	.globl _g_RG11SAV
                                    100 	.globl _g_RG10SAV
                                    101 	.globl _g_RG09SAV
                                    102 	.globl _g_RG08SAV
                                    103 	.globl _g_PROCNM
                                    104 	.globl _g_SLTWRK
                                    105 	.globl _g_SLTATR
                                    106 	.globl _g_SLTTBL
                                    107 	.globl _g_EXPTBL
                                    108 	.globl _g_MNROM
                                    109 	.globl _g_DRWANG
                                    110 	.globl _g_DRWSCL
                                    111 	.globl _g_DRWFLG
                                    112 	.globl _g_GYPOS
                                    113 	.globl _g_GXPOS
                                    114 	.globl _g_BRDATR
                                    115 	.globl _g_CASPRV
                                    116 	.globl _g_OLDSCR
                                    117 	.globl _g_SCRMOD
                                    118 	.globl _g_FLBMEM
                                    119 	.globl _g_KANAMD
                                    120 	.globl _g_KANAST
                                    121 	.globl _g_CAPST
                                    122 	.globl _g_CSTYLE
                                    123 	.globl _g_CSRSW
                                    124 	.globl _g_INSFLG
                                    125 	.globl _g_ESCCNT
                                    126 	.globl _g_GRPHED
                                    127 	.globl _g_WINWID
                                    128 	.globl _g_LOWLIM
                                    129 	.globl _g_INTCNT
                                    130 	.globl _g_INTVAL
                                    131 	.globl _g_JIFFY
                                    132 	.globl _g_PADX
                                    133 	.globl _g_PADY
                                    134 	.globl _g_INTFLG
                                    135 	.globl _g_RTYCNT
                                    136 	.globl _g_TRPTBL
                                    137 	.globl _g_HIMEM
                                    138 	.globl _g_BOTTOM
                                    139 	.globl _g_PATWRK
                                    140 	.globl _g_LINWRK
                                    141 	.globl _g_KEYBUF
                                    142 	.globl _g_NEWKEY
                                    143 	.globl _g_OLDKEY
                                    144 	.globl _g_CLIKFL
                                    145 	.globl _g_ONGSBF
                                    146 	.globl _g_FNKFLG
                                    147 	.globl _g_FNKSWI
                                    148 	.globl _g_CODSAV
                                    149 	.globl _g_FSTPOS
                                    150 	.globl _g_LINTTB
                                    151 	.globl _g_BASROM
                                    152 	.globl _g_ENSTOP
                                    153 	.globl _g_VCBC
                                    154 	.globl _g_VCBB
                                    155 	.globl _g_VCBA
                                    156 	.globl _g_PLYCNT
                                    157 	.globl _g_MUSICF
                                    158 	.globl _g_QUEUEN
                                    159 	.globl _g_MCLPTR
                                    160 	.globl _g_MCLLEN
                                    161 	.globl _g_SAVVOL
                                    162 	.globl _g_VOICEN
                                    163 	.globl _g_SAVSP
                                    164 	.globl _g_PRSCNT
                                    165 	.globl _g_LSTMOD
                                    166 	.globl _g_LSTCOM
                                    167 	.globl _g_COMMSK
                                    168 	.globl _g_ESTBLS
                                    169 	.globl _g_FLAGS
                                    170 	.globl _g_ERRORS
                                    171 	.globl _g_DATCNT
                                    172 	.globl _g_DEVNUM
                                    173 	.globl _g_OLDINT
                                    174 	.globl _g_OLDSTT
                                    175 	.globl _g_MEXBIh
                                    176 	.globl _g_RSIQLN
                                    177 	.globl _g_RSFCB
                                    178 	.globl _g_TOCNT
                                    179 	.globl _g_RSTMP
                                    180 	.globl _g_YSAVE
                                    181 	.globl _g_XSAVE
                                    182 	.globl _g_NORUSE
                                    183 	.globl _g_MODE
                                    184 	.globl _g_ROMA
                                    185 	.globl _g_CHRCNT
                                    186 	.globl _g_EXBRSA
                                    187 	.globl _g_AVCSAV
                                    188 	.globl _g_ACPAGE
                                    189 	.globl _g_DPPAGE
                                    190 	.globl _g_RS2IQ
                                    191 	.globl _g_VOICCQ
                                    192 	.globl _g_VOICBQ
                                    193 	.globl _g_VOICAQ
                                    194 	.globl _g_QUEBAK
                                    195 	.globl _g_QUETAB
                                    196 	.globl _g_ASPCT2
                                    197 	.globl _g_ASPCT1
                                    198 	.globl _g_HEADER
                                    199 	.globl _g_HIGH
                                    200 	.globl _g_LOW
                                    201 	.globl _g_CS240
                                    202 	.globl _g_CS120
                                    203 	.globl _g_GETPNT
                                    204 	.globl _g_PUTPNT
                                    205 	.globl _g_REPCNT
                                    206 	.globl _g_SCNCNT
                                    207 	.globl _g_FRCNEW
                                    208 	.globl _g_QUEUES
                                    209 	.globl _g_MINUPD
                                    210 	.globl _g_MAXUPD
                                    211 	.globl _g_TRGFLG
                                    212 	.globl _g_STATFL
                                    213 	.globl _g_RG7SAV
                                    214 	.globl _g_RG6SAV
                                    215 	.globl _g_RG5SAV
                                    216 	.globl _g_RG4SAV
                                    217 	.globl _g_RG3SAV
                                    218 	.globl _g_RG2SAV
                                    219 	.globl _g_RG1SAV
                                    220 	.globl _g_RG0SAV
                                    221 	.globl _g_CNSDFG
                                    222 	.globl _g_USRTAB
                                    223 	.globl _g_CLPRIM
                                    224 	.globl _g_WRPRIM
                                    225 	.globl _g_RDPRIM
                                    226 	.globl _VGM_SetNotifyCB
                                    227 	.globl _VGM_Play
                                    228 	.globl _VGM_Resume
                                    229 	.globl _VGM_Pause
                                    230 	.globl _VGM_Stop
                                    231 	.globl _VGM_Decode
                                    232 ;--------------------------------------------------------
                                    233 ; special function registers
                                    234 ;--------------------------------------------------------
                         000000A8   235 _g_PortPrimarySlot	=	0x00a8
                         000000A9   236 _g_PortReadKeyboard	=	0x00a9
                         000000AA   237 _g_PortAccessKeyboard	=	0x00aa
                         000000AB   238 _g_PortControl	=	0x00ab
                         00000098   239 _g_VDP_DataPort	=	0x0098
                         00000099   240 _g_VDP_RegPort	=	0x0099
                         00000099   241 _g_VDP_AddrPort	=	0x0099
                         00000099   242 _g_VDP_StatPort	=	0x0099
                         000000A0   243 _g_PSG_RegPort	=	0x00a0
                         000000A1   244 _g_PSG_DataPort	=	0x00a1
                         000000A2   245 _g_PSG_StatPort	=	0x00a2
                         00000010   246 _g_PSG_Ext_RegPort	=	0x0010
                         00000011   247 _g_PSG_Ext_DataPort	=	0x0011
                         00000012   248 _g_PSG_Ext_StatPort	=	0x0012
                         0000007C   249 _g_MSXMusic_IndexPort	=	0x007c
                         0000007D   250 _g_MSXMusic_DataPort	=	0x007d
                         000000C0   251 _g_MSXAudio_IndexPort	=	0x00c0
                         000000C1   252 _g_MSXAudio_DataPort	=	0x00c1
                         000000C2   253 _g_MSXAudio_IndexPort2	=	0x00c2
                         000000C3   254 _g_MSXAudio_DataPort2	=	0x00c3
                         000000B4   255 _g_RTC_AddrPort	=	0x00b4
                         000000B5   256 _g_RTC_DataPort	=	0x00b5
                                    257 ;--------------------------------------------------------
                                    258 ; ram data
                                    259 ;--------------------------------------------------------
                                    260 	.area _DATA
                         0000F3AE   261 _g_LINL40	=	0xf3ae
                         0000F3AF   262 _g_LINL32	=	0xf3af
                         0000F3B0   263 _g_LINLEN	=	0xf3b0
                         0000F3B1   264 _g_CRTCNT	=	0xf3b1
                         0000F3B2   265 _g_CLMLST	=	0xf3b2
                         0000F3B3   266 _g_TXTNAM	=	0xf3b3
                         0000F3B5   267 _g_TXTCOL	=	0xf3b5
                         0000F3B7   268 _g_TXTCGP	=	0xf3b7
                         0000F3B9   269 _g_TXTATR	=	0xf3b9
                         0000F3BB   270 _g_TXTPAT	=	0xf3bb
                         0000F3BD   271 _g_T32NAM	=	0xf3bd
                         0000F3BF   272 _g_T32COL	=	0xf3bf
                         0000F3C1   273 _g_T32CGP	=	0xf3c1
                         0000F3C3   274 _g_T32ATR	=	0xf3c3
                         0000F3C5   275 _g_T32PAT	=	0xf3c5
                         0000F3C7   276 _g_GRPNAM	=	0xf3c7
                         0000F3C9   277 _g_GRPCOL	=	0xf3c9
                         0000F3CB   278 _g_GRPCGP	=	0xf3cb
                         0000F3CD   279 _g_GRPATR	=	0xf3cd
                         0000F3CF   280 _g_GRPPAT	=	0xf3cf
                         0000F3D1   281 _g_MLTNAM	=	0xf3d1
                         0000F3D3   282 _g_MLTCOL	=	0xf3d3
                         0000F3D5   283 _g_MLTCGP	=	0xf3d5
                         0000F3D7   284 _g_MLTATR	=	0xf3d7
                         0000F3D9   285 _g_MLTPAT	=	0xf3d9
                         0000F3DB   286 _g_CLIKSW	=	0xf3db
                         0000F3DC   287 _g_CSRY	=	0xf3dc
                         0000F3DD   288 _g_CSRX	=	0xf3dd
                         0000F3E9   289 _g_FORCLR	=	0xf3e9
                         0000F3EA   290 _g_BAKCLR	=	0xf3ea
                         0000F3EB   291 _g_BDRCLR	=	0xf3eb
                         0000F3F2   292 _g_ATRBYT	=	0xf3f2
                         0000F87F   293 _g_FNKSTR	=	0xf87f
                         0000F92A   294 _g_CLOC	=	0xf92a
                         0000F92C   295 _g_CMASK	=	0xf92c
                         0000FB02   296 _g_LOGOPR	=	0xfb02
                         0000FCB7   297 _g_GRPACX	=	0xfcb7
                         0000FCB9   298 _g_GRPACY	=	0xfcb9
                         0000FFFF   299 _g_SLTSL	=	0xffff
    00000000                        300 _g_VGM_Header::
    00000000                        301 	.ds 2
    00000002                        302 _g_VGM_Pointer::
    00000002                        303 	.ds 2
    00000004                        304 _g_VGM_Loop::
    00000004                        305 	.ds 2
    00000006                        306 _g_VGM_WaitCount::
    00000006                        307 	.ds 2
    00000008                        308 _g_VGM_WaitFrame::
    00000008                        309 	.ds 2
    0000000A                        310 _g_VGM_State::
    0000000A                        311 	.ds 1
    0000000B                        312 _g_VGM_Config::
    0000000B                        313 	.ds 1
    0000000C                        314 _g_VGM_DataStart::
    0000000C                        315 	.ds 2
                                    316 ;--------------------------------------------------------
                                    317 ; ram data
                                    318 ;--------------------------------------------------------
                                    319 	.area _INITIALIZED
    00000000                        320 _g_VGM_NotifyCallback::
    00000000                        321 	.ds 2
                                    322 ;--------------------------------------------------------
                                    323 ; absolute external ram data
                                    324 ;--------------------------------------------------------
                                    325 	.area _DABS (ABS)
                                    326 ;--------------------------------------------------------
                                    327 ; global & static initialisations
                                    328 ;--------------------------------------------------------
                                    329 	.area _HOME
                                    330 	.area _GSINIT
                                    331 	.area _GSFINAL
                                    332 	.area _GSINIT
                                    333 ;--------------------------------------------------------
                                    334 ; Home
                                    335 ;--------------------------------------------------------
                                    336 	.area _HOME
                                    337 	.area _HOME
                                    338 ;--------------------------------------------------------
                                    339 ; code
                                    340 ;--------------------------------------------------------
                                    341 	.area _CODE
                                    342 ;./libs/vgm_player.c:82: void VGM_SetNotifyCB(VGM_Callback cb)
                                    343 ;	---------------------------------
                                    344 ; Function VGM_SetNotifyCB
                                    345 ; ---------------------------------
    00000000                        346 _VGM_SetNotifyCB::
    00000000 22r00r00         [16]  347 	ld	(_g_VGM_NotifyCallback), hl
                                    348 ;./libs/vgm_player.c:84: g_VGM_NotifyCallback = cb;
                                    349 ;./libs/vgm_player.c:85: }
    00000003 C9               [10]  350 	ret
                         0000F380   351 _g_RDPRIM	=	0xf380
                         0000F385   352 _g_WRPRIM	=	0xf385
                         0000F38C   353 _g_CLPRIM	=	0xf38c
                         0000F39A   354 _g_USRTAB	=	0xf39a
                         0000F3DE   355 _g_CNSDFG	=	0xf3de
                         0000F3DF   356 _g_RG0SAV	=	0xf3df
                         0000F3E0   357 _g_RG1SAV	=	0xf3e0
                         0000F3E1   358 _g_RG2SAV	=	0xf3e1
                         0000F3E2   359 _g_RG3SAV	=	0xf3e2
                         0000F3E3   360 _g_RG4SAV	=	0xf3e3
                         0000F3E4   361 _g_RG5SAV	=	0xf3e4
                         0000F3E5   362 _g_RG6SAV	=	0xf3e5
                         0000F3E6   363 _g_RG7SAV	=	0xf3e6
                         0000F3E7   364 _g_STATFL	=	0xf3e7
                         0000F3E8   365 _g_TRGFLG	=	0xf3e8
                         0000F3EC   366 _g_MAXUPD	=	0xf3ec
                         0000F3EF   367 _g_MINUPD	=	0xf3ef
                         0000F3F3   368 _g_QUEUES	=	0xf3f3
                         0000F3F5   369 _g_FRCNEW	=	0xf3f5
                         0000F3F6   370 _g_SCNCNT	=	0xf3f6
                         0000F3F7   371 _g_REPCNT	=	0xf3f7
                         0000F3F8   372 _g_PUTPNT	=	0xf3f8
                         0000F3FA   373 _g_GETPNT	=	0xf3fa
                         0000F3FC   374 _g_CS120	=	0xf3fc
                         0000F401   375 _g_CS240	=	0xf401
                         0000F406   376 _g_LOW	=	0xf406
                         0000F408   377 _g_HIGH	=	0xf408
                         0000F40A   378 _g_HEADER	=	0xf40a
                         0000F40B   379 _g_ASPCT1	=	0xf40b
                         0000F40D   380 _g_ASPCT2	=	0xf40d
                         0000F959   381 _g_QUETAB	=	0xf959
                         0000F971   382 _g_QUEBAK	=	0xf971
                         0000F975   383 _g_VOICAQ	=	0xf975
                         0000F9F5   384 _g_VOICBQ	=	0xf9f5
                         0000FA75   385 _g_VOICCQ	=	0xfa75
                         0000FAF5   386 _g_RS2IQ	=	0xfaf5
                         0000FAF5   387 _g_DPPAGE	=	0xfaf5
                         0000FAF6   388 _g_ACPAGE	=	0xfaf6
                         0000FAF7   389 _g_AVCSAV	=	0xfaf7
                         0000FAF8   390 _g_EXBRSA	=	0xfaf8
                         0000FAF9   391 _g_CHRCNT	=	0xfaf9
                         0000FAFA   392 _g_ROMA	=	0xfafa
                         0000FAFC   393 _g_MODE	=	0xfafc
                         0000FAFD   394 _g_NORUSE	=	0xfafd
                         0000FAFE   395 _g_XSAVE	=	0xfafe
                         0000FB00   396 _g_YSAVE	=	0xfb00
                         0000FB03   397 _g_RSTMP	=	0xfb03
                         0000FB03   398 _g_TOCNT	=	0xfb03
                         0000FB04   399 _g_RSFCB	=	0xfb04
                         0000FB06   400 _g_RSIQLN	=	0xfb06
                         0000FB07   401 _g_MEXBIh	=	0xfb07
                         0000FB0C   402 _g_OLDSTT	=	0xfb0c
                         0000FB0C   403 _g_OLDINT	=	0xfb0c
                         0000FB16   404 _g_DEVNUM	=	0xfb16
                         0000FB17   405 _g_DATCNT	=	0xfb17
                         0000FB1A   406 _g_ERRORS	=	0xfb1a
                         0000FB1B   407 _g_FLAGS	=	0xfb1b
                         0000FB1C   408 _g_ESTBLS	=	0xfb1c
                         0000FB1D   409 _g_COMMSK	=	0xfb1d
                         0000FB1E   410 _g_LSTCOM	=	0xfb1e
                         0000FB1F   411 _g_LSTMOD	=	0xfb1f
                         0000FB35   412 _g_PRSCNT	=	0xfb35
                         0000FB36   413 _g_SAVSP	=	0xfb36
                         0000FB38   414 _g_VOICEN	=	0xfb38
                         0000FB39   415 _g_SAVVOL	=	0xfb39
                         0000FB3B   416 _g_MCLLEN	=	0xfb3b
                         0000FB3C   417 _g_MCLPTR	=	0xfb3c
                         0000FB3E   418 _g_QUEUEN	=	0xfb3e
                         0000FB3F   419 _g_MUSICF	=	0xfb3f
                         0000FB40   420 _g_PLYCNT	=	0xfb40
                         0000FB41   421 _g_VCBA	=	0xfb41
                         0000FB66   422 _g_VCBB	=	0xfb66
                         0000FB8B   423 _g_VCBC	=	0xfb8b
                         0000FBB0   424 _g_ENSTOP	=	0xfbb0
                         0000FBB1   425 _g_BASROM	=	0xfbb1
                         0000FBB2   426 _g_LINTTB	=	0xfbb2
                         0000FBCA   427 _g_FSTPOS	=	0xfbca
                         0000FBCC   428 _g_CODSAV	=	0xfbcc
                         0000FBCD   429 _g_FNKSWI	=	0xfbcd
                         0000FBCE   430 _g_FNKFLG	=	0xfbce
                         0000FBD8   431 _g_ONGSBF	=	0xfbd8
                         0000FBD9   432 _g_CLIKFL	=	0xfbd9
                         0000FBDA   433 _g_OLDKEY	=	0xfbda
                         0000FBE5   434 _g_NEWKEY	=	0xfbe5
                         0000FBF0   435 _g_KEYBUF	=	0xfbf0
                         0000FC18   436 _g_LINWRK	=	0xfc18
                         0000FC40   437 _g_PATWRK	=	0xfc40
                         0000FC48   438 _g_BOTTOM	=	0xfc48
                         0000FC4A   439 _g_HIMEM	=	0xfc4a
                         0000FC4C   440 _g_TRPTBL	=	0xfc4c
                         0000FC9A   441 _g_RTYCNT	=	0xfc9a
                         0000FC9B   442 _g_INTFLG	=	0xfc9b
                         0000FC9C   443 _g_PADY	=	0xfc9c
                         0000FC9D   444 _g_PADX	=	0xfc9d
                         0000FC9E   445 _g_JIFFY	=	0xfc9e
                         0000FCA0   446 _g_INTVAL	=	0xfca0
                         0000FCA2   447 _g_INTCNT	=	0xfca2
                         0000FCA4   448 _g_LOWLIM	=	0xfca4
                         0000FCA5   449 _g_WINWID	=	0xfca5
                         0000FCA6   450 _g_GRPHED	=	0xfca6
                         0000FCA7   451 _g_ESCCNT	=	0xfca7
                         0000FCA8   452 _g_INSFLG	=	0xfca8
                         0000FCA9   453 _g_CSRSW	=	0xfca9
                         0000FCAA   454 _g_CSTYLE	=	0xfcaa
                         0000FCAB   455 _g_CAPST	=	0xfcab
                         0000FCAC   456 _g_KANAST	=	0xfcac
                         0000FCAD   457 _g_KANAMD	=	0xfcad
                         0000FCAE   458 _g_FLBMEM	=	0xfcae
                         0000FCAF   459 _g_SCRMOD	=	0xfcaf
                         0000FCB0   460 _g_OLDSCR	=	0xfcb0
                         0000FCB1   461 _g_CASPRV	=	0xfcb1
                         0000FCB2   462 _g_BRDATR	=	0xfcb2
                         0000FCB3   463 _g_GXPOS	=	0xfcb3
                         0000FCB5   464 _g_GYPOS	=	0xfcb5
                         0000FCBB   465 _g_DRWFLG	=	0xfcbb
                         0000FCBC   466 _g_DRWSCL	=	0xfcbc
                         0000FCBD   467 _g_DRWANG	=	0xfcbd
                         0000FCC1   468 _g_MNROM	=	0xfcc1
                         0000FCC1   469 _g_EXPTBL	=	0xfcc1
                         0000FCC5   470 _g_SLTTBL	=	0xfcc5
                         0000FCC9   471 _g_SLTATR	=	0xfcc9
                         0000FD09   472 _g_SLTWRK	=	0xfd09
                         0000FD89   473 _g_PROCNM	=	0xfd89
                         0000FFE7   474 _g_RG08SAV	=	0xffe7
                         0000FFE8   475 _g_RG09SAV	=	0xffe8
                         0000FFE9   476 _g_RG10SAV	=	0xffe9
                         0000FFEA   477 _g_RG11SAV	=	0xffea
                         0000FFEB   478 _g_RG12SAV	=	0xffeb
                         0000FFEC   479 _g_RG13SAV	=	0xffec
                         0000FFED   480 _g_RG14SAV	=	0xffed
                         0000FFEE   481 _g_RG15SAV	=	0xffee
                         0000FFEF   482 _g_RG16SAV	=	0xffef
                         0000FFF0   483 _g_RG17SAV	=	0xfff0
                         0000FFF1   484 _g_RG18SAV	=	0xfff1
                         0000FFF2   485 _g_RG19SAV	=	0xfff2
                         0000FFF3   486 _g_RG20SAV	=	0xfff3
                         0000FFF4   487 _g_RG21SAV	=	0xfff4
                         0000FFF5   488 _g_RG22SAV	=	0xfff5
                         0000FFF6   489 _g_RG23SAV	=	0xfff6
                         0000FFF7   490 _g_MINROM	=	0xfff7
                         0000FFF8   491 _g_SVFFF8	=	0xfff8
                         0000FFFA   492 _g_RG25SAV	=	0xfffa
                         0000FFFB   493 _g_RG26SAV	=	0xfffb
                         0000FFFC   494 _g_RG27SAV	=	0xfffc
                         0000FFFD   495 _g_SVFFFD	=	0xfffd
                         00000004   496 _g_CGTABL	=	0x0004
                         00000006   497 _g_VDP_DR	=	0x0006
                         00000007   498 _g_VDP_DW	=	0x0007
                         0000002B   499 _g_BASRVN	=	0x002b
                         0000002B   500 _g_ROMVersion	=	0x002b
                         0000002D   501 _g_MSXVER	=	0x002d
                         0000002E   502 _g_MSXMID	=	0x002e
                         00000034   503 _g_CHAR_16	=	0x0034
                         00000000   504 _g_SUBRID	=	0x0000
                         00000002   505 _g_STRSRC	=	0x0002
                         0000F30F   506 _g_KANJTABLE	=	0xf30f
                         0000F323   507 _g_DISKVE	=	0xf323
                         0000F325   508 _g_BREAKV	=	0xf325
                         0000F341   509 _g_RAMAD0	=	0xf341
                         0000F342   510 _g_RAMAD1	=	0xf342
                         0000F343   511 _g_RAMAD2	=	0xf343
                         0000F344   512 _g_RAMAD3	=	0xf344
                         0000F348   513 _g_MASTER	=	0xf348
                         0000F37D   514 _g_BDOS	=	0xf37d
                                    515 ;./libs/vgm_player.c:95: bool VGM_Play(const void* addr, bool loop)
                                    516 ;	---------------------------------
                                    517 ; Function VGM_Play
                                    518 ; ---------------------------------
    00000004                        519 _VGM_Play::
    00000004 DD E5            [15]  520 	push	ix
    00000006 DD 21 00 00      [14]  521 	ld	ix,#0
    0000000A DD 39            [15]  522 	add	ix,sp
    0000000C F5               [11]  523 	push	af
    0000000D F5               [11]  524 	push	af
    0000000E F5               [11]  525 	push	af
                                    526 ;./libs/vgm_player.c:97: VGM_Pause(); // Mute all sound chip
    0000000F E5               [11]  527 	push	hl
    00000010 CDr2Ar01         [17]  528 	call	_VGM_Pause
    00000013 E1               [10]  529 	pop	hl
                                    530 ;./libs/vgm_player.c:99: g_VGM_Header = (VGM_Header*)addr;
    00000014 22r00r00         [16]  531 	ld	(_g_VGM_Header), hl
                                    532 ;./libs/vgm_player.c:101: if (g_VGM_Header->Ident != VGM_IDENT)
    00000017 2Ar00r00         [16]  533 	ld	hl, (_g_VGM_Header)
    0000001A E3               [19]  534 	ex	(sp), hl
    0000001B D1               [10]  535 	pop	de
    0000001C D5               [11]  536 	push	de
    0000001D 21 02 00         [10]  537 	ld	hl, #2
    00000020 39               [11]  538 	add	hl, sp
    00000021 EB               [ 4]  539 	ex	de, hl
    00000022 01 04 00         [10]  540 	ld	bc, #0x0004
    00000025 ED B0            [21]  541 	ldir
    00000027 2ArE1r00         [16]  542 	ld	hl, (#___str_0 + 0)
    0000002A ED 4BrE3r00      [20]  543 	ld	bc, (#___str_0 + 2)
    0000002E DD 5E FC         [19]  544 	ld	e, -4 (ix)
    00000031 DD 56 FD         [19]  545 	ld	d, -3 (ix)
    00000034 BF               [ 4]  546 	cp	a, a
    00000035 ED 52            [15]  547 	sbc	hl, de
    00000037 20 0B            [12]  548 	jr	NZ, 00151$
    00000039 DD 6E FE         [19]  549 	ld	l, -2 (ix)
    0000003C DD 66 FF         [19]  550 	ld	h, -1 (ix)
    0000003F BF               [ 4]  551 	cp	a, a
    00000040 ED 42            [15]  552 	sbc	hl, bc
    00000042 28 04            [12]  553 	jr	Z, 00102$
    00000044                        554 00151$:
                                    555 ;./libs/vgm_player.c:102: return FALSE;
    00000044 AF               [ 4]  556 	xor	a, a
    00000045 C3rDAr00         [10]  557 	jp	00119$
    00000048                        558 00102$:
                                    559 ;./libs/vgm_player.c:104: g_VGM_State = VGM_STATE_PLAY;
    00000048 FD 21r0Ar00      [14]  560 	ld	iy, #_g_VGM_State
    0000004C FD 36 00 80      [19]  561 	ld	0 (iy), #0x80
                                    562 ;./libs/vgm_player.c:105: if (loop)
    00000050 DD 7E 04         [19]  563 	ld	a, 4 (ix)
    00000053 B7               [ 4]  564 	or	a, a
    00000054 28 04            [12]  565 	jr	Z, 00104$
                                    566 ;./libs/vgm_player.c:106: g_VGM_State |= VGM_STATE_LOOP;
    00000056 FD 36 00 82      [19]  567 	ld	0 (iy), #0x82
    0000005A                        568 00104$:
                                    569 ;./libs/vgm_player.c:109: g_VGM_Pointer = (u8*)((u16)&g_VGM_Header->Data_offset + (u16)g_VGM_Header->Data_offset);
    0000005A E1               [10]  570 	pop	hl
    0000005B E5               [11]  571 	push	hl
    0000005C 11 34 00         [10]  572 	ld	de, #0x0034
    0000005F 19               [11]  573 	add	hl, de
    00000060 4D               [ 4]  574 	ld	c, l
    00000061 44               [ 4]  575 	ld	b, h
    00000062 7E               [ 7]  576 	ld	a, (hl)
    00000063 23               [ 6]  577 	inc	hl
    00000064 66               [ 7]  578 	ld	h, (hl)
                                    579 ;	spillPairReg hl
    00000065 6F               [ 4]  580 	ld	l, a
    00000066 09               [11]  581 	add	hl, bc
    00000067 22r02r00         [16]  582 	ld	(_g_VGM_Pointer), hl
                                    583 ;./libs/vgm_player.c:112: g_VGM_DataStart = g_VGM_Pointer; 
    0000006A 2Ar02r00         [16]  584 	ld	hl, (_g_VGM_Pointer)
    0000006D 22r0Cr00         [16]  585 	ld	(_g_VGM_DataStart), hl
                                    586 ;./libs/vgm_player.c:115: g_VGM_Config = 0; 
    00000070 FD 21r0Br00      [14]  587 	ld	iy, #_g_VGM_Config
    00000074 FD 36 00 00      [19]  588 	ld	0 (iy), #0x00
                                    589 ;./libs/vgm_player.c:118: u16 startAddr = (u16)g_VGM_Pointer; 
    00000078 2Ar02r00         [16]  590 	ld	hl, (_g_VGM_Pointer)
                                    591 ;./libs/vgm_player.c:120: if (startAddr >= 0x8000 && startAddr < VGM_BANK_LIMIT) 
    0000007B 7C               [ 4]  592 	ld	a,h
    0000007C FE 80            [ 7]  593 	cp	a,#0x80
    0000007E 38 08            [12]  594 	jr	C, 00106$
    00000080 D6 C0            [ 7]  595 	sub	a, #0xc0
    00000082 30 04            [12]  596 	jr	NC, 00106$
                                    597 ;./libs/vgm_player.c:122: g_VGM_Config |= VGM_CFG_MAPPED; 
    00000084 FD 36 00 01      [19]  598 	ld	0 (iy), #0x01
    00000088                        599 00106$:
                                    600 ;./libs/vgm_player.c:128: if (g_VGM_Header->Loop_offset){
    00000088 E1               [10]  601 	pop	hl
    00000089 E5               [11]  602 	push	hl
    0000008A 11 1C 00         [10]  603 	ld	de, #0x001c
    0000008D 19               [11]  604 	add	hl, de
    0000008E E5               [11]  605 	push	hl
    0000008F 4E               [ 7]  606 	ld	c, (hl)
    00000090 23               [ 6]  607 	inc	hl
    00000091 46               [ 7]  608 	ld	b, (hl)
    00000092 23               [ 6]  609 	inc	hl
    00000093 5E               [ 7]  610 	ld	e, (hl)
    00000094 23               [ 6]  611 	inc	hl
    00000095 56               [ 7]  612 	ld	d, (hl)
    00000096 E1               [10]  613 	pop	hl
    00000097 7A               [ 4]  614 	ld	a, d
    00000098 B3               [ 4]  615 	or	a, e
    00000099 B0               [ 4]  616 	or	a, b
    0000009A B1               [ 4]  617 	or	a, c
    0000009B 28 07            [12]  618 	jr	Z, 00109$
                                    619 ;./libs/vgm_player.c:129: u32 absoluteLoopOffset = (u32)&g_VGM_Header->Loop_offset + g_VGM_Header->Loop_offset;
    0000009D 09               [11]  620 	add	hl, bc
                                    621 ;./libs/vgm_player.c:130: g_VGM_Loop = (u8*)(u16)absoluteLoopOffset;
    0000009E 22r04r00         [16]  622 	ld	(_g_VGM_Loop), hl
    000000A1 C3rAAr00         [10]  623 	jp	00110$
    000000A4                        624 00109$:
                                    625 ;./libs/vgm_player.c:133: g_VGM_Loop = 0;
    000000A4 21 00 00         [10]  626 	ld	hl, #0x0000
    000000A7 22r04r00         [16]  627 	ld	(_g_VGM_Loop), hl
    000000AA                        628 00110$:
                                    629 ;./libs/vgm_player.c:136: g_VGM_WaitCount = 0;
    000000AA 21 00 00         [10]  630 	ld	hl, #0x0000
    000000AD 22r06r00         [16]  631 	ld	(_g_VGM_WaitCount), hl
                                    632 ;E:/Dropbox/FAUSTO/SVILUPPI/MSX/CODE/C/MSXgl/engine/src/system.h:190: inline u8 Sys_GetBIOSInfo() { return g_BASRVN[0]; }
    000000B0 3A 2B 00         [13]  633 	ld	a, (#_g_BASRVN + 0)
                                    634 ;E:/Dropbox/FAUSTO/SVILUPPI/MSX/CODE/C/MSXgl/engine/src/system.h:205: inline u8 Sys_GetFrequency() { return Sys_GetBIOSInfo() & 0x80; }
    000000B3 E6 80            [ 7]  635 	and	a, #0x80
                                    636 ;E:/Dropbox/FAUSTO/SVILUPPI/MSX/CODE/C/MSXgl/engine/src/system.h:219: inline bool Sys_Is50Hz() { return Sys_GetFrequency() == SYS_FREQ_50HZ; }
    000000B5 D6 80            [ 7]  637 	sub	a, #0x80
    000000B7 20 11            [12]  638 	jr	NZ, 00112$
                                    639 ;./libs/vgm_player.c:138: if (Sys_Is50Hz())
                                    640 ;./libs/vgm_player.h:119: inline void VGM_SetFrequency50Hz() { g_VGM_State |= VGM_STATE_50HZ; g_VGM_WaitFrame = VGM_WAIT_50HZ; }
    000000B9 3Ar0Ar00         [13]  641 	ld	a, (_g_VGM_State+0)
    000000BC F6 01            [ 7]  642 	or	a, #0x01
    000000BE 32r0Ar00         [13]  643 	ld	(_g_VGM_State+0), a
    000000C1 21 72 03         [10]  644 	ld	hl, #0x0372
    000000C4 22r08r00         [16]  645 	ld	(_g_VGM_WaitFrame), hl
                                    646 ;./libs/vgm_player.c:139: VGM_SetFrequency50Hz();
    000000C7 C3rD8r00         [10]  647 	jp	00113$
    000000CA                        648 00112$:
                                    649 ;./libs/vgm_player.h:123: inline void VGM_SetFrequency60Hz() { g_VGM_State &= ~VGM_STATE_50HZ; g_VGM_WaitFrame = VGM_WAIT_60HZ; }
    000000CA 3Ar0Ar00         [13]  650 	ld	a, (_g_VGM_State+0)
    000000CD E6 FE            [ 7]  651 	and	a, #0xfe
    000000CF 32r0Ar00         [13]  652 	ld	(_g_VGM_State+0), a
    000000D2 21 DF 02         [10]  653 	ld	hl, #0x02df
    000000D5 22r08r00         [16]  654 	ld	(_g_VGM_WaitFrame), hl
                                    655 ;./libs/vgm_player.c:141: VGM_SetFrequency60Hz();
    000000D8                        656 00113$:
                                    657 ;./libs/vgm_player.c:143: return TRUE;
    000000D8 3E 01            [ 7]  658 	ld	a, #0x01
    000000DA                        659 00119$:
                                    660 ;./libs/vgm_player.c:144: }
    000000DA DD F9            [10]  661 	ld	sp, ix
    000000DC DD E1            [14]  662 	pop	ix
    000000DE E1               [10]  663 	pop	hl
    000000DF 33               [ 6]  664 	inc	sp
    000000E0 E9               [ 4]  665 	jp	(hl)
    000000E1                        666 ___str_0:
    000000E1 56 67 6D 20            667 	.ascii "Vgm "
    000000E5 00                     668 	.db 0x00
                                    669 ;./libs/vgm_player.c:148: void VGM_Resume()
                                    670 ;	---------------------------------
                                    671 ; Function VGM_Resume
                                    672 ; ---------------------------------
    000000E6                        673 _VGM_Resume::
                                    674 ;./libs/vgm_player.c:150: g_VGM_State |= VGM_STATE_PLAY;
    000000E6 3Ar0Ar00         [13]  675 	ld	a, (_g_VGM_State+0)
    000000E9 F6 80            [ 7]  676 	or	a, #0x80
    000000EB 32r0Ar00         [13]  677 	ld	(_g_VGM_State+0), a
                                    678 ;./libs/vgm_player.h:149: inline bool VGM_ContainsPSG() { return (g_VGM_Header->Version >= 0x0151) && g_VGM_Header->AY8910_clock; }
    000000EE ED 4Br00r00      [20]  679 	ld	bc, (_g_VGM_Header)
    000000F2 59               [ 4]  680 	ld	e, c
    000000F3 50               [ 4]  681 	ld	d, b
    000000F4 21 08 00         [10]  682 	ld	hl, #8
    000000F7 19               [11]  683 	add	hl, de
    000000F8 5E               [ 7]  684 	ld	e, (hl)
    000000F9 23               [ 6]  685 	inc	hl
    000000FA 56               [ 7]  686 	ld	d, (hl)
    000000FB 23               [ 6]  687 	inc	hl
    000000FC 23               [ 6]  688 	inc	hl
    000000FD 7E               [ 7]  689 	ld	a, (hl)
    000000FE 2B               [ 6]  690 	dec	hl
    000000FF 6E               [ 7]  691 	ld	l, (hl)
                                    692 ;	spillPairReg hl
    00000100 67               [ 4]  693 	ld	h, a
                                    694 ;	spillPairReg hl
                                    695 ;	spillPairReg hl
    00000101 7B               [ 4]  696 	ld	a, e
    00000102 D6 51            [ 7]  697 	sub	a, #0x51
    00000104 7A               [ 4]  698 	ld	a, d
    00000105 DE 01            [ 7]  699 	sbc	a, #0x01
    00000107 11 00 00         [10]  700 	ld	de, #0x0000
    0000010A ED 52            [15]  701 	sbc	hl, de
    0000010C 38 11            [12]  702 	jr	C, 00106$
    0000010E 21 74 00         [10]  703 	ld	hl, #116
    00000111 09               [11]  704 	add	hl, bc
    00000112 4E               [ 7]  705 	ld	c, (hl)
    00000113 23               [ 6]  706 	inc	hl
    00000114 46               [ 7]  707 	ld	b, (hl)
    00000115 23               [ 6]  708 	inc	hl
    00000116 5E               [ 7]  709 	ld	e, (hl)
    00000117 23               [ 6]  710 	inc	hl
    00000118 56               [ 7]  711 	ld	d, (hl)
    00000119 7A               [ 4]  712 	ld	a, d
    0000011A B3               [ 4]  713 	or	a, e
    0000011B B0               [ 4]  714 	or	a, b
    0000011C B1               [ 4]  715 	or	a, c
    0000011D 20 04            [12]  716 	jr	NZ, 00107$
    0000011F                        717 00106$:
    0000011F AF               [ 4]  718 	xor	a, a
    00000120 C3r25r01         [10]  719 	jp	00108$
    00000123                        720 00107$:
    00000123 3E 01            [ 7]  721 	ld	a, #0x01
    00000125                        722 00108$:
                                    723 ;./libs/vgm_player.c:153: if (VGM_ContainsPSG())
    00000125 B7               [ 4]  724 	or	a, a
                                    725 ;./libs/vgm_player.c:154: PSG_Resume();
    00000126 C2r00r00         [10]  726 	jp	NZ,_PSG_Resume
                                    727 ;./libs/vgm_player.c:171: }
    00000129 C9               [10]  728 	ret
                                    729 ;./libs/vgm_player.c:175: void VGM_Pause()
                                    730 ;	---------------------------------
                                    731 ; Function VGM_Pause
                                    732 ; ---------------------------------
    0000012A                        733 _VGM_Pause::
                                    734 ;./libs/vgm_player.c:177: g_VGM_State &= ~VGM_STATE_PLAY;
    0000012A 3Ar0Ar00         [13]  735 	ld	a, (_g_VGM_State+0)
    0000012D E6 7F            [ 7]  736 	and	a, #0x7f
    0000012F 32r0Ar00         [13]  737 	ld	(_g_VGM_State+0), a
                                    738 ;./libs/vgm_player.c:179: PSG_Mute();
                                    739 ;./libs/vgm_player.c:192: }
    00000132 C3r00r00         [10]  740 	jp	_PSG_Mute
                                    741 ;./libs/vgm_player.c:196: void VGM_Stop()
                                    742 ;	---------------------------------
                                    743 ; Function VGM_Stop
                                    744 ; ---------------------------------
    00000135                        745 _VGM_Stop::
                                    746 ;./libs/vgm_player.c:198: VGM_Pause();
    00000135 CDr2Ar01         [17]  747 	call	_VGM_Pause
                                    748 ;./libs/vgm_player.c:199: g_VGM_Pointer = (u8*)((u16)&g_VGM_Header->Data_offset + (u16)g_VGM_Header->Data_offset);
    00000138 2Ar00r00         [16]  749 	ld	hl, (_g_VGM_Header)
    0000013B 01 34 00         [10]  750 	ld	bc, #0x0034
    0000013E 09               [11]  751 	add	hl, bc
    0000013F 4D               [ 4]  752 	ld	c, l
    00000140 44               [ 4]  753 	ld	b, h
    00000141 7E               [ 7]  754 	ld	a, (hl)
    00000142 23               [ 6]  755 	inc	hl
    00000143 66               [ 7]  756 	ld	h, (hl)
                                    757 ;	spillPairReg hl
    00000144 6F               [ 4]  758 	ld	l, a
    00000145 09               [11]  759 	add	hl, bc
    00000146 22r02r00         [16]  760 	ld	(_g_VGM_Pointer), hl
                                    761 ;./libs/vgm_player.c:200: g_VGM_WaitCount = 0;
    00000149 21 00 00         [10]  762 	ld	hl, #0x0000
    0000014C 22r06r00         [16]  763 	ld	(_g_VGM_WaitCount), hl
                                    764 ;./libs/vgm_player.c:201: }
    0000014F C9               [10]  765 	ret
                                    766 ;./libs/vgm_player.c:206: void VGM_Decode()
                                    767 ;	---------------------------------
                                    768 ; Function VGM_Decode
                                    769 ; ---------------------------------
    00000150                        770 _VGM_Decode::
    00000150 DD E5            [15]  771 	push	ix
    00000152 DD 21 00 00      [14]  772 	ld	ix,#0
    00000156 DD 39            [15]  773 	add	ix,sp
    00000158 F5               [11]  774 	push	af
                                    775 ;./libs/vgm_player.c:208: if (!(g_VGM_State & VGM_STATE_PLAY))
    00000159 3Ar0Ar00         [13]  776 	ld	a, (_g_VGM_State+0)
    0000015C 07               [ 4]  777 	rlca
    0000015D D2r94r03         [10]  778 	jp	NC,00177$
                                    779 ;./libs/vgm_player.c:209: return;
    00000160 C3r63r01         [10]  780 	jp	00174$
                                    781 ;./libs/vgm_player.c:212: while (g_VGM_WaitCount < g_VGM_WaitFrame)
    00000163                        782 00174$:
    00000163 21r08r00         [10]  783 	ld	hl, #_g_VGM_WaitFrame
    00000166 3Ar06r00         [13]  784 	ld	a, (_g_VGM_WaitCount+0)
    00000169 96               [ 7]  785 	sub	a, (hl)
    0000016A 23               [ 6]  786 	inc	hl
    0000016B 3Ar07r00         [13]  787 	ld	a, (_g_VGM_WaitCount+1)
    0000016E 9E               [ 7]  788 	sbc	a, (hl)
    0000016F D2r84r03         [10]  789 	jp	NC, 00176$
                                    790 ;./libs/vgm_player.c:215: VGM_FETCH_BYTE(cmd); 
    00000172 2Ar02r00         [16]  791 	ld	hl, (_g_VGM_Pointer)
    00000175 4E               [ 7]  792 	ld	c, (hl)
    00000176 2Ar02r00         [16]  793 	ld	hl, (_g_VGM_Pointer)
    00000179 23               [ 6]  794 	inc	hl
    0000017A 22r02r00         [16]  795 	ld	(_g_VGM_Pointer), hl
    0000017D 3Ar0Br00         [13]  796 	ld	a, (_g_VGM_Config+0)
    00000180 0F               [ 4]  797 	rrca
    00000181 30 2D            [12]  798 	jr	NC, 00110$
    00000183 2Ar02r00         [16]  799 	ld	hl, (_g_VGM_Pointer)
    00000186 7D               [ 4]  800 	ld	a, l
    00000187 B7               [ 4]  801 	or	a, a
    00000188 20 26            [12]  802 	jr	NZ, 00110$
    0000018A 7C               [ 4]  803 	ld	a, h
    0000018B D6 C0            [ 7]  804 	sub	a, #0xc0
    0000018D 20 21            [12]  805 	jr	NZ, 00110$
    0000018F 3Ar01r00         [13]  806 	ld	a, (_g_VGM_NotifyCallback+1)
    00000192 21r00r00         [10]  807 	ld	hl, #_g_VGM_NotifyCallback
    00000195 B6               [ 7]  808 	or	a, (hl)
    00000196 28 12            [12]  809 	jr	Z, 00106$
    00000198 C5               [11]  810 	push	bc
    00000199 AF               [ 4]  811 	xor	a, a
    0000019A 2Ar00r00         [16]  812 	ld	hl, (_g_VGM_NotifyCallback)
    0000019D CDr00r00         [17]  813 	call	___sdcc_call_hl
    000001A0 C1               [10]  814 	pop	bc
    000001A1 B7               [ 4]  815 	or	a, a
    000001A2 20 06            [12]  816 	jr	NZ, 00106$
    000001A4 CDr35r01         [17]  817 	call	_VGM_Stop
    000001A7 C3r94r03         [10]  818 	jp	00177$
    000001AA                        819 00106$:
    000001AA 21 00 A0         [10]  820 	ld	hl, #0xa000
    000001AD 22r02r00         [16]  821 	ld	(_g_VGM_Pointer), hl
    000001B0                        822 00110$:
                                    823 ;./libs/vgm_player.c:217: if (cmd == 0xA0) // PSG Write
    000001B0 79               [ 4]  824 	ld	a, c
    000001B1 D6 A0            [ 7]  825 	sub	a, #0xa0
    000001B3 C2r3Ar02         [10]  826 	jp	NZ,00172$
                                    827 ;./libs/vgm_player.c:220: VGM_FETCH_BYTE(reg); 
    000001B6 2Ar02r00         [16]  828 	ld	hl, (_g_VGM_Pointer)
    000001B9 4E               [ 7]  829 	ld	c, (hl)
    000001BA 2Ar02r00         [16]  830 	ld	hl, (_g_VGM_Pointer)
    000001BD 23               [ 6]  831 	inc	hl
    000001BE 22r02r00         [16]  832 	ld	(_g_VGM_Pointer), hl
    000001C1 3Ar0Br00         [13]  833 	ld	a, (_g_VGM_Config+0)
    000001C4 0F               [ 4]  834 	rrca
    000001C5 30 2D            [12]  835 	jr	NC, 00118$
    000001C7 2Ar02r00         [16]  836 	ld	hl, (_g_VGM_Pointer)
    000001CA 7D               [ 4]  837 	ld	a, l
    000001CB B7               [ 4]  838 	or	a, a
    000001CC 20 26            [12]  839 	jr	NZ, 00118$
    000001CE 7C               [ 4]  840 	ld	a, h
    000001CF D6 C0            [ 7]  841 	sub	a, #0xc0
    000001D1 20 21            [12]  842 	jr	NZ, 00118$
    000001D3 3Ar01r00         [13]  843 	ld	a, (_g_VGM_NotifyCallback+1)
    000001D6 21r00r00         [10]  844 	ld	hl, #_g_VGM_NotifyCallback
    000001D9 B6               [ 7]  845 	or	a, (hl)
    000001DA 28 12            [12]  846 	jr	Z, 00114$
    000001DC C5               [11]  847 	push	bc
    000001DD AF               [ 4]  848 	xor	a, a
    000001DE 2Ar00r00         [16]  849 	ld	hl, (_g_VGM_NotifyCallback)
    000001E1 CDr00r00         [17]  850 	call	___sdcc_call_hl
    000001E4 C1               [10]  851 	pop	bc
    000001E5 B7               [ 4]  852 	or	a, a
    000001E6 20 06            [12]  853 	jr	NZ, 00114$
    000001E8 CDr35r01         [17]  854 	call	_VGM_Stop
    000001EB C3r94r03         [10]  855 	jp	00177$
    000001EE                        856 00114$:
    000001EE 21 00 A0         [10]  857 	ld	hl, #0xa000
    000001F1 22r02r00         [16]  858 	ld	(_g_VGM_Pointer), hl
    000001F4                        859 00118$:
                                    860 ;./libs/vgm_player.c:221: VGM_FETCH_BYTE(val); 
    000001F4 2Ar02r00         [16]  861 	ld	hl, (_g_VGM_Pointer)
    000001F7 46               [ 7]  862 	ld	b, (hl)
    000001F8 2Ar02r00         [16]  863 	ld	hl, (_g_VGM_Pointer)
    000001FB 23               [ 6]  864 	inc	hl
    000001FC 22r02r00         [16]  865 	ld	(_g_VGM_Pointer), hl
    000001FF 3Ar0Br00         [13]  866 	ld	a, (_g_VGM_Config+0)
    00000202 0F               [ 4]  867 	rrca
    00000203 30 2D            [12]  868 	jr	NC, 00126$
    00000205 2Ar02r00         [16]  869 	ld	hl, (_g_VGM_Pointer)
    00000208 7D               [ 4]  870 	ld	a, l
    00000209 B7               [ 4]  871 	or	a, a
    0000020A 20 26            [12]  872 	jr	NZ, 00126$
    0000020C 7C               [ 4]  873 	ld	a, h
    0000020D D6 C0            [ 7]  874 	sub	a, #0xc0
    0000020F 20 21            [12]  875 	jr	NZ, 00126$
    00000211 3Ar01r00         [13]  876 	ld	a, (_g_VGM_NotifyCallback+1)
    00000214 21r00r00         [10]  877 	ld	hl, #_g_VGM_NotifyCallback
    00000217 B6               [ 7]  878 	or	a, (hl)
    00000218 28 12            [12]  879 	jr	Z, 00122$
    0000021A C5               [11]  880 	push	bc
    0000021B AF               [ 4]  881 	xor	a, a
    0000021C 2Ar00r00         [16]  882 	ld	hl, (_g_VGM_NotifyCallback)
    0000021F CDr00r00         [17]  883 	call	___sdcc_call_hl
    00000222 C1               [10]  884 	pop	bc
    00000223 B7               [ 4]  885 	or	a, a
    00000224 20 06            [12]  886 	jr	NZ, 00122$
    00000226 CDr35r01         [17]  887 	call	_VGM_Stop
    00000229 C3r94r03         [10]  888 	jp	00177$
    0000022C                        889 00122$:
    0000022C 21 00 A0         [10]  890 	ld	hl, #0xa000
    0000022F 22r02r00         [16]  891 	ld	(_g_VGM_Pointer), hl
    00000232                        892 00126$:
                                    893 ;./libs/vgm_player.c:222: PSG_SetRegister(reg, val); 
    00000232 68               [ 4]  894 	ld	l, b
                                    895 ;	spillPairReg hl
                                    896 ;	spillPairReg hl
    00000233 79               [ 4]  897 	ld	a, c
    00000234 CDr00r00         [17]  898 	call	_PSG_SetRegister
    00000237 C3r63r01         [10]  899 	jp	00174$
    0000023A                        900 00172$:
                                    901 ;./libs/vgm_player.c:265: else if (cmd == 0x61) // Wait n samples
    0000023A 79               [ 4]  902 	ld	a, c
    0000023B D6 61            [ 7]  903 	sub	a, #0x61
    0000023D C2rD3r02         [10]  904 	jp	NZ,00169$
                                    905 ;./libs/vgm_player.c:268: VGM_FETCH_BYTE(lo);
    00000240 2Ar02r00         [16]  906 	ld	hl, (_g_VGM_Pointer)
    00000243 5E               [ 7]  907 	ld	e, (hl)
    00000244 2Ar02r00         [16]  908 	ld	hl, (_g_VGM_Pointer)
    00000247 23               [ 6]  909 	inc	hl
    00000248 22r02r00         [16]  910 	ld	(_g_VGM_Pointer), hl
    0000024B 3Ar0Br00         [13]  911 	ld	a, (_g_VGM_Config+0)
    0000024E 0F               [ 4]  912 	rrca
    0000024F 30 2D            [12]  913 	jr	NC, 00134$
    00000251 2Ar02r00         [16]  914 	ld	hl, (_g_VGM_Pointer)
    00000254 7D               [ 4]  915 	ld	a, l
    00000255 B7               [ 4]  916 	or	a, a
    00000256 20 26            [12]  917 	jr	NZ, 00134$
    00000258 7C               [ 4]  918 	ld	a, h
    00000259 D6 C0            [ 7]  919 	sub	a, #0xc0
    0000025B 20 21            [12]  920 	jr	NZ, 00134$
    0000025D 3Ar01r00         [13]  921 	ld	a, (_g_VGM_NotifyCallback+1)
    00000260 21r00r00         [10]  922 	ld	hl, #_g_VGM_NotifyCallback
    00000263 B6               [ 7]  923 	or	a, (hl)
    00000264 28 12            [12]  924 	jr	Z, 00130$
    00000266 D5               [11]  925 	push	de
    00000267 AF               [ 4]  926 	xor	a, a
    00000268 2Ar00r00         [16]  927 	ld	hl, (_g_VGM_NotifyCallback)
    0000026B CDr00r00         [17]  928 	call	___sdcc_call_hl
    0000026E D1               [10]  929 	pop	de
    0000026F B7               [ 4]  930 	or	a, a
    00000270 20 06            [12]  931 	jr	NZ, 00130$
    00000272 CDr35r01         [17]  932 	call	_VGM_Stop
    00000275 C3r94r03         [10]  933 	jp	00177$
    00000278                        934 00130$:
    00000278 21 00 A0         [10]  935 	ld	hl, #0xa000
    0000027B 22r02r00         [16]  936 	ld	(_g_VGM_Pointer), hl
    0000027E                        937 00134$:
                                    938 ;./libs/vgm_player.c:269: VGM_FETCH_BYTE(hi);
    0000027E 2Ar02r00         [16]  939 	ld	hl, (_g_VGM_Pointer)
    00000281 56               [ 7]  940 	ld	d, (hl)
    00000282 2Ar02r00         [16]  941 	ld	hl, (_g_VGM_Pointer)
    00000285 23               [ 6]  942 	inc	hl
    00000286 22r02r00         [16]  943 	ld	(_g_VGM_Pointer), hl
    00000289 3Ar0Br00         [13]  944 	ld	a, (_g_VGM_Config+0)
    0000028C 0F               [ 4]  945 	rrca
    0000028D 30 2D            [12]  946 	jr	NC, 00142$
    0000028F 2Ar02r00         [16]  947 	ld	hl, (_g_VGM_Pointer)
    00000292 7D               [ 4]  948 	ld	a, l
    00000293 B7               [ 4]  949 	or	a, a
    00000294 20 26            [12]  950 	jr	NZ, 00142$
    00000296 7C               [ 4]  951 	ld	a, h
    00000297 D6 C0            [ 7]  952 	sub	a, #0xc0
    00000299 20 21            [12]  953 	jr	NZ, 00142$
    0000029B 3Ar01r00         [13]  954 	ld	a, (_g_VGM_NotifyCallback+1)
    0000029E 21r00r00         [10]  955 	ld	hl, #_g_VGM_NotifyCallback
    000002A1 B6               [ 7]  956 	or	a, (hl)
    000002A2 28 12            [12]  957 	jr	Z, 00138$
    000002A4 D5               [11]  958 	push	de
    000002A5 AF               [ 4]  959 	xor	a, a
    000002A6 2Ar00r00         [16]  960 	ld	hl, (_g_VGM_NotifyCallback)
    000002A9 CDr00r00         [17]  961 	call	___sdcc_call_hl
    000002AC D1               [10]  962 	pop	de
    000002AD B7               [ 4]  963 	or	a, a
    000002AE 20 06            [12]  964 	jr	NZ, 00138$
    000002B0 CDr35r01         [17]  965 	call	_VGM_Stop
    000002B3 C3r94r03         [10]  966 	jp	00177$
    000002B6                        967 00138$:
    000002B6 21 00 A0         [10]  968 	ld	hl, #0xa000
    000002B9 22r02r00         [16]  969 	ld	(_g_VGM_Pointer), hl
    000002BC                        970 00142$:
                                    971 ;./libs/vgm_player.c:270: g_VGM_WaitCount += lo | ((u16)hi << 8);
    000002BC 42               [ 4]  972 	ld	b, d
    000002BD 0E 00            [ 7]  973 	ld	c, #0x00
    000002BF 51               [ 4]  974 	ld	d, c
    000002C0 7B               [ 4]  975 	ld	a, e
    000002C1 B1               [ 4]  976 	or	a, c
    000002C2 4F               [ 4]  977 	ld	c, a
    000002C3 7A               [ 4]  978 	ld	a, d
    000002C4 B0               [ 4]  979 	or	a, b
    000002C5 5F               [ 4]  980 	ld	e, a
    000002C6 79               [ 4]  981 	ld	a, c
    000002C7 21r06r00         [10]  982 	ld	hl, #_g_VGM_WaitCount
    000002CA 86               [ 7]  983 	add	a, (hl)
    000002CB 77               [ 7]  984 	ld	(hl), a
    000002CC 23               [ 6]  985 	inc	hl
    000002CD 7B               [ 4]  986 	ld	a, e
    000002CE 8E               [ 7]  987 	adc	a, (hl)
    000002CF 77               [ 7]  988 	ld	(hl), a
    000002D0 C3r63r01         [10]  989 	jp	00174$
    000002D3                        990 00169$:
                                    991 ;./libs/vgm_player.c:272: else if (cmd == 0x62) { g_VGM_WaitCount += 735; }
    000002D3 79               [ 4]  992 	ld	a, c
    000002D4 D6 62            [ 7]  993 	sub	a, #0x62
    000002D6 20 0D            [12]  994 	jr	NZ, 00166$
    000002D8 2Ar06r00         [16]  995 	ld	hl, (_g_VGM_WaitCount)
    000002DB 01 DF 02         [10]  996 	ld	bc, #0x02df
    000002DE 09               [11]  997 	add	hl, bc
    000002DF 22r06r00         [16]  998 	ld	(_g_VGM_WaitCount), hl
    000002E2 C3r63r01         [10]  999 	jp	00174$
    000002E5                       1000 00166$:
                                   1001 ;./libs/vgm_player.c:273: else if (cmd == 0x63) { g_VGM_WaitCount += 882; }
    000002E5 79               [ 4] 1002 	ld	a, c
    000002E6 D6 63            [ 7] 1003 	sub	a, #0x63
    000002E8 20 0D            [12] 1004 	jr	NZ, 00163$
    000002EA 2Ar06r00         [16] 1005 	ld	hl, (_g_VGM_WaitCount)
    000002ED 01 72 03         [10] 1006 	ld	bc, #0x0372
    000002F0 09               [11] 1007 	add	hl, bc
    000002F1 22r06r00         [16] 1008 	ld	(_g_VGM_WaitCount), hl
    000002F4 C3r63r01         [10] 1009 	jp	00174$
    000002F7                       1010 00163$:
                                   1011 ;./libs/vgm_player.c:274: else if (cmd == 0x66) // End of sound data
    000002F7 79               [ 4] 1012 	ld	a, c
    000002F8 D6 66            [ 7] 1013 	sub	a, #0x66
    000002FA 20 5F            [12] 1014 	jr	NZ, 00160$
                                   1015 ;./libs/vgm_player.c:276: if (g_VGM_State & VGM_STATE_LOOP)
    000002FC 3Ar0Ar00         [13] 1016 	ld	a, (_g_VGM_State+0)
    000002FF CB 4F            [ 8] 1017 	bit	1, a
    00000301 28 41            [12] 1018 	jr	Z, 00155$
                                   1019 ;./libs/vgm_player.c:279: if (g_VGM_Config & VGM_CFG_MAPPED) {
    00000303 3Ar0Br00         [13] 1020 	ld	a, (_g_VGM_Config+0)
    00000306 0F               [ 4] 1021 	rrca
    00000307 30 1A            [12] 1022 	jr	NC, 00148$
                                   1023 ;./libs/vgm_player.c:280: if (g_VGM_NotifyCallback) {
    00000309 3Ar01r00         [13] 1024 	ld	a, (_g_VGM_NotifyCallback+1)
    0000030C 21r00r00         [10] 1025 	ld	hl, #_g_VGM_NotifyCallback
    0000030F B6               [ 7] 1026 	or	a, (hl)
    00000310 28 11            [12] 1027 	jr	Z, 00148$
                                   1028 ;./libs/vgm_player.c:281: if (!g_VGM_NotifyCallback(1)) { 
    00000312 3E 01            [ 7] 1029 	ld	a, #0x01
    00000314 2Ar00r00         [16] 1030 	ld	hl, (_g_VGM_NotifyCallback)
    00000317 CDr00r00         [17] 1031 	call	___sdcc_call_hl
    0000031A B7               [ 4] 1032 	or	a, a
    0000031B 20 06            [12] 1033 	jr	NZ, 00148$
                                   1034 ;./libs/vgm_player.c:282: VGM_Stop();
    0000031D CDr35r01         [17] 1035 	call	_VGM_Stop
                                   1036 ;./libs/vgm_player.c:283: return;
    00000320 C3r94r03         [10] 1037 	jp	00177$
    00000323                       1038 00148$:
                                   1039 ;./libs/vgm_player.c:291: if (g_VGM_Loop != 0)
    00000323 3Ar05r00         [13] 1040 	ld	a, (_g_VGM_Loop+1)
    00000326 21r04r00         [10] 1041 	ld	hl, #_g_VGM_Loop
    00000329 B6               [ 7] 1042 	or	a, (hl)
    0000032A 28 09            [12] 1043 	jr	Z, 00150$
                                   1044 ;./libs/vgm_player.c:292: g_VGM_Pointer = g_VGM_Loop;
    0000032C 2Ar04r00         [16] 1045 	ld	hl, (_g_VGM_Loop)
    0000032F 22r02r00         [16] 1046 	ld	(_g_VGM_Pointer), hl
    00000332 C3r3Br03         [10] 1047 	jp	00151$
    00000335                       1048 00150$:
                                   1049 ;./libs/vgm_player.c:294: g_VGM_Pointer = g_VGM_DataStart;
    00000335 2Ar0Cr00         [16] 1050 	ld	hl, (_g_VGM_DataStart)
    00000338 22r02r00         [16] 1051 	ld	(_g_VGM_Pointer), hl
    0000033B                       1052 00151$:
                                   1053 ;./libs/vgm_player.c:296: g_VGM_WaitCount = 0;
    0000033B 21 00 00         [10] 1054 	ld	hl, #0x0000
    0000033E 22r06r00         [16] 1055 	ld	(_g_VGM_WaitCount), hl
                                   1056 ;./libs/vgm_player.c:297: continue; 
    00000341 C3r63r01         [10] 1057 	jp	00174$
    00000344                       1058 00155$:
                                   1059 ;./libs/vgm_player.c:301: if (g_VGM_NotifyCallback) g_VGM_NotifyCallback(0xFF);
    00000344 3Ar01r00         [13] 1060 	ld	a, (_g_VGM_NotifyCallback+1)
    00000347 21r00r00         [10] 1061 	ld	hl, #_g_VGM_NotifyCallback
    0000034A B6               [ 7] 1062 	or	a, (hl)
    0000034B 28 08            [12] 1063 	jr	Z, 00153$
    0000034D 3E FF            [ 7] 1064 	ld	a, #0xff
    0000034F 2Ar00r00         [16] 1065 	ld	hl, (_g_VGM_NotifyCallback)
    00000352 CDr00r00         [17] 1066 	call	___sdcc_call_hl
    00000355                       1067 00153$:
                                   1068 ;./libs/vgm_player.c:302: VGM_Stop();
    00000355 CDr35r01         [17] 1069 	call	_VGM_Stop
                                   1070 ;./libs/vgm_player.c:303: return;
    00000358 C3r94r03         [10] 1071 	jp	00177$
    0000035B                       1072 00160$:
                                   1073 ;./libs/vgm_player.c:306: else if ((cmd & 0xF0) == 0x70) 
    0000035B DD 71 FE         [19] 1074 	ld	-2 (ix), c
    0000035E DD 36 FF 00      [19] 1075 	ld	-1 (ix), #0x00
    00000362 DD 7E FE         [19] 1076 	ld	a, -2 (ix)
    00000365 E6 F0            [ 7] 1077 	and	a, #0xf0
    00000367 4F               [ 4] 1078 	ld	c, a
    00000368 06 00            [ 7] 1079 	ld	b, #0x00
    0000036A 79               [ 4] 1080 	ld	a, c
    0000036B D6 70            [ 7] 1081 	sub	a, #0x70
    0000036D B0               [ 4] 1082 	or	a, b
    0000036E C2r63r01         [10] 1083 	jp	NZ,00174$
                                   1084 ;./libs/vgm_player.c:308: g_VGM_WaitCount += 1 + (cmd & 0x0F);
    00000371 DD 7E FE         [19] 1085 	ld	a, -2 (ix)
    00000374 E6 0F            [ 7] 1086 	and	a, #0x0f
    00000376 06 00            [ 7] 1087 	ld	b, #0x00
    00000378 4F               [ 4] 1088 	ld	c, a
    00000379 03               [ 6] 1089 	inc	bc
    0000037A 2Ar06r00         [16] 1090 	ld	hl, (_g_VGM_WaitCount)
    0000037D 09               [11] 1091 	add	hl, bc
    0000037E 22r06r00         [16] 1092 	ld	(_g_VGM_WaitCount), hl
    00000381 C3r63r01         [10] 1093 	jp	00174$
    00000384                       1094 00176$:
                                   1095 ;./libs/vgm_player.c:312: g_VGM_WaitCount -= g_VGM_WaitFrame;
    00000384 21r08r00         [10] 1096 	ld	hl, #_g_VGM_WaitFrame
    00000387 D5               [11] 1097 	push	de
    00000388 11r06r00         [10] 1098 	ld	de, #_g_VGM_WaitCount
    0000038B 1A               [ 7] 1099 	ld	a, (de)
    0000038C 96               [ 7] 1100 	sub	a, (hl)
    0000038D 23               [ 6] 1101 	inc	hl
    0000038E 12               [ 7] 1102 	ld	(de), a
    0000038F 13               [ 6] 1103 	inc	de
    00000390 1A               [ 7] 1104 	ld	a, (de)
    00000391 9E               [ 7] 1105 	sbc	a, (hl)
    00000392 12               [ 7] 1106 	ld	(de), a
    00000393 D1               [10] 1107 	pop	de
    00000394                       1108 00177$:
                                   1109 ;./libs/vgm_player.c:313: }
    00000394 DD F9            [10] 1110 	ld	sp, ix
    00000396 DD E1            [14] 1111 	pop	ix
    00000398 C9               [10] 1112 	ret
                                   1113 	.area _CODE
                                   1114 	.area _INITIALIZER
    00000000                       1115 __xinit__g_VGM_NotifyCallback:
    00000000 00 00                 1116 	.dw #0x0000
                                   1117 	.area _CABS (ABS)
